###############################################################################
#                                                                             #
# IAR C/C++ Compiler V7.51A/W32 for 8051                30/Nov/2010  10:23:59 #
# Copyright 2004-2009 IAR Systems AB.                                         #
#                                                                             #
#    Core               =  plain                                              #
#    Code model         =  banked                                             #
#    Data model         =  large                                              #
#    Calling convention =  xdata reentrant                                    #
#    Constant location  =  data_rom                                           #
#    Dptr setup         =  1,16                                               #
#    Source file        =  D:\R.D Dept\程式開發\TI CC2530 example\ZIGBEE      #
#                          Z-Stack\CC2530_ZStack-2.3.0-1.4.0\Sensor Network   #
#                          Example\Projects\zstack\Sensor Network             #
#                          Application\ZIGBEE Endpoint &                      #
#                          Device\Source\OSAL_ZIGBEE Device.c                 #
#    Command line       =  -f "D:\R.D Dept\程式開發\TI CC2530 example\ZIGBEE  #
#                          Z-Stack\CC2530_ZStack-2.3.0-1.4.0\Sensor Network   #
#                          Example\Projects\zstack\Sensor Network             #
#                          Application\ZIGBEE Endpoint &                      #
#                          Device\CC2530DB\..\..\..\Tools\CC2530DB\f8wEndev.c #
#                          fg" (-DCPU32MHZ -DROOT=__near_func -DBLINK_LEDS)   #
#                          -f "D:\R.D Dept\程式開發\TI CC2530 example\ZIGBEE  #
#                          Z-Stack\CC2530_ZStack-2.3.0-1.4.0\Sensor Network   #
#                          Example\Projects\zstack\Sensor Network             #
#                          Application\ZIGBEE Endpoint &                      #
#                          Device\CC2530DB\..\..\..\Tools\CC2530DB\f8wConfig. #
#                          cfg" (-DSECURE=0 -DZG_SECURE_DYNAMIC=0             #
#                          -DREFLECTOR -DDEFAULT_CHANLIST=0x00000800          #
#                          -DZDAPP_CONFIG_PAN_ID=0xFFFF                       #
#                          -DNWK_START_DELAY=100 -DEXTENDED_JOINING_RANDOM_MA #
#                          SK=0x007F -DBEACON_REQUEST_DELAY=100               #
#                          -DBEACON_REQ_DELAY_MASK=0x00FF                     #
#                          -DROUTE_EXPIRY_TIME=30 -DAPSC_ACK_WAIT_DURATION_PO #
#                          LLED=3000 -DNWK_INDIRECT_MSG_TIMEOUT=7             #
#                          -DMAX_RREQ_ENTRIES=8 -DAPSC_MAX_FRAME_RETRIES=3    #
#                          -DNWK_MAX_DATA_RETRIES=2                           #
#                          -DMAX_POLL_FAILURE_RETRIES=2 -DMAX_BCAST=9         #
#                          -DAPS_MAX_GROUPS=16 -DMAX_RTG_ENTRIES=40           #
#                          -DNWK_MAX_BINDING_ENTRIES=4                        #
#                          -DMAX_BINDING_CLUSTER_IDS=4 "-DDEFAULT_KEY={0x01,  #
#                          0x03, 0x05, 0x07, 0x09, 0x0B, 0x0D, 0x0F, 0x00,    #
#                          0x02, 0x04, 0x06, 0x08, 0x0A, 0x0C, 0x0D}"         #
#                          -DMAC_MAX_FRAME_SIZE=116 "-DCONST=const __code"    #
#                          -DGENERIC=__generic -DRFD_RCVC_ALWAYS_ON=TRUE      #
#                          -DPOLL_RATE=1000 -DQUEUED_POLL_RATE=100            #
#                          -DRESPONSE_POLL_RATE=100 -DREJOIN_POLL_RATE=440)   #
#                          -f "D:\R.D Dept\程式開發\TI CC2530 example\ZIGBEE  #
#                          Z-Stack\CC2530_ZStack-2.3.0-1.4.0\Sensor Network   #
#                          Example\Projects\zstack\Sensor Network             #
#                          Application\ZIGBEE Endpoint &                      #
#                          Device\CC2530DB\..\..\..\Tools\CC2530DB\f8wZCL.cfg #
#                          " (-DZCL_READ -DZCL_WRITE -DZCL_BASIC              #
#                          -DZCL_IDENTIFY -DZCL_ON_OFF -DZCL_KEY_ESTABLISH    #
#                          -DZCL_LOAD_CONTROL -DZCL_SIMPLE_METERING           #
#                          -DZCL_PRICING) -DZCL_MESSAGE "D:\R.D               #
#                          Dept\程式開發\TI CC2530 example\ZIGBEE             #
#                          Z-Stack\CC2530_ZStack-2.3.0-1.4.0\Sensor Network   #
#                          Example\Projects\zstack\Sensor Network             #
#                          Application\ZIGBEE Endpoint &                      #
#                          Device\Source\OSAL_ZIGBEE Device.c" -D             #
#                          LCD_SUPPORTED=DEBUG -D NWK_AUTO_POLL -D ZTOOL_P1   #
#                          -D MT_APP_FUNC -D MT_SYS_FUNC -D MT_ZDO_FUNC -D    #
#                          MT_TASK -D xPOWER_SAVING -D xNV_RESTORE -D         #
#                          End_Device -D M310 -D xHAL_KEYPAD -D xPA2591 -lC   #
#                          "D:\R.D Dept\程式開發\TI CC2530 example\ZIGBEE     #
#                          Z-Stack\CC2530_ZStack-2.3.0-1.4.0\Sensor Network   #
#                          Example\Projects\zstack\Sensor Network             #
#                          Application\ZIGBEE Endpoint &                      #
#                          Device\CC2530DB\EndDeviceEB_M310\List\" -lA        #
#                          "D:\R.D Dept\程式開發\TI CC2530 example\ZIGBEE     #
#                          Z-Stack\CC2530_ZStack-2.3.0-1.4.0\Sensor Network   #
#                          Example\Projects\zstack\Sensor Network             #
#                          Application\ZIGBEE Endpoint &                      #
#                          Device\CC2530DB\EndDeviceEB_M310\List\"            #
#                          --diag_suppress Pe001,Pa010 -o "D:\R.D             #
#                          Dept\程式開發\TI CC2530 example\ZIGBEE             #
#                          Z-Stack\CC2530_ZStack-2.3.0-1.4.0\Sensor Network   #
#                          Example\Projects\zstack\Sensor Network             #
#                          Application\ZIGBEE Endpoint &                      #
#                          Device\CC2530DB\EndDeviceEB_M310\Obj\" -e          #
#                          --require_prototypes --debug --core=plain          #
#                          --dptr=16,1 --data_model=large                     #
#                          --code_model=banked --calling_convention=xdata_ree #
#                          ntrant --place_constants=data_rom                  #
#                          --nr_virtual_regs 16 -I "D:\R.D Dept\程式開發\TI   #
#                          CC2530 example\ZIGBEE Z-Stack\CC2530_ZStack-2.3.0- #
#                          1.4.0\Sensor Network Example\Projects\zstack\Senso #
#                          r Network Application\ZIGBEE Endpoint &            #
#                          Device\CC2530DB\" -I "D:\R.D Dept\程式開發\TI      #
#                          CC2530 example\ZIGBEE Z-Stack\CC2530_ZStack-2.3.0- #
#                          1.4.0\Sensor Network Example\Projects\zstack\Senso #
#                          r Network Application\ZIGBEE Endpoint &            #
#                          Device\CC2530DB\..\SOURCE\" -I "D:\R.D             #
#                          Dept\程式開發\TI CC2530 example\ZIGBEE             #
#                          Z-Stack\CC2530_ZStack-2.3.0-1.4.0\Sensor Network   #
#                          Example\Projects\zstack\Sensor Network             #
#                          Application\ZIGBEE Endpoint &                      #
#                          Device\CC2530DB\..\..\SOURCE\" -I "D:\R.D          #
#                          Dept\程式開發\TI CC2530 example\ZIGBEE             #
#                          Z-Stack\CC2530_ZStack-2.3.0-1.4.0\Sensor Network   #
#                          Example\Projects\zstack\Sensor Network             #
#                          Application\ZIGBEE Endpoint &                      #
#                          Device\CC2530DB\..\..\..\ZMAIN\TI2530DB\" -I       #
#                          "D:\R.D Dept\程式開發\TI CC2530 example\ZIGBEE     #
#                          Z-Stack\CC2530_ZStack-2.3.0-1.4.0\Sensor Network   #
#                          Example\Projects\zstack\Sensor Network             #
#                          Application\ZIGBEE Endpoint &                      #
#                          Device\CC2530DB\..\..\..\..\..\COMPONENTS\MT\" -I  #
#                          "D:\R.D Dept\程式開發\TI CC2530 example\ZIGBEE     #
#                          Z-Stack\CC2530_ZStack-2.3.0-1.4.0\Sensor Network   #
#                          Example\Projects\zstack\Sensor Network             #
#                          Application\ZIGBEE Endpoint &                      #
#                          Device\CC2530DB\..\..\..\..\..\COMPONENTS\HAL\INCL #
#                          UDE\" -I "D:\R.D Dept\程式開發\TI CC2530           #
#                          example\ZIGBEE Z-Stack\CC2530_ZStack-2.3.0-1.4.0\S #
#                          ensor Network Example\Projects\zstack\Sensor       #
#                          Network Application\ZIGBEE Endpoint &              #
#                          Device\CC2530DB\..\..\..\..\..\COMPONENTS\HAL\MODU #
#                          LE\" -I "D:\R.D Dept\程式開發\TI CC2530            #
#                          example\ZIGBEE Z-Stack\CC2530_ZStack-2.3.0-1.4.0\S #
#                          ensor Network Example\Projects\zstack\Sensor       #
#                          Network Application\ZIGBEE Endpoint &              #
#                          Device\CC2530DB\..\..\..\..\..\COMPONENTS\HAL\TARG #
#                          ET\CC2530EB\" -I "D:\R.D Dept\程式開發\TI CC2530   #
#                          example\ZIGBEE Z-Stack\CC2530_ZStack-2.3.0-1.4.0\S #
#                          ensor Network Example\Projects\zstack\Sensor       #
#                          Network Application\ZIGBEE Endpoint &              #
#                          Device\CC2530DB\..\..\..\..\..\COMPONENTS\OSAL\MCU #
#                          \CCSOC\" -I "D:\R.D Dept\程式開發\TI CC2530        #
#                          example\ZIGBEE Z-Stack\CC2530_ZStack-2.3.0-1.4.0\S #
#                          ensor Network Example\Projects\zstack\Sensor       #
#                          Network Application\ZIGBEE Endpoint &              #
#                          Device\CC2530DB\..\..\..\..\..\COMPONENTS\OSAL\INC #
#                          LUDE\" -I "D:\R.D Dept\程式開發\TI CC2530          #
#                          example\ZIGBEE Z-Stack\CC2530_ZStack-2.3.0-1.4.0\S #
#                          ensor Network Example\Projects\zstack\Sensor       #
#                          Network Application\ZIGBEE Endpoint &              #
#                          Device\CC2530DB\..\..\..\..\..\COMPONENTS\STACK\AF #
#                          \" -I "D:\R.D Dept\程式開發\TI CC2530              #
#                          example\ZIGBEE Z-Stack\CC2530_ZStack-2.3.0-1.4.0\S #
#                          ensor Network Example\Projects\zstack\Sensor       #
#                          Network Application\ZIGBEE Endpoint &              #
#                          Device\CC2530DB\..\..\..\..\..\COMPONENTS\STACK\NW #
#                          K\" -I "D:\R.D Dept\程式開發\TI CC2530             #
#                          example\ZIGBEE Z-Stack\CC2530_ZStack-2.3.0-1.4.0\S #
#                          ensor Network Example\Projects\zstack\Sensor       #
#                          Network Application\ZIGBEE Endpoint &              #
#                          Device\CC2530DB\..\..\..\..\..\COMPONENTS\STACK\SE #
#                          C\" -I "D:\R.D Dept\程式開發\TI CC2530             #
#                          example\ZIGBEE Z-Stack\CC2530_ZStack-2.3.0-1.4.0\S #
#                          ensor Network Example\Projects\zstack\Sensor       #
#                          Network Application\ZIGBEE Endpoint &              #
#                          Device\CC2530DB\..\..\..\..\..\COMPONENTS\STACK\SA #
#                          PI\" -I "D:\R.D Dept\程式開發\TI CC2530            #
#                          example\ZIGBEE Z-Stack\CC2530_ZStack-2.3.0-1.4.0\S #
#                          ensor Network Example\Projects\zstack\Sensor       #
#                          Network Application\ZIGBEE Endpoint &              #
#                          Device\CC2530DB\..\..\..\..\..\COMPONENTS\STACK\SY #
#                          S\" -I "D:\R.D Dept\程式開發\TI CC2530             #
#                          example\ZIGBEE Z-Stack\CC2530_ZStack-2.3.0-1.4.0\S #
#                          ensor Network Example\Projects\zstack\Sensor       #
#                          Network Application\ZIGBEE Endpoint &              #
#                          Device\CC2530DB\..\..\..\..\..\COMPONENTS\STACK\ZC #
#                          L\" -I "D:\R.D Dept\程式開發\TI CC2530             #
#                          example\ZIGBEE Z-Stack\CC2530_ZStack-2.3.0-1.4.0\S #
#                          ensor Network Example\Projects\zstack\Sensor       #
#                          Network Application\ZIGBEE Endpoint &              #
#                          Device\CC2530DB\..\..\..\..\..\COMPONENTS\STACK\ZD #
#                          O\" -I "D:\R.D Dept\程式開發\TI CC2530             #
#                          example\ZIGBEE Z-Stack\CC2530_ZStack-2.3.0-1.4.0\S #
#                          ensor Network Example\Projects\zstack\Sensor       #
#                          Network Application\ZIGBEE Endpoint &              #
#                          Device\CC2530DB\..\..\..\..\..\COMPONENTS\ZMAC\F8W #
#                          \" -I "D:\R.D Dept\程式開發\TI CC2530              #
#                          example\ZIGBEE Z-Stack\CC2530_ZStack-2.3.0-1.4.0\S #
#                          ensor Network Example\Projects\zstack\Sensor       #
#                          Network Application\ZIGBEE Endpoint &              #
#                          Device\CC2530DB\..\..\..\..\..\COMPONENTS\ZMAC\"   #
#                          -I "D:\R.D Dept\程式開發\TI CC2530 example\ZIGBEE  #
#                          Z-Stack\CC2530_ZStack-2.3.0-1.4.0\Sensor Network   #
#                          Example\Projects\zstack\Sensor Network             #
#                          Application\ZIGBEE Endpoint &                      #
#                          Device\CC2530DB\..\..\..\..\..\COMPONENTS\SERVICES #
#                          \SADDR\" -I "D:\R.D Dept\程式開發\TI CC2530        #
#                          example\ZIGBEE Z-Stack\CC2530_ZStack-2.3.0-1.4.0\S #
#                          ensor Network Example\Projects\zstack\Sensor       #
#                          Network Application\ZIGBEE Endpoint &              #
#                          Device\CC2530DB\..\..\..\..\..\COMPONENTS\SERVICES #
#                          \SDATA\" -I "D:\R.D Dept\程式開發\TI CC2530        #
#                          example\ZIGBEE Z-Stack\CC2530_ZStack-2.3.0-1.4.0\S #
#                          ensor Network Example\Projects\zstack\Sensor       #
#                          Network Application\ZIGBEE Endpoint &              #
#                          Device\CC2530DB\..\..\..\..\..\COMPONENTS\MAC\INCL #
#                          UDE\" -I "D:\R.D Dept\程式開發\TI CC2530           #
#                          example\ZIGBEE Z-Stack\CC2530_ZStack-2.3.0-1.4.0\S #
#                          ensor Network Example\Projects\zstack\Sensor       #
#                          Network Application\ZIGBEE Endpoint &              #
#                          Device\CC2530DB\..\..\..\..\..\COMPONENTS\MAC\HIGH #
#                          _LEVEL\" -I "D:\R.D Dept\程式開發\TI CC2530        #
#                          example\ZIGBEE Z-Stack\CC2530_ZStack-2.3.0-1.4.0\S #
#                          ensor Network Example\Projects\zstack\Sensor       #
#                          Network Application\ZIGBEE Endpoint &              #
#                          Device\CC2530DB\..\..\..\..\..\COMPONENTS\MAC\LOW_ #
#                          LEVEL\srf04\" -I "D:\R.D Dept\程式開發\TI CC2530   #
#                          example\ZIGBEE Z-Stack\CC2530_ZStack-2.3.0-1.4.0\S #
#                          ensor Network Example\Projects\zstack\Sensor       #
#                          Network Application\ZIGBEE Endpoint &              #
#                          Device\CC2530DB\..\..\..\..\..\COMPONENTS\MAC\LOW_ #
#                          LEVEL\srf04\SINGLE_CHIP\" -I "C:\IAR               #
#                          Systems\Embedded Workbench for MCS-51              #
#                          V7.51\8051\INC\" -I "C:\IAR Systems\Embedded       #
#                          Workbench for MCS-51 V7.51\8051\INC\CLIB\" -Ohz    #
#    List file          =  D:\R.D Dept\程式開發\TI CC2530 example\ZIGBEE      #
#                          Z-Stack\CC2530_ZStack-2.3.0-1.4.0\Sensor Network   #
#                          Example\Projects\zstack\Sensor Network             #
#                          Application\ZIGBEE Endpoint &                      #
#                          Device\CC2530DB\EndDeviceEB_M310\List\OSAL_ZIGBEE  #
#                          Device.lst                                         #
#    Object file        =  D:\R.D Dept\程式開發\TI CC2530 example\ZIGBEE      #
#                          Z-Stack\CC2530_ZStack-2.3.0-1.4.0\Sensor Network   #
#                          Example\Projects\zstack\Sensor Network             #
#                          Application\ZIGBEE Endpoint &                      #
#                          Device\CC2530DB\EndDeviceEB_M310\Obj\OSAL_ZIGBEE   #
#                          Device.r51                                         #
#                                                                             #
#                                                                             #
###############################################################################

D:\R.D Dept\程式開發\TI CC2530 example\ZIGBEE Z-Stack\CC2530_ZStack-2.3.0-1.4.0\Sensor Network Example\Projects\zstack\Sensor Network Application\ZIGBEE Endpoint & Device\Source\OSAL_ZIGBEE Device.c
      1          /**************************************************************************************************
      2            Filename:       OSAL_SampleSw.c
      3            Revised:        $Date: 2008-02-07 12:10:00 -0800 (Thu, 07 Feb 2008) $
      4            Revision:       $Revision: 16360 $
      5          
      6            Description:    This file contains all the settings and other functions
      7                            that the user should set and change.
      8          
      9            Copyright 2006-2007 Texas Instruments Incorporated. All rights reserved.
     10          
     11            Should you have any questions regarding your right to use this Software,
     12            contact Texas Instruments Incorporated at www.TI.com.
     13          **************************************************************************************************/
     14          
     15          /*********************************************************************
     16           * INCLUDES
     17           */
     18          #include "ZComDef.h"
     19          #include "hal_drivers.h"
     20          #include "OSAL.h"
     21          #include "OSAL_Tasks.h"
     22          
     23          #if defined ( MT_TASK )
     24            #include "MT.h"
     25            #include "MT_TASK.h"
     26          #endif
     27          
     28          #include "nwk.h"
     29          #include "APS.h"
     30          #include "ZDApp.h"
     31          #if defined ( ZIGBEE_FREQ_AGILITY ) || defined ( ZIGBEE_PANID_CONFLICT )
     32            #include "ZDNwkMgr.h"
     33          #endif
     34          #if defined ( ZIGBEE_FRAGMENTATION )
     35            #include "aps_frag.h"
     36          #endif
     37          
     38          #include "zcl_zigbee device.h"
     39          
     40          /*********************************************************************
     41           * GLOBAL VARIABLES
     42           */
     43          
     44          // The order in this table must be identical to the task initialization calls below in osalInitTask.
     45          //pTaskEventHandlerFn為一指向函數,其中每一元素對應一個任務的事件處理函數

   \                                 In  segment XDATA_ROM_C, align 1
     46          const pTaskEventHandlerFn tasksArr[] = {
   \                     tasksArr:
   \   000000   ........     DW ??macEventLoop?relay, ??nwk_event_loop?relay
   \   000004   ........     DW ??Hal_ProcessEvent?relay, ??MT_ProcessEvent?relay
   \   000008   ........     DW ??APS_event_loop?relay, ??ZDApp_event_loop?relay
   \   00000C   ........     DW ??ZDNwkMgr_event_loop?relay, ??zcl_event_loop?relay
   \   000010   ....         DW ??zclZigbeeDevice_event_loop?relay
     47            macEventLoop,
     48            nwk_event_loop,
     49            Hal_ProcessEvent,
     50          #if defined( MT_TASK )
     51            MT_ProcessEvent,
     52          #endif
     53          APS_event_loop,
     54          #if defined ( ZIGBEE_FRAGMENTATION )
     55            APSF_ProcessEvent,
     56          #endif
     57          ZDApp_event_loop,
     58          #if defined ( ZIGBEE_FREQ_AGILITY ) || defined ( ZIGBEE_PANID_CONFLICT )
     59            ZDNwkMgr_event_loop,
     60          #endif
     61            zcl_event_loop,             // The ZCL layer event loop
     62            zclZigbeeDevice_event_loop  // The Application layer event loop
     63          };
     64          

   \                                 In  segment XDATA_ROM_C, align 1
     65          const uint8 tasksCnt = sizeof( tasksArr ) / sizeof( tasksArr[0] );
   \                     tasksCnt:
   \   000000   09           DB 9

   \                                 In  segment XDATA_Z, align 1, keep-with-next
     66          uint16 *tasksEvents;
   \                     tasksEvents:
   \   000000                DS 2
   \   000002                REQUIRE __INIT_XDATA_Z
     67          
     68          /*********************************************************************
     69           * FUNCTIONS
     70           *********************************************************************/
     71          
     72          /*********************************************************************
     73           * @fn      osalInitTasks
     74           * @brief   This function invokes the initialization function for each task.
     75           * @param   void
     76           */

   \                                 In  segment BANKED_CODE, align 1, keep-with-next
     77          void osalInitTasks( void )
   \                     osalInitTasks:
     78          {
   \   000000   C082         PUSH    DPL
   \   000002   C083         PUSH    DPH
   \   000004                ; Saved register size: 2
   \   000004                ; Auto size: 0
     79            uint8 taskID = 0;
     80          
     81            tasksEvents = (uint16 *)osal_mem_alloc( sizeof( uint16 ) * tasksCnt);
   \   000004                ; Setup parameters for call to function osal_mem_alloc
   \   000004   7A12         MOV     R2,#0x12
   \   000006   7B00         MOV     R3,#0x0
   \   000008   12....       LCALL   ??osal_mem_alloc?relay
   \   00000B   90....       MOV     DPTR,#tasksEvents
   \   00000E   EA           MOV     A,R2
   \   00000F   F0           MOVX    @DPTR,A
   \   000010   A3           INC     DPTR
   \   000011   EB           MOV     A,R3
   \   000012   F0           MOVX    @DPTR,A
     82            osal_memset( tasksEvents, 0, (sizeof( uint16 ) * tasksCnt));
   \   000013                ; Setup parameters for call to function osal_memset
   \   000013   7C12         MOV     R4,#0x12
   \   000015   7D00         MOV     R5,#0x0
   \   000017   7900         MOV     R1,#0x0
   \   000019   12....       LCALL   ??osal_memset?relay
     83            
     84            macTaskInit( taskID++ );
   \   00001C                ; Setup parameters for call to function macTaskInit
   \   00001C   7900         MOV     R1,#0x0
   \   00001E   12....       LCALL   ??macTaskInit?relay
     85            nwk_init( taskID++ );
   \   000021                ; Setup parameters for call to function nwk_init
   \   000021   7901         MOV     R1,#0x1
   \   000023   12....       LCALL   ??nwk_init?relay
     86            Hal_Init( taskID++ );
   \   000026                ; Setup parameters for call to function Hal_Init
   \   000026   7902         MOV     R1,#0x2
   \   000028   12....       LCALL   ??Hal_Init?relay
     87          #if defined( MT_TASK )
     88            MT_TaskInit( taskID++ );
   \   00002B                ; Setup parameters for call to function MT_TaskInit
   \   00002B   7903         MOV     R1,#0x3
   \   00002D   12....       LCALL   ??MT_TaskInit?relay
     89          #endif
     90            APS_Init( taskID++ );
   \   000030                ; Setup parameters for call to function APS_Init
   \   000030   7904         MOV     R1,#0x4
   \   000032   12....       LCALL   ??APS_Init?relay
     91          #if defined ( ZIGBEE_FRAGMENTATION )
     92            APSF_Init( taskID++ );
     93          #endif
     94            ZDApp_Init( taskID++ );
   \   000035                ; Setup parameters for call to function ZDApp_Init
   \   000035   7905         MOV     R1,#0x5
   \   000037   12....       LCALL   ??ZDApp_Init?relay
     95          #if defined ( ZIGBEE_FREQ_AGILITY ) || defined ( ZIGBEE_PANID_CONFLICT )
     96            ZDNwkMgr_Init( taskID++ );
   \   00003A                ; Setup parameters for call to function ZDNwkMgr_Init
   \   00003A   7906         MOV     R1,#0x6
   \   00003C   12....       LCALL   ??ZDNwkMgr_Init?relay
     97          #endif
     98            zcl_Init( taskID++ );
   \   00003F                ; Setup parameters for call to function zcl_Init
   \   00003F   7907         MOV     R1,#0x7
   \   000041   12....       LCALL   ??zcl_Init?relay
     99            zcl_ZigbeeDevice_Init( taskID ); 
   \   000044                ; Setup parameters for call to function zcl_ZigbeeDevice_Init
   \   000044   7908         MOV     R1,#0x8
   \   000046   12....       LCALL   ??zcl_ZigbeeDevice_Init?relay
    100          }
   \   000049   D083         POP     DPH
   \   00004B   D082         POP     DPL
   \   00004D   02....       LJMP    ?BRET

   \                                 In  segment BANK_RELAYS, align 1
   \                     ??osalInitTasks?relay:
   \   000000   12....       LCALL   ?BDISPATCH
   \   000003   ......       DC24    osalInitTasks
    101          
    102          /*********************************************************************
    103          *********************************************************************/

   Maximum stack usage in bytes:

     Function                   ISTACK PSTACK XSTACK
     --------                   ------ ------ ------
     osalInitTasks                  2      0      0
       -> osal_mem_alloc            4      0      0
       -> osal_memset               4      0      0
       -> macTaskInit               4      0      0
       -> nwk_init                  4      0      0
       -> Hal_Init                  4      0      0
       -> MT_TaskInit               4      0      0
       -> APS_Init                  4      0      0
       -> ZDApp_Init                4      0      0
       -> ZDNwkMgr_Init             4      0      0
       -> zcl_Init                  4      0      0
       -> zcl_ZigbeeDevice_Init     4      0      0


   Segment part sizes:

     Function/Label        Bytes
     --------------        -----
     tasksArr                18
     tasksCnt                 1
     tasksEvents              2
     osalInitTasks           80
     ??osalInitTasks?relay    6

 
 80 bytes in segment BANKED_CODE
  6 bytes in segment BANK_RELAYS
 19 bytes in segment XDATA_ROM_C
  2 bytes in segment XDATA_Z
 
 86 bytes of CODE  memory
 19 bytes of CONST memory
  2 bytes of XDATA memory

Errors: none
Warnings: none
