///////////////////////////////////////////////////////////////////////////////
//                                                                            /
// IAR C/C++ Compiler V7.51A/W32 for 8051               24/May/2010  13:55:36 /
// Copyright 2004-2009 IAR Systems AB.                                        /
//                                                                            /
//    Core               =  plain                                             /
//    Code model         =  banked                                            /
//    Data model         =  large                                             /
//    Calling convention =  xdata reentrant                                   /
//    Constant location  =  data_rom                                          /
//    Dptr setup         =  1,16                                              /
//    Source file        =  D:\µ{¦¡¶}µo\TI Zigbee Z-Stack\ZStack-CC2530-2.3.0 /
//                          -1.4.0\ZStack-CC2530-2.3.0-1.4.0\Projects\zstack\ /
//                          Utilities\Transmit\Source\TransmitApp.c           /
//    Command line       =  -f "D:\µ{¦¡¶}µo\TI Zigbee                         /
//                          Z-Stack\ZStack-CC2530-2.3.0-1.4.0\ZStack-CC2530-2 /
//                          .3.0-1.4.0\Projects\zstack\Utilities\Transmit\CC2 /
//                          530DB\..\..\..\Tools\CC2530DB\f8wCoord.cfg"       /
//                          (-DCPU32MHZ -DROOT=__near_func                    /
//                          -DMAC_CFG_APP_PENDING_QUEUE=TRUE                  /
//                          -DZDO_COORDINATOR -DRTR_NWK -DBLINK_LEDS) -f      /
//                          "D:\µ{¦¡¶}µo\TI Zigbee Z-Stack\ZStack-CC2530-2.3. /
//                          0-1.4.0\ZStack-CC2530-2.3.0-1.4.0\Projects\zstack /
//                          \Utilities\Transmit\CC2530DB\..\..\..\Tools\CC253 /
//                          0DB\f8wConfig.cfg" (-DSECURE=0                    /
//                          -DZG_SECURE_DYNAMIC=0 -DREFLECTOR                 /
//                          -DDEFAULT_CHANLIST=0x00000800                     /
//                          -DZDAPP_CONFIG_PAN_ID=0xFFFF                      /
//                          -DNWK_START_DELAY=100 -DEXTENDED_JOINING_RANDOM_M /
//                          ASK=0x007F -DBEACON_REQUEST_DELAY=100             /
//                          -DBEACON_REQ_DELAY_MASK=0x00FF                    /
//                          -DROUTE_EXPIRY_TIME=30 -DAPSC_ACK_WAIT_DURATION_P /
//                          OLLED=3000 -DNWK_INDIRECT_MSG_TIMEOUT=7           /
//                          -DMAX_RREQ_ENTRIES=8 -DAPSC_MAX_FRAME_RETRIES=3   /
//                          -DNWK_MAX_DATA_RETRIES=2                          /
//                          -DMAX_POLL_FAILURE_RETRIES=2 -DMAX_BCAST=9        /
//                          -DAPS_MAX_GROUPS=16 -DMAX_RTG_ENTRIES=40          /
//                          -DNWK_MAX_BINDING_ENTRIES=4                       /
//                          -DMAX_BINDING_CLUSTER_IDS=4                       /
//                          "-DDEFAULT_KEY={0x01, 0x03, 0x05, 0x07, 0x09,     /
//                          0x0B, 0x0D, 0x0F, 0x00, 0x02, 0x04, 0x06, 0x08,   /
//                          0x0A, 0x0C, 0x0D}" -DMAC_MAX_FRAME_SIZE=116       /
//                          "-DCONST=const __code" -DGENERIC=__generic        /
//                          -DRFD_RCVC_ALWAYS_ON=TRUE -DPOLL_RATE=1000        /
//                          -DQUEUED_POLL_RATE=100 -DRESPONSE_POLL_RATE=100)  /
//                          -DREJOIN_POLL_RATE=440 "D:\µ{¦¡¶}µo\TI Zigbee     /
//                          Z-Stack\ZStack-CC2530-2.3.0-1.4.0\ZStack-CC2530-2 /
//                          .3.0-1.4.0\Projects\zstack\Utilities\Transmit\Sou /
//                          rce\TransmitApp.c" -D ZTOOL_P1 -D MT_TASK -D      /
//                          MT_SYS_FUNC -D MT_ZDO_FUNC -D                     /
//                          LCD_SUPPORTED=DEBUG -lC "D:\µ{¦¡¶}µo\TI Zigbee    /
//                          Z-Stack\ZStack-CC2530-2.3.0-1.4.0\ZStack-CC2530-2 /
//                          .3.0-1.4.0\Projects\zstack\Utilities\Transmit\CC2 /
//                          530DB\CoordinatorEB\List\" -lA "D:\µ{¦¡¶}µo\TI    /
//                          Zigbee Z-Stack\ZStack-CC2530-2.3.0-1.4.0\ZStack-C /
//                          C2530-2.3.0-1.4.0\Projects\zstack\Utilities\Trans /
//                          mit\CC2530DB\CoordinatorEB\List\"                 /
//                          --diag_suppress Pe001,Pa010 -o "D:\µ{¦¡¶}µo\TI    /
//                          Zigbee Z-Stack\ZStack-CC2530-2.3.0-1.4.0\ZStack-C /
//                          C2530-2.3.0-1.4.0\Projects\zstack\Utilities\Trans /
//                          mit\CC2530DB\CoordinatorEB\Obj\" -e               /
//                          --require_prototypes --debug --core=plain         /
//                          --dptr=16,1 --data_model=large                    /
//                          --code_model=banked --calling_convention=xdata_re /
//                          entrant --place_constants=data_rom                /
//                          --nr_virtual_regs 16 -I "D:\µ{¦¡¶}µo\TI Zigbee    /
//                          Z-Stack\ZStack-CC2530-2.3.0-1.4.0\ZStack-CC2530-2 /
//                          .3.0-1.4.0\Projects\zstack\Utilities\Transmit\CC2 /
//                          530DB\" -I "D:\µ{¦¡¶}µo\TI Zigbee                 /
//                          Z-Stack\ZStack-CC2530-2.3.0-1.4.0\ZStack-CC2530-2 /
//                          .3.0-1.4.0\Projects\zstack\Utilities\Transmit\CC2 /
//                          530DB\..\SOURCE\" -I "D:\µ{¦¡¶}µo\TI Zigbee       /
//                          Z-Stack\ZStack-CC2530-2.3.0-1.4.0\ZStack-CC2530-2 /
//                          .3.0-1.4.0\Projects\zstack\Utilities\Transmit\CC2 /
//                          530DB\..\..\..\ZMAIN\TI2530DB\" -I                /
//                          "D:\µ{¦¡¶}µo\TI Zigbee Z-Stack\ZStack-CC2530-2.3. /
//                          0-1.4.0\ZStack-CC2530-2.3.0-1.4.0\Projects\zstack /
//                          \Utilities\Transmit\CC2530DB\..\..\..\..\..\COMPO /
//                          NENTS\MT\" -I "D:\µ{¦¡¶}µo\TI Zigbee              /
//                          Z-Stack\ZStack-CC2530-2.3.0-1.4.0\ZStack-CC2530-2 /
//                          .3.0-1.4.0\Projects\zstack\Utilities\Transmit\CC2 /
//                          530DB\..\..\..\..\..\COMPONENTS\HAL\INCLUDE\" -I  /
//                          "D:\µ{¦¡¶}µo\TI Zigbee Z-Stack\ZStack-CC2530-2.3. /
//                          0-1.4.0\ZStack-CC2530-2.3.0-1.4.0\Projects\zstack /
//                          \Utilities\Transmit\CC2530DB\..\..\..\..\..\COMPO /
//                          NENTS\HAL\TARGET\CC2530EB\" -I "D:\µ{¦¡¶}µo\TI    /
//                          Zigbee Z-Stack\ZStack-CC2530-2.3.0-1.4.0\ZStack-C /
//                          C2530-2.3.0-1.4.0\Projects\zstack\Utilities\Trans /
//                          mit\CC2530DB\..\..\..\..\..\COMPONENTS\OSAL\MCU\C /
//                          CSOC\" -I "D:\µ{¦¡¶}µo\TI Zigbee                  /
//                          Z-Stack\ZStack-CC2530-2.3.0-1.4.0\ZStack-CC2530-2 /
//                          .3.0-1.4.0\Projects\zstack\Utilities\Transmit\CC2 /
//                          530DB\..\..\..\..\..\COMPONENTS\OSAL\INCLUDE\"    /
//                          -I "D:\µ{¦¡¶}µo\TI Zigbee                         /
//                          Z-Stack\ZStack-CC2530-2.3.0-1.4.0\ZStack-CC2530-2 /
//                          .3.0-1.4.0\Projects\zstack\Utilities\Transmit\CC2 /
//                          530DB\..\..\..\..\..\COMPONENTS\STACK\AF\" -I     /
//                          "D:\µ{¦¡¶}µo\TI Zigbee Z-Stack\ZStack-CC2530-2.3. /
//                          0-1.4.0\ZStack-CC2530-2.3.0-1.4.0\Projects\zstack /
//                          \Utilities\Transmit\CC2530DB\..\..\..\..\..\COMPO /
//                          NENTS\STACK\NWK\" -I "D:\µ{¦¡¶}µo\TI Zigbee       /
//                          Z-Stack\ZStack-CC2530-2.3.0-1.4.0\ZStack-CC2530-2 /
//                          .3.0-1.4.0\Projects\zstack\Utilities\Transmit\CC2 /
//                          530DB\..\..\..\..\..\COMPONENTS\STACK\SEC\" -I    /
//                          "D:\µ{¦¡¶}µo\TI Zigbee Z-Stack\ZStack-CC2530-2.3. /
//                          0-1.4.0\ZStack-CC2530-2.3.0-1.4.0\Projects\zstack /
//                          \Utilities\Transmit\CC2530DB\..\..\..\..\..\COMPO /
//                          NENTS\STACK\SAPI\" -I "D:\µ{¦¡¶}µo\TI Zigbee      /
//                          Z-Stack\ZStack-CC2530-2.3.0-1.4.0\ZStack-CC2530-2 /
//                          .3.0-1.4.0\Projects\zstack\Utilities\Transmit\CC2 /
//                          530DB\..\..\..\..\..\COMPONENTS\STACK\SYS\" -I    /
//                          "D:\µ{¦¡¶}µo\TI Zigbee Z-Stack\ZStack-CC2530-2.3. /
//                          0-1.4.0\ZStack-CC2530-2.3.0-1.4.0\Projects\zstack /
//                          \Utilities\Transmit\CC2530DB\..\..\..\..\..\COMPO /
//                          NENTS\STACK\ZDO\" -I "D:\µ{¦¡¶}µo\TI Zigbee       /
//                          Z-Stack\ZStack-CC2530-2.3.0-1.4.0\ZStack-CC2530-2 /
//                          .3.0-1.4.0\Projects\zstack\Utilities\Transmit\CC2 /
//                          530DB\..\..\..\..\..\COMPONENTS\ZMAC\F8W\" -I     /
//                          "D:\µ{¦¡¶}µo\TI Zigbee Z-Stack\ZStack-CC2530-2.3. /
//                          0-1.4.0\ZStack-CC2530-2.3.0-1.4.0\Projects\zstack /
//                          \Utilities\Transmit\CC2530DB\..\..\..\..\..\COMPO /
//                          NENTS\ZMAC\" -I "D:\µ{¦¡¶}µo\TI Zigbee            /
//                          Z-Stack\ZStack-CC2530-2.3.0-1.4.0\ZStack-CC2530-2 /
//                          .3.0-1.4.0\Projects\zstack\Utilities\Transmit\CC2 /
//                          530DB\..\..\..\..\..\COMPONENTS\SERVICES\SADDR\"  /
//                          -I "D:\µ{¦¡¶}µo\TI Zigbee                         /
//                          Z-Stack\ZStack-CC2530-2.3.0-1.4.0\ZStack-CC2530-2 /
//                          .3.0-1.4.0\Projects\zstack\Utilities\Transmit\CC2 /
//                          530DB\..\..\..\..\..\COMPONENTS\SERVICES\SDATA\"  /
//                          -I "D:\µ{¦¡¶}µo\TI Zigbee                         /
//                          Z-Stack\ZStack-CC2530-2.3.0-1.4.0\ZStack-CC2530-2 /
//                          .3.0-1.4.0\Projects\zstack\Utilities\Transmit\CC2 /
//                          530DB\..\..\..\..\..\COMPONENTS\MAC\INCLUDE\" -I  /
//                          "D:\µ{¦¡¶}µo\TI Zigbee Z-Stack\ZStack-CC2530-2.3. /
//                          0-1.4.0\ZStack-CC2530-2.3.0-1.4.0\Projects\zstack /
//                          \Utilities\Transmit\CC2530DB\..\..\..\..\..\COMPO /
//                          NENTS\MAC\HIGH_LEVEL\" -I "D:\µ{¦¡¶}µo\TI Zigbee  /
//                          Z-Stack\ZStack-CC2530-2.3.0-1.4.0\ZStack-CC2530-2 /
//                          .3.0-1.4.0\Projects\zstack\Utilities\Transmit\CC2 /
//                          530DB\..\..\..\..\..\COMPONENTS\MAC\LOW_LEVEL\srf /
//                          04\" -I "D:\µ{¦¡¶}µo\TI Zigbee                    /
//                          Z-Stack\ZStack-CC2530-2.3.0-1.4.0\ZStack-CC2530-2 /
//                          .3.0-1.4.0\Projects\zstack\Utilities\Transmit\CC2 /
//                          530DB\..\..\..\..\..\COMPONENTS\MAC\LOW_LEVEL\srf /
//                          04\SINGLE_CHIP\" -I "C:\IAR Systems\Embedded      /
//                          Workbench 5.3\8051\INC\" -I "C:\IAR               /
//                          Systems\Embedded Workbench 5.3\8051\INC\CLIB\"    /
//                          -Ohz                                              /
//    List file          =  D:\µ{¦¡¶}µo\TI Zigbee Z-Stack\ZStack-CC2530-2.3.0 /
//                          -1.4.0\ZStack-CC2530-2.3.0-1.4.0\Projects\zstack\ /
//                          Utilities\Transmit\CC2530DB\CoordinatorEB\List\Tr /
//                          ansmitApp.s51                                     /
//                                                                            /
//                                                                            /
///////////////////////////////////////////////////////////////////////////////

        NAME TransmitApp

        RTMODEL "__calling_convention", "xdata_reentrant"
        RTMODEL "__code_model", "banked"
        RTMODEL "__core", "plain"
        RTMODEL "__data_model", "large"
        RTMODEL "__dptr_size", "16"
        RTMODEL "__extended_stack", "disabled"
        RTMODEL "__location_for_constants", "data"
        RTMODEL "__number_of_dptrs", "1"
        RTMODEL "__rt_version", "1"

        RSEG DOVERLAY:DATA:NOROOT(0)
        RSEG IOVERLAY:IDATA:NOROOT(0)
        RSEG ISTACK:IDATA:NOROOT(0)
        RSEG PSTACK:XDATA:NOROOT(0)
        RSEG XSTACK:XDATA:NOROOT(0)

        EXTERN ??TransmitApp_ChangeState?relay
        EXTERN ??TransmitApp_DisplayResults?relay
        EXTERN ??TransmitApp_HandleKeys?relay
        EXTERN ??TransmitApp_MessageMSGCB?relay
        EXTERN ??TransmitApp_ProcessZDOMsgs?relay
        EXTERN ??TransmitApp_SendTheMessage?relay
        EXTERN ??TransmitApp_SetSendEvt?relay
        EXTERN ?ALLOC_XSTACK8
        EXTERN ?BANKED_ENTER_XDATA
        EXTERN ?BANKED_LEAVE_XDATA
        EXTERN ?BDISPATCH
        EXTERN ?BRET
        EXTERN ?DEALLOC_XSTACK8
        EXTERN ?L_ADD
        EXTERN ?L_ADD_TO_X
        EXTERN ?L_EQ_X
        EXTERN ?L_MOV_TO_X
        EXTERN ?L_MOV_X
        EXTERN ?L_MUL
        EXTERN ?L_SUB_X
        EXTERN ?PUSH_XSTACK8_X_TWO
        EXTERN ?PUSH_XSTACK_I_ONE
        EXTERN ?PUSH_XSTACK_I_TWO
        EXTERN ?S_DIV_MOD
        EXTERN ?UC_SWITCH_SPARSE
        EXTERN ?UL_DIV_MOD
        EXTERN ?UL_GT
        EXTERN ?UL_SHR
        EXTERN ?US_SWITCH_SPARSE
        EXTERN ?V0
        EXTERN ?XSP
        EXTERN ?XSTACK_DISP0_8
        EXTERN __INIT_XDATA_Z

        PUBLIC ??TransmitApp_ChangeState?relay
        FUNCTION ??TransmitApp_ChangeState?relay,0203H
        PUBLIC ??TransmitApp_DisplayResults?relay
        FUNCTION ??TransmitApp_DisplayResults?relay,0203H
        PUBLIC ??TransmitApp_HandleKeys?relay
        FUNCTION ??TransmitApp_HandleKeys?relay,0203H
        PUBLIC ??TransmitApp_Init?relay
        FUNCTION ??TransmitApp_Init?relay,0203H
        PUBLIC ??TransmitApp_MessageMSGCB?relay
        FUNCTION ??TransmitApp_MessageMSGCB?relay,0203H
        PUBLIC ??TransmitApp_ProcessEvent?relay
        FUNCTION ??TransmitApp_ProcessEvent?relay,0203H
        PUBLIC ??TransmitApp_ProcessZDOMsgs?relay
        FUNCTION ??TransmitApp_ProcessZDOMsgs?relay,0203H
        PUBLIC ??TransmitApp_SendTheMessage?relay
        FUNCTION ??TransmitApp_SendTheMessage?relay,0203H
        PUBLIC ??TransmitApp_SetSendEvt?relay
        FUNCTION ??TransmitApp_SetSendEvt?relay,0203H
        PUBLIC TransmitApp_ChangeState
        FUNCTION TransmitApp_ChangeState,021203H
        ARGFRAME XSTACK, 25, STACK
        ARGFRAME IOVERLAY, 0, STATIC
        ARGFRAME DOVERLAY, 0, STATIC
        LOCFRAME ISTACK, 2, STACK
        PUBLIC TransmitApp_ClusterList
        PUBLIC TransmitApp_DisplayResults
        FUNCTION TransmitApp_DisplayResults,021203H
        ARGFRAME XSTACK, 25, STACK
        ARGFRAME IOVERLAY, 0, STATIC
        ARGFRAME DOVERLAY, 0, STATIC
        LOCFRAME ISTACK, 2, STACK
        LOCFRAME XSTACK, 45, STACK
        PUBLIC TransmitApp_DstAddr
        PUBLIC TransmitApp_HandleKeys
        FUNCTION TransmitApp_HandleKeys,021203H
        ARGFRAME XSTACK, 16, STACK
        ARGFRAME IOVERLAY, 0, STATIC
        ARGFRAME DOVERLAY, 0, STATIC
        LOCFRAME ISTACK, 1, STACK
        LOCFRAME XSTACK, 34, STACK
        PUBLIC TransmitApp_Init
        FUNCTION TransmitApp_Init,021203H
        ARGFRAME XSTACK, 0, STACK
        LOCFRAME ISTACK, 3, STACK
        LOCFRAME XSTACK, 2, STACK
        PUBLIC TransmitApp_MaxDataLength
        PUBLIC TransmitApp_MessageMSGCB
        FUNCTION TransmitApp_MessageMSGCB,021203H
        ARGFRAME XSTACK, 16, STACK
        ARGFRAME IOVERLAY, 0, STATIC
        ARGFRAME DOVERLAY, 0, STATIC
        LOCFRAME XSTACK, 18, STACK
        PUBLIC TransmitApp_Msg
        PUBLIC TransmitApp_NwkState
        PUBLIC TransmitApp_ProcessEvent
        FUNCTION TransmitApp_ProcessEvent,0a1203H
        ARGFRAME XSTACK, 0, STACK
        LOCFRAME XSTACK, 16, STACK
        PUBLIC TransmitApp_ProcessZDOMsgs
        FUNCTION TransmitApp_ProcessZDOMsgs,0a1203H
        ARGFRAME XSTACK, 16, STACK
        ARGFRAME IOVERLAY, 0, STATIC
        ARGFRAME DOVERLAY, 0, STATIC
        LOCFRAME XSTACK, 10, STACK
        PUBLIC TransmitApp_SendTheMessage
        FUNCTION TransmitApp_SendTheMessage,021203H
        ARGFRAME XSTACK, 16, STACK
        ARGFRAME IOVERLAY, 0, STATIC
        ARGFRAME DOVERLAY, 0, STATIC
        LOCFRAME XSTACK, 19, STACK
        PUBLIC TransmitApp_SetSendEvt
        FUNCTION TransmitApp_SetSendEvt,021203H
        ARGFRAME XSTACK, 16, STACK
        ARGFRAME IOVERLAY, 0, STATIC
        ARGFRAME DOVERLAY, 0, STATIC
        LOCFRAME ISTACK, 2, STACK
        PUBLIC TransmitApp_SimpleDesc
        PUBLIC TransmitApp_State
        PUBLIC TransmitApp_TaskID
        PUBLIC TransmitApp_epDesc
        PUBWEAK __Constant_0
        PUBWEAK __Constant_1869f
        PUBWEAK __Constant_186a0
        PUBWEAK __Constant_3e8
        PUBWEAK __Constant_a
        PUBLIC pktCounter
        
        CFI Names cfiNames0
        CFI StackFrame CFA_SP SP IDATA
        CFI StackFrame CFA_PSP16 PSP16 XDATA
        CFI StackFrame CFA_XSP16 XSP16 XDATA
        CFI StaticOverlayFrame CFA_IOVERLAY IOVERLAY
        CFI StaticOverlayFrame CFA_DOVERLAY DOVERLAY
        CFI Resource `PSW.CY`:1, `B.BR0`:1, `B.BR1`:1, `B.BR2`:1, `B.BR3`:1
        CFI Resource `B.BR4`:1, `B.BR5`:1, `B.BR6`:1, `B.BR7`:1, `VB.BR8`:1
        CFI Resource `VB.BR9`:1, `VB.BR10`:1, `VB.BR11`:1, `VB.BR12`:1
        CFI Resource `VB.BR13`:1, `VB.BR14`:1, `VB.BR15`:1, VB:8, B:8, A:8
        CFI Resource PSW:8, DPL0:8, DPH0:8, R0:8, R1:8, R2:8, R3:8, R4:8, R5:8
        CFI Resource R6:8, R7:8, V0:8, V1:8, V2:8, V3:8, V4:8, V5:8, V6:8, V7:8
        CFI Resource V8:8, V9:8, V10:8, V11:8, V12:8, V13:8, V14:8, V15:8, SP:8
        CFI Resource PSPH:8, PSPL:8, PSP16:16, XSPH:8, XSPL:8, XSP16:16
        CFI VirtualResource ?RET:24
        CFI Resource ?BRET_EXT:8
        CFI VirtualResource ?RET_HIGH:8, ?RET_LOW:8
        CFI ResourceParts PSP16 PSPH, PSPL
        CFI ResourceParts XSP16 XSPH, XSPL
        CFI ResourceParts ?RET ?BRET_EXT, ?RET_HIGH, ?RET_LOW
        CFI EndNames cfiNames0
        
        CFI Common cfiCommon0 Using cfiNames0
        CFI CodeAlign 1
        CFI DataAlign -1
        CFI ReturnAddress ?RET CODE
        CFI CFA_DOVERLAY Used
        CFI CFA_IOVERLAY Used
        CFI CFA_SP SP+-3
        CFI CFA_PSP16 PSP16+0
        CFI CFA_XSP16 XSP16+0
        CFI `PSW.CY` SameValue
        CFI `B.BR0` SameValue
        CFI `B.BR1` SameValue
        CFI `B.BR2` SameValue
        CFI `B.BR3` SameValue
        CFI `B.BR4` SameValue
        CFI `B.BR5` SameValue
        CFI `B.BR6` SameValue
        CFI `B.BR7` SameValue
        CFI `VB.BR8` SameValue
        CFI `VB.BR9` SameValue
        CFI `VB.BR10` SameValue
        CFI `VB.BR11` SameValue
        CFI `VB.BR12` SameValue
        CFI `VB.BR13` SameValue
        CFI `VB.BR14` SameValue
        CFI `VB.BR15` SameValue
        CFI VB SameValue
        CFI B Undefined
        CFI A Undefined
        CFI PSW SameValue
        CFI DPL0 SameValue
        CFI DPH0 SameValue
        CFI R0 Undefined
        CFI R1 Undefined
        CFI R2 Undefined
        CFI R3 Undefined
        CFI R4 Undefined
        CFI R5 Undefined
        CFI R6 SameValue
        CFI R7 SameValue
        CFI V0 SameValue
        CFI V1 SameValue
        CFI V2 SameValue
        CFI V3 SameValue
        CFI V4 SameValue
        CFI V5 SameValue
        CFI V6 SameValue
        CFI V7 SameValue
        CFI V8 SameValue
        CFI V9 SameValue
        CFI V10 SameValue
        CFI V11 SameValue
        CFI V12 SameValue
        CFI V13 SameValue
        CFI V14 SameValue
        CFI V15 SameValue
        CFI PSPH Undefined
        CFI PSPL Undefined
        CFI XSPH Undefined
        CFI XSPL Undefined
        CFI ?RET Concat
        CFI ?BRET_EXT Frame(CFA_SP, 3)
        CFI ?RET_HIGH Frame(CFA_SP, 2)
        CFI ?RET_LOW Frame(CFA_SP, 1)
        CFI EndCommon cfiCommon0
        
        
        CFI Common cfiCommon1 Using cfiNames0
        CFI CodeAlign 1
        CFI DataAlign -1
        CFI ReturnAddress ?RET CODE
        CFI CFA_DOVERLAY Used
        CFI CFA_IOVERLAY Used
        CFI CFA_SP SP+-2
        CFI CFA_PSP16 PSP16+0
        CFI CFA_XSP16 XSP16+0
        CFI `PSW.CY` SameValue
        CFI `B.BR0` SameValue
        CFI `B.BR1` SameValue
        CFI `B.BR2` SameValue
        CFI `B.BR3` SameValue
        CFI `B.BR4` SameValue
        CFI `B.BR5` SameValue
        CFI `B.BR6` SameValue
        CFI `B.BR7` SameValue
        CFI `VB.BR8` SameValue
        CFI `VB.BR9` SameValue
        CFI `VB.BR10` SameValue
        CFI `VB.BR11` SameValue
        CFI `VB.BR12` SameValue
        CFI `VB.BR13` SameValue
        CFI `VB.BR14` SameValue
        CFI `VB.BR15` SameValue
        CFI VB SameValue
        CFI B SameValue
        CFI A SameValue
        CFI PSW SameValue
        CFI DPL0 SameValue
        CFI DPH0 SameValue
        CFI R0 SameValue
        CFI R1 SameValue
        CFI R2 SameValue
        CFI R3 SameValue
        CFI R4 SameValue
        CFI R5 SameValue
        CFI R6 SameValue
        CFI R7 SameValue
        CFI V0 SameValue
        CFI V1 SameValue
        CFI V2 SameValue
        CFI V3 SameValue
        CFI V4 SameValue
        CFI V5 SameValue
        CFI V6 SameValue
        CFI V7 SameValue
        CFI V8 SameValue
        CFI V9 SameValue
        CFI V10 SameValue
        CFI V11 SameValue
        CFI V12 SameValue
        CFI V13 SameValue
        CFI V14 SameValue
        CFI V15 SameValue
        CFI PSPH Undefined
        CFI PSPL Undefined
        CFI XSPH Undefined
        CFI XSPL Undefined
        CFI ?RET Concat
        CFI ?BRET_EXT SameValue
        CFI ?RET_HIGH Frame(CFA_SP, 2)
        CFI ?RET_LOW Frame(CFA_SP, 1)
        CFI EndCommon cfiCommon1
        
afRegister          SYMBOL "afRegister"
RegisterForKeys     SYMBOL "RegisterForKeys"
HalLcdWriteString   SYMBOL "HalLcdWriteString"
afDataReqMTU        SYMBOL "afDataReqMTU"
ZDO_RegisterForZDOMsg SYMBOL "ZDO_RegisterForZDOMsg"
osal_msg_receive    SYMBOL "osal_msg_receive"
osal_msg_deallocate SYMBOL "osal_msg_deallocate"
osal_start_timerEx  SYMBOL "osal_start_timerEx"
osal_GetSystemClock SYMBOL "osal_GetSystemClock"
HalLedSet           SYMBOL "HalLedSet"
ZDO_ParseEPListRsp  SYMBOL "ZDO_ParseEPListRsp"
osal_mem_free       SYMBOL "osal_mem_free"
NLME_GetShortAddr   SYMBOL "NLME_GetShortAddr"
ZDP_EndDeviceBindReq SYMBOL "ZDP_EndDeviceBindReq"
ZDP_MatchDescReq    SYMBOL "ZDP_MatchDescReq"
AF_DataRequest      SYMBOL "AF_DataRequest"
osal_set_event      SYMBOL "osal_set_event"
osal_memset         SYMBOL "osal_memset"
osal_stop_timerEx   SYMBOL "osal_stop_timerEx"
??AF_DataRequest?relay SYMBOL "?relay", AF_DataRequest
??HalLcdWriteString?relay SYMBOL "?relay", HalLcdWriteString
??HalLedSet?relay   SYMBOL "?relay", HalLedSet
??NLME_GetShortAddr?relay SYMBOL "?relay", NLME_GetShortAddr
??RegisterForKeys?relay SYMBOL "?relay", RegisterForKeys
??ZDO_ParseEPListRsp?relay SYMBOL "?relay", ZDO_ParseEPListRsp
??ZDO_RegisterForZDOMsg?relay SYMBOL "?relay", ZDO_RegisterForZDOMsg
??ZDP_EndDeviceBindReq?relay SYMBOL "?relay", ZDP_EndDeviceBindReq
??ZDP_MatchDescReq?relay SYMBOL "?relay", ZDP_MatchDescReq
??afDataReqMTU?relay SYMBOL "?relay", afDataReqMTU
??afRegister?relay  SYMBOL "?relay", afRegister
??osal_GetSystemClock?relay SYMBOL "?relay", osal_GetSystemClock
??osal_mem_free?relay SYMBOL "?relay", osal_mem_free
??osal_memset?relay SYMBOL "?relay", osal_memset
??osal_msg_deallocate?relay SYMBOL "?relay", osal_msg_deallocate
??osal_msg_receive?relay SYMBOL "?relay", osal_msg_receive
??osal_set_event?relay SYMBOL "?relay", osal_set_event
??osal_start_timerEx?relay SYMBOL "?relay", osal_start_timerEx
??osal_stop_timerEx?relay SYMBOL "?relay", osal_stop_timerEx
TransmitApp_ChangeState SYMBOL "TransmitApp_ChangeState"
??TransmitApp_ChangeState?relay SYMBOL "?relay", TransmitApp_ChangeState
TransmitApp_DisplayResults SYMBOL "TransmitApp_DisplayResults"
??TransmitApp_DisplayResults?relay SYMBOL "?relay", TransmitApp_DisplayResults
TransmitApp_HandleKeys SYMBOL "TransmitApp_HandleKeys"
??TransmitApp_HandleKeys?relay SYMBOL "?relay", TransmitApp_HandleKeys
TransmitApp_Init    SYMBOL "TransmitApp_Init"
??TransmitApp_Init?relay SYMBOL "?relay", TransmitApp_Init
TransmitApp_MessageMSGCB SYMBOL "TransmitApp_MessageMSGCB"
??TransmitApp_MessageMSGCB?relay SYMBOL "?relay", TransmitApp_MessageMSGCB
TransmitApp_ProcessEvent SYMBOL "TransmitApp_ProcessEvent"
??TransmitApp_ProcessEvent?relay SYMBOL "?relay", TransmitApp_ProcessEvent
TransmitApp_ProcessZDOMsgs SYMBOL "TransmitApp_ProcessZDOMsgs"
??TransmitApp_ProcessZDOMsgs?relay SYMBOL "?relay", TransmitApp_ProcessZDOMsgs
TransmitApp_SendTheMessage SYMBOL "TransmitApp_SendTheMessage"
??TransmitApp_SendTheMessage?relay SYMBOL "?relay", TransmitApp_SendTheMessage
TransmitApp_SetSendEvt SYMBOL "TransmitApp_SetSendEvt"
??TransmitApp_SetSendEvt?relay SYMBOL "?relay", TransmitApp_SetSendEvt

        EXTERN afRegister
        FUNCTION afRegister,0202H
        ARGFRAME ISTACK, 2, STACK
        ARGFRAME PSTACK, 0, STACK
        ARGFRAME XSTACK, 2, STACK
        ARGFRAME IOVERLAY, 0, STATIC
        ARGFRAME DOVERLAY, 0, STATIC
        EXTERN RegisterForKeys
        FUNCTION RegisterForKeys,0202H
        ARGFRAME ISTACK, 2, STACK
        ARGFRAME PSTACK, 0, STACK
        ARGFRAME XSTACK, 2, STACK
        ARGFRAME IOVERLAY, 0, STATIC
        ARGFRAME DOVERLAY, 0, STATIC
        EXTERN HalLcdWriteString
        FUNCTION HalLcdWriteString,0202H
        ARGFRAME ISTACK, 2, STACK
        ARGFRAME PSTACK, 0, STACK
        ARGFRAME XSTACK, 45, STACK
        ARGFRAME IOVERLAY, 0, STATIC
        ARGFRAME DOVERLAY, 0, STATIC
        EXTERN afDataReqMTU
        FUNCTION afDataReqMTU,0202H
        ARGFRAME ISTACK, 2, STACK
        ARGFRAME PSTACK, 0, STACK
        ARGFRAME XSTACK, 2, STACK
        ARGFRAME IOVERLAY, 0, STATIC
        ARGFRAME DOVERLAY, 0, STATIC
        EXTERN ZDO_RegisterForZDOMsg
        FUNCTION ZDO_RegisterForZDOMsg,0202H
        ARGFRAME ISTACK, 2, STACK
        ARGFRAME PSTACK, 0, STACK
        ARGFRAME XSTACK, 2, STACK
        ARGFRAME IOVERLAY, 0, STATIC
        ARGFRAME DOVERLAY, 0, STATIC
        EXTERN osal_msg_receive
        FUNCTION osal_msg_receive,0202H
        ARGFRAME ISTACK, 0, STACK
        ARGFRAME PSTACK, 0, STACK
        ARGFRAME XSTACK, 16, STACK
        ARGFRAME IOVERLAY, 0, STATIC
        ARGFRAME DOVERLAY, 0, STATIC
        EXTERN osal_msg_deallocate
        FUNCTION osal_msg_deallocate,0202H
        ARGFRAME ISTACK, 0, STACK
        ARGFRAME PSTACK, 0, STACK
        ARGFRAME XSTACK, 16, STACK
        ARGFRAME IOVERLAY, 0, STATIC
        ARGFRAME DOVERLAY, 0, STATIC
        EXTERN osal_start_timerEx
        FUNCTION osal_start_timerEx,0202H
        ARGFRAME ISTACK, 0, STACK
        ARGFRAME PSTACK, 0, STACK
        ARGFRAME XSTACK, 18, STACK
        ARGFRAME IOVERLAY, 0, STATIC
        ARGFRAME DOVERLAY, 0, STATIC
        EXTERN osal_GetSystemClock
        FUNCTION osal_GetSystemClock,0202H
        ARGFRAME ISTACK, 0, STACK
        ARGFRAME PSTACK, 0, STACK
        ARGFRAME XSTACK, 45, STACK
        ARGFRAME IOVERLAY, 0, STATIC
        ARGFRAME DOVERLAY, 0, STATIC
        EXTERN HalLedSet
        FUNCTION HalLedSet,0202H
        ARGFRAME ISTACK, 0, STACK
        ARGFRAME PSTACK, 0, STACK
        ARGFRAME XSTACK, 25, STACK
        ARGFRAME IOVERLAY, 0, STATIC
        ARGFRAME DOVERLAY, 0, STATIC
        EXTERN ZDO_ParseEPListRsp
        FUNCTION ZDO_ParseEPListRsp,0202H
        ARGFRAME ISTACK, 0, STACK
        ARGFRAME PSTACK, 0, STACK
        ARGFRAME XSTACK, 10, STACK
        ARGFRAME IOVERLAY, 0, STATIC
        ARGFRAME DOVERLAY, 0, STATIC
        EXTERN osal_mem_free
        FUNCTION osal_mem_free,0202H
        ARGFRAME ISTACK, 0, STACK
        ARGFRAME PSTACK, 0, STACK
        ARGFRAME XSTACK, 10, STACK
        ARGFRAME IOVERLAY, 0, STATIC
        ARGFRAME DOVERLAY, 0, STATIC
        EXTERN NLME_GetShortAddr
        FUNCTION NLME_GetShortAddr,0202H
        ARGFRAME ISTACK, 0, STACK
        ARGFRAME PSTACK, 0, STACK
        ARGFRAME XSTACK, 25, STACK
        ARGFRAME IOVERLAY, 0, STATIC
        ARGFRAME DOVERLAY, 0, STATIC
        EXTERN ZDP_EndDeviceBindReq
        FUNCTION ZDP_EndDeviceBindReq,0202H
        ARGFRAME ISTACK, 0, STACK
        ARGFRAME PSTACK, 0, STACK
        ARGFRAME XSTACK, 34, STACK
        ARGFRAME IOVERLAY, 0, STATIC
        ARGFRAME DOVERLAY, 0, STATIC
        EXTERN ZDP_MatchDescReq
        FUNCTION ZDP_MatchDescReq,0202H
        ARGFRAME ISTACK, 0, STACK
        ARGFRAME PSTACK, 0, STACK
        ARGFRAME XSTACK, 33, STACK
        ARGFRAME IOVERLAY, 0, STATIC
        ARGFRAME DOVERLAY, 0, STATIC
        EXTERN AF_DataRequest
        FUNCTION AF_DataRequest,0202H
        ARGFRAME ISTACK, 0, STACK
        ARGFRAME PSTACK, 0, STACK
        ARGFRAME XSTACK, 19, STACK
        ARGFRAME IOVERLAY, 0, STATIC
        ARGFRAME DOVERLAY, 0, STATIC
        EXTERN osal_set_event
        FUNCTION osal_set_event,0202H
        ARGFRAME ISTACK, 2, STACK
        ARGFRAME PSTACK, 0, STACK
        ARGFRAME XSTACK, 0, STACK
        ARGFRAME IOVERLAY, 0, STATIC
        ARGFRAME DOVERLAY, 0, STATIC
        EXTERN osal_memset
        FUNCTION osal_memset,0202H
        ARGFRAME ISTACK, 0, STACK
        ARGFRAME PSTACK, 0, STACK
        ARGFRAME XSTACK, 45, STACK
        ARGFRAME IOVERLAY, 0, STATIC
        ARGFRAME DOVERLAY, 0, STATIC
        EXTERN osal_stop_timerEx
        FUNCTION osal_stop_timerEx,0202H
        ARGFRAME ISTACK, 0, STACK
        ARGFRAME PSTACK, 0, STACK
        ARGFRAME XSTACK, 45, STACK
        ARGFRAME IOVERLAY, 0, STATIC
        ARGFRAME DOVERLAY, 0, STATIC
        EXTERN ??AF_DataRequest?relay
        FUNCTION ??AF_DataRequest?relay,00H
        EXTERN ??HalLcdWriteString?relay
        FUNCTION ??HalLcdWriteString?relay,00H
        EXTERN ??HalLedSet?relay
        FUNCTION ??HalLedSet?relay,00H
        EXTERN ??NLME_GetShortAddr?relay
        FUNCTION ??NLME_GetShortAddr?relay,00H
        EXTERN ??RegisterForKeys?relay
        FUNCTION ??RegisterForKeys?relay,00H
        EXTERN ??ZDO_ParseEPListRsp?relay
        FUNCTION ??ZDO_ParseEPListRsp?relay,00H
        EXTERN ??ZDO_RegisterForZDOMsg?relay
        FUNCTION ??ZDO_RegisterForZDOMsg?relay,00H
        EXTERN ??ZDP_EndDeviceBindReq?relay
        FUNCTION ??ZDP_EndDeviceBindReq?relay,00H
        EXTERN ??ZDP_MatchDescReq?relay
        FUNCTION ??ZDP_MatchDescReq?relay,00H
        EXTERN ??afDataReqMTU?relay
        FUNCTION ??afDataReqMTU?relay,00H
        EXTERN ??afRegister?relay
        FUNCTION ??afRegister?relay,00H
        EXTERN ??osal_GetSystemClock?relay
        FUNCTION ??osal_GetSystemClock?relay,00H
        EXTERN ??osal_mem_free?relay
        FUNCTION ??osal_mem_free?relay,00H
        EXTERN ??osal_memset?relay
        FUNCTION ??osal_memset?relay,00H
        EXTERN ??osal_msg_deallocate?relay
        FUNCTION ??osal_msg_deallocate?relay,00H
        EXTERN ??osal_msg_receive?relay
        FUNCTION ??osal_msg_receive?relay,00H
        EXTERN ??osal_set_event?relay
        FUNCTION ??osal_set_event?relay,00H
        EXTERN ??osal_start_timerEx?relay
        FUNCTION ??osal_start_timerEx?relay,00H
        EXTERN ??osal_stop_timerEx?relay
        FUNCTION ??osal_stop_timerEx?relay,00H

// D:\µ{¦¡¶}µo\TI Zigbee Z-Stack\ZStack-CC2530-2.3.0-1.4.0\ZStack-CC2530-2.3.0-1.4.0\Projects\zstack\Utilities\Transmit\Source\TransmitApp.c
//    1 /**************************************************************************************************
//    2   Filename:       TransmitApp.c
//    3   Revised:        $Date: 2009-03-12 10:06:30 -0700 (Thu, 12 Mar 2009) $
//    4   Revision:       $Revision: 19395 $
//    5 
//    6   Description:    Transmit Application (no Profile).
//    7 
//    8 
//    9   Copyright 2004-2009 Texas Instruments Incorporated. All rights reserved.
//   10 
//   11   IMPORTANT: Your use of this Software is limited to those specific rights
//   12   granted under the terms of a software license agreement between the user
//   13   who downloaded the software, his/her employer (which must be your employer)
//   14   and Texas Instruments Incorporated (the "License").  You may not use this
//   15   Software unless you agree to abide by the terms of the License. The License
//   16   limits your use, and you acknowledge, that the Software may not be modified,
//   17   copied or distributed unless embedded on a Texas Instruments microcontroller
//   18   or used solely and exclusively in conjunction with a Texas Instruments radio
//   19   frequency transceiver, which is integrated into your product.  Other than for
//   20   the foregoing purpose, you may not use, reproduce, copy, prepare derivative
//   21   works of, modify, distribute, perform, display or sell this Software and/or
//   22   its documentation for any purpose.
//   23 
//   24   YOU FURTHER ACKNOWLEDGE AND AGREE THAT THE SOFTWARE AND DOCUMENTATION ARE
//   25   PROVIDED “AS IS” WITHOUT WARRANTY OF ANY KIND, EITHER EXPRESS OR IMPLIED,
//   26   INCLUDING WITHOUT LIMITATION, ANY WARRANTY OF MERCHANTABILITY, TITLE,
//   27   NON-INFRINGEMENT AND FITNESS FOR A PARTICULAR PURPOSE. IN NO EVENT SHALL
//   28   TEXAS INSTRUMENTS OR ITS LICENSORS BE LIABLE OR OBLIGATED UNDER CONTRACT,
//   29   NEGLIGENCE, STRICT LIABILITY, CONTRIBUTION, BREACH OF WARRANTY, OR OTHER
//   30   LEGAL EQUITABLE THEORY ANY DIRECT OR INDIRECT DAMAGES OR EXPENSES
//   31   INCLUDING BUT NOT LIMITED TO ANY INCIDENTAL, SPECIAL, INDIRECT, PUNITIVE
//   32   OR CONSEQUENTIAL DAMAGES, LOST PROFITS OR LOST DATA, COST OF PROCUREMENT
//   33   OF SUBSTITUTE GOODS, TECHNOLOGY, SERVICES, OR ANY CLAIMS BY THIRD PARTIES
//   34   (INCLUDING BUT NOT LIMITED TO ANY DEFENSE THEREOF), OR OTHER SIMILAR COSTS.
//   35 
//   36   Should you have any questions regarding your right to use this Software,
//   37   contact Texas Instruments Incorporated at www.TI.com.
//   38 **************************************************************************************************/
//   39 
//   40 /*********************************************************************
//   41   This application will send a data packet to another
//   42   tranmitApp device as fast as it can.  The receiving
//   43   transmitApp device will calculate the following transmit
//   44   rate statistics:
//   45     - Number bytes in the last second
//   46     - Number of seconds running
//   47     - Average number of bytes per second
//   48     - Number of packets received.
//   49 
//   50   The application will send one message and as soon as it
//   51   receives the confirmation for that message it will send
//   52   the next message.
//   53 
//   54   If you would like a delay between messages
//   55   define TRANSMITAPP_DELAY_SEND and set the delay amount
//   56   in TRANSMITAPP_SEND_DELAY.
//   57 
//   58   TransmitApp_MaxDataLength defines the message size
//   59 
//   60   Set TRANSMITAPP_TX_OPTIONS to AF_MSG_ACK_REQUEST to send
//   61   the message expecting an APS ACK, this will decrease your
//   62   throughput.  Set TRANSMITAPP_TX_OPTIONS to 0 for no
//   63   APS ACK.
//   64 
//   65   This applications doesn't have a profile, so it handles
//   66   everything directly - itself.
//   67 
//   68   Key control:
//   69     SW1:  Starts and stops the transmitting
//   70     SW2:  initiates end device binding
//   71     SW3:  Resets the display totals
//   72     SW4:  initiates a match description request
//   73 
//   74   Notes:
//   75 
//   76     This application was intended to be used to test the maximum
//   77     throughput between 2 devices in a network - between routers
//   78     coordinators.
//   79 
//   80     Although not recommended, it can be used between
//   81     an end device and a router (or coordinator), but you must
//   82     enable the delay feature (TRANSMITAPP_DELAY_SEND and
//   83     TRANSMITAPP_SEND_DELAY).  If you don't include the delay, the
//   84     end device can't receive messages because it will stop polling.
//   85     Also, the delay must be greater than RESPONSE_POLL_RATE (default 100 MSec).
//   86 *********************************************************************/
//   87 
//   88 /*********************************************************************
//   89  * INCLUDES
//   90  */
//   91 #include "OSAL.h"
//   92 #include "AF.h"
//   93 #include "ZDObject.h"
//   94 #include "ZDProfile.h"
//   95 
//   96 #include "TransmitApp.h"
//   97 #include "OnBoard.h"
//   98 
//   99 #include "DebugTrace.h"
//  100 
//  101 /* HAL */
//  102 #include "hal_lcd.h"
//  103 #include "hal_led.h"
//  104 #include "hal_key.h"
//  105 #include "hal_uart.h"
//  106 
//  107 /*********************************************************************
//  108  * MACROS
//  109  */
//  110 
//  111 /*********************************************************************
//  112  * CONSTANTS
//  113  */
//  114 //#define TRANSMITAPP_RANDOM_LEN 
//  115 
//  116 #define TRANSMITAPP_STATE_WAITING 0
//  117 #define TRANSMITAPP_STATE_SENDING 1
//  118 
//  119 #if !defined ( RTR_NWK )
//  120   // Use these 2 lines to add a delay between each packet sent
//  121   //  - default for end devices
//  122   #define TRANSMITAPP_DELAY_SEND
//  123   #define TRANSMITAPP_SEND_DELAY    (RESPONSE_POLL_RATE * 2)  // in MSecs
//  124 #endif
//  125 
//  126 // Send with or without APS ACKs
//  127 //#define TRANSMITAPP_TX_OPTIONS    (AF_DISCV_ROUTE | AF_ACK_REQUEST)
//  128 #define TRANSMITAPP_TX_OPTIONS    AF_DISCV_ROUTE
//  129 
//  130 #define TRANSMITAPP_INITIAL_MSG_COUNT  2
//  131 
//  132 #define TRANSMITAPP_TRANSMIT_TIME   4  // 4 MS
//  133 #define TRANSMITAPP_DISPLAY_TIMER   (2 * 1000)
//  134 
//  135 #if defined ( TRANSMITAPP_FRAGMENTED )
//  136 #define TRANSMITAPP_MAX_DATA_LEN    225
//  137 #else
//  138 #define TRANSMITAPP_MAX_DATA_LEN    102
//  139 #endif
//  140 
//  141 /*********************************************************************
//  142  * TYPEDEFS
//  143  */
//  144 
//  145 /*********************************************************************
//  146  * GLOBAL VARIABLES
//  147  */
//  148 
//  149 // This is the buffer that is sent out as data.

        RSEG XDATA_Z:XDATA:NOROOT(0)
//  150 byte TransmitApp_Msg[ TRANSMITAPP_MAX_DATA_LEN ];
TransmitApp_Msg:
        DS 102
        REQUIRE __INIT_XDATA_Z
//  151 
//  152 // This is the Cluster ID List and should be filled with Application
//  153 // specific cluster IDs.

        RSEG XDATA_ROM_C:CONST:REORDER:NOROOT(0)
        DATA
//  154 const cId_t TransmitApp_ClusterList[TRANSMITAPP_MAX_CLUSTERS] =
TransmitApp_ClusterList:
        DW 1
//  155 {
//  156   TRANSMITAPP_CLUSTERID_TESTMSG  // MSG Cluster ID
//  157 };
//  158 

        RSEG XDATA_ROM_C:CONST:REORDER:NOROOT(0)
        DATA
//  159 const SimpleDescriptionFormat_t TransmitApp_SimpleDesc =
TransmitApp_SimpleDesc:
        DB 1
        DW 3845, 1
        DB 0, 1
        DW TransmitApp_ClusterList
        DB 1
        DW TransmitApp_ClusterList
//  160 {
//  161   TRANSMITAPP_ENDPOINT,              //  int    Endpoint;
//  162   TRANSMITAPP_PROFID,                //  uint16 AppProfId[2];
//  163   TRANSMITAPP_DEVICEID,              //  uint16 AppDeviceId[2];
//  164   TRANSMITAPP_DEVICE_VERSION,        //  int    AppDevVer:4;
//  165   TRANSMITAPP_FLAGS,                 //  int    AppFlags:4;
//  166   TRANSMITAPP_MAX_CLUSTERS,          //  byte   AppNumInClusters;
//  167   (cId_t *)TransmitApp_ClusterList,  //  byte   *pAppInClusterList;
//  168   TRANSMITAPP_MAX_CLUSTERS,          //  byte   AppNumInClusters;
//  169   (cId_t *)TransmitApp_ClusterList   //  byte   *pAppInClusterList;
//  170 };
//  171 
//  172 // This is the Endpoint/Interface description.  It is defined here, but
//  173 // filled-in in TransmitApp_Init().  Another way to go would be to fill
//  174 // in the structure here and make it a "const" (in code space).  The
//  175 // way it's defined in this sample app it is define in RAM.

        RSEG XDATA_Z:XDATA:NOROOT(0)
//  176 endPointDesc_t TransmitApp_epDesc;
TransmitApp_epDesc:
        DS 6
        REQUIRE __INIT_XDATA_Z
//  177 
//  178 /*********************************************************************
//  179  * EXTERNAL VARIABLES
//  180  */
//  181 
//  182 /*********************************************************************
//  183  * EXTERNAL FUNCTIONS
//  184  */
//  185 
//  186 /*********************************************************************
//  187  * LOCAL VARIABLES
//  188  */
//  189 
//  190 // Task ID for event processing - received when TransmitApp_Init() is called.

        RSEG XDATA_Z:XDATA:NOROOT(0)
//  191 byte TransmitApp_TaskID;
TransmitApp_TaskID:
        DS 1
        REQUIRE __INIT_XDATA_Z
//  192 

        RSEG XDATA_Z:XDATA:NOROOT(0)
//  193 devStates_t TransmitApp_NwkState;
TransmitApp_NwkState:
        DS 1
        REQUIRE __INIT_XDATA_Z
//  194 

        RSEG XDATA_Z:XDATA:NOROOT(0)
//  195 static byte TransmitApp_TransID;  // This is the unique message ID (counter)
TransmitApp_TransID:
        DS 1
        REQUIRE __INIT_XDATA_Z
//  196 

        RSEG XDATA_Z:XDATA:NOROOT(0)
//  197 afAddrType_t TransmitApp_DstAddr;
TransmitApp_DstAddr:
        DS 12
        REQUIRE __INIT_XDATA_Z
//  198 

        RSEG XDATA_Z:XDATA:NOROOT(0)
//  199 byte TransmitApp_State;
TransmitApp_State:
        DS 1
        REQUIRE __INIT_XDATA_Z
//  200 
//  201 // Shadow of the OSAL system clock used for calculating actual time expired.

        RSEG XDATA_Z:XDATA:NOROOT(0)
//  202 static uint32 clkShdw;
clkShdw:
        DS 4
        REQUIRE __INIT_XDATA_Z
//  203 // Running total count of test messages recv/sent since beginning current run.

        RSEG XDATA_Z:XDATA:NOROOT(0)
//  204 static uint32 rxTotal, txTotal;
rxTotal:
        DS 4
        REQUIRE __INIT_XDATA_Z

        RSEG XDATA_Z:XDATA:NOROOT(0)
txTotal:
        DS 4
        REQUIRE __INIT_XDATA_Z
//  205 // Running count of test messages recv/sent since last display / update - 1 Hz.

        RSEG XDATA_Z:XDATA:NOROOT(0)
//  206 static uint32 rxAccum, txAccum;
rxAccum:
        DS 4
        REQUIRE __INIT_XDATA_Z

        RSEG XDATA_Z:XDATA:NOROOT(0)
txAccum:
        DS 4
        REQUIRE __INIT_XDATA_Z
//  207 

        RSEG XDATA_Z:XDATA:NOROOT(0)
//  208 static byte timerOn;
timerOn:
        DS 1
        REQUIRE __INIT_XDATA_Z
//  209 

        RSEG XDATA_Z:XDATA:NOROOT(0)
//  210 static byte timesToSend;
timesToSend:
        DS 1
        REQUIRE __INIT_XDATA_Z
//  211 

        RSEG XDATA_Z:XDATA:NOROOT(0)
//  212 uint16 pktCounter;
pktCounter:
        DS 2
        REQUIRE __INIT_XDATA_Z
//  213 
//  214 // Max Data Request Length

        RSEG XDATA_Z:XDATA:NOROOT(0)
//  215 uint16 TransmitApp_MaxDataLength;
TransmitApp_MaxDataLength:
        DS 2
        REQUIRE __INIT_XDATA_Z
//  216 
//  217 /*********************************************************************
//  218  * LOCAL FUNCTIONS
//  219  */
//  220 void TransmitApp_ProcessZDOMsgs( zdoIncomingMsg_t *inMsg );
//  221 void TransmitApp_HandleKeys( byte shift, byte keys );
//  222 void TransmitApp_MessageMSGCB( afIncomingMSGPacket_t *pckt );
//  223 void TransmitApp_SendTheMessage( void );
//  224 void TransmitApp_ChangeState( void );
//  225 
//  226 /*********************************************************************
//  227  * NETWORK LAYER CALLBACKS
//  228  */
//  229 
//  230 /*********************************************************************
//  231  * PUBLIC FUNCTIONS
//  232  */
//  233 void TransmitApp_DisplayResults( void );
//  234 
//  235 /*********************************************************************
//  236  * @fn      TransmitApp_Init
//  237  *
//  238  * @brief   Initialization function for the Generic App Task.
//  239  *          This is called during initialization and should contain
//  240  *          any application specific initialization (ie. hardware
//  241  *          initialization/setup, table initialization, power up
//  242  *          notificaiton ... ).
//  243  *
//  244  * @param   task_id - the ID assigned by OSAL.  This ID should be
//  245  *                    used to send messages and set timers.
//  246  *
//  247  * @return  none
//  248  */

        RSEG BANKED_CODE:CODE:NOROOT(0)
//  249 void TransmitApp_Init( byte task_id )
TransmitApp_Init:
        CFI Block cfiBlock0 Using cfiCommon0
        CFI Function TransmitApp_Init
//  250 {
        FUNCALL TransmitApp_Init, afRegister
        LOCFRAME ISTACK, 2, STACK
        LOCFRAME PSTACK, 0, STACK
        LOCFRAME XSTACK, 2, STACK
        LOCFRAME IOVERLAY, 0, STATIC
        LOCFRAME DOVERLAY, 0, STATIC
        ARGFRAME ISTACK, 2, STACK
        ARGFRAME PSTACK, 0, STACK
        ARGFRAME XSTACK, 2, STACK
        ARGFRAME IOVERLAY, 0, STATIC
        ARGFRAME DOVERLAY, 0, STATIC
        FUNCALL TransmitApp_Init, RegisterForKeys
        LOCFRAME ISTACK, 2, STACK
        LOCFRAME PSTACK, 0, STACK
        LOCFRAME XSTACK, 2, STACK
        LOCFRAME IOVERLAY, 0, STATIC
        LOCFRAME DOVERLAY, 0, STATIC
        ARGFRAME ISTACK, 2, STACK
        ARGFRAME PSTACK, 0, STACK
        ARGFRAME XSTACK, 2, STACK
        ARGFRAME IOVERLAY, 0, STATIC
        ARGFRAME DOVERLAY, 0, STATIC
        FUNCALL TransmitApp_Init, HalLcdWriteString
        LOCFRAME ISTACK, 2, STACK
        LOCFRAME PSTACK, 0, STACK
        LOCFRAME XSTACK, 2, STACK
        LOCFRAME IOVERLAY, 0, STATIC
        LOCFRAME DOVERLAY, 0, STATIC
        ARGFRAME ISTACK, 2, STACK
        ARGFRAME PSTACK, 0, STACK
        ARGFRAME XSTACK, 2, STACK
        ARGFRAME IOVERLAY, 0, STATIC
        ARGFRAME DOVERLAY, 0, STATIC
        FUNCALL TransmitApp_Init, afDataReqMTU
        LOCFRAME ISTACK, 2, STACK
        LOCFRAME PSTACK, 0, STACK
        LOCFRAME XSTACK, 2, STACK
        LOCFRAME IOVERLAY, 0, STATIC
        LOCFRAME DOVERLAY, 0, STATIC
        ARGFRAME ISTACK, 2, STACK
        ARGFRAME PSTACK, 0, STACK
        ARGFRAME XSTACK, 2, STACK
        ARGFRAME IOVERLAY, 0, STATIC
        ARGFRAME DOVERLAY, 0, STATIC
        FUNCALL TransmitApp_Init, ZDO_RegisterForZDOMsg
        LOCFRAME ISTACK, 2, STACK
        LOCFRAME PSTACK, 0, STACK
        LOCFRAME XSTACK, 2, STACK
        LOCFRAME IOVERLAY, 0, STATIC
        LOCFRAME DOVERLAY, 0, STATIC
        ARGFRAME ISTACK, 2, STACK
        ARGFRAME PSTACK, 0, STACK
        ARGFRAME XSTACK, 2, STACK
        ARGFRAME IOVERLAY, 0, STATIC
        ARGFRAME DOVERLAY, 0, STATIC
        FUNCALL TransmitApp_Init, ZDO_RegisterForZDOMsg
        LOCFRAME ISTACK, 2, STACK
        LOCFRAME PSTACK, 0, STACK
        LOCFRAME XSTACK, 2, STACK
        LOCFRAME IOVERLAY, 0, STATIC
        LOCFRAME DOVERLAY, 0, STATIC
        ARGFRAME ISTACK, 2, STACK
        ARGFRAME PSTACK, 0, STACK
        ARGFRAME XSTACK, 2, STACK
        ARGFRAME IOVERLAY, 0, STATIC
        ARGFRAME DOVERLAY, 0, STATIC
        PUSH    DPL
        CFI DPL0 Frame(CFA_SP, 4)
        CFI CFA_SP SP+-4
        PUSH    DPH
        CFI DPH0 Frame(CFA_SP, 5)
        CFI CFA_SP SP+-5
        ; Saved register size: 2
        ; Auto size: 2
        MOV     A,#-0x2
        LCALL   ?ALLOC_XSTACK8
        CFI CFA_XSP16 add(XSP16, 2)
//  251 #if !defined ( TRANSMITAPP_FRAGMENTED )
//  252   afDataReqMTU_t mtu;
//  253 #endif
//  254   uint16 i;
//  255 
//  256   TransmitApp_TaskID = task_id;
        MOV     A,R1
        MOV     DPTR,#TransmitApp_TaskID
        MOVX    @DPTR,A
//  257   TransmitApp_NwkState = DEV_INIT;
        MOV     A,#0x1
        MOV     DPTR,#TransmitApp_NwkState
        MOVX    @DPTR,A
//  258   TransmitApp_TransID = 0;
        CLR     A
        MOV     DPTR,#TransmitApp_TransID
        MOVX    @DPTR,A
//  259 
//  260   pktCounter = 0;
        MOV     DPTR,#pktCounter
        MOVX    @DPTR,A
        INC     DPTR
        MOVX    @DPTR,A
//  261 
//  262   TransmitApp_State = TRANSMITAPP_STATE_WAITING;
        MOV     DPTR,#TransmitApp_State
        MOVX    @DPTR,A
//  263 
//  264   // Device hardware initialization can be added here or in main() (Zmain.c).
//  265   // If the hardware is application specific - add it here.
//  266   // If the hardware is other parts of the device add it in main().
//  267 
//  268   TransmitApp_DstAddr.addrMode = (afAddrMode_t)AddrNotPresent;
        MOV     DPTR,#(TransmitApp_DstAddr + 8)
        MOVX    @DPTR,A
//  269   TransmitApp_DstAddr.endPoint = 0;
        MOV     DPTR,#(TransmitApp_DstAddr + 9)
        MOVX    @DPTR,A
//  270   TransmitApp_DstAddr.addr.shortAddr = 0;
        MOV     DPTR,#TransmitApp_DstAddr
        MOVX    @DPTR,A
        INC     DPTR
        MOVX    @DPTR,A
//  271 
//  272   // Fill out the endpoint description.
//  273   TransmitApp_epDesc.endPoint = TRANSMITAPP_ENDPOINT;
        MOV     A,#0x1
        MOV     DPTR,#TransmitApp_epDesc
        MOVX    @DPTR,A
//  274   TransmitApp_epDesc.task_id = &TransmitApp_TaskID;
        MOV     DPTR,#(TransmitApp_epDesc + 1)
        MOV     A,#(TransmitApp_TaskID & 0xff)
        MOVX    @DPTR,A
        INC     DPTR
        MOV     A,#((TransmitApp_TaskID >> 8) & 0xff)
        MOVX    @DPTR,A
//  275   TransmitApp_epDesc.simpleDesc
//  276             = (SimpleDescriptionFormat_t *)&TransmitApp_SimpleDesc;
        MOV     DPTR,#(TransmitApp_epDesc + 3)
        MOV     A,#(TransmitApp_SimpleDesc & 0xff)
        MOVX    @DPTR,A
        INC     DPTR
        MOV     A,#((TransmitApp_SimpleDesc >> 8) & 0xff)
        MOVX    @DPTR,A
//  277   TransmitApp_epDesc.latencyReq = noLatencyReqs;
        CLR     A
        MOV     DPTR,#(TransmitApp_epDesc + 5)
        MOVX    @DPTR,A
//  278 
//  279   // Register the endpoint/interface description with the AF
//  280   afRegister( &TransmitApp_epDesc );
        ; Setup parameters for call to function afRegister
        MOV     R2,#(TransmitApp_epDesc & 0xff)
        MOV     R3,#((TransmitApp_epDesc >> 8) & 0xff)
        LCALL   ??afRegister?relay
//  281 
//  282   // Register for all key events - This app will handle all key events
//  283   RegisterForKeys( TransmitApp_TaskID );
        ; Setup parameters for call to function RegisterForKeys
        MOV     DPTR,#TransmitApp_TaskID
        MOVX    A,@DPTR
        MOV     R1,A
        LCALL   ??RegisterForKeys?relay
//  284 
//  285   // Update the display
//  286 #if defined ( LCD_SUPPORTED )
//  287   HalLcdWriteString( "TransmitApp", HAL_LCD_LINE_2 );
        ; Setup parameters for call to function HalLcdWriteString
        MOV     R1,#0x2
        MOV     R2,#(`?<Constant "TransmitApp">` & 0xff)
        MOV     R3,#((`?<Constant "TransmitApp">` >> 8) & 0xff)
        LCALL   ??HalLcdWriteString?relay
//  288 #endif
//  289 
//  290   // Set the data length
//  291 #if defined ( TRANSMITAPP_FRAGMENTED )
//  292   TransmitApp_MaxDataLength = TRANSMITAPP_MAX_DATA_LEN;
//  293 #else
//  294   mtu.kvp        = FALSE;
        CLR     A
        MOV     DPL,?XSP + 0
        MOV     DPH,?XSP + 1
        MOVX    @DPTR,A
//  295   mtu.aps.secure = FALSE;
        MOV     A,#0x1
        LCALL   ?XSTACK_DISP0_8
        CLR     A
        LCALL   ?Subroutine1 & 0xFFFF
//  296   TransmitApp_MaxDataLength = afDataReqMTU( &mtu );
??CrossCallReturnLabel_4:
        MOV     R2,DPL
        MOV     R3,DPH
        LCALL   ??afDataReqMTU?relay
        MOV     A,R1
        MOV     DPTR,#TransmitApp_MaxDataLength
        MOVX    @DPTR,A
        INC     DPTR
        CLR     A
        MOVX    @DPTR,A
//  297 #endif
//  298 
//  299   // Generate the data
//  300   for (i=0; i<TransmitApp_MaxDataLength; i++)
        MOV     R0,A
        SJMP    ??TransmitApp_Init_0
//  301   {
//  302     TransmitApp_Msg[i] = (uint8) i;
??TransmitApp_Init_1:
        MOV     A,R0
        ADD     A,#(TransmitApp_Msg & 0xff)
        MOV     DPL,A
        MOV     A,R1
        ADDC    A,#((TransmitApp_Msg >> 8) & 0xff)
        MOV     DPH,A
        MOV     A,R0
        MOVX    @DPTR,A
//  303   }
        ADD     A,#0x1
        INC     R0
        MOV     A,R1
        ADDC    A,#0x0
??TransmitApp_Init_0:
        MOV     R1,A
        MOV     DPTR,#TransmitApp_MaxDataLength
        MOVX    A,@DPTR
        MOV     R2,A
        INC     DPTR
        MOVX    A,@DPTR
        MOV     R3,A
        CLR     C
        MOV     A,R0
        SUBB    A,R2
        MOV     A,R1
        SUBB    A,R3
        JC      ??TransmitApp_Init_1
//  304 
//  305   ZDO_RegisterForZDOMsg( TransmitApp_TaskID, End_Device_Bind_rsp );
        ; Setup parameters for call to function ZDO_RegisterForZDOMsg
        MOV     R2,#0x20
        MOV     R3,#-0x80
        MOV     DPTR,#TransmitApp_TaskID
        MOVX    A,@DPTR
        MOV     R1,A
        LCALL   ??ZDO_RegisterForZDOMsg?relay
//  306   ZDO_RegisterForZDOMsg( TransmitApp_TaskID, Match_Desc_rsp );
        ; Setup parameters for call to function ZDO_RegisterForZDOMsg
        MOV     R2,#0x6
        MOV     R3,#-0x80
        MOV     DPTR,#TransmitApp_TaskID
        MOVX    A,@DPTR
        MOV     R1,A
        LCALL   ??ZDO_RegisterForZDOMsg?relay
//  307 }
        MOV     A,#0x2
        LCALL   ?DEALLOC_XSTACK8
        CFI EndBlock cfiBlock0
        REQUIRE ?Subroutine7
        ; // Fall through to label ?Subroutine7

        RSEG BANKED_CODE:CODE:NOROOT(0)
?Subroutine7:
        CFI Block cfiBlock1 Using cfiCommon0
        CFI NoFunction
        CFI CFA_SP SP+-5
        CFI DPL0 Frame(CFA_SP, 4)
        CFI DPH0 Frame(CFA_SP, 5)
        POP     DPH
        CFI CFA_SP SP+-4
        CFI DPH0 SameValue
        POP     DPL
        CFI CFA_SP SP+-3
        CFI DPL0 SameValue
        LJMP    ?BRET
        CFI EndBlock cfiBlock1
//  308 
//  309 /*********************************************************************
//  310  * @fn      TransmitApp_ProcessEvent
//  311  *
//  312  * @brief   Generic Application Task event processor.  This function
//  313  *          is called to process all events for the task.  Events
//  314  *          include timers, messages and any other user defined events.
//  315  *
//  316  * @param   task_id  - The OSAL assigned task ID.
//  317  * @param   events - events to process.  This is a bit map and can
//  318  *                   contain more than one event.
//  319  *
//  320  * @return  none
//  321  */

        RSEG BANKED_CODE:CODE:NOROOT(0)
//  322 UINT16 TransmitApp_ProcessEvent( byte task_id, UINT16 events )
TransmitApp_ProcessEvent:
        CFI Block cfiBlock2 Using cfiCommon0
        CFI Function TransmitApp_ProcessEvent
//  323 {
        FUNCALL TransmitApp_ProcessEvent, osal_msg_receive
        LOCFRAME ISTACK, 0, STACK
        LOCFRAME PSTACK, 0, STACK
        LOCFRAME XSTACK, 16, STACK
        LOCFRAME IOVERLAY, 0, STATIC
        LOCFRAME DOVERLAY, 0, STATIC
        ARGFRAME ISTACK, 0, STACK
        ARGFRAME PSTACK, 0, STACK
        ARGFRAME XSTACK, 16, STACK
        ARGFRAME IOVERLAY, 0, STATIC
        ARGFRAME DOVERLAY, 0, STATIC
        FUNCALL TransmitApp_ProcessEvent, osal_msg_deallocate
        LOCFRAME ISTACK, 0, STACK
        LOCFRAME PSTACK, 0, STACK
        LOCFRAME XSTACK, 16, STACK
        LOCFRAME IOVERLAY, 0, STATIC
        LOCFRAME DOVERLAY, 0, STATIC
        ARGFRAME ISTACK, 0, STACK
        ARGFRAME PSTACK, 0, STACK
        ARGFRAME XSTACK, 16, STACK
        ARGFRAME IOVERLAY, 0, STATIC
        ARGFRAME DOVERLAY, 0, STATIC
        FUNCALL TransmitApp_ProcessEvent, osal_msg_receive
        LOCFRAME ISTACK, 0, STACK
        LOCFRAME PSTACK, 0, STACK
        LOCFRAME XSTACK, 16, STACK
        LOCFRAME IOVERLAY, 0, STATIC
        LOCFRAME DOVERLAY, 0, STATIC
        ARGFRAME ISTACK, 0, STACK
        ARGFRAME PSTACK, 0, STACK
        ARGFRAME XSTACK, 16, STACK
        ARGFRAME IOVERLAY, 0, STATIC
        ARGFRAME DOVERLAY, 0, STATIC
        FUNCALL TransmitApp_ProcessEvent, TransmitApp_ProcessZDOMsgs
        LOCFRAME ISTACK, 0, STACK
        LOCFRAME PSTACK, 0, STACK
        LOCFRAME XSTACK, 16, STACK
        LOCFRAME IOVERLAY, 0, STATIC
        LOCFRAME DOVERLAY, 0, STATIC
        ARGFRAME ISTACK, 0, STACK
        ARGFRAME PSTACK, 0, STACK
        ARGFRAME XSTACK, 16, STACK
        ARGFRAME IOVERLAY, 0, STATIC
        ARGFRAME DOVERLAY, 0, STATIC
        FUNCALL TransmitApp_ProcessEvent, TransmitApp_HandleKeys
        LOCFRAME ISTACK, 0, STACK
        LOCFRAME PSTACK, 0, STACK
        LOCFRAME XSTACK, 16, STACK
        LOCFRAME IOVERLAY, 0, STATIC
        LOCFRAME DOVERLAY, 0, STATIC
        ARGFRAME ISTACK, 0, STACK
        ARGFRAME PSTACK, 0, STACK
        ARGFRAME XSTACK, 16, STACK
        ARGFRAME IOVERLAY, 0, STATIC
        ARGFRAME DOVERLAY, 0, STATIC
        FUNCALL TransmitApp_ProcessEvent, osal_start_timerEx
        LOCFRAME ISTACK, 0, STACK
        LOCFRAME PSTACK, 0, STACK
        LOCFRAME XSTACK, 16, STACK
        LOCFRAME IOVERLAY, 0, STATIC
        LOCFRAME DOVERLAY, 0, STATIC
        ARGFRAME ISTACK, 0, STACK
        ARGFRAME PSTACK, 0, STACK
        ARGFRAME XSTACK, 16, STACK
        ARGFRAME IOVERLAY, 0, STATIC
        ARGFRAME DOVERLAY, 0, STATIC
        FUNCALL TransmitApp_ProcessEvent, osal_GetSystemClock
        LOCFRAME ISTACK, 0, STACK
        LOCFRAME PSTACK, 0, STACK
        LOCFRAME XSTACK, 16, STACK
        LOCFRAME IOVERLAY, 0, STATIC
        LOCFRAME DOVERLAY, 0, STATIC
        ARGFRAME ISTACK, 0, STACK
        ARGFRAME PSTACK, 0, STACK
        ARGFRAME XSTACK, 16, STACK
        ARGFRAME IOVERLAY, 0, STATIC
        ARGFRAME DOVERLAY, 0, STATIC
        FUNCALL TransmitApp_ProcessEvent, TransmitApp_SetSendEvt
        LOCFRAME ISTACK, 0, STACK
        LOCFRAME PSTACK, 0, STACK
        LOCFRAME XSTACK, 16, STACK
        LOCFRAME IOVERLAY, 0, STATIC
        LOCFRAME DOVERLAY, 0, STATIC
        ARGFRAME ISTACK, 0, STACK
        ARGFRAME PSTACK, 0, STACK
        ARGFRAME XSTACK, 16, STACK
        ARGFRAME IOVERLAY, 0, STATIC
        ARGFRAME DOVERLAY, 0, STATIC
        FUNCALL TransmitApp_ProcessEvent, TransmitApp_MessageMSGCB
        LOCFRAME ISTACK, 0, STACK
        LOCFRAME PSTACK, 0, STACK
        LOCFRAME XSTACK, 16, STACK
        LOCFRAME IOVERLAY, 0, STATIC
        LOCFRAME DOVERLAY, 0, STATIC
        ARGFRAME ISTACK, 0, STACK
        ARGFRAME PSTACK, 0, STACK
        ARGFRAME XSTACK, 16, STACK
        ARGFRAME IOVERLAY, 0, STATIC
        ARGFRAME DOVERLAY, 0, STATIC
        FUNCALL TransmitApp_ProcessEvent, TransmitApp_SendTheMessage
        LOCFRAME ISTACK, 0, STACK
        LOCFRAME PSTACK, 0, STACK
        LOCFRAME XSTACK, 16, STACK
        LOCFRAME IOVERLAY, 0, STATIC
        LOCFRAME DOVERLAY, 0, STATIC
        ARGFRAME ISTACK, 0, STACK
        ARGFRAME PSTACK, 0, STACK
        ARGFRAME XSTACK, 16, STACK
        ARGFRAME IOVERLAY, 0, STATIC
        ARGFRAME DOVERLAY, 0, STATIC
        FUNCALL TransmitApp_ProcessEvent, TransmitApp_SetSendEvt
        LOCFRAME ISTACK, 0, STACK
        LOCFRAME PSTACK, 0, STACK
        LOCFRAME XSTACK, 16, STACK
        LOCFRAME IOVERLAY, 0, STATIC
        LOCFRAME DOVERLAY, 0, STATIC
        ARGFRAME ISTACK, 0, STACK
        ARGFRAME PSTACK, 0, STACK
        ARGFRAME XSTACK, 16, STACK
        ARGFRAME IOVERLAY, 0, STATIC
        ARGFRAME DOVERLAY, 0, STATIC
        FUNCALL TransmitApp_ProcessEvent, osal_start_timerEx
        LOCFRAME ISTACK, 0, STACK
        LOCFRAME PSTACK, 0, STACK
        LOCFRAME XSTACK, 16, STACK
        LOCFRAME IOVERLAY, 0, STATIC
        LOCFRAME DOVERLAY, 0, STATIC
        ARGFRAME ISTACK, 0, STACK
        ARGFRAME PSTACK, 0, STACK
        ARGFRAME XSTACK, 16, STACK
        ARGFRAME IOVERLAY, 0, STATIC
        ARGFRAME DOVERLAY, 0, STATIC
        FUNCALL TransmitApp_ProcessEvent, TransmitApp_DisplayResults
        LOCFRAME ISTACK, 0, STACK
        LOCFRAME PSTACK, 0, STACK
        LOCFRAME XSTACK, 16, STACK
        LOCFRAME IOVERLAY, 0, STATIC
        LOCFRAME DOVERLAY, 0, STATIC
        ARGFRAME ISTACK, 0, STACK
        ARGFRAME PSTACK, 0, STACK
        ARGFRAME XSTACK, 16, STACK
        ARGFRAME IOVERLAY, 0, STATIC
        ARGFRAME DOVERLAY, 0, STATIC
        MOV     A,#-0x10
        LCALL   ?BANKED_ENTER_XDATA
        CFI DPH0 load(1, XDATA, add(CFA_XSP16, literal(-1)))
        CFI DPL0 load(1, XDATA, add(CFA_XSP16, literal(-2)))
        CFI ?BRET_EXT load(1, XDATA, add(CFA_XSP16, literal(-3)))
        CFI ?RET_HIGH load(1, XDATA, add(CFA_XSP16, literal(-4)))
        CFI ?RET_LOW load(1, XDATA, add(CFA_XSP16, literal(-5)))
        CFI R7 load(1, XDATA, add(CFA_XSP16, literal(-6)))
        CFI V7 load(1, XDATA, add(CFA_XSP16, literal(-7)))
        CFI V6 load(1, XDATA, add(CFA_XSP16, literal(-8)))
        CFI V5 load(1, XDATA, add(CFA_XSP16, literal(-9)))
        CFI V4 load(1, XDATA, add(CFA_XSP16, literal(-10)))
        CFI V3 load(1, XDATA, add(CFA_XSP16, literal(-11)))
        CFI V2 load(1, XDATA, add(CFA_XSP16, literal(-12)))
        CFI V1 load(1, XDATA, add(CFA_XSP16, literal(-13)))
        CFI V0 load(1, XDATA, add(CFA_XSP16, literal(-14)))
        CFI VB load(1, XDATA, add(CFA_XSP16, literal(-15)))
        CFI R6 load(1, XDATA, add(CFA_XSP16, literal(-16)))
        CFI CFA_SP SP+0
        CFI CFA_XSP16 add(XSP16, 16)
        ; Saved register size: 16
        ; Auto size: 0
        MOV     A,R2
        MOV     R6,A
        MOV     A,R3
        MOV     R7,A
//  324   afIncomingMSGPacket_t *MSGpkt;
//  325   afDataConfirm_t *afDataConfirm;
//  326   (void)task_id;  // Intentionally unreferenced parameter
//  327 
//  328   // Data Confirmation message fields
//  329   ZStatus_t sentStatus;
//  330   byte sentEP;
//  331 
//  332   if ( events & SYS_EVENT_MSG )
        MOV     A,#-0x80
        ANL     A,R7
        MOV     R1,A
        CLR     A
        JNZ     ??TransmitApp_ProcessEvent_0
        MOV     A,R1
??TransmitApp_ProcessEvent_0:
        JNZ     $+5
        LJMP    ??TransmitApp_ProcessEvent_1 & 0xFFFF
//  333   {
//  334     MSGpkt = (afIncomingMSGPacket_t *)osal_msg_receive( TransmitApp_TaskID );
        ; Setup parameters for call to function osal_msg_receive
        SJMP    ??TransmitApp_ProcessEvent_2
//  335     while ( MSGpkt )
//  336     {
//  337       switch ( MSGpkt->hdr.event )
//  338       {
//  339         case ZDO_CB_MSG:
//  340           TransmitApp_ProcessZDOMsgs( (zdoIncomingMsg_t *)MSGpkt );
//  341           break;
//  342 
//  343         case KEY_CHANGE:
//  344           TransmitApp_HandleKeys( ((keyChange_t *)MSGpkt)->state, ((keyChange_t *)MSGpkt)->keys );
//  345           break;
//  346 
//  347         case AF_DATA_CONFIRM_CMD:
//  348           // This message is received as a confirmation of a data packet sent.
//  349           // The status is of ZStatus_t type [defined in ZComDef.h]
//  350           // The message fields are defined in AF.h
//  351           afDataConfirm = (afDataConfirm_t *)MSGpkt;
//  352           sentEP = afDataConfirm->endpoint;
//  353           sentStatus = afDataConfirm->hdr.status;
//  354 
//  355           if ( (ZSuccess == sentStatus) &&
//  356                (TransmitApp_epDesc.endPoint == sentEP) )
//  357           {
//  358 #if !defined ( TRANSMITAPP_RANDOM_LEN )
//  359             txAccum += TransmitApp_MaxDataLength;
//  360 #endif
//  361             if ( !timerOn )
//  362             {
//  363               osal_start_timerEx( TransmitApp_TaskID,TRANSMITAPP_RCVTIMER_EVT,
//  364                                                      TRANSMITAPP_DISPLAY_TIMER);
//  365               clkShdw = osal_GetSystemClock();
//  366               timerOn = TRUE;
//  367             }
//  368           }
//  369 
//  370           // Action taken when confirmation is received: Send the next message.
//  371           TransmitApp_SetSendEvt();
//  372           break;
//  373 
//  374         case AF_INCOMING_MSG_CMD:
//  375           TransmitApp_MessageMSGCB( MSGpkt );
//  376           break;
//  377 
//  378         case ZDO_STATE_CHANGE:
//  379           TransmitApp_NwkState = (devStates_t)(MSGpkt->hdr.status);
??TransmitApp_ProcessEvent_3:
        MOV     DPL,?V0 + 0
        MOV     DPH,?V0 + 1
        INC     DPTR
        MOVX    A,@DPTR
        MOV     DPTR,#TransmitApp_NwkState
        MOVX    @DPTR,A
//  380           break;
//  381 
//  382         default:
//  383           break;
//  384       }
//  385 
//  386       // Release the memory
//  387       osal_msg_deallocate( (uint8 *)MSGpkt );
??TransmitApp_ProcessEvent_4:
        ; Setup parameters for call to function osal_msg_deallocate
        MOV     R2,?V0 + 0
        MOV     R3,?V0 + 1
        LCALL   ??osal_msg_deallocate?relay
//  388 
//  389       // Next
//  390       MSGpkt = (afIncomingMSGPacket_t *)osal_msg_receive( TransmitApp_TaskID );
        ; Setup parameters for call to function osal_msg_receive
??TransmitApp_ProcessEvent_2:
        MOV     DPTR,#TransmitApp_TaskID
        MOVX    A,@DPTR
        MOV     R1,A
        LCALL   ??osal_msg_receive?relay
        MOV     ?V0 + 0,R2
        MOV     ?V0 + 1,R3
        MOV     A,?V0 + 0
        JNZ     ??TransmitApp_ProcessEvent_5
        MOV     A,?V0 + 1
??TransmitApp_ProcessEvent_5:
        JNZ     $+5
        LJMP    ??TransmitApp_ProcessEvent_6 & 0xFFFF
        MOV     DPL,?V0 + 0
        MOV     DPH,?V0 + 1
        MOVX    A,@DPTR
        LCALL   ?UC_SWITCH_SPARSE
`?<Jumptable for TransmitApp_ProcessEvent>_0`:
        DATA
        DB        0
        DB        5
        DB        26
        DW        ??TransmitApp_ProcessEvent_7
        DB        192
        DW        ??TransmitApp_ProcessEvent_8
        DB        209
        DW        ??TransmitApp_ProcessEvent_3
        DB        211
        DW        ??TransmitApp_ProcessEvent_9
        DB        253
        DW        ??TransmitApp_ProcessEvent_10
        DW        ??TransmitApp_ProcessEvent_4
        CODE
??TransmitApp_ProcessEvent_9:
        ; Setup parameters for call to function TransmitApp_ProcessZDOMsgs
        MOV     R2,?V0 + 0
        MOV     R3,?V0 + 1
        LCALL   ??TransmitApp_ProcessZDOMsgs?relay
        SJMP    ??TransmitApp_ProcessEvent_4
??TransmitApp_ProcessEvent_8:
        ; Setup parameters for call to function TransmitApp_HandleKeys
        MOV     DPL,?V0 + 0
        MOV     DPH,?V0 + 1
        INC     DPTR
        INC     DPTR
        INC     DPTR
        LCALL   ?Subroutine2 & 0xFFFF
??CrossCallReturnLabel_7:
        MOV     R1,A
        LCALL   ??TransmitApp_HandleKeys?relay
        SJMP    ??TransmitApp_ProcessEvent_4
??TransmitApp_ProcessEvent_10:
        MOV     DPL,?V0 + 0
        MOV     DPH,?V0 + 1
        INC     DPTR
        MOVX    A,@DPTR
        JNZ     ??TransmitApp_ProcessEvent_11
        MOV     DPTR,#TransmitApp_epDesc
        LCALL   ?Subroutine2 & 0xFFFF
??CrossCallReturnLabel_8:
        XRL     A,R2
        JNZ     ??TransmitApp_ProcessEvent_11
        MOV     DPTR,#TransmitApp_MaxDataLength
        MOVX    A,@DPTR
        MOV     ?V0 + 4,A
        INC     DPTR
        MOVX    A,@DPTR
        MOV     ?V0 + 5,A
        MOV     ?V0 + 6,#0x0
        MOV     ?V0 + 7,#0x0
        MOV     DPTR,#txAccum
        MOV     R0,#?V0 + 4
        LCALL   ?L_ADD_TO_X
        MOV     DPTR,#timerOn
        MOVX    A,@DPTR
        JNZ     ??TransmitApp_ProcessEvent_11
        ; Setup parameters for call to function osal_start_timerEx
        LCALL   ?Subroutine3 & 0xFFFF
??CrossCallReturnLabel_9:
        MOV     ?V0 + 4,R2
        MOV     ?V0 + 5,R3
        MOV     ?V0 + 6,R4
        MOV     ?V0 + 7,R5
        MOV     DPTR,#clkShdw
        MOV     R0,#?V0 + 4
        LCALL   ?L_MOV_TO_X
        MOV     A,#0x1
        MOV     DPTR,#timerOn
        MOVX    @DPTR,A
??TransmitApp_ProcessEvent_11:
        ; Setup parameters for call to function TransmitApp_SetSendEvt
        LCALL   ??TransmitApp_SetSendEvt?relay
        LJMP    ??TransmitApp_ProcessEvent_4 & 0xFFFF
??TransmitApp_ProcessEvent_7:
        ; Setup parameters for call to function TransmitApp_MessageMSGCB
        MOV     R2,?V0 + 0
        MOV     R3,?V0 + 1
        LCALL   ??TransmitApp_MessageMSGCB?relay
        LJMP    ??TransmitApp_ProcessEvent_4 & 0xFFFF
//  391     }
//  392 
//  393     // Squash compiler warnings until values are used.
//  394     (void)sentStatus;
//  395     (void)sentEP;
//  396 
//  397     // Return unprocessed events
//  398     return (events ^ SYS_EVENT_MSG);
??TransmitApp_ProcessEvent_6:
        MOV     A,R6
        MOV     R2,A
        MOV     A,#-0x80
        XRL     A,R7
??TransmitApp_ProcessEvent_12:
        MOV     R3,A
        SJMP    ??TransmitApp_ProcessEvent_13
//  399   }
//  400 
//  401   // Send a message out
//  402   if ( events & TRANSMITAPP_SEND_MSG_EVT )
??TransmitApp_ProcessEvent_1:
        MOV     A,R6
        MOV     C,0xE0 /* A   */.0
        JNC     ??TransmitApp_ProcessEvent_14
//  403   {
//  404     if ( TransmitApp_State == TRANSMITAPP_STATE_SENDING )
        MOV     DPTR,#TransmitApp_State
        MOVX    A,@DPTR
        XRL     A,#0x1
        JNZ     ??TransmitApp_ProcessEvent_15
//  405     {
//  406       TransmitApp_SendTheMessage();
        ; Setup parameters for call to function TransmitApp_SendTheMessage
        LCALL   ??TransmitApp_SendTheMessage?relay
//  407     }
//  408 
//  409     // Return unprocessed events
//  410     return (events ^ TRANSMITAPP_SEND_MSG_EVT);
??TransmitApp_ProcessEvent_15:
        MOV     A,#0x1
??TransmitApp_ProcessEvent_16:
        XRL     A,R6
        MOV     R2,A
        MOV     A,R7
        SJMP    ??TransmitApp_ProcessEvent_12
//  411   }
//  412 
//  413   // Timed wait from error
//  414   if ( events & TRANSMITAPP_SEND_ERR_EVT )
??TransmitApp_ProcessEvent_14:
        ANL     A,#0x4
        JZ      ??TransmitApp_ProcessEvent_17
//  415   {
//  416     TransmitApp_SetSendEvt();
        ; Setup parameters for call to function TransmitApp_SetSendEvt
        LCALL   ??TransmitApp_SetSendEvt?relay
//  417 
//  418     // Return unprocessed events
//  419     return (events ^ TRANSMITAPP_SEND_ERR_EVT);
        MOV     A,#0x4
        SJMP    ??TransmitApp_ProcessEvent_16
//  420   }
//  421 
//  422   // Receive timer
//  423   if ( events & TRANSMITAPP_RCVTIMER_EVT )
??TransmitApp_ProcessEvent_17:
        MOV     A,R6
        ANL     A,#0x2
        JZ      ??TransmitApp_ProcessEvent_18
//  424   {
//  425     // Setup to display the next result
//  426     osal_start_timerEx( TransmitApp_TaskID, TRANSMITAPP_RCVTIMER_EVT,
//  427                                             TRANSMITAPP_DISPLAY_TIMER );
        ; Setup parameters for call to function osal_start_timerEx
        LCALL   ?Subroutine6 & 0xFFFF
//  428     TransmitApp_DisplayResults();
??CrossCallReturnLabel_17:
        ; Setup parameters for call to function TransmitApp_DisplayResults
        LCALL   ??TransmitApp_DisplayResults?relay
//  429 
//  430     return (events ^ TRANSMITAPP_RCVTIMER_EVT);
        MOV     A,#0x2
        SJMP    ??TransmitApp_ProcessEvent_16
//  431   }
//  432 
//  433   // Discard unknown events
//  434   return 0;
??TransmitApp_ProcessEvent_18:
        MOV     R2,#0x0
        MOV     R3,#0x0
        CFI EndBlock cfiBlock2
??TransmitApp_ProcessEvent_13:
        REQUIRE ?Subroutine8
        ; // Fall through to label ?Subroutine8
//  435 }

        RSEG BANKED_CODE:CODE:NOROOT(0)
?Subroutine8:
        CFI Block cfiBlock3 Using cfiCommon0
        CFI NoFunction
        CFI CFA_SP SP+0
        CFI CFA_XSP16 add(XSP16, 16)
        CFI VB load(1, XDATA, add(CFA_XSP16, literal(-15)))
        CFI DPL0 load(1, XDATA, add(CFA_XSP16, literal(-2)))
        CFI DPH0 load(1, XDATA, add(CFA_XSP16, literal(-1)))
        CFI R6 load(1, XDATA, add(CFA_XSP16, literal(-16)))
        CFI R7 load(1, XDATA, add(CFA_XSP16, literal(-6)))
        CFI V0 load(1, XDATA, add(CFA_XSP16, literal(-14)))
        CFI V1 load(1, XDATA, add(CFA_XSP16, literal(-13)))
        CFI V2 load(1, XDATA, add(CFA_XSP16, literal(-12)))
        CFI V3 load(1, XDATA, add(CFA_XSP16, literal(-11)))
        CFI V4 load(1, XDATA, add(CFA_XSP16, literal(-10)))
        CFI V5 load(1, XDATA, add(CFA_XSP16, literal(-9)))
        CFI V6 load(1, XDATA, add(CFA_XSP16, literal(-8)))
        CFI V7 load(1, XDATA, add(CFA_XSP16, literal(-7)))
        CFI ?BRET_EXT load(1, XDATA, add(CFA_XSP16, literal(-3)))
        CFI ?RET_HIGH load(1, XDATA, add(CFA_XSP16, literal(-4)))
        CFI ?RET_LOW load(1, XDATA, add(CFA_XSP16, literal(-5)))
        MOV     R7,#0x8
        LJMP    ?BANKED_LEAVE_XDATA
        CFI EndBlock cfiBlock3

        RSEG BANKED_CODE:CODE:NOROOT(0)
?Subroutine6:
        CFI Block cfiCond4 Using cfiCommon0
        CFI NoFunction
        CFI Conditional ??CrossCallReturnLabel_17
        CFI R6 load(1, XDATA, add(CFA_XSP16, literal(-16)))
        CFI VB load(1, XDATA, add(CFA_XSP16, literal(-15)))
        CFI V0 load(1, XDATA, add(CFA_XSP16, literal(-14)))
        CFI V1 load(1, XDATA, add(CFA_XSP16, literal(-13)))
        CFI V2 load(1, XDATA, add(CFA_XSP16, literal(-12)))
        CFI V3 load(1, XDATA, add(CFA_XSP16, literal(-11)))
        CFI V4 load(1, XDATA, add(CFA_XSP16, literal(-10)))
        CFI V5 load(1, XDATA, add(CFA_XSP16, literal(-9)))
        CFI V6 load(1, XDATA, add(CFA_XSP16, literal(-8)))
        CFI V7 load(1, XDATA, add(CFA_XSP16, literal(-7)))
        CFI R7 load(1, XDATA, add(CFA_XSP16, literal(-6)))
        CFI ?RET_LOW load(1, XDATA, add(CFA_XSP16, literal(-5)))
        CFI ?RET_HIGH load(1, XDATA, add(CFA_XSP16, literal(-4)))
        CFI ?BRET_EXT load(1, XDATA, add(CFA_XSP16, literal(-3)))
        CFI DPL0 load(1, XDATA, add(CFA_XSP16, literal(-2)))
        CFI DPH0 load(1, XDATA, add(CFA_XSP16, literal(-1)))
        CFI CFA_SP SP+0
        CFI CFA_XSP16 add(XSP16, 16)
        CFI Block cfiCond5 Using cfiCommon0
        CFI (cfiCond5) NoFunction
        CFI (cfiCond5) Conditional ??CrossCallReturnLabel_18, ??CrossCallReturnLabel_9
        CFI (cfiCond5) R6 load(1, XDATA, add(CFA_XSP16, literal(-16)))
        CFI (cfiCond5) VB load(1, XDATA, add(CFA_XSP16, literal(-15)))
        CFI (cfiCond5) V0 load(1, XDATA, add(CFA_XSP16, literal(-14)))
        CFI (cfiCond5) V1 load(1, XDATA, add(CFA_XSP16, literal(-13)))
        CFI (cfiCond5) V2 load(1, XDATA, add(CFA_XSP16, literal(-12)))
        CFI (cfiCond5) V3 load(1, XDATA, add(CFA_XSP16, literal(-11)))
        CFI (cfiCond5) V4 load(1, XDATA, add(CFA_XSP16, literal(-10)))
        CFI (cfiCond5) V5 load(1, XDATA, add(CFA_XSP16, literal(-9)))
        CFI (cfiCond5) V6 load(1, XDATA, add(CFA_XSP16, literal(-8)))
        CFI (cfiCond5) V7 load(1, XDATA, add(CFA_XSP16, literal(-7)))
        CFI (cfiCond5) R7 load(1, XDATA, add(CFA_XSP16, literal(-6)))
        CFI (cfiCond5) ?RET_LOW load(1, XDATA, add(CFA_XSP16, literal(-5)))
        CFI (cfiCond5) ?RET_HIGH load(1, XDATA, add(CFA_XSP16, literal(-4)))
        CFI (cfiCond5) ?BRET_EXT load(1, XDATA, add(CFA_XSP16, literal(-3)))
        CFI (cfiCond5) DPL0 load(1, XDATA, add(CFA_XSP16, literal(-2)))
        CFI (cfiCond5) DPH0 load(1, XDATA, add(CFA_XSP16, literal(-1)))
        CFI (cfiCond5) CFA_SP SP+0
        CFI (cfiCond5) CFA_XSP16 add(XSP16, 16)
        CFI Block cfiCond6 Using cfiCommon0
        CFI (cfiCond6) NoFunction
        CFI (cfiCond6) Conditional ??CrossCallReturnLabel_18, ??CrossCallReturnLabel_10
        CFI (cfiCond6) R6 load(1, XDATA, add(CFA_XSP16, literal(-18)))
        CFI (cfiCond6) VB load(1, XDATA, add(CFA_XSP16, literal(-17)))
        CFI (cfiCond6) V0 load(1, XDATA, add(CFA_XSP16, literal(-16)))
        CFI (cfiCond6) V1 load(1, XDATA, add(CFA_XSP16, literal(-15)))
        CFI (cfiCond6) V2 load(1, XDATA, add(CFA_XSP16, literal(-14)))
        CFI (cfiCond6) V3 load(1, XDATA, add(CFA_XSP16, literal(-13)))
        CFI (cfiCond6) V4 load(1, XDATA, add(CFA_XSP16, literal(-12)))
        CFI (cfiCond6) V5 load(1, XDATA, add(CFA_XSP16, literal(-11)))
        CFI (cfiCond6) V6 load(1, XDATA, add(CFA_XSP16, literal(-10)))
        CFI (cfiCond6) V7 load(1, XDATA, add(CFA_XSP16, literal(-9)))
        CFI (cfiCond6) V8 load(1, XDATA, add(CFA_XSP16, literal(-8)))
        CFI (cfiCond6) V9 load(1, XDATA, add(CFA_XSP16, literal(-7)))
        CFI (cfiCond6) R7 load(1, XDATA, add(CFA_XSP16, literal(-6)))
        CFI (cfiCond6) ?RET_LOW load(1, XDATA, add(CFA_XSP16, literal(-5)))
        CFI (cfiCond6) ?RET_HIGH load(1, XDATA, add(CFA_XSP16, literal(-4)))
        CFI (cfiCond6) ?BRET_EXT load(1, XDATA, add(CFA_XSP16, literal(-3)))
        CFI (cfiCond6) DPL0 load(1, XDATA, add(CFA_XSP16, literal(-2)))
        CFI (cfiCond6) DPH0 load(1, XDATA, add(CFA_XSP16, literal(-1)))
        CFI (cfiCond6) CFA_SP SP+0
        CFI (cfiCond6) CFA_XSP16 add(XSP16, 18)
        CFI Block cfiPicker7 Using cfiCommon1
        CFI (cfiPicker7) NoFunction
        CFI (cfiPicker7) Picker
        MOV     R4,#-0x30
        MOV     R5,#0x7
        MOV     R2,#0x2
        CFI EndBlock cfiCond4
        CFI EndBlock cfiCond5
        CFI EndBlock cfiCond6
        CFI EndBlock cfiPicker7
        REQUIRE ??Subroutine10_0
        ; // Fall through to label ??Subroutine10_0

        RSEG BANKED_CODE:CODE:NOROOT(0)
??Subroutine10_0:
        CFI Block cfiCond8 Using cfiCommon0
        CFI NoFunction
        CFI Conditional ??CrossCallReturnLabel_19
        CFI R6 load(1, XDATA, add(CFA_XSP16, literal(-10)))
        CFI VB load(1, XDATA, add(CFA_XSP16, literal(-9)))
        CFI V0 load(1, XDATA, add(CFA_XSP16, literal(-8)))
        CFI V1 load(1, XDATA, add(CFA_XSP16, literal(-7)))
        CFI R7 load(1, XDATA, add(CFA_XSP16, literal(-6)))
        CFI ?RET_LOW load(1, XDATA, add(CFA_XSP16, literal(-5)))
        CFI ?RET_HIGH load(1, XDATA, add(CFA_XSP16, literal(-4)))
        CFI ?BRET_EXT load(1, XDATA, add(CFA_XSP16, literal(-3)))
        CFI DPL0 load(1, XDATA, add(CFA_XSP16, literal(-2)))
        CFI DPH0 load(1, XDATA, add(CFA_XSP16, literal(-1)))
        CFI CFA_SP SP+0
        CFI CFA_XSP16 add(XSP16, 10)
        CFI Block cfiCond9 Using cfiCommon0
        CFI (cfiCond9) NoFunction
        CFI (cfiCond9) Conditional ??CrossCallReturnLabel_17
        CFI (cfiCond9) R6 load(1, XDATA, add(CFA_XSP16, literal(-16)))
        CFI (cfiCond9) VB load(1, XDATA, add(CFA_XSP16, literal(-15)))
        CFI (cfiCond9) V0 load(1, XDATA, add(CFA_XSP16, literal(-14)))
        CFI (cfiCond9) V1 load(1, XDATA, add(CFA_XSP16, literal(-13)))
        CFI (cfiCond9) V2 load(1, XDATA, add(CFA_XSP16, literal(-12)))
        CFI (cfiCond9) V3 load(1, XDATA, add(CFA_XSP16, literal(-11)))
        CFI (cfiCond9) V4 load(1, XDATA, add(CFA_XSP16, literal(-10)))
        CFI (cfiCond9) V5 load(1, XDATA, add(CFA_XSP16, literal(-9)))
        CFI (cfiCond9) V6 load(1, XDATA, add(CFA_XSP16, literal(-8)))
        CFI (cfiCond9) V7 load(1, XDATA, add(CFA_XSP16, literal(-7)))
        CFI (cfiCond9) R7 load(1, XDATA, add(CFA_XSP16, literal(-6)))
        CFI (cfiCond9) ?RET_LOW load(1, XDATA, add(CFA_XSP16, literal(-5)))
        CFI (cfiCond9) ?RET_HIGH load(1, XDATA, add(CFA_XSP16, literal(-4)))
        CFI (cfiCond9) ?BRET_EXT load(1, XDATA, add(CFA_XSP16, literal(-3)))
        CFI (cfiCond9) DPL0 load(1, XDATA, add(CFA_XSP16, literal(-2)))
        CFI (cfiCond9) DPH0 load(1, XDATA, add(CFA_XSP16, literal(-1)))
        CFI (cfiCond9) CFA_SP SP+0
        CFI (cfiCond9) CFA_XSP16 add(XSP16, 16)
        CFI Block cfiCond10 Using cfiCommon0
        CFI (cfiCond10) NoFunction
        CFI (cfiCond10) Conditional ??CrossCallReturnLabel_18, ??CrossCallReturnLabel_9
        CFI (cfiCond10) R6 load(1, XDATA, add(CFA_XSP16, literal(-16)))
        CFI (cfiCond10) VB load(1, XDATA, add(CFA_XSP16, literal(-15)))
        CFI (cfiCond10) V0 load(1, XDATA, add(CFA_XSP16, literal(-14)))
        CFI (cfiCond10) V1 load(1, XDATA, add(CFA_XSP16, literal(-13)))
        CFI (cfiCond10) V2 load(1, XDATA, add(CFA_XSP16, literal(-12)))
        CFI (cfiCond10) V3 load(1, XDATA, add(CFA_XSP16, literal(-11)))
        CFI (cfiCond10) V4 load(1, XDATA, add(CFA_XSP16, literal(-10)))
        CFI (cfiCond10) V5 load(1, XDATA, add(CFA_XSP16, literal(-9)))
        CFI (cfiCond10) V6 load(1, XDATA, add(CFA_XSP16, literal(-8)))
        CFI (cfiCond10) V7 load(1, XDATA, add(CFA_XSP16, literal(-7)))
        CFI (cfiCond10) R7 load(1, XDATA, add(CFA_XSP16, literal(-6)))
        CFI (cfiCond10) ?RET_LOW load(1, XDATA, add(CFA_XSP16, literal(-5)))
        CFI (cfiCond10) ?RET_HIGH load(1, XDATA, add(CFA_XSP16, literal(-4)))
        CFI (cfiCond10) ?BRET_EXT load(1, XDATA, add(CFA_XSP16, literal(-3)))
        CFI (cfiCond10) DPL0 load(1, XDATA, add(CFA_XSP16, literal(-2)))
        CFI (cfiCond10) DPH0 load(1, XDATA, add(CFA_XSP16, literal(-1)))
        CFI (cfiCond10) CFA_SP SP+0
        CFI (cfiCond10) CFA_XSP16 add(XSP16, 16)
        CFI Block cfiCond11 Using cfiCommon0
        CFI (cfiCond11) NoFunction
        CFI (cfiCond11) Conditional ??CrossCallReturnLabel_18, ??CrossCallReturnLabel_10
        CFI (cfiCond11) R6 load(1, XDATA, add(CFA_XSP16, literal(-18)))
        CFI (cfiCond11) VB load(1, XDATA, add(CFA_XSP16, literal(-17)))
        CFI (cfiCond11) V0 load(1, XDATA, add(CFA_XSP16, literal(-16)))
        CFI (cfiCond11) V1 load(1, XDATA, add(CFA_XSP16, literal(-15)))
        CFI (cfiCond11) V2 load(1, XDATA, add(CFA_XSP16, literal(-14)))
        CFI (cfiCond11) V3 load(1, XDATA, add(CFA_XSP16, literal(-13)))
        CFI (cfiCond11) V4 load(1, XDATA, add(CFA_XSP16, literal(-12)))
        CFI (cfiCond11) V5 load(1, XDATA, add(CFA_XSP16, literal(-11)))
        CFI (cfiCond11) V6 load(1, XDATA, add(CFA_XSP16, literal(-10)))
        CFI (cfiCond11) V7 load(1, XDATA, add(CFA_XSP16, literal(-9)))
        CFI (cfiCond11) V8 load(1, XDATA, add(CFA_XSP16, literal(-8)))
        CFI (cfiCond11) V9 load(1, XDATA, add(CFA_XSP16, literal(-7)))
        CFI (cfiCond11) R7 load(1, XDATA, add(CFA_XSP16, literal(-6)))
        CFI (cfiCond11) ?RET_LOW load(1, XDATA, add(CFA_XSP16, literal(-5)))
        CFI (cfiCond11) ?RET_HIGH load(1, XDATA, add(CFA_XSP16, literal(-4)))
        CFI (cfiCond11) ?BRET_EXT load(1, XDATA, add(CFA_XSP16, literal(-3)))
        CFI (cfiCond11) DPL0 load(1, XDATA, add(CFA_XSP16, literal(-2)))
        CFI (cfiCond11) DPH0 load(1, XDATA, add(CFA_XSP16, literal(-1)))
        CFI (cfiCond11) CFA_SP SP+0
        CFI (cfiCond11) CFA_XSP16 add(XSP16, 18)
        CFI Block cfiPicker12 Using cfiCommon1
        CFI (cfiPicker12) NoFunction
        CFI (cfiPicker12) Picker
        MOV     R3,#0x0
        MOV     DPTR,#TransmitApp_TaskID
        MOVX    A,@DPTR
        MOV     R1,A
        LCALL   ??osal_start_timerEx?relay
        RET
        CFI EndBlock cfiCond8
        CFI EndBlock cfiCond9
        CFI EndBlock cfiCond10
        CFI EndBlock cfiCond11
        CFI EndBlock cfiPicker12

        RSEG BANKED_CODE:CODE:NOROOT(0)
?Subroutine2:
        CFI Block cfiCond13 Using cfiCommon0
        CFI NoFunction
        CFI Conditional ??CrossCallReturnLabel_7
        CFI R6 load(1, XDATA, add(CFA_XSP16, literal(-16)))
        CFI VB load(1, XDATA, add(CFA_XSP16, literal(-15)))
        CFI V0 load(1, XDATA, add(CFA_XSP16, literal(-14)))
        CFI V1 load(1, XDATA, add(CFA_XSP16, literal(-13)))
        CFI V2 load(1, XDATA, add(CFA_XSP16, literal(-12)))
        CFI V3 load(1, XDATA, add(CFA_XSP16, literal(-11)))
        CFI V4 load(1, XDATA, add(CFA_XSP16, literal(-10)))
        CFI V5 load(1, XDATA, add(CFA_XSP16, literal(-9)))
        CFI V6 load(1, XDATA, add(CFA_XSP16, literal(-8)))
        CFI V7 load(1, XDATA, add(CFA_XSP16, literal(-7)))
        CFI R7 load(1, XDATA, add(CFA_XSP16, literal(-6)))
        CFI ?RET_LOW load(1, XDATA, add(CFA_XSP16, literal(-5)))
        CFI ?RET_HIGH load(1, XDATA, add(CFA_XSP16, literal(-4)))
        CFI ?BRET_EXT load(1, XDATA, add(CFA_XSP16, literal(-3)))
        CFI DPL0 load(1, XDATA, add(CFA_XSP16, literal(-2)))
        CFI DPH0 load(1, XDATA, add(CFA_XSP16, literal(-1)))
        CFI CFA_SP SP+0
        CFI CFA_XSP16 add(XSP16, 16)
        CFI Block cfiCond14 Using cfiCommon0
        CFI (cfiCond14) NoFunction
        CFI (cfiCond14) Conditional ??CrossCallReturnLabel_8
        CFI (cfiCond14) R6 load(1, XDATA, add(CFA_XSP16, literal(-16)))
        CFI (cfiCond14) VB load(1, XDATA, add(CFA_XSP16, literal(-15)))
        CFI (cfiCond14) V0 load(1, XDATA, add(CFA_XSP16, literal(-14)))
        CFI (cfiCond14) V1 load(1, XDATA, add(CFA_XSP16, literal(-13)))
        CFI (cfiCond14) V2 load(1, XDATA, add(CFA_XSP16, literal(-12)))
        CFI (cfiCond14) V3 load(1, XDATA, add(CFA_XSP16, literal(-11)))
        CFI (cfiCond14) V4 load(1, XDATA, add(CFA_XSP16, literal(-10)))
        CFI (cfiCond14) V5 load(1, XDATA, add(CFA_XSP16, literal(-9)))
        CFI (cfiCond14) V6 load(1, XDATA, add(CFA_XSP16, literal(-8)))
        CFI (cfiCond14) V7 load(1, XDATA, add(CFA_XSP16, literal(-7)))
        CFI (cfiCond14) R7 load(1, XDATA, add(CFA_XSP16, literal(-6)))
        CFI (cfiCond14) ?RET_LOW load(1, XDATA, add(CFA_XSP16, literal(-5)))
        CFI (cfiCond14) ?RET_HIGH load(1, XDATA, add(CFA_XSP16, literal(-4)))
        CFI (cfiCond14) ?BRET_EXT load(1, XDATA, add(CFA_XSP16, literal(-3)))
        CFI (cfiCond14) DPL0 load(1, XDATA, add(CFA_XSP16, literal(-2)))
        CFI (cfiCond14) DPH0 load(1, XDATA, add(CFA_XSP16, literal(-1)))
        CFI (cfiCond14) CFA_SP SP+0
        CFI (cfiCond14) CFA_XSP16 add(XSP16, 16)
        CFI Block cfiPicker15 Using cfiCommon1
        CFI (cfiPicker15) NoFunction
        CFI (cfiPicker15) Picker
        MOVX    A,@DPTR
        MOV     R2,A
        MOV     DPL,?V0 + 0
        MOV     DPH,?V0 + 1
        INC     DPTR
        INC     DPTR
        MOVX    A,@DPTR
        RET
        CFI EndBlock cfiCond13
        CFI EndBlock cfiCond14
        CFI EndBlock cfiPicker15
//  436 
//  437 /*********************************************************************
//  438  * Event Generation Functions
//  439  */
//  440 /*********************************************************************
//  441  * @fn      TransmitApp_ProcessZDOMsgs()
//  442  *
//  443  * @brief   Process response messages
//  444  *
//  445  * @param   none
//  446  *
//  447  * @return  none
//  448  */

        RSEG BANKED_CODE:CODE:NOROOT(0)
//  449 void TransmitApp_ProcessZDOMsgs( zdoIncomingMsg_t *inMsg )
TransmitApp_ProcessZDOMsgs:
        CFI Block cfiBlock16 Using cfiCommon0
        CFI Function TransmitApp_ProcessZDOMsgs
//  450 {
        FUNCALL TransmitApp_ProcessZDOMsgs, HalLedSet
        LOCFRAME ISTACK, 0, STACK
        LOCFRAME PSTACK, 0, STACK
        LOCFRAME XSTACK, 10, STACK
        LOCFRAME IOVERLAY, 0, STATIC
        LOCFRAME DOVERLAY, 0, STATIC
        ARGFRAME ISTACK, 0, STACK
        ARGFRAME PSTACK, 0, STACK
        ARGFRAME XSTACK, 10, STACK
        ARGFRAME IOVERLAY, 0, STATIC
        ARGFRAME DOVERLAY, 0, STATIC
        FUNCALL TransmitApp_ProcessZDOMsgs, HalLedSet
        LOCFRAME ISTACK, 0, STACK
        LOCFRAME PSTACK, 0, STACK
        LOCFRAME XSTACK, 10, STACK
        LOCFRAME IOVERLAY, 0, STATIC
        LOCFRAME DOVERLAY, 0, STATIC
        ARGFRAME ISTACK, 0, STACK
        ARGFRAME PSTACK, 0, STACK
        ARGFRAME XSTACK, 10, STACK
        ARGFRAME IOVERLAY, 0, STATIC
        ARGFRAME DOVERLAY, 0, STATIC
        FUNCALL TransmitApp_ProcessZDOMsgs, ZDO_ParseEPListRsp
        LOCFRAME ISTACK, 0, STACK
        LOCFRAME PSTACK, 0, STACK
        LOCFRAME XSTACK, 10, STACK
        LOCFRAME IOVERLAY, 0, STATIC
        LOCFRAME DOVERLAY, 0, STATIC
        ARGFRAME ISTACK, 0, STACK
        ARGFRAME PSTACK, 0, STACK
        ARGFRAME XSTACK, 10, STACK
        ARGFRAME IOVERLAY, 0, STATIC
        ARGFRAME DOVERLAY, 0, STATIC
        FUNCALL TransmitApp_ProcessZDOMsgs, HalLedSet
        LOCFRAME ISTACK, 0, STACK
        LOCFRAME PSTACK, 0, STACK
        LOCFRAME XSTACK, 10, STACK
        LOCFRAME IOVERLAY, 0, STATIC
        LOCFRAME DOVERLAY, 0, STATIC
        ARGFRAME ISTACK, 0, STACK
        ARGFRAME PSTACK, 0, STACK
        ARGFRAME XSTACK, 10, STACK
        ARGFRAME IOVERLAY, 0, STATIC
        ARGFRAME DOVERLAY, 0, STATIC
        FUNCALL TransmitApp_ProcessZDOMsgs, osal_mem_free
        LOCFRAME ISTACK, 0, STACK
        LOCFRAME PSTACK, 0, STACK
        LOCFRAME XSTACK, 10, STACK
        LOCFRAME IOVERLAY, 0, STATIC
        LOCFRAME DOVERLAY, 0, STATIC
        ARGFRAME ISTACK, 0, STACK
        ARGFRAME PSTACK, 0, STACK
        ARGFRAME XSTACK, 10, STACK
        ARGFRAME IOVERLAY, 0, STATIC
        ARGFRAME DOVERLAY, 0, STATIC
        MOV     A,#-0xa
        LCALL   ?BANKED_ENTER_XDATA
        CFI DPH0 load(1, XDATA, add(CFA_XSP16, literal(-1)))
        CFI DPL0 load(1, XDATA, add(CFA_XSP16, literal(-2)))
        CFI ?BRET_EXT load(1, XDATA, add(CFA_XSP16, literal(-3)))
        CFI ?RET_HIGH load(1, XDATA, add(CFA_XSP16, literal(-4)))
        CFI ?RET_LOW load(1, XDATA, add(CFA_XSP16, literal(-5)))
        CFI R7 load(1, XDATA, add(CFA_XSP16, literal(-6)))
        CFI V1 load(1, XDATA, add(CFA_XSP16, literal(-7)))
        CFI V0 load(1, XDATA, add(CFA_XSP16, literal(-8)))
        CFI VB load(1, XDATA, add(CFA_XSP16, literal(-9)))
        CFI R6 load(1, XDATA, add(CFA_XSP16, literal(-10)))
        CFI CFA_SP SP+0
        CFI CFA_XSP16 add(XSP16, 10)
        ; Saved register size: 10
        ; Auto size: 0
//  451   switch ( inMsg->clusterID )
        MOV     A,R2
        ADD     A,#0xc
        MOV     DPL,A
        MOV     A,R3
        ADDC    A,#0x0
        MOV     DPH,A
        MOVX    A,@DPTR
        MOV     ?V0 + 0,A
        INC     DPTR
        MOVX    A,@DPTR
        MOV     ?V0 + 1,A
        MOV     R0,#?V0 + 0
        LCALL   ?US_SWITCH_SPARSE
`?<Jumptable for TransmitApp_ProcessZDOMsgs>_0`:
        DATA
        DW        0
        DW        2
        DW        32774
        DW        ??TransmitApp_ProcessZDOMsgs_0
        DW        32800
        DW        ??TransmitApp_ProcessZDOMsgs_1
        DW        ??TransmitApp_ProcessZDOMsgs_2
        CODE
//  452   {
//  453     case End_Device_Bind_rsp:
//  454       if ( ZDO_ParseBindRsp( inMsg ) == ZSuccess )
??TransmitApp_ProcessZDOMsgs_1:
        MOV     A,R2
        ADD     A,#0x13
        MOV     DPL,A
        MOV     A,R3
        ADDC    A,#0x0
        MOV     DPH,A
        MOVX    A,@DPTR
        MOV     R0,A
        INC     DPTR
        MOVX    A,@DPTR
        MOV     DPH,A
        MOV     DPL,R0
        MOVX    A,@DPTR
        JNZ     ??TransmitApp_ProcessZDOMsgs_3
//  455       {
//  456         // Light LED
//  457         HalLedSet( HAL_LED_4, HAL_LED_MODE_ON );
        ; Setup parameters for call to function HalLedSet
        MOV     R2,#0x1
??TransmitApp_ProcessZDOMsgs_4:
        MOV     R1,#0x8
        LCALL   ??HalLedSet?relay
        SJMP    ??TransmitApp_ProcessZDOMsgs_2
//  458       }
//  459 #if defined(BLINK_LEDS)
//  460       else
//  461       {
//  462         // Flash LED to show failure
//  463         HalLedSet ( HAL_LED_4, HAL_LED_MODE_FLASH );
??TransmitApp_ProcessZDOMsgs_3:
        ; Setup parameters for call to function HalLedSet
        MOV     R2,#0x4
        SJMP    ??TransmitApp_ProcessZDOMsgs_4
//  464       }
//  465 #endif
//  466       break;
//  467 
//  468     case Match_Desc_rsp:
//  469       {
//  470         ZDO_ActiveEndpointRsp_t *pRsp = ZDO_ParseEPListRsp( inMsg );
??TransmitApp_ProcessZDOMsgs_0:
        ; Setup parameters for call to function ZDO_ParseEPListRsp
        LCALL   ??ZDO_ParseEPListRsp?relay
        MOV     ?V0 + 0,R2
        MOV     ?V0 + 1,R3
        MOV     R6,?V0 + 0
        MOV     R7,?V0 + 1
//  471         if ( pRsp )
        MOV     A,R6
        JNZ     ??TransmitApp_ProcessZDOMsgs_5
        MOV     A,R7
??TransmitApp_ProcessZDOMsgs_5:
        JZ      ??TransmitApp_ProcessZDOMsgs_2
//  472         {
//  473           if ( pRsp->status == ZSuccess && pRsp->cnt )
        MOV     DPL,R6
        MOV     DPH,R7
        MOVX    A,@DPTR
        JNZ     ??TransmitApp_ProcessZDOMsgs_6
        INC     DPTR
        INC     DPTR
        INC     DPTR
        MOVX    A,@DPTR
        JZ      ??TransmitApp_ProcessZDOMsgs_6
//  474           {
//  475             TransmitApp_DstAddr.addrMode = (afAddrMode_t)Addr16Bit;
        MOV     A,#0x2
        MOV     DPTR,#(TransmitApp_DstAddr + 8)
        MOVX    @DPTR,A
//  476             TransmitApp_DstAddr.addr.shortAddr = pRsp->nwkAddr;
        MOV     DPL,R6
        MOV     DPH,R7
        INC     DPTR
        MOVX    A,@DPTR
        MOV     R0,A
        INC     DPTR
        MOVX    A,@DPTR
        MOV     R1,A
        MOV     DPTR,#TransmitApp_DstAddr
        MOV     A,R0
        MOVX    @DPTR,A
        INC     DPTR
        MOV     A,R1
        MOVX    @DPTR,A
//  477             // Take the first endpoint, Can be changed to search through endpoints
//  478             TransmitApp_DstAddr.endPoint = pRsp->epList[0];
        MOV     DPL,R6
        MOV     DPH,R7
        INC     DPTR
        INC     DPTR
        INC     DPTR
        INC     DPTR
        MOVX    A,@DPTR
        MOV     DPTR,#(TransmitApp_DstAddr + 9)
        MOVX    @DPTR,A
//  479 
//  480             // Light LED
//  481             HalLedSet( HAL_LED_4, HAL_LED_MODE_ON );
        ; Setup parameters for call to function HalLedSet
        MOV     R2,#0x1
        MOV     R1,#0x8
        LCALL   ??HalLedSet?relay
//  482           }
//  483           osal_mem_free( pRsp );
??TransmitApp_ProcessZDOMsgs_6:
        ; Setup parameters for call to function osal_mem_free
        MOV     A,R6
        MOV     R2,A
        MOV     A,R7
        MOV     R3,A
        LCALL   ??osal_mem_free?relay
        CFI EndBlock cfiBlock16
//  484         }
//  485       }
//  486       break;
//  487   }
//  488 }
??TransmitApp_ProcessZDOMsgs_2:
        REQUIRE ?Subroutine9
        ; // Fall through to label ?Subroutine9

        RSEG BANKED_CODE:CODE:NOROOT(0)
?Subroutine9:
        CFI Block cfiBlock17 Using cfiCommon0
        CFI NoFunction
        CFI CFA_SP SP+0
        CFI CFA_XSP16 add(XSP16, 10)
        CFI VB load(1, XDATA, add(CFA_XSP16, literal(-9)))
        CFI DPL0 load(1, XDATA, add(CFA_XSP16, literal(-2)))
        CFI DPH0 load(1, XDATA, add(CFA_XSP16, literal(-1)))
        CFI R6 load(1, XDATA, add(CFA_XSP16, literal(-10)))
        CFI R7 load(1, XDATA, add(CFA_XSP16, literal(-6)))
        CFI V0 load(1, XDATA, add(CFA_XSP16, literal(-8)))
        CFI V1 load(1, XDATA, add(CFA_XSP16, literal(-7)))
        CFI ?BRET_EXT load(1, XDATA, add(CFA_XSP16, literal(-3)))
        CFI ?RET_HIGH load(1, XDATA, add(CFA_XSP16, literal(-4)))
        CFI ?RET_LOW load(1, XDATA, add(CFA_XSP16, literal(-5)))
        MOV     R7,#0x2
        LJMP    ?BANKED_LEAVE_XDATA
        CFI EndBlock cfiBlock17
//  489 
//  490 /*********************************************************************
//  491  * @fn      TransmitApp_HandleKeys
//  492  *
//  493  * @brief   Handles all key events for this device.
//  494  *
//  495  * @param   shift - true if in shift/alt.
//  496  * @param   keys - bit field for key events. Valid entries:
//  497  *                 EVAL_SW4
//  498  *                 EVAL_SW3
//  499  *                 EVAL_SW2
//  500  *                 EVAL_SW1
//  501  *
//  502  * @return  none
//  503  */

        RSEG BANKED_CODE:CODE:NOROOT(0)
//  504 void TransmitApp_HandleKeys( byte shift, byte keys )
TransmitApp_HandleKeys:
        CFI Block cfiBlock18 Using cfiCommon0
        CFI Function TransmitApp_HandleKeys
//  505 {
        FUNCALL TransmitApp_HandleKeys, TransmitApp_ChangeState
        LOCFRAME ISTACK, 0, STACK
        LOCFRAME PSTACK, 0, STACK
        LOCFRAME XSTACK, 25, STACK
        LOCFRAME IOVERLAY, 0, STATIC
        LOCFRAME DOVERLAY, 0, STATIC
        ARGFRAME ISTACK, 0, STACK
        ARGFRAME PSTACK, 0, STACK
        ARGFRAME XSTACK, 25, STACK
        ARGFRAME IOVERLAY, 0, STATIC
        ARGFRAME DOVERLAY, 0, STATIC
        FUNCALL TransmitApp_HandleKeys, HalLedSet
        LOCFRAME ISTACK, 0, STACK
        LOCFRAME PSTACK, 0, STACK
        LOCFRAME XSTACK, 25, STACK
        LOCFRAME IOVERLAY, 0, STATIC
        LOCFRAME DOVERLAY, 0, STATIC
        ARGFRAME ISTACK, 0, STACK
        ARGFRAME PSTACK, 0, STACK
        ARGFRAME XSTACK, 25, STACK
        ARGFRAME IOVERLAY, 0, STATIC
        ARGFRAME DOVERLAY, 0, STATIC
        FUNCALL TransmitApp_HandleKeys, NLME_GetShortAddr
        LOCFRAME ISTACK, 0, STACK
        LOCFRAME PSTACK, 0, STACK
        LOCFRAME XSTACK, 25, STACK
        LOCFRAME IOVERLAY, 0, STATIC
        LOCFRAME DOVERLAY, 0, STATIC
        ARGFRAME ISTACK, 0, STACK
        ARGFRAME PSTACK, 0, STACK
        ARGFRAME XSTACK, 25, STACK
        ARGFRAME IOVERLAY, 0, STATIC
        ARGFRAME DOVERLAY, 0, STATIC
        FUNCALL TransmitApp_HandleKeys, ZDP_EndDeviceBindReq
        LOCFRAME ISTACK, 0, STACK
        LOCFRAME PSTACK, 0, STACK
        LOCFRAME XSTACK, 34, STACK
        LOCFRAME IOVERLAY, 0, STATIC
        LOCFRAME DOVERLAY, 0, STATIC
        ARGFRAME ISTACK, 0, STACK
        ARGFRAME PSTACK, 0, STACK
        ARGFRAME XSTACK, 34, STACK
        ARGFRAME IOVERLAY, 0, STATIC
        ARGFRAME DOVERLAY, 0, STATIC
        FUNCALL TransmitApp_HandleKeys, TransmitApp_DisplayResults
        LOCFRAME ISTACK, 0, STACK
        LOCFRAME PSTACK, 0, STACK
        LOCFRAME XSTACK, 25, STACK
        LOCFRAME IOVERLAY, 0, STATIC
        LOCFRAME DOVERLAY, 0, STATIC
        ARGFRAME ISTACK, 0, STACK
        ARGFRAME PSTACK, 0, STACK
        ARGFRAME XSTACK, 25, STACK
        ARGFRAME IOVERLAY, 0, STATIC
        ARGFRAME DOVERLAY, 0, STATIC
        FUNCALL TransmitApp_HandleKeys, HalLedSet
        LOCFRAME ISTACK, 0, STACK
        LOCFRAME PSTACK, 0, STACK
        LOCFRAME XSTACK, 25, STACK
        LOCFRAME IOVERLAY, 0, STATIC
        LOCFRAME DOVERLAY, 0, STATIC
        ARGFRAME ISTACK, 0, STACK
        ARGFRAME PSTACK, 0, STACK
        ARGFRAME XSTACK, 25, STACK
        ARGFRAME IOVERLAY, 0, STATIC
        ARGFRAME DOVERLAY, 0, STATIC
        FUNCALL TransmitApp_HandleKeys, ZDP_MatchDescReq
        LOCFRAME ISTACK, 0, STACK
        LOCFRAME PSTACK, 0, STACK
        LOCFRAME XSTACK, 33, STACK
        LOCFRAME IOVERLAY, 0, STATIC
        LOCFRAME DOVERLAY, 0, STATIC
        ARGFRAME ISTACK, 0, STACK
        ARGFRAME PSTACK, 0, STACK
        ARGFRAME XSTACK, 33, STACK
        ARGFRAME IOVERLAY, 0, STATIC
        ARGFRAME DOVERLAY, 0, STATIC
        MOV     A,#-0x10
        LCALL   ?BANKED_ENTER_XDATA
        CFI DPH0 load(1, XDATA, add(CFA_XSP16, literal(-1)))
        CFI DPL0 load(1, XDATA, add(CFA_XSP16, literal(-2)))
        CFI ?BRET_EXT load(1, XDATA, add(CFA_XSP16, literal(-3)))
        CFI ?RET_HIGH load(1, XDATA, add(CFA_XSP16, literal(-4)))
        CFI ?RET_LOW load(1, XDATA, add(CFA_XSP16, literal(-5)))
        CFI R7 load(1, XDATA, add(CFA_XSP16, literal(-6)))
        CFI V7 load(1, XDATA, add(CFA_XSP16, literal(-7)))
        CFI V6 load(1, XDATA, add(CFA_XSP16, literal(-8)))
        CFI V5 load(1, XDATA, add(CFA_XSP16, literal(-9)))
        CFI V4 load(1, XDATA, add(CFA_XSP16, literal(-10)))
        CFI V3 load(1, XDATA, add(CFA_XSP16, literal(-11)))
        CFI V2 load(1, XDATA, add(CFA_XSP16, literal(-12)))
        CFI V1 load(1, XDATA, add(CFA_XSP16, literal(-13)))
        CFI V0 load(1, XDATA, add(CFA_XSP16, literal(-14)))
        CFI VB load(1, XDATA, add(CFA_XSP16, literal(-15)))
        CFI R6 load(1, XDATA, add(CFA_XSP16, literal(-16)))
        CFI CFA_SP SP+0
        CFI CFA_XSP16 add(XSP16, 16)
        ; Saved register size: 16
        ; Auto size: 9
        MOV     A,#-0x9
        LCALL   ?ALLOC_XSTACK8
        CFI CFA_XSP16 add(XSP16, 25)
        MOV     A,R2
        MOV     R6,A
//  506   zAddrType_t dstAddr;
//  507 
//  508   // Shift is used to make each button/switch dual purpose.
//  509   if ( shift )
        MOV     A,R1
        JZ      $+5
        LJMP    ??TransmitApp_HandleKeys_0 & 0xFFFF
//  510   {
//  511     if ( keys & HAL_KEY_SW_1 )
//  512     {
//  513     }
//  514     if ( keys & HAL_KEY_SW_2 )
//  515     {
//  516     }
//  517     if ( keys & HAL_KEY_SW_3 )
//  518     {
//  519     }
//  520     if ( keys & HAL_KEY_SW_4 )
//  521     {
//  522     }
//  523   }
//  524   else
//  525   {
//  526     if ( keys & HAL_KEY_SW_1 )
        MOV     A,R6
        MOV     C,0xE0 /* A   */.0
        JNC     ??TransmitApp_HandleKeys_1
//  527     {
//  528       TransmitApp_ChangeState();
        ; Setup parameters for call to function TransmitApp_ChangeState
        LCALL   ??TransmitApp_ChangeState?relay
//  529     }
//  530 
//  531     if ( keys & HAL_KEY_SW_2 )
??TransmitApp_HandleKeys_1:
        MOV     ?V0 + 0,#(TransmitApp_ClusterList & 0xff)
        MOV     ?V0 + 1,#((TransmitApp_ClusterList >> 8) & 0xff)
        MOV     A,R6
        MOV     C,0xE0 /* A   */.1
        JNC     ??TransmitApp_HandleKeys_2
//  532     {
//  533       HalLedSet ( HAL_LED_4, HAL_LED_MODE_OFF );
        ; Setup parameters for call to function HalLedSet
        MOV     R2,#0x0
        MOV     R1,#0x8
        LCALL   ??HalLedSet?relay
//  534 
//  535       // Initiate an End Device Bind Request for the mandatory endpoint
//  536       dstAddr.addrMode = Addr16Bit;
        MOV     A,#0x8
        LCALL   ?XSTACK_DISP0_8
        MOV     A,#0x2
        LCALL   ?Subroutine1 & 0xFFFF
//  537       dstAddr.addr.shortAddr = 0x0000; // Coordinator
??CrossCallReturnLabel_5:
        CLR     A
        MOVX    @DPTR,A
        INC     DPTR
        MOVX    @DPTR,A
//  538       ZDP_EndDeviceBindReq( &dstAddr, NLME_GetShortAddr(),
//  539                             TransmitApp_epDesc.endPoint,
//  540                             TRANSMITAPP_PROFID,
//  541                             TRANSMITAPP_MAX_CLUSTERS, (cId_t *)TransmitApp_ClusterList,
//  542                             TRANSMITAPP_MAX_CLUSTERS, (cId_t *)TransmitApp_ClusterList,
//  543                             FALSE );
        ; Setup parameters for call to function NLME_GetShortAddr
        LCALL   ??NLME_GetShortAddr?relay
        MOV     ?V0 + 2,R2
        MOV     ?V0 + 3,R3
        MOV     R4,?V0 + 2
        MOV     R5,?V0 + 3
        ; Setup parameters for call to function ZDP_EndDeviceBindReq
        MOV     ?V0 + 2,#0x0
        MOV     R0,#?V0 + 2
        LCALL   ?PUSH_XSTACK_I_ONE
        CFI CFA_XSP16 add(XSP16, 26)
        MOV     R0,#?V0 + 0
        LCALL   ?PUSH_XSTACK_I_TWO
        CFI CFA_XSP16 add(XSP16, 28)
        MOV     ?V0 + 2,#0x1
        MOV     R0,#?V0 + 2
        LCALL   ?PUSH_XSTACK_I_ONE
        CFI CFA_XSP16 add(XSP16, 29)
        MOV     R0,#?V0 + 0
        LCALL   ?PUSH_XSTACK_I_TWO
        CFI CFA_XSP16 add(XSP16, 31)
        MOV     R0,#?V0 + 2
        LCALL   ?PUSH_XSTACK_I_ONE
        CFI CFA_XSP16 add(XSP16, 32)
        MOV     ?V0 + 2,#0x5
        MOV     ?V0 + 3,#0xf
        MOV     R0,#?V0 + 2
        LCALL   ?PUSH_XSTACK_I_TWO
        CFI CFA_XSP16 add(XSP16, 34)
        MOV     DPTR,#TransmitApp_epDesc
        MOVX    A,@DPTR
        MOV     R1,A
        MOV     A,#0x9
        LCALL   ?XSTACK_DISP0_8
        MOV     R2,DPL
        MOV     R3,DPH
        LCALL   ??ZDP_EndDeviceBindReq?relay
        MOV     A,#0x9
        LCALL   ?DEALLOC_XSTACK8
        CFI CFA_XSP16 add(XSP16, 25)
//  544     }
//  545 
//  546     if ( keys & HAL_KEY_SW_3 )
??TransmitApp_HandleKeys_2:
        MOV     A,R6
        MOV     C,0xE0 /* A   */.4
        JNC     ??TransmitApp_HandleKeys_3
//  547     {
//  548       rxTotal = txTotal = 0;
        MOV     DPTR,#__Constant_0
        MOV     R0,#?V0 + 4
        LCALL   ?L_MOV_X
        MOV     DPTR,#txTotal
        MOV     R0,#?V0 + 4
        LCALL   ?L_MOV_TO_X
        MOV     DPTR,#__Constant_0
        MOV     R0,#?V0 + 4
        LCALL   ?L_MOV_X
        MOV     DPTR,#rxTotal
        MOV     R0,#?V0 + 4
        LCALL   ?L_MOV_TO_X
//  549       rxAccum = txAccum = 0;
        MOV     DPTR,#__Constant_0
        MOV     R0,#?V0 + 4
        LCALL   ?L_MOV_X
        MOV     DPTR,#txAccum
        MOV     R0,#?V0 + 4
        LCALL   ?L_MOV_TO_X
        MOV     DPTR,#__Constant_0
        MOV     R0,#?V0 + 4
        LCALL   ?L_MOV_X
        MOV     DPTR,#rxAccum
        MOV     R0,#?V0 + 4
        LCALL   ?L_MOV_TO_X
//  550       TransmitApp_DisplayResults();
        ; Setup parameters for call to function TransmitApp_DisplayResults
        LCALL   ??TransmitApp_DisplayResults?relay
//  551     }
//  552 
//  553     if ( keys & HAL_KEY_SW_4 )
??TransmitApp_HandleKeys_3:
        MOV     A,R6
        MOV     C,0xE0 /* A   */.3
        JNC     ??TransmitApp_HandleKeys_0
//  554     {
//  555       HalLedSet ( HAL_LED_4, HAL_LED_MODE_OFF );
        ; Setup parameters for call to function HalLedSet
        MOV     R2,#0x0
        MOV     R1,#0x8
        LCALL   ??HalLedSet?relay
//  556 
//  557       // Initiate a Match Description Request (Service Discovery)
//  558       dstAddr.addrMode = AddrBroadcast;
        MOV     A,#0x8
        LCALL   ?XSTACK_DISP0_8
        MOV     A,#0xf
        LCALL   ?Subroutine1 & 0xFFFF
//  559       dstAddr.addr.shortAddr = NWK_BROADCAST_SHORTADDR;
??CrossCallReturnLabel_6:
        MOV     A,#-0x1
        MOVX    @DPTR,A
        INC     DPTR
        MOVX    @DPTR,A
//  560       ZDP_MatchDescReq( &dstAddr, NWK_BROADCAST_SHORTADDR,
//  561                         TRANSMITAPP_PROFID,
//  562                         TRANSMITAPP_MAX_CLUSTERS, (cId_t *)TransmitApp_ClusterList,
//  563                         TRANSMITAPP_MAX_CLUSTERS, (cId_t *)TransmitApp_ClusterList,
//  564                         FALSE );
        ; Setup parameters for call to function ZDP_MatchDescReq
        MOV     ?V0 + 2,#0x0
        MOV     R0,#?V0 + 2
        LCALL   ?PUSH_XSTACK_I_ONE
        CFI CFA_XSP16 add(XSP16, 26)
        MOV     R0,#?V0 + 0
        LCALL   ?PUSH_XSTACK_I_TWO
        CFI CFA_XSP16 add(XSP16, 28)
        MOV     ?V0 + 2,#0x1
        MOV     R0,#?V0 + 2
        LCALL   ?PUSH_XSTACK_I_ONE
        CFI CFA_XSP16 add(XSP16, 29)
        MOV     R0,#?V0 + 0
        LCALL   ?PUSH_XSTACK_I_TWO
        CFI CFA_XSP16 add(XSP16, 31)
        MOV     ?V0 + 0,#0x5
        MOV     ?V0 + 1,#0xf
        MOV     R0,#?V0 + 0
        LCALL   ?PUSH_XSTACK_I_TWO
        CFI CFA_XSP16 add(XSP16, 33)
        MOV     R1,#0x1
        MOV     R4,#-0x1
        MOV     R5,#-0x1
        MOV     A,#0x8
        LCALL   ?XSTACK_DISP0_8
        MOV     R2,DPL
        MOV     R3,DPH
        LCALL   ??ZDP_MatchDescReq?relay
        MOV     A,#0x8
        LCALL   ?DEALLOC_XSTACK8
        CFI CFA_XSP16 add(XSP16, 25)
//  565     }
//  566   }
//  567 }
??TransmitApp_HandleKeys_0:
        MOV     A,#0x9
        LCALL   ?DEALLOC_XSTACK8
        CFI CFA_XSP16 add(XSP16, 16)
        LJMP    ?Subroutine8 & 0xFFFF
        CFI EndBlock cfiBlock18

        RSEG BANKED_CODE:CODE:NOROOT(0)
?Subroutine1:
        CFI Block cfiCond19 Using cfiCommon0
        CFI NoFunction
        CFI Conditional ??CrossCallReturnLabel_4
        CFI DPL0 Frame(CFA_SP, 4)
        CFI DPH0 Frame(CFA_SP, 5)
        CFI CFA_SP SP+-5
        CFI CFA_XSP16 add(XSP16, 2)
        CFI Block cfiCond20 Using cfiCommon0
        CFI (cfiCond20) NoFunction
        CFI (cfiCond20) Conditional ??CrossCallReturnLabel_5
        CFI (cfiCond20) R6 load(1, XDATA, add(CFA_XSP16, literal(-16)))
        CFI (cfiCond20) VB load(1, XDATA, add(CFA_XSP16, literal(-15)))
        CFI (cfiCond20) V0 load(1, XDATA, add(CFA_XSP16, literal(-14)))
        CFI (cfiCond20) V1 load(1, XDATA, add(CFA_XSP16, literal(-13)))
        CFI (cfiCond20) V2 load(1, XDATA, add(CFA_XSP16, literal(-12)))
        CFI (cfiCond20) V3 load(1, XDATA, add(CFA_XSP16, literal(-11)))
        CFI (cfiCond20) V4 load(1, XDATA, add(CFA_XSP16, literal(-10)))
        CFI (cfiCond20) V5 load(1, XDATA, add(CFA_XSP16, literal(-9)))
        CFI (cfiCond20) V6 load(1, XDATA, add(CFA_XSP16, literal(-8)))
        CFI (cfiCond20) V7 load(1, XDATA, add(CFA_XSP16, literal(-7)))
        CFI (cfiCond20) R7 load(1, XDATA, add(CFA_XSP16, literal(-6)))
        CFI (cfiCond20) ?RET_LOW load(1, XDATA, add(CFA_XSP16, literal(-5)))
        CFI (cfiCond20) ?RET_HIGH load(1, XDATA, add(CFA_XSP16, literal(-4)))
        CFI (cfiCond20) ?BRET_EXT load(1, XDATA, add(CFA_XSP16, literal(-3)))
        CFI (cfiCond20) DPL0 load(1, XDATA, add(CFA_XSP16, literal(-2)))
        CFI (cfiCond20) DPH0 load(1, XDATA, add(CFA_XSP16, literal(-1)))
        CFI (cfiCond20) CFA_SP SP+0
        CFI (cfiCond20) CFA_XSP16 add(XSP16, 25)
        CFI Block cfiCond21 Using cfiCommon0
        CFI (cfiCond21) NoFunction
        CFI (cfiCond21) Conditional ??CrossCallReturnLabel_6
        CFI (cfiCond21) R6 load(1, XDATA, add(CFA_XSP16, literal(-16)))
        CFI (cfiCond21) VB load(1, XDATA, add(CFA_XSP16, literal(-15)))
        CFI (cfiCond21) V0 load(1, XDATA, add(CFA_XSP16, literal(-14)))
        CFI (cfiCond21) V1 load(1, XDATA, add(CFA_XSP16, literal(-13)))
        CFI (cfiCond21) V2 load(1, XDATA, add(CFA_XSP16, literal(-12)))
        CFI (cfiCond21) V3 load(1, XDATA, add(CFA_XSP16, literal(-11)))
        CFI (cfiCond21) V4 load(1, XDATA, add(CFA_XSP16, literal(-10)))
        CFI (cfiCond21) V5 load(1, XDATA, add(CFA_XSP16, literal(-9)))
        CFI (cfiCond21) V6 load(1, XDATA, add(CFA_XSP16, literal(-8)))
        CFI (cfiCond21) V7 load(1, XDATA, add(CFA_XSP16, literal(-7)))
        CFI (cfiCond21) R7 load(1, XDATA, add(CFA_XSP16, literal(-6)))
        CFI (cfiCond21) ?RET_LOW load(1, XDATA, add(CFA_XSP16, literal(-5)))
        CFI (cfiCond21) ?RET_HIGH load(1, XDATA, add(CFA_XSP16, literal(-4)))
        CFI (cfiCond21) ?BRET_EXT load(1, XDATA, add(CFA_XSP16, literal(-3)))
        CFI (cfiCond21) DPL0 load(1, XDATA, add(CFA_XSP16, literal(-2)))
        CFI (cfiCond21) DPH0 load(1, XDATA, add(CFA_XSP16, literal(-1)))
        CFI (cfiCond21) CFA_SP SP+0
        CFI (cfiCond21) CFA_XSP16 add(XSP16, 25)
        CFI Block cfiPicker22 Using cfiCommon1
        CFI (cfiPicker22) NoFunction
        CFI (cfiPicker22) Picker
        MOVX    @DPTR,A
        ; Setup parameters for call to function afDataReqMTU
        MOV     DPL,?XSP + 0
        MOV     DPH,?XSP + 1
        RET
        CFI EndBlock cfiCond19
        CFI EndBlock cfiCond20
        CFI EndBlock cfiCond21
        CFI EndBlock cfiPicker22
//  568 
//  569 /*********************************************************************
//  570  * LOCAL FUNCTIONS
//  571  */
//  572 
//  573 /*********************************************************************
//  574  * @fn      TransmitApp_MessageMSGCB
//  575  *
//  576  * @brief   Data message processor callback.  This function processes
//  577  *          any incoming data - probably from other devices.  So, based
//  578  *          on cluster ID, perform the intended action.
//  579  *
//  580  * @param   none
//  581  *
//  582  * @return  none
//  583  */

        RSEG BANKED_CODE:CODE:NOROOT(0)
//  584 void TransmitApp_MessageMSGCB( afIncomingMSGPacket_t *pkt )
TransmitApp_MessageMSGCB:
        CFI Block cfiBlock23 Using cfiCommon0
        CFI Function TransmitApp_MessageMSGCB
//  585 {
        FUNCALL TransmitApp_MessageMSGCB, HalLedSet
        LOCFRAME ISTACK, 0, STACK
        LOCFRAME PSTACK, 0, STACK
        LOCFRAME XSTACK, 18, STACK
        LOCFRAME IOVERLAY, 0, STATIC
        LOCFRAME DOVERLAY, 0, STATIC
        ARGFRAME ISTACK, 0, STACK
        ARGFRAME PSTACK, 0, STACK
        ARGFRAME XSTACK, 18, STACK
        ARGFRAME IOVERLAY, 0, STATIC
        ARGFRAME DOVERLAY, 0, STATIC
        FUNCALL TransmitApp_MessageMSGCB, osal_start_timerEx
        LOCFRAME ISTACK, 0, STACK
        LOCFRAME PSTACK, 0, STACK
        LOCFRAME XSTACK, 18, STACK
        LOCFRAME IOVERLAY, 0, STATIC
        LOCFRAME DOVERLAY, 0, STATIC
        ARGFRAME ISTACK, 0, STACK
        ARGFRAME PSTACK, 0, STACK
        ARGFRAME XSTACK, 18, STACK
        ARGFRAME IOVERLAY, 0, STATIC
        ARGFRAME DOVERLAY, 0, STATIC
        FUNCALL TransmitApp_MessageMSGCB, osal_GetSystemClock
        LOCFRAME ISTACK, 0, STACK
        LOCFRAME PSTACK, 0, STACK
        LOCFRAME XSTACK, 18, STACK
        LOCFRAME IOVERLAY, 0, STATIC
        LOCFRAME DOVERLAY, 0, STATIC
        ARGFRAME ISTACK, 0, STACK
        ARGFRAME PSTACK, 0, STACK
        ARGFRAME XSTACK, 18, STACK
        ARGFRAME IOVERLAY, 0, STATIC
        ARGFRAME DOVERLAY, 0, STATIC
        MOV     A,#-0x12
        LCALL   ?BANKED_ENTER_XDATA
        CFI DPH0 load(1, XDATA, add(CFA_XSP16, literal(-1)))
        CFI DPL0 load(1, XDATA, add(CFA_XSP16, literal(-2)))
        CFI ?BRET_EXT load(1, XDATA, add(CFA_XSP16, literal(-3)))
        CFI ?RET_HIGH load(1, XDATA, add(CFA_XSP16, literal(-4)))
        CFI ?RET_LOW load(1, XDATA, add(CFA_XSP16, literal(-5)))
        CFI R7 load(1, XDATA, add(CFA_XSP16, literal(-6)))
        CFI V9 load(1, XDATA, add(CFA_XSP16, literal(-7)))
        CFI V8 load(1, XDATA, add(CFA_XSP16, literal(-8)))
        CFI V7 load(1, XDATA, add(CFA_XSP16, literal(-9)))
        CFI V6 load(1, XDATA, add(CFA_XSP16, literal(-10)))
        CFI V5 load(1, XDATA, add(CFA_XSP16, literal(-11)))
        CFI V4 load(1, XDATA, add(CFA_XSP16, literal(-12)))
        CFI V3 load(1, XDATA, add(CFA_XSP16, literal(-13)))
        CFI V2 load(1, XDATA, add(CFA_XSP16, literal(-14)))
        CFI V1 load(1, XDATA, add(CFA_XSP16, literal(-15)))
        CFI V0 load(1, XDATA, add(CFA_XSP16, literal(-16)))
        CFI VB load(1, XDATA, add(CFA_XSP16, literal(-17)))
        CFI R6 load(1, XDATA, add(CFA_XSP16, literal(-18)))
        CFI CFA_SP SP+0
        CFI CFA_XSP16 add(XSP16, 18)
        ; Saved register size: 18
        ; Auto size: 0
        MOV     ?V0 + 0,R2
        MOV     ?V0 + 1,R3
//  586   int16 i;
//  587   uint8 error = FALSE;
        MOV     ?V0 + 6,#0x0
//  588 
//  589   switch ( pkt->clusterId )
        MOV     DPL,R2
        MOV     DPH,R3
        INC     DPTR
        INC     DPTR
        INC     DPTR
        INC     DPTR
        MOVX    A,@DPTR
        XRL     A,#0x1
        JNZ     ??TransmitApp_MessageMSGCB_0
        INC     DPTR
        MOVX    A,@DPTR
??TransmitApp_MessageMSGCB_0:
        JZ      $+5
        LJMP    ??TransmitApp_MessageMSGCB_1 & 0xFFFF
//  590   {
//  591     case TRANSMITAPP_CLUSTERID_TESTMSG:
//  592 #if !defined ( TRANSMITAPP_RANDOM_LEN )
//  593       if (pkt->cmd.DataLength != TransmitApp_MaxDataLength)
        MOV     A,R2
        ADD     A,#0x1f
        MOV     R6,A
        MOV     A,R3
        ADDC    A,#0x0
        MOV     R7,A
        MOV     DPL,R6
        MOV     DPH,R7
        MOVX    A,@DPTR
        MOV     ?V0 + 2,A
        INC     DPTR
        MOVX    A,@DPTR
        MOV     ?V0 + 3,A
        MOV     DPTR,#TransmitApp_MaxDataLength
        MOVX    A,@DPTR
        XRL     A,?V0 + 2
        JNZ     ??TransmitApp_MessageMSGCB_2
        INC     DPTR
        MOVX    A,@DPTR
        XRL     A,?V0 + 3
??TransmitApp_MessageMSGCB_2:
        JZ      ??TransmitApp_MessageMSGCB_3
//  594       {
//  595         error = TRUE;
        MOV     ?V0 + 6,#0x1
//  596       }
//  597 #endif
//  598 
//  599       for (i=4; i<pkt->cmd.DataLength; i++)
??TransmitApp_MessageMSGCB_3:
        MOV     R4,#0x4
        MOV     R5,#0x0
        SJMP    ??TransmitApp_MessageMSGCB_4
//  600       {
//  601         if (pkt->cmd.Data[i] != i%256)
??TransmitApp_MessageMSGCB_5:
        MOV     A,?V0 + 0
        ADD     A,#0x21
        MOV     DPL,A
        MOV     A,?V0 + 1
        ADDC    A,#0x0
        MOV     DPH,A
        MOVX    A,@DPTR
        ADD     A,R4
        MOV     R2,A
        INC     DPTR
        MOVX    A,@DPTR
        ADDC    A,R5
        MOV     DPL,R2
        MOV     DPH,A
        MOVX    A,@DPTR
        MOV     ?V0 + 4,A
        MOV     A,R4
        MOV     R0,A
        MOV     A,R5
        MOV     R1,A
        MOV     R2,#0x0
        MOV     R3,#0x1
        LCALL   ?S_DIV_MOD
        MOV     A,R2
        XRL     A,?V0 + 4
        JNZ     ??TransmitApp_MessageMSGCB_6
        MOV     A,R3
??TransmitApp_MessageMSGCB_6:
        JZ      ??TransmitApp_MessageMSGCB_7
//  602           error = TRUE;
        MOV     ?V0 + 6,#0x1
//  603       }
??TransmitApp_MessageMSGCB_7:
        MOV     A,R4
        ADD     A,#0x1
        INC     R4
        MOV     A,R5
        ADDC    A,#0x0
        MOV     R5,A
??TransmitApp_MessageMSGCB_4:
        CLR     C
        MOV     A,R4
        SUBB    A,?V0 + 2
        MOV     A,R5
        SUBB    A,?V0 + 3
        JC      ??TransmitApp_MessageMSGCB_5
//  604 
//  605       if (error)
        MOV     A,?V0 + 6
        JZ      ??TransmitApp_MessageMSGCB_8
//  606       {
//  607         // Display error LED
//  608         HalLedSet(HAL_LED_1, HAL_LED_MODE_ON);
        ; Setup parameters for call to function HalLedSet
        MOV     R2,#0x1
        MOV     R1,#0x1
        LCALL   ??HalLedSet?relay
        SJMP    ??TransmitApp_MessageMSGCB_1
//  609       }
//  610       else
//  611       {
//  612         if ( !timerOn )
??TransmitApp_MessageMSGCB_8:
        MOV     DPTR,#timerOn
        MOVX    A,@DPTR
        JNZ     ??TransmitApp_MessageMSGCB_9
//  613         {
//  614           osal_start_timerEx( TransmitApp_TaskID, TRANSMITAPP_RCVTIMER_EVT,
//  615                                                   TRANSMITAPP_DISPLAY_TIMER );
        ; Setup parameters for call to function osal_start_timerEx
        LCALL   ?Subroutine3 & 0xFFFF
//  616           clkShdw = osal_GetSystemClock();
??CrossCallReturnLabel_10:
        MOV     ?V0 + 0,R2
        MOV     ?V0 + 1,R3
        MOV     ?V0 + 2,R4
        MOV     ?V0 + 3,R5
        MOV     DPTR,#clkShdw
        MOV     R0,#?V0 + 0
        LCALL   ?L_MOV_TO_X
//  617           timerOn = TRUE;
        MOV     A,#0x1
        MOV     DPTR,#timerOn
        MOVX    @DPTR,A
//  618         }
//  619         rxAccum += pkt->cmd.DataLength;
??TransmitApp_MessageMSGCB_9:
        MOV     DPL,R6
        MOV     DPH,R7
        MOVX    A,@DPTR
        MOV     ?V0 + 0,A
        INC     DPTR
        MOVX    A,@DPTR
        MOV     ?V0 + 1,A
        MOV     ?V0 + 2,#0x0
        MOV     ?V0 + 3,#0x0
        MOV     DPTR,#rxAccum
        MOV     R0,#?V0 + 0
        LCALL   ?L_ADD_TO_X
//  620       }
//  621       break;
//  622 
//  623     // Could receive control messages in the future.
//  624     default:
//  625       break;
//  626   }
//  627 }
??TransmitApp_MessageMSGCB_1:
        MOV     R7,#0xa
        LJMP    ?BANKED_LEAVE_XDATA
        CFI EndBlock cfiBlock23

        RSEG BANKED_CODE:CODE:NOROOT(0)
?Subroutine3:
        CFI Block cfiCond24 Using cfiCommon0
        CFI NoFunction
        CFI Conditional ??CrossCallReturnLabel_9
        CFI R6 load(1, XDATA, add(CFA_XSP16, literal(-16)))
        CFI VB load(1, XDATA, add(CFA_XSP16, literal(-15)))
        CFI V0 load(1, XDATA, add(CFA_XSP16, literal(-14)))
        CFI V1 load(1, XDATA, add(CFA_XSP16, literal(-13)))
        CFI V2 load(1, XDATA, add(CFA_XSP16, literal(-12)))
        CFI V3 load(1, XDATA, add(CFA_XSP16, literal(-11)))
        CFI V4 load(1, XDATA, add(CFA_XSP16, literal(-10)))
        CFI V5 load(1, XDATA, add(CFA_XSP16, literal(-9)))
        CFI V6 load(1, XDATA, add(CFA_XSP16, literal(-8)))
        CFI V7 load(1, XDATA, add(CFA_XSP16, literal(-7)))
        CFI R7 load(1, XDATA, add(CFA_XSP16, literal(-6)))
        CFI ?RET_LOW load(1, XDATA, add(CFA_XSP16, literal(-5)))
        CFI ?RET_HIGH load(1, XDATA, add(CFA_XSP16, literal(-4)))
        CFI ?BRET_EXT load(1, XDATA, add(CFA_XSP16, literal(-3)))
        CFI DPL0 load(1, XDATA, add(CFA_XSP16, literal(-2)))
        CFI DPH0 load(1, XDATA, add(CFA_XSP16, literal(-1)))
        CFI CFA_SP SP+0
        CFI CFA_XSP16 add(XSP16, 16)
        CFI Block cfiCond25 Using cfiCommon0
        CFI (cfiCond25) NoFunction
        CFI (cfiCond25) Conditional ??CrossCallReturnLabel_10
        CFI (cfiCond25) R6 load(1, XDATA, add(CFA_XSP16, literal(-18)))
        CFI (cfiCond25) VB load(1, XDATA, add(CFA_XSP16, literal(-17)))
        CFI (cfiCond25) V0 load(1, XDATA, add(CFA_XSP16, literal(-16)))
        CFI (cfiCond25) V1 load(1, XDATA, add(CFA_XSP16, literal(-15)))
        CFI (cfiCond25) V2 load(1, XDATA, add(CFA_XSP16, literal(-14)))
        CFI (cfiCond25) V3 load(1, XDATA, add(CFA_XSP16, literal(-13)))
        CFI (cfiCond25) V4 load(1, XDATA, add(CFA_XSP16, literal(-12)))
        CFI (cfiCond25) V5 load(1, XDATA, add(CFA_XSP16, literal(-11)))
        CFI (cfiCond25) V6 load(1, XDATA, add(CFA_XSP16, literal(-10)))
        CFI (cfiCond25) V7 load(1, XDATA, add(CFA_XSP16, literal(-9)))
        CFI (cfiCond25) V8 load(1, XDATA, add(CFA_XSP16, literal(-8)))
        CFI (cfiCond25) V9 load(1, XDATA, add(CFA_XSP16, literal(-7)))
        CFI (cfiCond25) R7 load(1, XDATA, add(CFA_XSP16, literal(-6)))
        CFI (cfiCond25) ?RET_LOW load(1, XDATA, add(CFA_XSP16, literal(-5)))
        CFI (cfiCond25) ?RET_HIGH load(1, XDATA, add(CFA_XSP16, literal(-4)))
        CFI (cfiCond25) ?BRET_EXT load(1, XDATA, add(CFA_XSP16, literal(-3)))
        CFI (cfiCond25) DPL0 load(1, XDATA, add(CFA_XSP16, literal(-2)))
        CFI (cfiCond25) DPH0 load(1, XDATA, add(CFA_XSP16, literal(-1)))
        CFI (cfiCond25) CFA_SP SP+0
        CFI (cfiCond25) CFA_XSP16 add(XSP16, 18)
        CFI Block cfiPicker26 Using cfiCommon1
        CFI (cfiPicker26) NoFunction
        CFI (cfiPicker26) Picker
        LCALL   ?Subroutine6 & 0xFFFF
??CrossCallReturnLabel_18:
        ; Setup parameters for call to function osal_GetSystemClock
        ; Setup parameters for call to function osal_GetSystemClock
        LCALL   ??osal_GetSystemClock?relay
        RET
        CFI EndBlock cfiCond24
        CFI EndBlock cfiCond25
        CFI EndBlock cfiPicker26
//  628 
//  629 /*********************************************************************
//  630  * @fn      TransmitApp_SendTheMessage
//  631  *
//  632  * @brief   Send "the" message.
//  633  *
//  634  * @param   none
//  635  *
//  636  * @return  none
//  637  */

        RSEG BANKED_CODE:CODE:NOROOT(0)
//  638 void TransmitApp_SendTheMessage( void )
TransmitApp_SendTheMessage:
        CFI Block cfiBlock27 Using cfiCommon0
        CFI Function TransmitApp_SendTheMessage
//  639 {
        FUNCALL TransmitApp_SendTheMessage, AF_DataRequest
        LOCFRAME ISTACK, 0, STACK
        LOCFRAME PSTACK, 0, STACK
        LOCFRAME XSTACK, 19, STACK
        LOCFRAME IOVERLAY, 0, STATIC
        LOCFRAME DOVERLAY, 0, STATIC
        ARGFRAME ISTACK, 0, STACK
        ARGFRAME PSTACK, 0, STACK
        ARGFRAME XSTACK, 19, STACK
        ARGFRAME IOVERLAY, 0, STATIC
        ARGFRAME DOVERLAY, 0, STATIC
        FUNCALL TransmitApp_SendTheMessage, osal_start_timerEx
        LOCFRAME ISTACK, 0, STACK
        LOCFRAME PSTACK, 0, STACK
        LOCFRAME XSTACK, 10, STACK
        LOCFRAME IOVERLAY, 0, STATIC
        LOCFRAME DOVERLAY, 0, STATIC
        ARGFRAME ISTACK, 0, STACK
        ARGFRAME PSTACK, 0, STACK
        ARGFRAME XSTACK, 10, STACK
        ARGFRAME IOVERLAY, 0, STATIC
        ARGFRAME DOVERLAY, 0, STATIC
        MOV     A,#-0xa
        LCALL   ?BANKED_ENTER_XDATA
        CFI R6 load(1, XDATA, add(CFA_XSP16, literal(-10)))
        CFI VB load(1, XDATA, add(CFA_XSP16, literal(-9)))
        CFI V0 load(1, XDATA, add(CFA_XSP16, literal(-8)))
        CFI V1 load(1, XDATA, add(CFA_XSP16, literal(-7)))
        CFI R7 load(1, XDATA, add(CFA_XSP16, literal(-6)))
        CFI ?RET_LOW load(1, XDATA, add(CFA_XSP16, literal(-5)))
        CFI ?RET_HIGH load(1, XDATA, add(CFA_XSP16, literal(-4)))
        CFI ?BRET_EXT load(1, XDATA, add(CFA_XSP16, literal(-3)))
        CFI DPL0 load(1, XDATA, add(CFA_XSP16, literal(-2)))
        CFI DPH0 load(1, XDATA, add(CFA_XSP16, literal(-1)))
        CFI CFA_SP SP+0
        CFI CFA_XSP16 add(XSP16, 10)
        ; Saved register size: 10
        ; Auto size: 0
//  640   uint16 len;
//  641   uint8 tmp;
//  642 
//  643   do {
//  644     // put the sequence number in the message
//  645     tmp = HI_UINT8( TransmitApp_TransID );
??TransmitApp_SendTheMessage_0:
        MOV     DPTR,#TransmitApp_TransID
        MOVX    A,@DPTR
        SWAP    A
        ANL     A,#0xf
        MOV     R2,A
//  646     tmp += (tmp <= 9) ? ('0') : ('A' - 0x0A);
        CLR     C
        SUBB    A,#0xa
        JNC     ??TransmitApp_SendTheMessage_1
        MOV     R0,#0x30
        SJMP    ??TransmitApp_SendTheMessage_2
??TransmitApp_SendTheMessage_1:
        MOV     R0,#0x37
??TransmitApp_SendTheMessage_2:
        MOV     A,R0
        ADD     A,R2
//  647     TransmitApp_Msg[2] = tmp;
        MOV     DPTR,#(TransmitApp_Msg + 2)
        MOVX    @DPTR,A
//  648     tmp = LO_UINT8( TransmitApp_TransID );
        MOV     DPTR,#TransmitApp_TransID
        MOVX    A,@DPTR
        ANL     A,#0xf
        MOV     R2,A
//  649     tmp += (tmp <= 9) ? ('0') : ('A' - 0x0A);
        CLR     C
        SUBB    A,#0xa
        JNC     ??TransmitApp_SendTheMessage_3
        MOV     R0,#0x30
        SJMP    ??TransmitApp_SendTheMessage_4
??TransmitApp_SendTheMessage_3:
        MOV     R0,#0x37
??TransmitApp_SendTheMessage_4:
        MOV     A,R0
        ADD     A,R2
//  650     TransmitApp_Msg[3] = tmp;
        MOV     DPTR,#(TransmitApp_Msg + 3)
        MOVX    @DPTR,A
//  651   
//  652     len = TransmitApp_MaxDataLength;
//  653   
//  654 #if defined ( TRANSMITAPP_RANDOM_LEN )
//  655     len = (uint8)(osal_rand() & 0x7F);
//  656     if( len > TransmitApp_MaxDataLength || len == 0 )
//  657       len = TransmitApp_MaxDataLength;
//  658     else if ( len < 4 )
//  659       len = 4;
//  660 #endif
//  661 	
//  662     tmp = AF_DataRequest( &TransmitApp_DstAddr, &TransmitApp_epDesc,
//  663                            TRANSMITAPP_CLUSTERID_TESTMSG,
//  664                            len, TransmitApp_Msg,
//  665                           &TransmitApp_TransID,
//  666                            TRANSMITAPP_TX_OPTIONS,
//  667                            AF_DEFAULT_RADIUS );
        ; Setup parameters for call to function AF_DataRequest
        MOV     ?V0 + 0,#0x1e
        MOV     R0,#?V0 + 0
        LCALL   ?PUSH_XSTACK_I_ONE
        CFI CFA_XSP16 add(XSP16, 11)
        MOV     ?V0 + 0,#(TransmitApp_TransID & 0xff)
        MOV     ?V0 + 1,#((TransmitApp_TransID >> 8) & 0xff)
        MOV     R0,#?V0 + 0
        LCALL   ?PUSH_XSTACK_I_TWO
        CFI CFA_XSP16 add(XSP16, 13)
        MOV     ?V0 + 0,#(TransmitApp_Msg & 0xff)
        MOV     ?V0 + 1,#((TransmitApp_Msg >> 8) & 0xff)
        MOV     R0,#?V0 + 0
        LCALL   ?PUSH_XSTACK_I_TWO
        CFI CFA_XSP16 add(XSP16, 15)
        MOV     DPTR,#TransmitApp_MaxDataLength
        LCALL   ?PUSH_XSTACK8_X_TWO
        CFI CFA_XSP16 add(XSP16, 17)
        MOV     ?V0 + 0,#0x1
        MOV     ?V0 + 1,#0x0
        MOV     R0,#?V0 + 0
        LCALL   ?PUSH_XSTACK_I_TWO
        CFI CFA_XSP16 add(XSP16, 19)
        MOV     R1,#0x20
        MOV     R4,#(TransmitApp_epDesc & 0xff)
        MOV     R5,#((TransmitApp_epDesc >> 8) & 0xff)
        MOV     R2,#(TransmitApp_DstAddr & 0xff)
        MOV     R3,#((TransmitApp_DstAddr >> 8) & 0xff)
        LCALL   ??AF_DataRequest?relay
        MOV     A,#0x9
        LCALL   ?DEALLOC_XSTACK8
        CFI CFA_XSP16 add(XSP16, 10)
        MOV     A,R1
        MOV     R2,A
//  668     
//  669 #if defined ( TRANSMITAPP_RANDOM_LEN )
//  670     if ( tmp == afStatus_SUCCESS )
//  671     {
//  672       txAccum += len;
//  673     }
//  674 #endif
//  675 
//  676     if ( timesToSend )
        MOV     DPTR,#timesToSend
        MOVX    A,@DPTR
        JZ      ??TransmitApp_SendTheMessage_5
//  677     {
//  678       timesToSend--;
//  679     }
//  680   } while ( (timesToSend != 0) && (afStatus_SUCCESS == tmp) );
        DEC     A
        MOVX    @DPTR,A
        JZ      ??TransmitApp_SendTheMessage_5
        MOV     A,R2
        JNZ     $+5
        LJMP    ??TransmitApp_SendTheMessage_0 & 0xFFFF
//  681 
//  682   if ( afStatus_SUCCESS == tmp )
??TransmitApp_SendTheMessage_5:
        MOV     A,R2
        JNZ     ??TransmitApp_SendTheMessage_6
//  683   {
//  684     pktCounter++;
        MOV     DPTR,#pktCounter
        MOVX    A,@DPTR
        ADD     A,#0x1
        MOVX    @DPTR,A
        INC     DPTR
        MOVX    A,@DPTR
        ADDC    A,#0x0
        MOVX    @DPTR,A
        SJMP    ??CrossCallReturnLabel_19
//  685   }
//  686   else
//  687   {
//  688     // Error, so wait (10 mSec) and try again.
//  689     osal_start_timerEx( TransmitApp_TaskID, TRANSMITAPP_SEND_ERR_EVT, 10 );
??TransmitApp_SendTheMessage_6:
        ; Setup parameters for call to function osal_start_timerEx
        MOV     R4,#0xa
        MOV     R5,#0x0
        MOV     R2,#0x4
        LCALL   ??Subroutine10_0 & 0xFFFF
//  690   }
//  691 }
??CrossCallReturnLabel_19:
        LJMP    ?Subroutine9 & 0xFFFF
        CFI EndBlock cfiBlock27
//  692 
//  693 /*********************************************************************
//  694  * @fn      TransmitApp_ChangeState
//  695  *
//  696  * @brief   Toggle the Sending/Waiting state flag
//  697  *
//  698  * @param   none
//  699  *
//  700  * @return  none
//  701  */

        RSEG BANKED_CODE:CODE:NOROOT(0)
//  702 void TransmitApp_ChangeState( void )
TransmitApp_ChangeState:
        CFI Block cfiBlock28 Using cfiCommon0
        CFI Function TransmitApp_ChangeState
//  703 {
        FUNCALL TransmitApp_ChangeState, TransmitApp_SetSendEvt
        LOCFRAME ISTACK, 2, STACK
        LOCFRAME PSTACK, 0, STACK
        LOCFRAME XSTACK, 0, STACK
        LOCFRAME IOVERLAY, 0, STATIC
        LOCFRAME DOVERLAY, 0, STATIC
        ARGFRAME ISTACK, 2, STACK
        ARGFRAME PSTACK, 0, STACK
        ARGFRAME XSTACK, 0, STACK
        ARGFRAME IOVERLAY, 0, STATIC
        ARGFRAME DOVERLAY, 0, STATIC
        PUSH    DPL
        CFI DPL0 Frame(CFA_SP, 4)
        CFI CFA_SP SP+-4
        PUSH    DPH
        CFI DPH0 Frame(CFA_SP, 5)
        CFI CFA_SP SP+-5
        ; Saved register size: 2
        ; Auto size: 0
//  704   if ( TransmitApp_State == TRANSMITAPP_STATE_WAITING )
        MOV     DPTR,#TransmitApp_State
        MOVX    A,@DPTR
        JNZ     ??TransmitApp_ChangeState_0
//  705   {
//  706     TransmitApp_State = TRANSMITAPP_STATE_SENDING;
        MOV     A,#0x1
        MOVX    @DPTR,A
//  707     TransmitApp_SetSendEvt();
        ; Setup parameters for call to function TransmitApp_SetSendEvt
        LCALL   ??TransmitApp_SetSendEvt?relay
//  708     timesToSend = TRANSMITAPP_INITIAL_MSG_COUNT;
        MOV     A,#0x2
        MOV     DPTR,#timesToSend
        SJMP    ??TransmitApp_ChangeState_1
//  709   }
//  710   else
//  711   {
//  712     TransmitApp_State = TRANSMITAPP_STATE_WAITING;
??TransmitApp_ChangeState_0:
        CLR     A
??TransmitApp_ChangeState_1:
        MOVX    @DPTR,A
//  713   }
//  714 }
        LJMP    ?Subroutine7 & 0xFFFF
        CFI EndBlock cfiBlock28
//  715 
//  716 /*********************************************************************
//  717  * @fn      TransmitApp_SetSendEvt
//  718  *
//  719  * @brief   Set the event flag
//  720  *
//  721  * @param   none
//  722  *
//  723  * @return  none
//  724  */

        RSEG BANKED_CODE:CODE:NOROOT(0)
//  725 void TransmitApp_SetSendEvt( void )
TransmitApp_SetSendEvt:
        CFI Block cfiBlock29 Using cfiCommon0
        CFI Function TransmitApp_SetSendEvt
//  726 {
        FUNCALL TransmitApp_SetSendEvt, osal_set_event
        LOCFRAME ISTACK, 2, STACK
        LOCFRAME PSTACK, 0, STACK
        LOCFRAME XSTACK, 0, STACK
        LOCFRAME IOVERLAY, 0, STATIC
        LOCFRAME DOVERLAY, 0, STATIC
        ARGFRAME ISTACK, 2, STACK
        ARGFRAME PSTACK, 0, STACK
        ARGFRAME XSTACK, 0, STACK
        ARGFRAME IOVERLAY, 0, STATIC
        ARGFRAME DOVERLAY, 0, STATIC
        PUSH    DPL
        CFI DPL0 Frame(CFA_SP, 4)
        CFI CFA_SP SP+-4
        PUSH    DPH
        CFI DPH0 Frame(CFA_SP, 5)
        CFI CFA_SP SP+-5
        ; Saved register size: 2
        ; Auto size: 0
//  727 #if defined( TRANSMITAPP_DELAY_SEND )
//  728   // Adds a delay to sending the data
//  729   osal_start_timerEx( TransmitApp_TaskID,
//  730                     TRANSMITAPP_SEND_MSG_EVT, TRANSMITAPP_SEND_DELAY );
//  731 #else
//  732   // No Delay - just send the data
//  733   osal_set_event( TransmitApp_TaskID, TRANSMITAPP_SEND_MSG_EVT );
        ; Setup parameters for call to function osal_set_event
        MOV     R2,#0x1
        MOV     R3,#0x0
        MOV     DPTR,#TransmitApp_TaskID
        MOVX    A,@DPTR
        MOV     R1,A
        LCALL   ??osal_set_event?relay
//  734 #endif
//  735 }
        LJMP    ?Subroutine7 & 0xFFFF
        CFI EndBlock cfiBlock29
//  736 
//  737 /*********************************************************************
//  738  * @fn      TransmitApp_DisplayResults
//  739  *
//  740  * @brief   Display the results and clear the accumulators
//  741  *
//  742  * @param   none
//  743  *
//  744  * @return  none
//  745  */

        RSEG BANKED_CODE:CODE:NOROOT(0)
//  746 void TransmitApp_DisplayResults( void )
TransmitApp_DisplayResults:
        CFI Block cfiBlock30 Using cfiCommon0
        CFI Function TransmitApp_DisplayResults
//  747 {
        FUNCALL TransmitApp_DisplayResults, osal_GetSystemClock
        LOCFRAME ISTACK, 0, STACK
        LOCFRAME PSTACK, 0, STACK
        LOCFRAME XSTACK, 45, STACK
        LOCFRAME IOVERLAY, 0, STATIC
        LOCFRAME DOVERLAY, 0, STATIC
        ARGFRAME ISTACK, 0, STACK
        ARGFRAME PSTACK, 0, STACK
        ARGFRAME XSTACK, 45, STACK
        ARGFRAME IOVERLAY, 0, STATIC
        ARGFRAME DOVERLAY, 0, STATIC
        FUNCALL TransmitApp_DisplayResults, osal_GetSystemClock
        LOCFRAME ISTACK, 0, STACK
        LOCFRAME PSTACK, 0, STACK
        LOCFRAME XSTACK, 45, STACK
        LOCFRAME IOVERLAY, 0, STATIC
        LOCFRAME DOVERLAY, 0, STATIC
        ARGFRAME ISTACK, 0, STACK
        ARGFRAME PSTACK, 0, STACK
        ARGFRAME XSTACK, 45, STACK
        ARGFRAME IOVERLAY, 0, STATIC
        ARGFRAME DOVERLAY, 0, STATIC
        FUNCALL TransmitApp_DisplayResults, osal_memset
        LOCFRAME ISTACK, 0, STACK
        LOCFRAME PSTACK, 0, STACK
        LOCFRAME XSTACK, 45, STACK
        LOCFRAME IOVERLAY, 0, STATIC
        LOCFRAME DOVERLAY, 0, STATIC
        ARGFRAME ISTACK, 0, STACK
        ARGFRAME PSTACK, 0, STACK
        ARGFRAME XSTACK, 45, STACK
        ARGFRAME IOVERLAY, 0, STATIC
        ARGFRAME DOVERLAY, 0, STATIC
        FUNCALL TransmitApp_DisplayResults, HalLcdWriteString
        LOCFRAME ISTACK, 0, STACK
        LOCFRAME PSTACK, 0, STACK
        LOCFRAME XSTACK, 45, STACK
        LOCFRAME IOVERLAY, 0, STATIC
        LOCFRAME DOVERLAY, 0, STATIC
        ARGFRAME ISTACK, 0, STACK
        ARGFRAME PSTACK, 0, STACK
        ARGFRAME XSTACK, 45, STACK
        ARGFRAME IOVERLAY, 0, STATIC
        ARGFRAME DOVERLAY, 0, STATIC
        FUNCALL TransmitApp_DisplayResults, osal_memset
        LOCFRAME ISTACK, 0, STACK
        LOCFRAME PSTACK, 0, STACK
        LOCFRAME XSTACK, 45, STACK
        LOCFRAME IOVERLAY, 0, STATIC
        LOCFRAME DOVERLAY, 0, STATIC
        ARGFRAME ISTACK, 0, STACK
        ARGFRAME PSTACK, 0, STACK
        ARGFRAME XSTACK, 45, STACK
        ARGFRAME IOVERLAY, 0, STATIC
        ARGFRAME DOVERLAY, 0, STATIC
        FUNCALL TransmitApp_DisplayResults, HalLcdWriteString
        LOCFRAME ISTACK, 0, STACK
        LOCFRAME PSTACK, 0, STACK
        LOCFRAME XSTACK, 45, STACK
        LOCFRAME IOVERLAY, 0, STATIC
        LOCFRAME DOVERLAY, 0, STATIC
        ARGFRAME ISTACK, 0, STACK
        ARGFRAME PSTACK, 0, STACK
        ARGFRAME XSTACK, 45, STACK
        ARGFRAME IOVERLAY, 0, STATIC
        ARGFRAME DOVERLAY, 0, STATIC
        FUNCALL TransmitApp_DisplayResults, osal_stop_timerEx
        LOCFRAME ISTACK, 0, STACK
        LOCFRAME PSTACK, 0, STACK
        LOCFRAME XSTACK, 45, STACK
        LOCFRAME IOVERLAY, 0, STATIC
        LOCFRAME DOVERLAY, 0, STATIC
        ARGFRAME ISTACK, 0, STACK
        ARGFRAME PSTACK, 0, STACK
        ARGFRAME XSTACK, 45, STACK
        ARGFRAME IOVERLAY, 0, STATIC
        ARGFRAME DOVERLAY, 0, STATIC
        MOV     A,#-0x18
        LCALL   ?BANKED_ENTER_XDATA
        CFI DPH0 load(1, XDATA, add(CFA_XSP16, literal(-1)))
        CFI DPL0 load(1, XDATA, add(CFA_XSP16, literal(-2)))
        CFI ?BRET_EXT load(1, XDATA, add(CFA_XSP16, literal(-3)))
        CFI ?RET_HIGH load(1, XDATA, add(CFA_XSP16, literal(-4)))
        CFI ?RET_LOW load(1, XDATA, add(CFA_XSP16, literal(-5)))
        CFI R7 load(1, XDATA, add(CFA_XSP16, literal(-6)))
        CFI V15 load(1, XDATA, add(CFA_XSP16, literal(-7)))
        CFI V14 load(1, XDATA, add(CFA_XSP16, literal(-8)))
        CFI V13 load(1, XDATA, add(CFA_XSP16, literal(-9)))
        CFI V12 load(1, XDATA, add(CFA_XSP16, literal(-10)))
        CFI V11 load(1, XDATA, add(CFA_XSP16, literal(-11)))
        CFI V10 load(1, XDATA, add(CFA_XSP16, literal(-12)))
        CFI V9 load(1, XDATA, add(CFA_XSP16, literal(-13)))
        CFI V8 load(1, XDATA, add(CFA_XSP16, literal(-14)))
        CFI V7 load(1, XDATA, add(CFA_XSP16, literal(-15)))
        CFI V6 load(1, XDATA, add(CFA_XSP16, literal(-16)))
        CFI V5 load(1, XDATA, add(CFA_XSP16, literal(-17)))
        CFI V4 load(1, XDATA, add(CFA_XSP16, literal(-18)))
        CFI V3 load(1, XDATA, add(CFA_XSP16, literal(-19)))
        CFI V2 load(1, XDATA, add(CFA_XSP16, literal(-20)))
        CFI V1 load(1, XDATA, add(CFA_XSP16, literal(-21)))
        CFI V0 load(1, XDATA, add(CFA_XSP16, literal(-22)))
        CFI VB load(1, XDATA, add(CFA_XSP16, literal(-23)))
        CFI R6 load(1, XDATA, add(CFA_XSP16, literal(-24)))
        CFI CFA_SP SP+0
        CFI CFA_XSP16 add(XSP16, 24)
        ; Saved register size: 24
        ; Auto size: 21
        MOV     A,#-0x15
        LCALL   ?ALLOC_XSTACK8
        CFI CFA_XSP16 add(XSP16, 45)
//  748 #ifdef LCD_SUPPORTED
//  749   #define LCD_W  16
//  750   uint32 rxShdw, txShdw, tmp;
//  751   byte lcd_buf[LCD_W+1];
//  752   byte idx;
//  753 #endif
//  754   // The OSAL timers are not real-time, so calculate the actual time expired.
//  755   uint32 msecs = osal_GetSystemClock() - clkShdw;
        ; Setup parameters for call to function osal_GetSystemClock
        LCALL   ?Subroutine5 & 0xFFFF
??CrossCallReturnLabel_15:
        LCALL   ?L_SUB_X
        MOV     DPL,?XSP + 0
        MOV     DPH,?XSP + 1
        MOV     R0,#?V0 + 0
        LCALL   ?L_MOV_TO_X
//  756   clkShdw = osal_GetSystemClock();
        ; Setup parameters for call to function osal_GetSystemClock
        LCALL   ?Subroutine5 & 0xFFFF
??CrossCallReturnLabel_16:
        LCALL   ?L_MOV_TO_X
//  757 
//  758   rxTotal += rxAccum;
        MOV     DPTR,#rxAccum
        MOV     R0,#?V0 + 0
        LCALL   ?L_MOV_X
        MOV     DPTR,#rxTotal
        MOV     R0,#?V0 + 0
        LCALL   ?L_ADD_TO_X
//  759   txTotal += txAccum;
        MOV     DPTR,#txAccum
        MOV     R0,#?V0 + 0
        LCALL   ?L_MOV_X
        MOV     DPTR,#txTotal
        MOV     R0,#?V0 + 0
        LCALL   ?L_ADD_TO_X
//  760 
//  761 #if defined ( LCD_SUPPORTED )
//  762   rxShdw = (rxAccum * 1000 + msecs/2) / msecs;
        MOV     DPL,?XSP + 0
        MOV     DPH,?XSP + 1
        MOV     R0,#?V0 + 8
        LCALL   ?L_MOV_X
        MOV     A,#0x1
        MOV     R0,#?V0 + 8
        LCALL   ?UL_SHR
        MOV     DPTR,#rxAccum
        MOV     R0,#?V0 + 0
        LCALL   ?L_MOV_X
        MOV     DPTR,#__Constant_3e8
        MOV     R0,#?V0 + 4
        LCALL   ?L_MOV_X
        MOV     R0,#?V0 + 0
        MOV     R1,#?V0 + 4
        LCALL   ?L_MUL
        MOV     R0,#?V0 + 0
        MOV     R1,#?V0 + 8
        LCALL   ?L_ADD
        MOV     DPL,?XSP + 0
        MOV     DPH,?XSP + 1
        MOV     R0,#?V0 + 4
        LCALL   ?L_MOV_X
        MOV     R0,#?V0 + 0
        MOV     R1,#?V0 + 4
        LCALL   ?UL_DIV_MOD
//  763   txShdw = (txAccum * 1000 + msecs/2) / msecs;
        MOV     DPTR,#txAccum
        MOV     R0,#?V0 + 4
        LCALL   ?L_MOV_X
        MOV     DPTR,#__Constant_3e8
        MOV     R0,#?V0 + 12
        LCALL   ?L_MOV_X
        MOV     R0,#?V0 + 4
        MOV     R1,#?V0 + 12
        LCALL   ?L_MUL
        MOV     R0,#?V0 + 4
        MOV     R1,#?V0 + 8
        LCALL   ?L_ADD
        MOV     DPL,?XSP + 0
        MOV     DPH,?XSP + 1
        MOV     R0,#?V0 + 8
        LCALL   ?L_MOV_X
        MOV     R0,#?V0 + 4
        MOV     R1,#?V0 + 8
        LCALL   ?UL_DIV_MOD
//  764 
//  765   osal_memset( lcd_buf, ' ', LCD_W );
        ; Setup parameters for call to function osal_memset
        MOV     R4,#0x10
        MOV     R5,#0x0
        MOV     R1,#0x20
        MOV     A,#0x4
        LCALL   ?XSTACK_DISP0_8
        MOV     R2,DPL
        MOV     R3,DPH
        LCALL   ??osal_memset?relay
//  766   lcd_buf[LCD_W] = NULL;
        MOV     A,#0x14
        LCALL   ?XSTACK_DISP0_8
        CLR     A
        MOVX    @DPTR,A
//  767 
//  768   idx = 4;
        MOV     R2,#0x4
//  769   tmp = (rxShdw >= 100000) ? 99999 : rxShdw;
        MOV     DPTR,#__Constant_186a0
        MOV     R0,#?V0 + 8
        LCALL   ?L_MOV_X
        MOV     R0,#?V0 + 8
        MOV     R1,#?V0 + 0
        LCALL   ?UL_GT
        JC      ??TransmitApp_DisplayResults_0
        MOV     DPTR,#__Constant_1869f
        MOV     R0,#?V0 + 8
        LCALL   ?L_MOV_X
        SJMP    ??TransmitApp_DisplayResults_1
??TransmitApp_DisplayResults_0:
        MOV     ?V0 + 8,?V0 + 0
        MOV     ?V0 + 9,?V0 + 1
        MOV     ?V0 + 10,?V0 + 2
        MOV     ?V0 + 11,?V0 + 3
//  770   do
//  771   {
//  772     lcd_buf[idx--] = (uint8) ('0' + (tmp % 10));
??TransmitApp_DisplayResults_1:
        MOV     ?V0 + 0,?V0 + 8
        MOV     ?V0 + 1,?V0 + 9
        MOV     ?V0 + 2,?V0 + 10
        MOV     ?V0 + 3,?V0 + 11
        MOV     DPTR,#__Constant_a
        MOV     R0,#?V0 + 12
        LCALL   ?L_MOV_X
        MOV     R0,#?V0 + 0
        MOV     R1,#?V0 + 12
        LCALL   ?UL_DIV_MOD
        MOV     A,?V0 + 12
        ADD     A,#0x30
        PUSH    A
        CFI CFA_SP SP+-1
        MOV     ?V0 + 0,R2
        MOV     A,#0x4
        LCALL   ?XSTACK_DISP0_8
        LCALL   ?Subroutine4 & 0xFFFF
//  773     tmp /= 10;
//  774   } while ( tmp );
??CrossCallReturnLabel_11:
        POP     A
        CFI CFA_SP SP+0
        LCALL   ?Subroutine0 & 0xFFFF
??CrossCallReturnLabel_0:
        LCALL   ?L_MOV_X
        MOV     R0,#?V0 + 8
        MOV     R1,#?V0 + 0
        LCALL   ?UL_DIV_MOD
        MOV     DPTR,#__Constant_0
        MOV     R0,#?V0 + 8
        LCALL   ?L_EQ_X
        JNZ     ??TransmitApp_DisplayResults_1
//  775 
//  776   idx = LCD_W-1;
        MOV     R2,#0xf
//  777   tmp = rxTotal;
        MOV     DPTR,#rxTotal
        MOV     R0,#?V0 + 8
        LCALL   ?L_MOV_X
//  778   do
//  779   {
//  780     lcd_buf[idx--] = (uint8) ('0' + (tmp % 10));
??TransmitApp_DisplayResults_2:
        MOV     ?V0 + 0,?V0 + 8
        MOV     ?V0 + 1,?V0 + 9
        MOV     ?V0 + 2,?V0 + 10
        MOV     ?V0 + 3,?V0 + 11
        MOV     DPTR,#__Constant_a
        MOV     R0,#?V0 + 12
        LCALL   ?L_MOV_X
        MOV     R0,#?V0 + 0
        MOV     R1,#?V0 + 12
        LCALL   ?UL_DIV_MOD
        MOV     A,?V0 + 12
        ADD     A,#0x30
        PUSH    A
        CFI CFA_SP SP+-1
        MOV     ?V0 + 0,R2
        MOV     A,#0x4
        LCALL   ?XSTACK_DISP0_8
        LCALL   ?Subroutine4 & 0xFFFF
//  781     tmp /= 10;
//  782   } while ( tmp );
??CrossCallReturnLabel_12:
        POP     A
        CFI CFA_SP SP+0
        LCALL   ?Subroutine0 & 0xFFFF
??CrossCallReturnLabel_1:
        LCALL   ?L_MOV_X
        MOV     R0,#?V0 + 8
        MOV     R1,#?V0 + 0
        LCALL   ?UL_DIV_MOD
        MOV     DPTR,#__Constant_0
        MOV     R0,#?V0 + 8
        LCALL   ?L_EQ_X
        JNZ     ??TransmitApp_DisplayResults_2
//  783 
//  784   HalLcdWriteString( (char*)lcd_buf, HAL_LCD_LINE_1 );
        ; Setup parameters for call to function HalLcdWriteString
        MOV     R1,#0x1
        MOV     A,#0x4
        LCALL   ?XSTACK_DISP0_8
        MOV     R2,DPL
        MOV     R3,DPH
        LCALL   ??HalLcdWriteString?relay
//  785   osal_memset( lcd_buf, ' ', LCD_W );
        ; Setup parameters for call to function osal_memset
        MOV     R4,#0x10
        MOV     R5,#0x0
        MOV     R1,#0x20
        MOV     A,#0x4
        LCALL   ?XSTACK_DISP0_8
        MOV     R2,DPL
        MOV     R3,DPH
        LCALL   ??osal_memset?relay
//  786 
//  787   idx = 4;
        MOV     R2,#0x4
//  788   tmp = (txShdw >= 100000) ? 99999 : txShdw;
        MOV     DPTR,#__Constant_186a0
        MOV     R0,#?V0 + 0
        LCALL   ?L_MOV_X
        MOV     R0,#?V0 + 0
        MOV     R1,#?V0 + 4
        LCALL   ?UL_GT
        JC      ??TransmitApp_DisplayResults_3
        MOV     DPTR,#__Constant_1869f
        MOV     R0,#?V0 + 8
        LCALL   ?L_MOV_X
        SJMP    ??TransmitApp_DisplayResults_4
??TransmitApp_DisplayResults_3:
        MOV     ?V0 + 8,?V0 + 4
        MOV     ?V0 + 9,?V0 + 5
        MOV     ?V0 + 10,?V0 + 6
        MOV     ?V0 + 11,?V0 + 7
//  789   do
//  790   {
//  791     lcd_buf[idx--] = (uint8) ('0' + (tmp % 10));
??TransmitApp_DisplayResults_4:
        MOV     ?V0 + 4,?V0 + 8
        MOV     ?V0 + 5,?V0 + 9
        MOV     ?V0 + 6,?V0 + 10
        MOV     ?V0 + 7,?V0 + 11
        MOV     DPTR,#__Constant_a
        MOV     R0,#?V0 + 0
        LCALL   ?L_MOV_X
        MOV     R0,#?V0 + 4
        MOV     R1,#?V0 + 0
        LCALL   ?UL_DIV_MOD
        MOV     A,?V0 + 0
        ADD     A,#0x30
        PUSH    A
        CFI CFA_SP SP+-1
        MOV     ?V0 + 0,R2
        MOV     A,#0x4
        LCALL   ?XSTACK_DISP0_8
        LCALL   ?Subroutine4 & 0xFFFF
//  792     tmp /= 10;
//  793   } while ( tmp );
??CrossCallReturnLabel_13:
        POP     A
        CFI CFA_SP SP+0
        LCALL   ?Subroutine0 & 0xFFFF
??CrossCallReturnLabel_2:
        LCALL   ?L_MOV_X
        MOV     R0,#?V0 + 8
        MOV     R1,#?V0 + 0
        LCALL   ?UL_DIV_MOD
        MOV     DPTR,#__Constant_0
        MOV     R0,#?V0 + 8
        LCALL   ?L_EQ_X
        JNZ     ??TransmitApp_DisplayResults_4
//  794 
//  795   idx = LCD_W-1;
        MOV     R2,#0xf
//  796   tmp = txTotal;
        MOV     DPTR,#txTotal
        MOV     R0,#?V0 + 8
        LCALL   ?L_MOV_X
//  797   do
//  798   {
//  799     lcd_buf[idx--] = (uint8) ('0' + (tmp % 10));
??TransmitApp_DisplayResults_5:
        MOV     ?V0 + 4,?V0 + 8
        MOV     ?V0 + 5,?V0 + 9
        MOV     ?V0 + 6,?V0 + 10
        MOV     ?V0 + 7,?V0 + 11
        MOV     DPTR,#__Constant_a
        MOV     R0,#?V0 + 0
        LCALL   ?L_MOV_X
        MOV     R0,#?V0 + 4
        MOV     R1,#?V0 + 0
        LCALL   ?UL_DIV_MOD
        MOV     A,?V0 + 0
        ADD     A,#0x30
        PUSH    A
        CFI CFA_SP SP+-1
        MOV     ?V0 + 0,R2
        MOV     A,#0x4
        LCALL   ?XSTACK_DISP0_8
        LCALL   ?Subroutine4 & 0xFFFF
//  800     tmp /= 10;
//  801   } while ( tmp );
??CrossCallReturnLabel_14:
        POP     A
        CFI CFA_SP SP+0
        LCALL   ?Subroutine0 & 0xFFFF
??CrossCallReturnLabel_3:
        LCALL   ?L_MOV_X
        MOV     R0,#?V0 + 8
        MOV     R1,#?V0 + 0
        LCALL   ?UL_DIV_MOD
        MOV     DPTR,#__Constant_0
        MOV     R0,#?V0 + 8
        LCALL   ?L_EQ_X
        JNZ     ??TransmitApp_DisplayResults_5
//  802 
//  803   HalLcdWriteString( (char*)lcd_buf, HAL_LCD_LINE_2 );
        ; Setup parameters for call to function HalLcdWriteString
        MOV     R1,#0x2
        MOV     A,#0x4
        LCALL   ?XSTACK_DISP0_8
        MOV     R2,DPL
        MOV     R3,DPH
        LCALL   ??HalLcdWriteString?relay
//  804 #else
//  805   DEBUG_INFO( COMPID_APP, SEVERITY_INFORMATION, 3, rxAccum,
//  806                                               (uint16)msecs, (uint16)rxTotal );
//  807 #endif
//  808 
//  809   if ( (rxAccum == 0) && (txAccum == 0) )
        MOV     DPTR,#__Constant_0
        MOV     R0,#?V0 + 0
        LCALL   ?L_MOV_X
        MOV     DPH,#((rxAccum >> 8) & 0xff)
        MOV     DPL,#(rxAccum & 0xff)
        MOV     R0,#?V0 + 0
        LCALL   ?L_EQ_X
        JNZ     ??TransmitApp_DisplayResults_6
        MOV     DPTR,#__Constant_0
        MOV     R0,#?V0 + 0
        LCALL   ?L_MOV_X
        MOV     DPH,#((txAccum >> 8) & 0xff)
        MOV     DPL,#(txAccum & 0xff)
        MOV     R0,#?V0 + 0
        LCALL   ?L_EQ_X
        JNZ     ??TransmitApp_DisplayResults_6
//  810   {
//  811     osal_stop_timerEx( TransmitApp_TaskID, TRANSMITAPP_RCVTIMER_EVT );
        ; Setup parameters for call to function osal_stop_timerEx
        MOV     R2,#0x2
        MOV     R3,#0x0
        MOV     DPTR,#TransmitApp_TaskID
        MOVX    A,@DPTR
        MOV     R1,A
        LCALL   ??osal_stop_timerEx?relay
//  812     timerOn = FALSE;
        CLR     A
        MOV     DPTR,#timerOn
        MOVX    @DPTR,A
//  813   }
//  814 
//  815   rxAccum = txAccum = 0;
??TransmitApp_DisplayResults_6:
        MOV     DPTR,#__Constant_0
        MOV     R0,#?V0 + 0
        LCALL   ?L_MOV_X
        MOV     DPTR,#txAccum
        MOV     R0,#?V0 + 0
        LCALL   ?L_MOV_TO_X
        MOV     DPTR,#__Constant_0
        MOV     R0,#?V0 + 0
        LCALL   ?L_MOV_X
        MOV     DPTR,#rxAccum
        MOV     R0,#?V0 + 0
        LCALL   ?L_MOV_TO_X
//  816 }
        MOV     A,#0x15
        LCALL   ?DEALLOC_XSTACK8
        CFI CFA_XSP16 add(XSP16, 24)
        MOV     R7,#0x10
        LJMP    ?BANKED_LEAVE_XDATA
        CFI EndBlock cfiBlock30

        RSEG BANKED_CODE:CODE:NOROOT(0)
?Subroutine5:
        CFI Block cfiCond31 Using cfiCommon0
        CFI NoFunction
        CFI Conditional ??CrossCallReturnLabel_15
        CFI R6 load(1, XDATA, add(CFA_XSP16, literal(-24)))
        CFI VB load(1, XDATA, add(CFA_XSP16, literal(-23)))
        CFI V0 load(1, XDATA, add(CFA_XSP16, literal(-22)))
        CFI V1 load(1, XDATA, add(CFA_XSP16, literal(-21)))
        CFI V2 load(1, XDATA, add(CFA_XSP16, literal(-20)))
        CFI V3 load(1, XDATA, add(CFA_XSP16, literal(-19)))
        CFI V4 load(1, XDATA, add(CFA_XSP16, literal(-18)))
        CFI V5 load(1, XDATA, add(CFA_XSP16, literal(-17)))
        CFI V6 load(1, XDATA, add(CFA_XSP16, literal(-16)))
        CFI V7 load(1, XDATA, add(CFA_XSP16, literal(-15)))
        CFI V8 load(1, XDATA, add(CFA_XSP16, literal(-14)))
        CFI V9 load(1, XDATA, add(CFA_XSP16, literal(-13)))
        CFI V10 load(1, XDATA, add(CFA_XSP16, literal(-12)))
        CFI V11 load(1, XDATA, add(CFA_XSP16, literal(-11)))
        CFI V12 load(1, XDATA, add(CFA_XSP16, literal(-10)))
        CFI V13 load(1, XDATA, add(CFA_XSP16, literal(-9)))
        CFI V14 load(1, XDATA, add(CFA_XSP16, literal(-8)))
        CFI V15 load(1, XDATA, add(CFA_XSP16, literal(-7)))
        CFI R7 load(1, XDATA, add(CFA_XSP16, literal(-6)))
        CFI ?RET_LOW load(1, XDATA, add(CFA_XSP16, literal(-5)))
        CFI ?RET_HIGH load(1, XDATA, add(CFA_XSP16, literal(-4)))
        CFI ?BRET_EXT load(1, XDATA, add(CFA_XSP16, literal(-3)))
        CFI DPL0 load(1, XDATA, add(CFA_XSP16, literal(-2)))
        CFI DPH0 load(1, XDATA, add(CFA_XSP16, literal(-1)))
        CFI CFA_SP SP+0
        CFI CFA_XSP16 add(XSP16, 45)
        CFI Block cfiCond32 Using cfiCommon0
        CFI (cfiCond32) NoFunction
        CFI (cfiCond32) Conditional ??CrossCallReturnLabel_16
        CFI (cfiCond32) R6 load(1, XDATA, add(CFA_XSP16, literal(-24)))
        CFI (cfiCond32) VB load(1, XDATA, add(CFA_XSP16, literal(-23)))
        CFI (cfiCond32) V0 load(1, XDATA, add(CFA_XSP16, literal(-22)))
        CFI (cfiCond32) V1 load(1, XDATA, add(CFA_XSP16, literal(-21)))
        CFI (cfiCond32) V2 load(1, XDATA, add(CFA_XSP16, literal(-20)))
        CFI (cfiCond32) V3 load(1, XDATA, add(CFA_XSP16, literal(-19)))
        CFI (cfiCond32) V4 load(1, XDATA, add(CFA_XSP16, literal(-18)))
        CFI (cfiCond32) V5 load(1, XDATA, add(CFA_XSP16, literal(-17)))
        CFI (cfiCond32) V6 load(1, XDATA, add(CFA_XSP16, literal(-16)))
        CFI (cfiCond32) V7 load(1, XDATA, add(CFA_XSP16, literal(-15)))
        CFI (cfiCond32) V8 load(1, XDATA, add(CFA_XSP16, literal(-14)))
        CFI (cfiCond32) V9 load(1, XDATA, add(CFA_XSP16, literal(-13)))
        CFI (cfiCond32) V10 load(1, XDATA, add(CFA_XSP16, literal(-12)))
        CFI (cfiCond32) V11 load(1, XDATA, add(CFA_XSP16, literal(-11)))
        CFI (cfiCond32) V12 load(1, XDATA, add(CFA_XSP16, literal(-10)))
        CFI (cfiCond32) V13 load(1, XDATA, add(CFA_XSP16, literal(-9)))
        CFI (cfiCond32) V14 load(1, XDATA, add(CFA_XSP16, literal(-8)))
        CFI (cfiCond32) V15 load(1, XDATA, add(CFA_XSP16, literal(-7)))
        CFI (cfiCond32) R7 load(1, XDATA, add(CFA_XSP16, literal(-6)))
        CFI (cfiCond32) ?RET_LOW load(1, XDATA, add(CFA_XSP16, literal(-5)))
        CFI (cfiCond32) ?RET_HIGH load(1, XDATA, add(CFA_XSP16, literal(-4)))
        CFI (cfiCond32) ?BRET_EXT load(1, XDATA, add(CFA_XSP16, literal(-3)))
        CFI (cfiCond32) DPL0 load(1, XDATA, add(CFA_XSP16, literal(-2)))
        CFI (cfiCond32) DPH0 load(1, XDATA, add(CFA_XSP16, literal(-1)))
        CFI (cfiCond32) CFA_SP SP+0
        CFI (cfiCond32) CFA_XSP16 add(XSP16, 45)
        CFI Block cfiPicker33 Using cfiCommon1
        CFI (cfiPicker33) NoFunction
        CFI (cfiPicker33) Picker
        LCALL   ??osal_GetSystemClock?relay
        MOV     ?V0 + 0,R2
        MOV     ?V0 + 1,R3
        MOV     ?V0 + 2,R4
        MOV     ?V0 + 3,R5
        MOV     DPTR,#clkShdw
        MOV     R0,#?V0 + 0
        RET
        CFI EndBlock cfiCond31
        CFI EndBlock cfiCond32
        CFI EndBlock cfiPicker33

        RSEG BANKED_CODE:CODE:NOROOT(0)
?Subroutine4:
        CFI Block cfiCond34 Using cfiCommon0
        CFI NoFunction
        CFI Conditional ??CrossCallReturnLabel_11
        CFI R6 load(1, XDATA, add(CFA_XSP16, literal(-24)))
        CFI VB load(1, XDATA, add(CFA_XSP16, literal(-23)))
        CFI V0 load(1, XDATA, add(CFA_XSP16, literal(-22)))
        CFI V1 load(1, XDATA, add(CFA_XSP16, literal(-21)))
        CFI V2 load(1, XDATA, add(CFA_XSP16, literal(-20)))
        CFI V3 load(1, XDATA, add(CFA_XSP16, literal(-19)))
        CFI V4 load(1, XDATA, add(CFA_XSP16, literal(-18)))
        CFI V5 load(1, XDATA, add(CFA_XSP16, literal(-17)))
        CFI V6 load(1, XDATA, add(CFA_XSP16, literal(-16)))
        CFI V7 load(1, XDATA, add(CFA_XSP16, literal(-15)))
        CFI V8 load(1, XDATA, add(CFA_XSP16, literal(-14)))
        CFI V9 load(1, XDATA, add(CFA_XSP16, literal(-13)))
        CFI V10 load(1, XDATA, add(CFA_XSP16, literal(-12)))
        CFI V11 load(1, XDATA, add(CFA_XSP16, literal(-11)))
        CFI V12 load(1, XDATA, add(CFA_XSP16, literal(-10)))
        CFI V13 load(1, XDATA, add(CFA_XSP16, literal(-9)))
        CFI V14 load(1, XDATA, add(CFA_XSP16, literal(-8)))
        CFI V15 load(1, XDATA, add(CFA_XSP16, literal(-7)))
        CFI R7 load(1, XDATA, add(CFA_XSP16, literal(-6)))
        CFI ?RET_LOW load(1, XDATA, add(CFA_XSP16, literal(-5)))
        CFI ?RET_HIGH load(1, XDATA, add(CFA_XSP16, literal(-4)))
        CFI ?BRET_EXT load(1, XDATA, add(CFA_XSP16, literal(-3)))
        CFI DPL0 load(1, XDATA, add(CFA_XSP16, literal(-2)))
        CFI DPH0 load(1, XDATA, add(CFA_XSP16, literal(-1)))
        CFI CFA_SP SP+-1
        CFI CFA_XSP16 add(XSP16, 45)
        CFI Block cfiCond35 Using cfiCommon0
        CFI (cfiCond35) NoFunction
        CFI (cfiCond35) Conditional ??CrossCallReturnLabel_12
        CFI (cfiCond35) R6 load(1, XDATA, add(CFA_XSP16, literal(-24)))
        CFI (cfiCond35) VB load(1, XDATA, add(CFA_XSP16, literal(-23)))
        CFI (cfiCond35) V0 load(1, XDATA, add(CFA_XSP16, literal(-22)))
        CFI (cfiCond35) V1 load(1, XDATA, add(CFA_XSP16, literal(-21)))
        CFI (cfiCond35) V2 load(1, XDATA, add(CFA_XSP16, literal(-20)))
        CFI (cfiCond35) V3 load(1, XDATA, add(CFA_XSP16, literal(-19)))
        CFI (cfiCond35) V4 load(1, XDATA, add(CFA_XSP16, literal(-18)))
        CFI (cfiCond35) V5 load(1, XDATA, add(CFA_XSP16, literal(-17)))
        CFI (cfiCond35) V6 load(1, XDATA, add(CFA_XSP16, literal(-16)))
        CFI (cfiCond35) V7 load(1, XDATA, add(CFA_XSP16, literal(-15)))
        CFI (cfiCond35) V8 load(1, XDATA, add(CFA_XSP16, literal(-14)))
        CFI (cfiCond35) V9 load(1, XDATA, add(CFA_XSP16, literal(-13)))
        CFI (cfiCond35) V10 load(1, XDATA, add(CFA_XSP16, literal(-12)))
        CFI (cfiCond35) V11 load(1, XDATA, add(CFA_XSP16, literal(-11)))
        CFI (cfiCond35) V12 load(1, XDATA, add(CFA_XSP16, literal(-10)))
        CFI (cfiCond35) V13 load(1, XDATA, add(CFA_XSP16, literal(-9)))
        CFI (cfiCond35) V14 load(1, XDATA, add(CFA_XSP16, literal(-8)))
        CFI (cfiCond35) V15 load(1, XDATA, add(CFA_XSP16, literal(-7)))
        CFI (cfiCond35) R7 load(1, XDATA, add(CFA_XSP16, literal(-6)))
        CFI (cfiCond35) ?RET_LOW load(1, XDATA, add(CFA_XSP16, literal(-5)))
        CFI (cfiCond35) ?RET_HIGH load(1, XDATA, add(CFA_XSP16, literal(-4)))
        CFI (cfiCond35) ?BRET_EXT load(1, XDATA, add(CFA_XSP16, literal(-3)))
        CFI (cfiCond35) DPL0 load(1, XDATA, add(CFA_XSP16, literal(-2)))
        CFI (cfiCond35) DPH0 load(1, XDATA, add(CFA_XSP16, literal(-1)))
        CFI (cfiCond35) CFA_SP SP+-1
        CFI (cfiCond35) CFA_XSP16 add(XSP16, 45)
        CFI Block cfiCond36 Using cfiCommon0
        CFI (cfiCond36) NoFunction
        CFI (cfiCond36) Conditional ??CrossCallReturnLabel_13
        CFI (cfiCond36) R6 load(1, XDATA, add(CFA_XSP16, literal(-24)))
        CFI (cfiCond36) VB load(1, XDATA, add(CFA_XSP16, literal(-23)))
        CFI (cfiCond36) V0 load(1, XDATA, add(CFA_XSP16, literal(-22)))
        CFI (cfiCond36) V1 load(1, XDATA, add(CFA_XSP16, literal(-21)))
        CFI (cfiCond36) V2 load(1, XDATA, add(CFA_XSP16, literal(-20)))
        CFI (cfiCond36) V3 load(1, XDATA, add(CFA_XSP16, literal(-19)))
        CFI (cfiCond36) V4 load(1, XDATA, add(CFA_XSP16, literal(-18)))
        CFI (cfiCond36) V5 load(1, XDATA, add(CFA_XSP16, literal(-17)))
        CFI (cfiCond36) V6 load(1, XDATA, add(CFA_XSP16, literal(-16)))
        CFI (cfiCond36) V7 load(1, XDATA, add(CFA_XSP16, literal(-15)))
        CFI (cfiCond36) V8 load(1, XDATA, add(CFA_XSP16, literal(-14)))
        CFI (cfiCond36) V9 load(1, XDATA, add(CFA_XSP16, literal(-13)))
        CFI (cfiCond36) V10 load(1, XDATA, add(CFA_XSP16, literal(-12)))
        CFI (cfiCond36) V11 load(1, XDATA, add(CFA_XSP16, literal(-11)))
        CFI (cfiCond36) V12 load(1, XDATA, add(CFA_XSP16, literal(-10)))
        CFI (cfiCond36) V13 load(1, XDATA, add(CFA_XSP16, literal(-9)))
        CFI (cfiCond36) V14 load(1, XDATA, add(CFA_XSP16, literal(-8)))
        CFI (cfiCond36) V15 load(1, XDATA, add(CFA_XSP16, literal(-7)))
        CFI (cfiCond36) R7 load(1, XDATA, add(CFA_XSP16, literal(-6)))
        CFI (cfiCond36) ?RET_LOW load(1, XDATA, add(CFA_XSP16, literal(-5)))
        CFI (cfiCond36) ?RET_HIGH load(1, XDATA, add(CFA_XSP16, literal(-4)))
        CFI (cfiCond36) ?BRET_EXT load(1, XDATA, add(CFA_XSP16, literal(-3)))
        CFI (cfiCond36) DPL0 load(1, XDATA, add(CFA_XSP16, literal(-2)))
        CFI (cfiCond36) DPH0 load(1, XDATA, add(CFA_XSP16, literal(-1)))
        CFI (cfiCond36) CFA_SP SP+-1
        CFI (cfiCond36) CFA_XSP16 add(XSP16, 45)
        CFI Block cfiCond37 Using cfiCommon0
        CFI (cfiCond37) NoFunction
        CFI (cfiCond37) Conditional ??CrossCallReturnLabel_14
        CFI (cfiCond37) R6 load(1, XDATA, add(CFA_XSP16, literal(-24)))
        CFI (cfiCond37) VB load(1, XDATA, add(CFA_XSP16, literal(-23)))
        CFI (cfiCond37) V0 load(1, XDATA, add(CFA_XSP16, literal(-22)))
        CFI (cfiCond37) V1 load(1, XDATA, add(CFA_XSP16, literal(-21)))
        CFI (cfiCond37) V2 load(1, XDATA, add(CFA_XSP16, literal(-20)))
        CFI (cfiCond37) V3 load(1, XDATA, add(CFA_XSP16, literal(-19)))
        CFI (cfiCond37) V4 load(1, XDATA, add(CFA_XSP16, literal(-18)))
        CFI (cfiCond37) V5 load(1, XDATA, add(CFA_XSP16, literal(-17)))
        CFI (cfiCond37) V6 load(1, XDATA, add(CFA_XSP16, literal(-16)))
        CFI (cfiCond37) V7 load(1, XDATA, add(CFA_XSP16, literal(-15)))
        CFI (cfiCond37) V8 load(1, XDATA, add(CFA_XSP16, literal(-14)))
        CFI (cfiCond37) V9 load(1, XDATA, add(CFA_XSP16, literal(-13)))
        CFI (cfiCond37) V10 load(1, XDATA, add(CFA_XSP16, literal(-12)))
        CFI (cfiCond37) V11 load(1, XDATA, add(CFA_XSP16, literal(-11)))
        CFI (cfiCond37) V12 load(1, XDATA, add(CFA_XSP16, literal(-10)))
        CFI (cfiCond37) V13 load(1, XDATA, add(CFA_XSP16, literal(-9)))
        CFI (cfiCond37) V14 load(1, XDATA, add(CFA_XSP16, literal(-8)))
        CFI (cfiCond37) V15 load(1, XDATA, add(CFA_XSP16, literal(-7)))
        CFI (cfiCond37) R7 load(1, XDATA, add(CFA_XSP16, literal(-6)))
        CFI (cfiCond37) ?RET_LOW load(1, XDATA, add(CFA_XSP16, literal(-5)))
        CFI (cfiCond37) ?RET_HIGH load(1, XDATA, add(CFA_XSP16, literal(-4)))
        CFI (cfiCond37) ?BRET_EXT load(1, XDATA, add(CFA_XSP16, literal(-3)))
        CFI (cfiCond37) DPL0 load(1, XDATA, add(CFA_XSP16, literal(-2)))
        CFI (cfiCond37) DPH0 load(1, XDATA, add(CFA_XSP16, literal(-1)))
        CFI (cfiCond37) CFA_SP SP+-1
        CFI (cfiCond37) CFA_XSP16 add(XSP16, 45)
        CFI Block cfiPicker38 Using cfiCommon1
        CFI (cfiPicker38) NoFunction
        CFI (cfiPicker38) Picker
        MOV     A,DPL
        ADD     A,?V0 + 0
        MOV     DPL,A
        MOV     A,DPH
        ADDC    A,#0x0
        MOV     DPH,A
        RET
        CFI EndBlock cfiCond34
        CFI EndBlock cfiCond35
        CFI EndBlock cfiCond36
        CFI EndBlock cfiCond37
        CFI EndBlock cfiPicker38

        RSEG BANKED_CODE:CODE:NOROOT(0)
?Subroutine0:
        CFI Block cfiCond39 Using cfiCommon0
        CFI NoFunction
        CFI Conditional ??CrossCallReturnLabel_0
        CFI R6 load(1, XDATA, add(CFA_XSP16, literal(-24)))
        CFI VB load(1, XDATA, add(CFA_XSP16, literal(-23)))
        CFI V0 load(1, XDATA, add(CFA_XSP16, literal(-22)))
        CFI V1 load(1, XDATA, add(CFA_XSP16, literal(-21)))
        CFI V2 load(1, XDATA, add(CFA_XSP16, literal(-20)))
        CFI V3 load(1, XDATA, add(CFA_XSP16, literal(-19)))
        CFI V4 load(1, XDATA, add(CFA_XSP16, literal(-18)))
        CFI V5 load(1, XDATA, add(CFA_XSP16, literal(-17)))
        CFI V6 load(1, XDATA, add(CFA_XSP16, literal(-16)))
        CFI V7 load(1, XDATA, add(CFA_XSP16, literal(-15)))
        CFI V8 load(1, XDATA, add(CFA_XSP16, literal(-14)))
        CFI V9 load(1, XDATA, add(CFA_XSP16, literal(-13)))
        CFI V10 load(1, XDATA, add(CFA_XSP16, literal(-12)))
        CFI V11 load(1, XDATA, add(CFA_XSP16, literal(-11)))
        CFI V12 load(1, XDATA, add(CFA_XSP16, literal(-10)))
        CFI V13 load(1, XDATA, add(CFA_XSP16, literal(-9)))
        CFI V14 load(1, XDATA, add(CFA_XSP16, literal(-8)))
        CFI V15 load(1, XDATA, add(CFA_XSP16, literal(-7)))
        CFI R7 load(1, XDATA, add(CFA_XSP16, literal(-6)))
        CFI ?RET_LOW load(1, XDATA, add(CFA_XSP16, literal(-5)))
        CFI ?RET_HIGH load(1, XDATA, add(CFA_XSP16, literal(-4)))
        CFI ?BRET_EXT load(1, XDATA, add(CFA_XSP16, literal(-3)))
        CFI DPL0 load(1, XDATA, add(CFA_XSP16, literal(-2)))
        CFI DPH0 load(1, XDATA, add(CFA_XSP16, literal(-1)))
        CFI CFA_SP SP+0
        CFI CFA_XSP16 add(XSP16, 45)
        CFI Block cfiCond40 Using cfiCommon0
        CFI (cfiCond40) NoFunction
        CFI (cfiCond40) Conditional ??CrossCallReturnLabel_1
        CFI (cfiCond40) R6 load(1, XDATA, add(CFA_XSP16, literal(-24)))
        CFI (cfiCond40) VB load(1, XDATA, add(CFA_XSP16, literal(-23)))
        CFI (cfiCond40) V0 load(1, XDATA, add(CFA_XSP16, literal(-22)))
        CFI (cfiCond40) V1 load(1, XDATA, add(CFA_XSP16, literal(-21)))
        CFI (cfiCond40) V2 load(1, XDATA, add(CFA_XSP16, literal(-20)))
        CFI (cfiCond40) V3 load(1, XDATA, add(CFA_XSP16, literal(-19)))
        CFI (cfiCond40) V4 load(1, XDATA, add(CFA_XSP16, literal(-18)))
        CFI (cfiCond40) V5 load(1, XDATA, add(CFA_XSP16, literal(-17)))
        CFI (cfiCond40) V6 load(1, XDATA, add(CFA_XSP16, literal(-16)))
        CFI (cfiCond40) V7 load(1, XDATA, add(CFA_XSP16, literal(-15)))
        CFI (cfiCond40) V8 load(1, XDATA, add(CFA_XSP16, literal(-14)))
        CFI (cfiCond40) V9 load(1, XDATA, add(CFA_XSP16, literal(-13)))
        CFI (cfiCond40) V10 load(1, XDATA, add(CFA_XSP16, literal(-12)))
        CFI (cfiCond40) V11 load(1, XDATA, add(CFA_XSP16, literal(-11)))
        CFI (cfiCond40) V12 load(1, XDATA, add(CFA_XSP16, literal(-10)))
        CFI (cfiCond40) V13 load(1, XDATA, add(CFA_XSP16, literal(-9)))
        CFI (cfiCond40) V14 load(1, XDATA, add(CFA_XSP16, literal(-8)))
        CFI (cfiCond40) V15 load(1, XDATA, add(CFA_XSP16, literal(-7)))
        CFI (cfiCond40) R7 load(1, XDATA, add(CFA_XSP16, literal(-6)))
        CFI (cfiCond40) ?RET_LOW load(1, XDATA, add(CFA_XSP16, literal(-5)))
        CFI (cfiCond40) ?RET_HIGH load(1, XDATA, add(CFA_XSP16, literal(-4)))
        CFI (cfiCond40) ?BRET_EXT load(1, XDATA, add(CFA_XSP16, literal(-3)))
        CFI (cfiCond40) DPL0 load(1, XDATA, add(CFA_XSP16, literal(-2)))
        CFI (cfiCond40) DPH0 load(1, XDATA, add(CFA_XSP16, literal(-1)))
        CFI (cfiCond40) CFA_SP SP+0
        CFI (cfiCond40) CFA_XSP16 add(XSP16, 45)
        CFI Block cfiCond41 Using cfiCommon0
        CFI (cfiCond41) NoFunction
        CFI (cfiCond41) Conditional ??CrossCallReturnLabel_2
        CFI (cfiCond41) R6 load(1, XDATA, add(CFA_XSP16, literal(-24)))
        CFI (cfiCond41) VB load(1, XDATA, add(CFA_XSP16, literal(-23)))
        CFI (cfiCond41) V0 load(1, XDATA, add(CFA_XSP16, literal(-22)))
        CFI (cfiCond41) V1 load(1, XDATA, add(CFA_XSP16, literal(-21)))
        CFI (cfiCond41) V2 load(1, XDATA, add(CFA_XSP16, literal(-20)))
        CFI (cfiCond41) V3 load(1, XDATA, add(CFA_XSP16, literal(-19)))
        CFI (cfiCond41) V4 load(1, XDATA, add(CFA_XSP16, literal(-18)))
        CFI (cfiCond41) V5 load(1, XDATA, add(CFA_XSP16, literal(-17)))
        CFI (cfiCond41) V6 load(1, XDATA, add(CFA_XSP16, literal(-16)))
        CFI (cfiCond41) V7 load(1, XDATA, add(CFA_XSP16, literal(-15)))
        CFI (cfiCond41) V8 load(1, XDATA, add(CFA_XSP16, literal(-14)))
        CFI (cfiCond41) V9 load(1, XDATA, add(CFA_XSP16, literal(-13)))
        CFI (cfiCond41) V10 load(1, XDATA, add(CFA_XSP16, literal(-12)))
        CFI (cfiCond41) V11 load(1, XDATA, add(CFA_XSP16, literal(-11)))
        CFI (cfiCond41) V12 load(1, XDATA, add(CFA_XSP16, literal(-10)))
        CFI (cfiCond41) V13 load(1, XDATA, add(CFA_XSP16, literal(-9)))
        CFI (cfiCond41) V14 load(1, XDATA, add(CFA_XSP16, literal(-8)))
        CFI (cfiCond41) V15 load(1, XDATA, add(CFA_XSP16, literal(-7)))
        CFI (cfiCond41) R7 load(1, XDATA, add(CFA_XSP16, literal(-6)))
        CFI (cfiCond41) ?RET_LOW load(1, XDATA, add(CFA_XSP16, literal(-5)))
        CFI (cfiCond41) ?RET_HIGH load(1, XDATA, add(CFA_XSP16, literal(-4)))
        CFI (cfiCond41) ?BRET_EXT load(1, XDATA, add(CFA_XSP16, literal(-3)))
        CFI (cfiCond41) DPL0 load(1, XDATA, add(CFA_XSP16, literal(-2)))
        CFI (cfiCond41) DPH0 load(1, XDATA, add(CFA_XSP16, literal(-1)))
        CFI (cfiCond41) CFA_SP SP+0
        CFI (cfiCond41) CFA_XSP16 add(XSP16, 45)
        CFI Block cfiCond42 Using cfiCommon0
        CFI (cfiCond42) NoFunction
        CFI (cfiCond42) Conditional ??CrossCallReturnLabel_3
        CFI (cfiCond42) R6 load(1, XDATA, add(CFA_XSP16, literal(-24)))
        CFI (cfiCond42) VB load(1, XDATA, add(CFA_XSP16, literal(-23)))
        CFI (cfiCond42) V0 load(1, XDATA, add(CFA_XSP16, literal(-22)))
        CFI (cfiCond42) V1 load(1, XDATA, add(CFA_XSP16, literal(-21)))
        CFI (cfiCond42) V2 load(1, XDATA, add(CFA_XSP16, literal(-20)))
        CFI (cfiCond42) V3 load(1, XDATA, add(CFA_XSP16, literal(-19)))
        CFI (cfiCond42) V4 load(1, XDATA, add(CFA_XSP16, literal(-18)))
        CFI (cfiCond42) V5 load(1, XDATA, add(CFA_XSP16, literal(-17)))
        CFI (cfiCond42) V6 load(1, XDATA, add(CFA_XSP16, literal(-16)))
        CFI (cfiCond42) V7 load(1, XDATA, add(CFA_XSP16, literal(-15)))
        CFI (cfiCond42) V8 load(1, XDATA, add(CFA_XSP16, literal(-14)))
        CFI (cfiCond42) V9 load(1, XDATA, add(CFA_XSP16, literal(-13)))
        CFI (cfiCond42) V10 load(1, XDATA, add(CFA_XSP16, literal(-12)))
        CFI (cfiCond42) V11 load(1, XDATA, add(CFA_XSP16, literal(-11)))
        CFI (cfiCond42) V12 load(1, XDATA, add(CFA_XSP16, literal(-10)))
        CFI (cfiCond42) V13 load(1, XDATA, add(CFA_XSP16, literal(-9)))
        CFI (cfiCond42) V14 load(1, XDATA, add(CFA_XSP16, literal(-8)))
        CFI (cfiCond42) V15 load(1, XDATA, add(CFA_XSP16, literal(-7)))
        CFI (cfiCond42) R7 load(1, XDATA, add(CFA_XSP16, literal(-6)))
        CFI (cfiCond42) ?RET_LOW load(1, XDATA, add(CFA_XSP16, literal(-5)))
        CFI (cfiCond42) ?RET_HIGH load(1, XDATA, add(CFA_XSP16, literal(-4)))
        CFI (cfiCond42) ?BRET_EXT load(1, XDATA, add(CFA_XSP16, literal(-3)))
        CFI (cfiCond42) DPL0 load(1, XDATA, add(CFA_XSP16, literal(-2)))
        CFI (cfiCond42) DPH0 load(1, XDATA, add(CFA_XSP16, literal(-1)))
        CFI (cfiCond42) CFA_SP SP+0
        CFI (cfiCond42) CFA_XSP16 add(XSP16, 45)
        CFI Block cfiPicker43 Using cfiCommon1
        CFI (cfiPicker43) NoFunction
        CFI (cfiPicker43) Picker
        MOVX    @DPTR,A
        DEC     R2
        MOV     DPTR,#__Constant_a
        MOV     R0,#?V0 + 0
        RET
        CFI EndBlock cfiCond39
        CFI EndBlock cfiCond40
        CFI EndBlock cfiCond41
        CFI EndBlock cfiCond42
        CFI EndBlock cfiPicker43

        RSEG BANK_RELAYS:CODE:REORDER:NOROOT(0)
??TransmitApp_Init?relay:
        LCALL   ?BDISPATCH
        DATA
        DC24    TransmitApp_Init

        RSEG BANK_RELAYS:CODE:REORDER:NOROOT(0)
??TransmitApp_ProcessEvent?relay:
        LCALL   ?BDISPATCH
        DATA
        DC24    TransmitApp_ProcessEvent

        RSEG BANK_RELAYS:CODE:REORDER:NOROOT(0)
??TransmitApp_ProcessZDOMsgs?relay:
        LCALL   ?BDISPATCH
        DATA
        DC24    TransmitApp_ProcessZDOMsgs

        RSEG BANK_RELAYS:CODE:REORDER:NOROOT(0)
??TransmitApp_HandleKeys?relay:
        LCALL   ?BDISPATCH
        DATA
        DC24    TransmitApp_HandleKeys

        RSEG BANK_RELAYS:CODE:REORDER:NOROOT(0)
??TransmitApp_MessageMSGCB?relay:
        LCALL   ?BDISPATCH
        DATA
        DC24    TransmitApp_MessageMSGCB

        RSEG BANK_RELAYS:CODE:REORDER:NOROOT(0)
??TransmitApp_SendTheMessage?relay:
        LCALL   ?BDISPATCH
        DATA
        DC24    TransmitApp_SendTheMessage

        RSEG BANK_RELAYS:CODE:REORDER:NOROOT(0)
??TransmitApp_ChangeState?relay:
        LCALL   ?BDISPATCH
        DATA
        DC24    TransmitApp_ChangeState

        RSEG BANK_RELAYS:CODE:REORDER:NOROOT(0)
??TransmitApp_SetSendEvt?relay:
        LCALL   ?BDISPATCH
        DATA
        DC24    TransmitApp_SetSendEvt

        RSEG BANK_RELAYS:CODE:REORDER:NOROOT(0)
??TransmitApp_DisplayResults?relay:
        LCALL   ?BDISPATCH
        DATA
        DC24    TransmitApp_DisplayResults

        RSEG XDATA_ROM_C:CONST:REORDER:NOROOT(0)
        DATA
`?<Constant "TransmitApp">`:
        DB "TransmitApp"

        RSEG XDATA_ROM_C:CONST:REORDER:NOROOT(0)
        DATA
__Constant_0:
        DD 0

        RSEG XDATA_ROM_C:CONST:REORDER:NOROOT(0)
        DATA
__Constant_3e8:
        DD 1000

        RSEG XDATA_ROM_C:CONST:REORDER:NOROOT(0)
        DATA
__Constant_186a0:
        DD 100000

        RSEG XDATA_ROM_C:CONST:REORDER:NOROOT(0)
        DATA
__Constant_1869f:
        DD 99999

        RSEG XDATA_ROM_C:CONST:REORDER:NOROOT(0)
        DATA
__Constant_a:
        DD 10

        END
//  817 
//  818 /*********************************************************************
//  819 *********************************************************************/
// 
// 2 180 bytes in segment BANKED_CODE
//    54 bytes in segment BANK_RELAYS
//    46 bytes in segment XDATA_ROM_C
//   150 bytes in segment XDATA_Z
// 
// 2 234 bytes of CODE  memory
//    26 bytes of CONST memory (+ 20 bytes shared)
//   150 bytes of XDATA memory
//
//Errors: none
//Warnings: none
