///////////////////////////////////////////////////////////////////////////////
//                                                                            /
// IAR C/C++ Compiler V7.51A/W32 for 8051               22/Aug/2013  14:42:53 /
// Copyright 2004-2009 IAR Systems AB.                                        /
//                                                                            /
//    Core               =  plain                                             /
//    Code model         =  banked                                            /
//    Data model         =  large                                             /
//    Calling convention =  xdata reentrant                                   /
//    Constant location  =  data_rom                                          /
//    Dptr setup         =  1,16                                              /
//    Source file        =  D:\GitHub\z-stack\Sensor Network                  /
//                          Example\Components\hal\common\hal_drivers.c       /
//    Command line       =  -f "D:\GitHub\z-stack\Sensor Network              /
//                          Example\Projects\zstack\Sensor Network            /
//                          Application\ZIGBEE Coordinator &                  /
//                          Router\CC2530DB\..\..\..\Tools\CC2530DB\f8wCoord. /
//                          cfg" (-DCPU32MHZ -DROOT=__near_func               /
//                          -DMAC_CFG_APP_PENDING_QUEUE=TRUE                  /
//                          -DZDO_COORDINATOR -DRTR_NWK -DBLINK_LEDS) -f      /
//                          "D:\GitHub\z-stack\Sensor Network                 /
//                          Example\Projects\zstack\Sensor Network            /
//                          Application\ZIGBEE Coordinator &                  /
//                          Router\CC2530DB\..\..\..\Tools\CC2530DB\f8wConfig /
//                          .cfg" (-DSECURE=0 -DZG_SECURE_DYNAMIC=0           /
//                          -DREFLECTOR -DDEFAULT_CHANLIST=0x00000800         /
//                          -DZDAPP_CONFIG_PAN_ID=0xFFFF                      /
//                          -DNWK_START_DELAY=100 -DEXTENDED_JOINING_RANDOM_M /
//                          ASK=0x007F -DBEACON_REQUEST_DELAY=100             /
//                          -DBEACON_REQ_DELAY_MASK=0x00FF                    /
//                          -DROUTE_EXPIRY_TIME=30 -DAPSC_ACK_WAIT_DURATION_P /
//                          OLLED=3000 -DNWK_INDIRECT_MSG_TIMEOUT=7           /
//                          -DMAX_RREQ_ENTRIES=8 -DAPSC_MAX_FRAME_RETRIES=3   /
//                          -DNWK_MAX_DATA_RETRIES=2                          /
//                          -DMAX_POLL_FAILURE_RETRIES=2 -DMAX_BCAST=9        /
//                          -DAPS_MAX_GROUPS=16 -DMAX_RTG_ENTRIES=40          /
//                          -DNWK_MAX_BINDING_ENTRIES=4                       /
//                          -DMAX_BINDING_CLUSTER_IDS=4                       /
//                          "-DDEFAULT_KEY={0x01, 0x03, 0x05, 0x07, 0x09,     /
//                          0x0B, 0x0D, 0x0F, 0x00, 0x02, 0x04, 0x06, 0x08,   /
//                          0x0A, 0x0C, 0x0D}" -DMAC_MAX_FRAME_SIZE=116       /
//                          "-DCONST=const __code" -DGENERIC=__generic        /
//                          -DRFD_RCVC_ALWAYS_ON=TRUE -DPOLL_RATE=1000        /
//                          -DQUEUED_POLL_RATE=100 -DRESPONSE_POLL_RATE=100   /
//                          -DREJOIN_POLL_RATE=440) -f                        /
//                          "D:\GitHub\z-stack\Sensor Network                 /
//                          Example\Projects\zstack\Sensor Network            /
//                          Application\ZIGBEE Coordinator &                  /
//                          Router\CC2530DB\..\..\..\Tools\CC2530DB\f8wZCL.cf /
//                          g" (-DZCL_READ -DZCL_WRITE -DZCL_BASIC            /
//                          -DZCL_IDENTIFY -DZCL_ON_OFF -DZCL_KEY_ESTABLISH   /
//                          -DZCL_LOAD_CONTROL -DZCL_SIMPLE_METERING          /
//                          -DZCL_PRICING) -DZCL_MESSAGE                      /
//                          "D:\GitHub\z-stack\Sensor Network                 /
//                          Example\Components\hal\common\hal_drivers.c" -D   /
//                          CC2530 -D ZTOOL_P1 -D MT_TASK -D MT_APP_FUNC -D   /
//                          MT_SYS_FUNC -D MT_ZDO_FUNC -D                     /
//                          LCD_SUPPORTED=DEBUG -D Coor_receiver -D           /
//                          xHAL_KEYPAD -D xPA2591 -lC                        /
//                          "D:\GitHub\z-stack\Sensor Network                 /
//                          Example\Projects\zstack\Sensor Network            /
//                          Application\ZIGBEE Coordinator &                  /
//                          Router\CC2530DB\Coordinator_KB_PA\List\" -lA      /
//                          "D:\GitHub\z-stack\Sensor Network                 /
//                          Example\Projects\zstack\Sensor Network            /
//                          Application\ZIGBEE Coordinator &                  /
//                          Router\CC2530DB\Coordinator_KB_PA\List\"          /
//                          --diag_suppress Pe001,Pa010 -o                    /
//                          "D:\GitHub\z-stack\Sensor Network                 /
//                          Example\Projects\zstack\Sensor Network            /
//                          Application\ZIGBEE Coordinator &                  /
//                          Router\CC2530DB\Coordinator_KB_PA\Obj\" -e        /
//                          --require_prototypes --debug --core=plain         /
//                          --dptr=16,1 --data_model=large                    /
//                          --code_model=banked --calling_convention=xdata_re /
//                          entrant --place_constants=data_rom                /
//                          --nr_virtual_regs 16 -I                           /
//                          "D:\GitHub\z-stack\Sensor Network                 /
//                          Example\Projects\zstack\Sensor Network            /
//                          Application\ZIGBEE Coordinator &                  /
//                          Router\CC2530DB\" -I "D:\GitHub\z-stack\Sensor    /
//                          Network Example\Projects\zstack\Sensor Network    /
//                          Application\ZIGBEE Coordinator &                  /
//                          Router\CC2530DB\..\SOURCE\" -I                    /
//                          "D:\GitHub\z-stack\Sensor Network                 /
//                          Example\Projects\zstack\Sensor Network            /
//                          Application\ZIGBEE Coordinator &                  /
//                          Router\CC2530DB\..\..\SOURCE\" -I                 /
//                          "D:\GitHub\z-stack\Sensor Network                 /
//                          Example\Projects\zstack\Sensor Network            /
//                          Application\ZIGBEE Coordinator &                  /
//                          Router\CC2530DB\..\..\..\ZMAIN\TI2530DB\" -I      /
//                          "D:\GitHub\z-stack\Sensor Network                 /
//                          Example\Projects\zstack\Sensor Network            /
//                          Application\ZIGBEE Coordinator &                  /
//                          Router\CC2530DB\..\..\..\..\..\COMPONENTS\MT\"    /
//                          -I "D:\GitHub\z-stack\Sensor Network              /
//                          Example\Projects\zstack\Sensor Network            /
//                          Application\ZIGBEE Coordinator &                  /
//                          Router\CC2530DB\..\..\..\..\..\COMPONENTS\HAL\INC /
//                          LUDE\" -I "D:\GitHub\z-stack\Sensor Network       /
//                          Example\Projects\zstack\Sensor Network            /
//                          Application\ZIGBEE Coordinator &                  /
//                          Router\CC2530DB\..\..\..\..\..\COMPONENTS\HAL\TAR /
//                          GET\CC2530KB\" -I "D:\GitHub\z-stack\Sensor       /
//                          Network Example\Projects\zstack\Sensor Network    /
//                          Application\ZIGBEE Coordinator &                  /
//                          Router\CC2530DB\..\..\..\..\..\COMPONENTS\OSAL\MC /
//                          U\CCSOC\" -I "D:\GitHub\z-stack\Sensor Network    /
//                          Example\Projects\zstack\Sensor Network            /
//                          Application\ZIGBEE Coordinator &                  /
//                          Router\CC2530DB\..\..\..\..\..\COMPONENTS\OSAL\IN /
//                          CLUDE\" -I "D:\GitHub\z-stack\Sensor Network      /
//                          Example\Projects\zstack\Sensor Network            /
//                          Application\ZIGBEE Coordinator &                  /
//                          Router\CC2530DB\..\..\..\..\..\COMPONENTS\STACK\A /
//                          F\" -I "D:\GitHub\z-stack\Sensor Network          /
//                          Example\Projects\zstack\Sensor Network            /
//                          Application\ZIGBEE Coordinator &                  /
//                          Router\CC2530DB\..\..\..\..\..\COMPONENTS\STACK\N /
//                          WK\" -I "D:\GitHub\z-stack\Sensor Network         /
//                          Example\Projects\zstack\Sensor Network            /
//                          Application\ZIGBEE Coordinator &                  /
//                          Router\CC2530DB\..\..\..\..\..\COMPONENTS\STACK\S /
//                          EC\" -I "D:\GitHub\z-stack\Sensor Network         /
//                          Example\Projects\zstack\Sensor Network            /
//                          Application\ZIGBEE Coordinator &                  /
//                          Router\CC2530DB\..\..\..\..\..\COMPONENTS\STACK\S /
//                          API\" -I "D:\GitHub\z-stack\Sensor Network        /
//                          Example\Projects\zstack\Sensor Network            /
//                          Application\ZIGBEE Coordinator &                  /
//                          Router\CC2530DB\..\..\..\..\..\COMPONENTS\STACK\S /
//                          YS\" -I "D:\GitHub\z-stack\Sensor Network         /
//                          Example\Projects\zstack\Sensor Network            /
//                          Application\ZIGBEE Coordinator &                  /
//                          Router\CC2530DB\..\..\..\..\..\COMPONENTS\STACK\Z /
//                          CL\" -I "D:\GitHub\z-stack\Sensor Network         /
//                          Example\Projects\zstack\Sensor Network            /
//                          Application\ZIGBEE Coordinator &                  /
//                          Router\CC2530DB\..\..\..\..\..\COMPONENTS\STACK\Z /
//                          DO\" -I "D:\GitHub\z-stack\Sensor Network         /
//                          Example\Projects\zstack\Sensor Network            /
//                          Application\ZIGBEE Coordinator &                  /
//                          Router\CC2530DB\..\..\..\..\..\COMPONENTS\ZMAC\F8 /
//                          W\" -I "D:\GitHub\z-stack\Sensor Network          /
//                          Example\Projects\zstack\Sensor Network            /
//                          Application\ZIGBEE Coordinator &                  /
//                          Router\CC2530DB\..\..\..\..\..\COMPONENTS\ZMAC\"  /
//                          -I "D:\GitHub\z-stack\Sensor Network              /
//                          Example\Projects\zstack\Sensor Network            /
//                          Application\ZIGBEE Coordinator &                  /
//                          Router\CC2530DB\..\..\..\..\..\COMPONENTS\SERVICE /
//                          S\SADDR\" -I "D:\GitHub\z-stack\Sensor Network    /
//                          Example\Projects\zstack\Sensor Network            /
//                          Application\ZIGBEE Coordinator &                  /
//                          Router\CC2530DB\..\..\..\..\..\COMPONENTS\SERVICE /
//                          S\SDATA\" -I "D:\GitHub\z-stack\Sensor Network    /
//                          Example\Projects\zstack\Sensor Network            /
//                          Application\ZIGBEE Coordinator &                  /
//                          Router\CC2530DB\..\..\..\..\..\COMPONENTS\MAC\INC /
//                          LUDE\" -I "D:\GitHub\z-stack\Sensor Network       /
//                          Example\Projects\zstack\Sensor Network            /
//                          Application\ZIGBEE Coordinator &                  /
//                          Router\CC2530DB\..\..\..\..\..\COMPONENTS\MAC\HIG /
//                          H_LEVEL\" -I "D:\GitHub\z-stack\Sensor Network    /
//                          Example\Projects\zstack\Sensor Network            /
//                          Application\ZIGBEE Coordinator &                  /
//                          Router\CC2530DB\..\..\..\..\..\COMPONENTS\MAC\LOW /
//                          _LEVEL\srf04\" -I "D:\GitHub\z-stack\Sensor       /
//                          Network Example\Projects\zstack\Sensor Network    /
//                          Application\ZIGBEE Coordinator &                  /
//                          Router\CC2530DB\..\..\..\..\..\COMPONENTS\MAC\LOW /
//                          _LEVEL\srf04\SINGLE_CHIP\" -I "C:\Program Files   /
//                          (x86)\IAR Systems\Embedded Workbench              /
//                          5.3\8051\INC\" -I "C:\Program Files (x86)\IAR     /
//                          Systems\Embedded Workbench 5.3\8051\INC\CLIB\"    /
//                          -Ohz                                              /
//    List file          =  D:\GitHub\z-stack\Sensor Network                  /
//                          Example\Projects\zstack\Sensor Network            /
//                          Application\ZIGBEE Coordinator &                  /
//                          Router\CC2530DB\Coordinator_KB_PA\List\hal_driver /
//                          s.s51                                             /
//                                                                            /
//                                                                            /
///////////////////////////////////////////////////////////////////////////////

        NAME hal_drivers

        RTMODEL "__calling_convention", "xdata_reentrant"
        RTMODEL "__code_model", "banked"
        RTMODEL "__core", "plain"
        RTMODEL "__data_model", "large"
        RTMODEL "__dptr_size", "16"
        RTMODEL "__extended_stack", "disabled"
        RTMODEL "__location_for_constants", "data"
        RTMODEL "__number_of_dptrs", "1"
        RTMODEL "__rt_version", "1"

        RSEG DOVERLAY:DATA:NOROOT(0)
        RSEG IOVERLAY:IDATA:NOROOT(0)
        RSEG ISTACK:IDATA:NOROOT(0)
        RSEG PSTACK:XDATA:NOROOT(0)
        RSEG XSTACK:XDATA:NOROOT(0)

        EXTERN ?BANKED_ENTER_XDATA
        EXTERN ?BANKED_LEAVE_XDATA
        EXTERN ?BDISPATCH
        EXTERN ?BRET
        EXTERN __INIT_XDATA_Z

        PUBLIC ??HalDriverInit?relay
        FUNCTION ??HalDriverInit?relay,0203H
        PUBLIC ??Hal_Init?relay
        FUNCTION ??Hal_Init?relay,0203H
        PUBLIC ??Hal_ProcessEvent?relay
        FUNCTION ??Hal_ProcessEvent?relay,0203H
        PUBLIC ??Hal_ProcessPoll?relay
        FUNCTION ??Hal_ProcessPoll?relay,0203H
        PUBLIC HalDriverInit
        FUNCTION HalDriverInit,021203H
        ARGFRAME XSTACK, 0, STACK
        LOCFRAME ISTACK, 2, STACK
        PUBLIC Hal_Init
        FUNCTION Hal_Init,0203H
        ARGFRAME XSTACK, 0, STACK
        LOCFRAME ISTACK, 2, STACK
        PUBLIC Hal_ProcessEvent
        FUNCTION Hal_ProcessEvent,021203H
        ARGFRAME XSTACK, 0, STACK
        LOCFRAME XSTACK, 10, STACK
        PUBLIC Hal_ProcessPoll
        FUNCTION Hal_ProcessPoll,021203H
        ARGFRAME XSTACK, 0, STACK
        LOCFRAME ISTACK, 2, STACK
        PUBLIC Hal_TaskID
        
        CFI Names cfiNames0
        CFI StackFrame CFA_SP SP IDATA
        CFI StackFrame CFA_PSP16 PSP16 XDATA
        CFI StackFrame CFA_XSP16 XSP16 XDATA
        CFI StaticOverlayFrame CFA_IOVERLAY IOVERLAY
        CFI StaticOverlayFrame CFA_DOVERLAY DOVERLAY
        CFI Resource `PSW.CY`:1, `B.BR0`:1, `B.BR1`:1, `B.BR2`:1, `B.BR3`:1
        CFI Resource `B.BR4`:1, `B.BR5`:1, `B.BR6`:1, `B.BR7`:1, `VB.BR8`:1
        CFI Resource `VB.BR9`:1, `VB.BR10`:1, `VB.BR11`:1, `VB.BR12`:1
        CFI Resource `VB.BR13`:1, `VB.BR14`:1, `VB.BR15`:1, VB:8, B:8, A:8
        CFI Resource PSW:8, DPL0:8, DPH0:8, R0:8, R1:8, R2:8, R3:8, R4:8, R5:8
        CFI Resource R6:8, R7:8, V0:8, V1:8, V2:8, V3:8, V4:8, V5:8, V6:8, V7:8
        CFI Resource V8:8, V9:8, V10:8, V11:8, V12:8, V13:8, V14:8, V15:8, SP:8
        CFI Resource PSPH:8, PSPL:8, PSP16:16, XSPH:8, XSPL:8, XSP16:16
        CFI VirtualResource ?RET:24
        CFI Resource ?BRET_EXT:8
        CFI VirtualResource ?RET_HIGH:8, ?RET_LOW:8
        CFI ResourceParts PSP16 PSPH, PSPL
        CFI ResourceParts XSP16 XSPH, XSPL
        CFI ResourceParts ?RET ?BRET_EXT, ?RET_HIGH, ?RET_LOW
        CFI EndNames cfiNames0
        
        CFI Common cfiCommon0 Using cfiNames0
        CFI CodeAlign 1
        CFI DataAlign -1
        CFI ReturnAddress ?RET CODE
        CFI CFA_DOVERLAY Used
        CFI CFA_IOVERLAY Used
        CFI CFA_SP SP+-3
        CFI CFA_PSP16 PSP16+0
        CFI CFA_XSP16 XSP16+0
        CFI `PSW.CY` SameValue
        CFI `B.BR0` SameValue
        CFI `B.BR1` SameValue
        CFI `B.BR2` SameValue
        CFI `B.BR3` SameValue
        CFI `B.BR4` SameValue
        CFI `B.BR5` SameValue
        CFI `B.BR6` SameValue
        CFI `B.BR7` SameValue
        CFI `VB.BR8` SameValue
        CFI `VB.BR9` SameValue
        CFI `VB.BR10` SameValue
        CFI `VB.BR11` SameValue
        CFI `VB.BR12` SameValue
        CFI `VB.BR13` SameValue
        CFI `VB.BR14` SameValue
        CFI `VB.BR15` SameValue
        CFI VB SameValue
        CFI B Undefined
        CFI A Undefined
        CFI PSW SameValue
        CFI DPL0 SameValue
        CFI DPH0 SameValue
        CFI R0 Undefined
        CFI R1 Undefined
        CFI R2 Undefined
        CFI R3 Undefined
        CFI R4 Undefined
        CFI R5 Undefined
        CFI R6 SameValue
        CFI R7 SameValue
        CFI V0 SameValue
        CFI V1 SameValue
        CFI V2 SameValue
        CFI V3 SameValue
        CFI V4 SameValue
        CFI V5 SameValue
        CFI V6 SameValue
        CFI V7 SameValue
        CFI V8 SameValue
        CFI V9 SameValue
        CFI V10 SameValue
        CFI V11 SameValue
        CFI V12 SameValue
        CFI V13 SameValue
        CFI V14 SameValue
        CFI V15 SameValue
        CFI PSPH Undefined
        CFI PSPL Undefined
        CFI XSPH Undefined
        CFI XSPL Undefined
        CFI ?RET Concat
        CFI ?BRET_EXT Frame(CFA_SP, 3)
        CFI ?RET_HIGH Frame(CFA_SP, 2)
        CFI ?RET_LOW Frame(CFA_SP, 1)
        CFI EndCommon cfiCommon0
        
HalAdcInit          SYMBOL "HalAdcInit"
HalDmaInit          SYMBOL "HalDmaInit"
HalFlashInit        SYMBOL "HalFlashInit"
HalAesInit          SYMBOL "HalAesInit"
HalLcdInit          SYMBOL "HalLcdInit"
HalUARTInit         SYMBOL "HalUARTInit"
HalKeyInit          SYMBOL "HalKeyInit"
halKeypadInit       SYMBOL "halKeypadInit"
halBuzzerInit       SYMBOL "halBuzzerInit"
HalLedInit          SYMBOL "HalLedInit"
osal_msg_receive    SYMBOL "osal_msg_receive"
osal_msg_deallocate SYMBOL "osal_msg_deallocate"
HalLedUpdate        SYMBOL "HalLedUpdate"
HalKeyPoll          SYMBOL "HalKeyPoll"
osal_start_timerEx  SYMBOL "osal_start_timerEx"
HalUARTPoll         SYMBOL "HalUARTPoll"
??HalAdcInit?relay  SYMBOL "?relay", HalAdcInit
??HalAesInit?relay  SYMBOL "?relay", HalAesInit
??HalDmaInit?relay  SYMBOL "?relay", HalDmaInit
??HalFlashInit?relay SYMBOL "?relay", HalFlashInit
??HalKeyInit?relay  SYMBOL "?relay", HalKeyInit
??HalKeyPoll?relay  SYMBOL "?relay", HalKeyPoll
??HalLcdInit?relay  SYMBOL "?relay", HalLcdInit
??HalLedInit?relay  SYMBOL "?relay", HalLedInit
??HalLedUpdate?relay SYMBOL "?relay", HalLedUpdate
??HalUARTInit?relay SYMBOL "?relay", HalUARTInit
??HalUARTPoll?relay SYMBOL "?relay", HalUARTPoll
??halBuzzerInit?relay SYMBOL "?relay", halBuzzerInit
??halKeypadInit?relay SYMBOL "?relay", halKeypadInit
??osal_msg_deallocate?relay SYMBOL "?relay", osal_msg_deallocate
??osal_msg_receive?relay SYMBOL "?relay", osal_msg_receive
??osal_start_timerEx?relay SYMBOL "?relay", osal_start_timerEx
HalDriverInit       SYMBOL "HalDriverInit"
??HalDriverInit?relay SYMBOL "?relay", HalDriverInit
Hal_Init            SYMBOL "Hal_Init"
??Hal_Init?relay    SYMBOL "?relay", Hal_Init
Hal_ProcessEvent    SYMBOL "Hal_ProcessEvent"
??Hal_ProcessEvent?relay SYMBOL "?relay", Hal_ProcessEvent
Hal_ProcessPoll     SYMBOL "Hal_ProcessPoll"
??Hal_ProcessPoll?relay SYMBOL "?relay", Hal_ProcessPoll

        EXTERN HalAdcInit
        FUNCTION HalAdcInit,0202H
        ARGFRAME ISTACK, 2, STACK
        ARGFRAME PSTACK, 0, STACK
        ARGFRAME XSTACK, 0, STACK
        ARGFRAME IOVERLAY, 0, STATIC
        ARGFRAME DOVERLAY, 0, STATIC
        EXTERN HalDmaInit
        FUNCTION HalDmaInit,0202H
        ARGFRAME ISTACK, 2, STACK
        ARGFRAME PSTACK, 0, STACK
        ARGFRAME XSTACK, 0, STACK
        ARGFRAME IOVERLAY, 0, STATIC
        ARGFRAME DOVERLAY, 0, STATIC
        EXTERN HalFlashInit
        FUNCTION HalFlashInit,0202H
        ARGFRAME ISTACK, 2, STACK
        ARGFRAME PSTACK, 0, STACK
        ARGFRAME XSTACK, 0, STACK
        ARGFRAME IOVERLAY, 0, STATIC
        ARGFRAME DOVERLAY, 0, STATIC
        EXTERN HalAesInit
        FUNCTION HalAesInit,0202H
        ARGFRAME ISTACK, 2, STACK
        ARGFRAME PSTACK, 0, STACK
        ARGFRAME XSTACK, 0, STACK
        ARGFRAME IOVERLAY, 0, STATIC
        ARGFRAME DOVERLAY, 0, STATIC
        EXTERN HalLcdInit
        FUNCTION HalLcdInit,0202H
        ARGFRAME ISTACK, 2, STACK
        ARGFRAME PSTACK, 0, STACK
        ARGFRAME XSTACK, 0, STACK
        ARGFRAME IOVERLAY, 0, STATIC
        ARGFRAME DOVERLAY, 0, STATIC
        EXTERN HalUARTInit
        FUNCTION HalUARTInit,0202H
        ARGFRAME ISTACK, 2, STACK
        ARGFRAME PSTACK, 0, STACK
        ARGFRAME XSTACK, 0, STACK
        ARGFRAME IOVERLAY, 0, STATIC
        ARGFRAME DOVERLAY, 0, STATIC
        EXTERN HalKeyInit
        FUNCTION HalKeyInit,0202H
        ARGFRAME ISTACK, 2, STACK
        ARGFRAME PSTACK, 0, STACK
        ARGFRAME XSTACK, 0, STACK
        ARGFRAME IOVERLAY, 0, STATIC
        ARGFRAME DOVERLAY, 0, STATIC
        EXTERN halKeypadInit
        FUNCTION halKeypadInit,0202H
        ARGFRAME ISTACK, 2, STACK
        ARGFRAME PSTACK, 0, STACK
        ARGFRAME XSTACK, 0, STACK
        ARGFRAME IOVERLAY, 0, STATIC
        ARGFRAME DOVERLAY, 0, STATIC
        EXTERN halBuzzerInit
        FUNCTION halBuzzerInit,0202H
        ARGFRAME ISTACK, 2, STACK
        ARGFRAME PSTACK, 0, STACK
        ARGFRAME XSTACK, 0, STACK
        ARGFRAME IOVERLAY, 0, STATIC
        ARGFRAME DOVERLAY, 0, STATIC
        EXTERN HalLedInit
        FUNCTION HalLedInit,0202H
        ARGFRAME ISTACK, 2, STACK
        ARGFRAME PSTACK, 0, STACK
        ARGFRAME XSTACK, 0, STACK
        ARGFRAME IOVERLAY, 0, STATIC
        ARGFRAME DOVERLAY, 0, STATIC
        EXTERN osal_msg_receive
        FUNCTION osal_msg_receive,0202H
        ARGFRAME ISTACK, 0, STACK
        ARGFRAME PSTACK, 0, STACK
        ARGFRAME XSTACK, 10, STACK
        ARGFRAME IOVERLAY, 0, STATIC
        ARGFRAME DOVERLAY, 0, STATIC
        EXTERN osal_msg_deallocate
        FUNCTION osal_msg_deallocate,0202H
        ARGFRAME ISTACK, 0, STACK
        ARGFRAME PSTACK, 0, STACK
        ARGFRAME XSTACK, 10, STACK
        ARGFRAME IOVERLAY, 0, STATIC
        ARGFRAME DOVERLAY, 0, STATIC
        EXTERN HalLedUpdate
        FUNCTION HalLedUpdate,0202H
        ARGFRAME ISTACK, 0, STACK
        ARGFRAME PSTACK, 0, STACK
        ARGFRAME XSTACK, 10, STACK
        ARGFRAME IOVERLAY, 0, STATIC
        ARGFRAME DOVERLAY, 0, STATIC
        EXTERN HalKeyPoll
        FUNCTION HalKeyPoll,0202H
        ARGFRAME ISTACK, 0, STACK
        ARGFRAME PSTACK, 0, STACK
        ARGFRAME XSTACK, 10, STACK
        ARGFRAME IOVERLAY, 0, STATIC
        ARGFRAME DOVERLAY, 0, STATIC
        EXTERN osal_start_timerEx
        FUNCTION osal_start_timerEx,0202H
        ARGFRAME ISTACK, 0, STACK
        ARGFRAME PSTACK, 0, STACK
        ARGFRAME XSTACK, 10, STACK
        ARGFRAME IOVERLAY, 0, STATIC
        ARGFRAME DOVERLAY, 0, STATIC
        EXTERN HalUARTPoll
        FUNCTION HalUARTPoll,0202H
        ARGFRAME ISTACK, 2, STACK
        ARGFRAME PSTACK, 0, STACK
        ARGFRAME XSTACK, 0, STACK
        ARGFRAME IOVERLAY, 0, STATIC
        ARGFRAME DOVERLAY, 0, STATIC
        EXTERN ??HalAdcInit?relay
        FUNCTION ??HalAdcInit?relay,00H
        EXTERN ??HalAesInit?relay
        FUNCTION ??HalAesInit?relay,00H
        EXTERN ??HalDmaInit?relay
        FUNCTION ??HalDmaInit?relay,00H
        EXTERN ??HalFlashInit?relay
        FUNCTION ??HalFlashInit?relay,00H
        EXTERN ??HalKeyInit?relay
        FUNCTION ??HalKeyInit?relay,00H
        EXTERN ??HalKeyPoll?relay
        FUNCTION ??HalKeyPoll?relay,00H
        EXTERN ??HalLcdInit?relay
        FUNCTION ??HalLcdInit?relay,00H
        EXTERN ??HalLedInit?relay
        FUNCTION ??HalLedInit?relay,00H
        EXTERN ??HalLedUpdate?relay
        FUNCTION ??HalLedUpdate?relay,00H
        EXTERN ??HalUARTInit?relay
        FUNCTION ??HalUARTInit?relay,00H
        EXTERN ??HalUARTPoll?relay
        FUNCTION ??HalUARTPoll?relay,00H
        EXTERN ??halBuzzerInit?relay
        FUNCTION ??halBuzzerInit?relay,00H
        EXTERN ??halKeypadInit?relay
        FUNCTION ??halKeypadInit?relay,00H
        EXTERN ??osal_msg_deallocate?relay
        FUNCTION ??osal_msg_deallocate?relay,00H
        EXTERN ??osal_msg_receive?relay
        FUNCTION ??osal_msg_receive?relay,00H
        EXTERN ??osal_start_timerEx?relay
        FUNCTION ??osal_start_timerEx?relay,00H
        EXTERN Hal_KeyIntEnable

// D:\GitHub\z-stack\Sensor Network Example\Components\hal\common\hal_drivers.c
//    1 #include "hal_types.h"
//    2 #include "OSAL.h"
//    3 #include "hal_drivers.h"
//    4 #include "hal_adc.h"
//    5 #if (defined HAL_DMA) && (HAL_DMA == TRUE)
//    6   #include "hal_dma.h"
//    7 #endif
//    8 
//    9 /* HAL */ 
//   10 #include "hal_lcd.h"
//   11 #include "hal_led.h"
//   12 #include "hal_key.h"
//   13 #include "hal_sleep.h"
//   14 #include "hal_uart.h"
//   15 #include "hal_timer.h"
//   16 #include "hal_flash.h"
//   17 #include "hal_buzzer.h"
//   18 #include "hal_keypad.h" 
//   19 #if (defined HAL_AES) && (HAL_AES == TRUE)
//   20   #include "hal_aes.h"
//   21 #endif
//   22 #if (defined HAL_SPI) && (HAL_SPI == TRUE)
//   23   #include "hal_spi.h"
//   24 #endif
//   25 #if (defined HAL_HID) && (HAL_HID == TRUE)
//   26   #include "usb_hid.h"
//   27 #endif
//   28 #if defined(M170)
//   29   #include "M170.h"
//   30 #endif
//   31 #if defined(M190)
//   32   #include "M190.h"
//   33 #endif
//   34 #if defined(M140) || (M200) // SensorApp example include header file
//   35   #include "M140.h"
//   36   #include "M200.h"
//   37 #endif
//   38 

        RSEG XDATA_Z:XDATA:NOROOT(0)
//   39 uint8 Hal_TaskID;
Hal_TaskID:
        DS 1
        REQUIRE __INIT_XDATA_Z
//   40 
//   41 extern void HalLedUpdate( void ); /* Notes: This for internal only so it shouldn't be in hal_led.h */
//   42 

        RSEG BANKED_CODE:CODE:NOROOT(0)
//   43 void Hal_Init( uint8 task_id )
Hal_Init:
        CFI Block cfiBlock0 Using cfiCommon0
        CFI Function Hal_Init
//   44 {
        PUSH    DPL
        CFI DPL0 Frame(CFA_SP, 4)
        CFI CFA_SP SP+-4
        PUSH    DPH
        CFI DPH0 Frame(CFA_SP, 5)
        CFI CFA_SP SP+-5
        ; Saved register size: 2
        ; Auto size: 0
//   45   /* Register task ID */
//   46   Hal_TaskID = task_id;
        MOV     A,R1
        MOV     DPTR,#Hal_TaskID
        MOVX    @DPTR,A
        CFI EndBlock cfiBlock0
//   47 }
        REQUIRE ?Subroutine0
        ; // Fall through to label ?Subroutine0

        RSEG BANKED_CODE:CODE:NOROOT(0)
?Subroutine0:
        CFI Block cfiBlock1 Using cfiCommon0
        CFI NoFunction
        CFI CFA_SP SP+-5
        CFI DPL0 Frame(CFA_SP, 4)
        CFI DPH0 Frame(CFA_SP, 5)
        POP     DPH
        CFI CFA_SP SP+-4
        CFI DPH0 SameValue
        POP     DPL
        CFI CFA_SP SP+-3
        CFI DPL0 SameValue
        LJMP    ?BRET
        CFI EndBlock cfiBlock1
//   48 

        RSEG BANKED_CODE:CODE:NOROOT(0)
//   49 void HalDriverInit (void)
HalDriverInit:
        CFI Block cfiBlock2 Using cfiCommon0
        CFI Function HalDriverInit
//   50 {
        FUNCALL HalDriverInit, HalAdcInit
        LOCFRAME ISTACK, 2, STACK
        LOCFRAME PSTACK, 0, STACK
        LOCFRAME XSTACK, 0, STACK
        LOCFRAME IOVERLAY, 0, STATIC
        LOCFRAME DOVERLAY, 0, STATIC
        ARGFRAME ISTACK, 2, STACK
        ARGFRAME PSTACK, 0, STACK
        ARGFRAME XSTACK, 0, STACK
        ARGFRAME IOVERLAY, 0, STATIC
        ARGFRAME DOVERLAY, 0, STATIC
        FUNCALL HalDriverInit, HalDmaInit
        LOCFRAME ISTACK, 2, STACK
        LOCFRAME PSTACK, 0, STACK
        LOCFRAME XSTACK, 0, STACK
        LOCFRAME IOVERLAY, 0, STATIC
        LOCFRAME DOVERLAY, 0, STATIC
        ARGFRAME ISTACK, 2, STACK
        ARGFRAME PSTACK, 0, STACK
        ARGFRAME XSTACK, 0, STACK
        ARGFRAME IOVERLAY, 0, STATIC
        ARGFRAME DOVERLAY, 0, STATIC
        FUNCALL HalDriverInit, HalFlashInit
        LOCFRAME ISTACK, 2, STACK
        LOCFRAME PSTACK, 0, STACK
        LOCFRAME XSTACK, 0, STACK
        LOCFRAME IOVERLAY, 0, STATIC
        LOCFRAME DOVERLAY, 0, STATIC
        ARGFRAME ISTACK, 2, STACK
        ARGFRAME PSTACK, 0, STACK
        ARGFRAME XSTACK, 0, STACK
        ARGFRAME IOVERLAY, 0, STATIC
        ARGFRAME DOVERLAY, 0, STATIC
        FUNCALL HalDriverInit, HalAesInit
        LOCFRAME ISTACK, 2, STACK
        LOCFRAME PSTACK, 0, STACK
        LOCFRAME XSTACK, 0, STACK
        LOCFRAME IOVERLAY, 0, STATIC
        LOCFRAME DOVERLAY, 0, STATIC
        ARGFRAME ISTACK, 2, STACK
        ARGFRAME PSTACK, 0, STACK
        ARGFRAME XSTACK, 0, STACK
        ARGFRAME IOVERLAY, 0, STATIC
        ARGFRAME DOVERLAY, 0, STATIC
        FUNCALL HalDriverInit, HalLcdInit
        LOCFRAME ISTACK, 2, STACK
        LOCFRAME PSTACK, 0, STACK
        LOCFRAME XSTACK, 0, STACK
        LOCFRAME IOVERLAY, 0, STATIC
        LOCFRAME DOVERLAY, 0, STATIC
        ARGFRAME ISTACK, 2, STACK
        ARGFRAME PSTACK, 0, STACK
        ARGFRAME XSTACK, 0, STACK
        ARGFRAME IOVERLAY, 0, STATIC
        ARGFRAME DOVERLAY, 0, STATIC
        FUNCALL HalDriverInit, HalUARTInit
        LOCFRAME ISTACK, 2, STACK
        LOCFRAME PSTACK, 0, STACK
        LOCFRAME XSTACK, 0, STACK
        LOCFRAME IOVERLAY, 0, STATIC
        LOCFRAME DOVERLAY, 0, STATIC
        ARGFRAME ISTACK, 2, STACK
        ARGFRAME PSTACK, 0, STACK
        ARGFRAME XSTACK, 0, STACK
        ARGFRAME IOVERLAY, 0, STATIC
        ARGFRAME DOVERLAY, 0, STATIC
        FUNCALL HalDriverInit, HalKeyInit
        LOCFRAME ISTACK, 2, STACK
        LOCFRAME PSTACK, 0, STACK
        LOCFRAME XSTACK, 0, STACK
        LOCFRAME IOVERLAY, 0, STATIC
        LOCFRAME DOVERLAY, 0, STATIC
        ARGFRAME ISTACK, 2, STACK
        ARGFRAME PSTACK, 0, STACK
        ARGFRAME XSTACK, 0, STACK
        ARGFRAME IOVERLAY, 0, STATIC
        ARGFRAME DOVERLAY, 0, STATIC
        FUNCALL HalDriverInit, halKeypadInit
        LOCFRAME ISTACK, 2, STACK
        LOCFRAME PSTACK, 0, STACK
        LOCFRAME XSTACK, 0, STACK
        LOCFRAME IOVERLAY, 0, STATIC
        LOCFRAME DOVERLAY, 0, STATIC
        ARGFRAME ISTACK, 2, STACK
        ARGFRAME PSTACK, 0, STACK
        ARGFRAME XSTACK, 0, STACK
        ARGFRAME IOVERLAY, 0, STATIC
        ARGFRAME DOVERLAY, 0, STATIC
        FUNCALL HalDriverInit, halBuzzerInit
        LOCFRAME ISTACK, 2, STACK
        LOCFRAME PSTACK, 0, STACK
        LOCFRAME XSTACK, 0, STACK
        LOCFRAME IOVERLAY, 0, STATIC
        LOCFRAME DOVERLAY, 0, STATIC
        ARGFRAME ISTACK, 2, STACK
        ARGFRAME PSTACK, 0, STACK
        ARGFRAME XSTACK, 0, STACK
        ARGFRAME IOVERLAY, 0, STATIC
        ARGFRAME DOVERLAY, 0, STATIC
        FUNCALL HalDriverInit, HalLedInit
        LOCFRAME ISTACK, 2, STACK
        LOCFRAME PSTACK, 0, STACK
        LOCFRAME XSTACK, 0, STACK
        LOCFRAME IOVERLAY, 0, STATIC
        LOCFRAME DOVERLAY, 0, STATIC
        ARGFRAME ISTACK, 2, STACK
        ARGFRAME PSTACK, 0, STACK
        ARGFRAME XSTACK, 0, STACK
        ARGFRAME IOVERLAY, 0, STATIC
        ARGFRAME DOVERLAY, 0, STATIC
        PUSH    DPL
        CFI DPL0 Frame(CFA_SP, 4)
        CFI CFA_SP SP+-4
        PUSH    DPH
        CFI DPH0 Frame(CFA_SP, 5)
        CFI CFA_SP SP+-5
        ; Saved register size: 2
        ; Auto size: 0
//   51   /* TIMER */
//   52 #if (defined HAL_TIMER) && (HAL_TIMER == TRUE)
//   53   HalTimerInit();
//   54 #endif
//   55 
//   56   /* ADC */
//   57 #if (defined HAL_ADC) && (HAL_ADC == TRUE)
//   58   HalAdcInit();
        ; Setup parameters for call to function HalAdcInit
        LCALL   ??HalAdcInit?relay
//   59   #if defined(M170)
//   60     M170_Init();
//   61   #endif
//   62   #if defined(M190)
//   63     M190_Init();
//   64   #endif
//   65 #endif
//   66 
//   67   /* DMA */
//   68 #if (defined HAL_DMA) && (HAL_DMA == TRUE)
//   69   // Must be called before the init call to any module that uses DMA.
//   70   HalDmaInit();
        ; Setup parameters for call to function HalDmaInit
        LCALL   ??HalDmaInit?relay
//   71 #endif
//   72 
//   73   /* Flash */
//   74 #if (defined HAL_FLASH) && (HAL_FLASH == TRUE)
//   75   // Must be called before the init call to any module that uses Flash access or NV.
//   76   HalFlashInit();
        ; Setup parameters for call to function HalFlashInit
        LCALL   ??HalFlashInit?relay
//   77 #endif
//   78 
//   79   /* AES */
//   80 #if (defined HAL_AES) && (HAL_AES == TRUE)
//   81   HalAesInit();
        ; Setup parameters for call to function HalAesInit
        LCALL   ??HalAesInit?relay
//   82 #endif
//   83 
//   84   /* LCD */
//   85 #if (defined HAL_LCD) && (HAL_LCD == TRUE)
//   86   HalLcdInit();
        ; Setup parameters for call to function HalLcdInit
        LCALL   ??HalLcdInit?relay
//   87 #endif
//   88 
//   89   /* UART */
//   90 #if (defined HAL_UART) && (HAL_UART == TRUE)
//   91   HalUARTInit();
        ; Setup parameters for call to function HalUARTInit
        LCALL   ??HalUARTInit?relay
//   92 #endif
//   93 
//   94   /* KEY */
//   95 #if (defined HAL_KEY) && (HAL_KEY == TRUE)
//   96   HalKeyInit();
        ; Setup parameters for call to function HalKeyInit
        LCALL   ??HalKeyInit?relay
//   97 #endif
//   98   
//   99   /* SPI */
//  100 #if (defined HAL_SPI) && (HAL_SPI == TRUE)
//  101   HalSpiInit();
//  102 #endif
//  103 
//  104   /* HID */
//  105 #if (defined HAL_HID) && (HAL_HID == TRUE)
//  106   usbHidInit();
//  107 #endif
//  108     
//  109   /* KEYPAD */
//  110 #if (defined HAL_KEYPAD) && (HAL_KEYPAD == TRUE)
//  111   halKeypadInit();
        ; Setup parameters for call to function halKeypadInit
        LCALL   ??halKeypadInit?relay
//  112 #endif
//  113   
//  114   /* BUZZER */
//  115 #if (defined HAL_BUZZER) && (HAL_BUZZER == TRUE)
//  116   halBuzzerInit();
        ; Setup parameters for call to function halBuzzerInit
        LCALL   ??halBuzzerInit?relay
//  117 #endif
//  118   
//  119   /* I2C (M200 module) */
//  120 #if (defined HAL_I2C) && (HAL_I2C == TRUE)
//  121   #if defined(M200)
//  122     M200_Init();
//  123   #endif
//  124 #endif
//  125     
//  126   /* LED */
//  127 #if (defined HAL_LED) && (HAL_LED == TRUE)
//  128   HalLedInit();
        ; Setup parameters for call to function HalLedInit
        LCALL   ??HalLedInit?relay
//  129 #endif
//  130   
//  131 }
        SJMP    ?Subroutine0
        CFI EndBlock cfiBlock2
//  132 

        RSEG BANKED_CODE:CODE:NOROOT(0)
//  133 uint16 Hal_ProcessEvent( uint8 task_id, uint16 events )
Hal_ProcessEvent:
        CFI Block cfiBlock3 Using cfiCommon0
        CFI Function Hal_ProcessEvent
//  134 {
        FUNCALL Hal_ProcessEvent, osal_msg_receive
        LOCFRAME ISTACK, 0, STACK
        LOCFRAME PSTACK, 0, STACK
        LOCFRAME XSTACK, 10, STACK
        LOCFRAME IOVERLAY, 0, STATIC
        LOCFRAME DOVERLAY, 0, STATIC
        ARGFRAME ISTACK, 0, STACK
        ARGFRAME PSTACK, 0, STACK
        ARGFRAME XSTACK, 10, STACK
        ARGFRAME IOVERLAY, 0, STATIC
        ARGFRAME DOVERLAY, 0, STATIC
        FUNCALL Hal_ProcessEvent, osal_msg_deallocate
        LOCFRAME ISTACK, 0, STACK
        LOCFRAME PSTACK, 0, STACK
        LOCFRAME XSTACK, 10, STACK
        LOCFRAME IOVERLAY, 0, STATIC
        LOCFRAME DOVERLAY, 0, STATIC
        ARGFRAME ISTACK, 0, STACK
        ARGFRAME PSTACK, 0, STACK
        ARGFRAME XSTACK, 10, STACK
        ARGFRAME IOVERLAY, 0, STATIC
        ARGFRAME DOVERLAY, 0, STATIC
        FUNCALL Hal_ProcessEvent, osal_msg_receive
        LOCFRAME ISTACK, 0, STACK
        LOCFRAME PSTACK, 0, STACK
        LOCFRAME XSTACK, 10, STACK
        LOCFRAME IOVERLAY, 0, STATIC
        LOCFRAME DOVERLAY, 0, STATIC
        ARGFRAME ISTACK, 0, STACK
        ARGFRAME PSTACK, 0, STACK
        ARGFRAME XSTACK, 10, STACK
        ARGFRAME IOVERLAY, 0, STATIC
        ARGFRAME DOVERLAY, 0, STATIC
        FUNCALL Hal_ProcessEvent, HalLedUpdate
        LOCFRAME ISTACK, 0, STACK
        LOCFRAME PSTACK, 0, STACK
        LOCFRAME XSTACK, 10, STACK
        LOCFRAME IOVERLAY, 0, STATIC
        LOCFRAME DOVERLAY, 0, STATIC
        ARGFRAME ISTACK, 0, STACK
        ARGFRAME PSTACK, 0, STACK
        ARGFRAME XSTACK, 10, STACK
        ARGFRAME IOVERLAY, 0, STATIC
        ARGFRAME DOVERLAY, 0, STATIC
        FUNCALL Hal_ProcessEvent, HalKeyPoll
        LOCFRAME ISTACK, 0, STACK
        LOCFRAME PSTACK, 0, STACK
        LOCFRAME XSTACK, 10, STACK
        LOCFRAME IOVERLAY, 0, STATIC
        LOCFRAME DOVERLAY, 0, STATIC
        ARGFRAME ISTACK, 0, STACK
        ARGFRAME PSTACK, 0, STACK
        ARGFRAME XSTACK, 10, STACK
        ARGFRAME IOVERLAY, 0, STATIC
        ARGFRAME DOVERLAY, 0, STATIC
        FUNCALL Hal_ProcessEvent, osal_start_timerEx
        LOCFRAME ISTACK, 0, STACK
        LOCFRAME PSTACK, 0, STACK
        LOCFRAME XSTACK, 10, STACK
        LOCFRAME IOVERLAY, 0, STATIC
        LOCFRAME DOVERLAY, 0, STATIC
        ARGFRAME ISTACK, 0, STACK
        ARGFRAME PSTACK, 0, STACK
        ARGFRAME XSTACK, 10, STACK
        ARGFRAME IOVERLAY, 0, STATIC
        ARGFRAME DOVERLAY, 0, STATIC
        MOV     A,#-0xa
        LCALL   ?BANKED_ENTER_XDATA
        CFI DPH0 load(1, XDATA, add(CFA_XSP16, literal(-1)))
        CFI DPL0 load(1, XDATA, add(CFA_XSP16, literal(-2)))
        CFI ?BRET_EXT load(1, XDATA, add(CFA_XSP16, literal(-3)))
        CFI ?RET_HIGH load(1, XDATA, add(CFA_XSP16, literal(-4)))
        CFI ?RET_LOW load(1, XDATA, add(CFA_XSP16, literal(-5)))
        CFI R7 load(1, XDATA, add(CFA_XSP16, literal(-6)))
        CFI V1 load(1, XDATA, add(CFA_XSP16, literal(-7)))
        CFI V0 load(1, XDATA, add(CFA_XSP16, literal(-8)))
        CFI VB load(1, XDATA, add(CFA_XSP16, literal(-9)))
        CFI R6 load(1, XDATA, add(CFA_XSP16, literal(-10)))
        CFI CFA_SP SP+0
        CFI CFA_XSP16 add(XSP16, 10)
        ; Saved register size: 10
        ; Auto size: 0
        MOV     A,R2
        MOV     R6,A
        MOV     A,R3
        MOV     R7,A
//  135   uint8 *msgPtr;
//  136   
//  137   (void)task_id; // Intentionally unreferenced parameter
//  138 
//  139   if ( events & SYS_EVENT_MSG )
        MOV     A,#-0x80
        ANL     A,R7
        MOV     R1,A
        CLR     A
        JNZ     ??Hal_ProcessEvent_0
        MOV     A,R1
??Hal_ProcessEvent_0:
        JZ      ??Hal_ProcessEvent_1
//  140   {
//  141     msgPtr = osal_msg_receive(Hal_TaskID);
        ; Setup parameters for call to function osal_msg_receive
        SJMP    ??Hal_ProcessEvent_2
//  142     
//  143     while (msgPtr)
//  144     {
//  145       /* Do something here - for now, just deallocate the msg and move on */
//  146       
//  147       /* De-allocate(分配) */ 
//  148       osal_msg_deallocate( msgPtr );
??Hal_ProcessEvent_3:
        ; Setup parameters for call to function osal_msg_deallocate
        LCALL   ??osal_msg_deallocate?relay
//  149       /* Next */
//  150       msgPtr = osal_msg_receive( Hal_TaskID );
        ; Setup parameters for call to function osal_msg_receive
??Hal_ProcessEvent_2:
        MOV     DPTR,#Hal_TaskID
        MOVX    A,@DPTR
        MOV     R1,A
        LCALL   ??osal_msg_receive?relay
//  151     }
        MOV     A,R2
        JNZ     ??Hal_ProcessEvent_4
        MOV     A,R3
??Hal_ProcessEvent_4:
        JNZ     ??Hal_ProcessEvent_3
//  152     return events ^ SYS_EVENT_MSG;
        MOV     A,R6
        MOV     R2,A
        MOV     A,#-0x80
        XRL     A,R7
??Hal_ProcessEvent_5:
        MOV     R3,A
        SJMP    ??Hal_ProcessEvent_6
//  153   }
//  154 
//  155   if ( events & HAL_LED_BLINK_EVENT )
??Hal_ProcessEvent_1:
        MOV     A,R6
        ANL     A,#0x2
        JZ      ??Hal_ProcessEvent_7
//  156   {
//  157     #if (defined (BLINK_LEDS)) && (HAL_LED == TRUE)
//  158       HalLedUpdate();
        ; Setup parameters for call to function HalLedUpdate
        LCALL   ??HalLedUpdate?relay
//  159     #endif /* BLINK_LEDS && HAL_LED */
//  160     return events ^ HAL_LED_BLINK_EVENT;
        MOV     A,#0x2
??Hal_ProcessEvent_8:
        XRL     A,R6
        MOV     R2,A
        MOV     A,R7
        SJMP    ??Hal_ProcessEvent_5
//  161   }
//  162 
//  163   if (events & HAL_KEY_EVENT)
??Hal_ProcessEvent_7:
        MOV     A,R6
        MOV     C,0xE0 /* A   */.0
        JNC     ??Hal_ProcessEvent_9
//  164   {
//  165     #if (defined HAL_KEY) && (HAL_KEY == TRUE)
//  166     
//  167     HalKeyPoll();/* Check for keys */
        ; Setup parameters for call to function HalKeyPoll
        LCALL   ??HalKeyPoll?relay
//  168     
//  169     if (!Hal_KeyIntEnable)/* if interrupt disabled, do next polling */
        MOV     DPTR,#Hal_KeyIntEnable
        MOVX    A,@DPTR
        JNZ     ??Hal_ProcessEvent_10
//  170     {
//  171       osal_start_timerEx( Hal_TaskID, HAL_KEY_EVENT, 100);
        ; Setup parameters for call to function osal_start_timerEx
        MOV     R4,#0x64
        MOV     R5,#0x0
        MOV     R2,#0x1
        MOV     R3,#0x0
        MOV     DPTR,#Hal_TaskID
        MOVX    A,@DPTR
        MOV     R1,A
        LCALL   ??osal_start_timerEx?relay
//  172     }
//  173     #endif // HAL_KEY
//  174     return events ^ HAL_KEY_EVENT;
??Hal_ProcessEvent_10:
        MOV     A,#0x1
        SJMP    ??Hal_ProcessEvent_8
//  175   }
//  176 
//  177 #ifdef POWER_SAVING
//  178   if ( events & HAL_SLEEP_TIMER_EVENT )
//  179   {
//  180     halRestoreSleepLevel();
//  181     return events ^ HAL_SLEEP_TIMER_EVENT;
//  182   }
//  183 #endif
//  184   
//  185   /* Nothing interested, discard the message */
//  186   return 0;
??Hal_ProcessEvent_9:
        MOV     R2,#0x0
        MOV     R3,#0x0
??Hal_ProcessEvent_6:
        MOV     R7,#0x2
        LJMP    ?BANKED_LEAVE_XDATA
        CFI EndBlock cfiBlock3
//  187 
//  188 }
//  189 

        RSEG BANKED_CODE:CODE:NOROOT(0)
//  190 void Hal_ProcessPoll ()
Hal_ProcessPoll:
        CFI Block cfiBlock4 Using cfiCommon0
        CFI Function Hal_ProcessPoll
//  191 {
        FUNCALL Hal_ProcessPoll, HalUARTPoll
        LOCFRAME ISTACK, 2, STACK
        LOCFRAME PSTACK, 0, STACK
        LOCFRAME XSTACK, 0, STACK
        LOCFRAME IOVERLAY, 0, STATIC
        LOCFRAME DOVERLAY, 0, STATIC
        ARGFRAME ISTACK, 2, STACK
        ARGFRAME PSTACK, 0, STACK
        ARGFRAME XSTACK, 0, STACK
        ARGFRAME IOVERLAY, 0, STATIC
        ARGFRAME DOVERLAY, 0, STATIC
        PUSH    DPL
        CFI DPL0 Frame(CFA_SP, 4)
        CFI CFA_SP SP+-4
        PUSH    DPH
        CFI DPH0 Frame(CFA_SP, 5)
        CFI CFA_SP SP+-5
        ; Saved register size: 2
        ; Auto size: 0
//  192   /* Timer Poll */
//  193 #if (defined HAL_TIMER) && (HAL_TIMER == TRUE)
//  194   HalTimerTick();  // 檢查終止的counter
//  195 #endif
//  196 
//  197   /* UART Poll */
//  198 #if (defined HAL_UART) && (HAL_UART == TRUE)
//  199   HalUARTPoll();  // Poll the UART
        ; Setup parameters for call to function HalUARTPoll
        LCALL   ??HalUARTPoll?relay
//  200 #endif  
//  201 
//  202   /* SPI Poll */
//  203 #if (defined HAL_SPI) && (HAL_SPI == TRUE)
//  204   HalSpiPoll();  
//  205 #endif
//  206 
//  207   /* HID poll */
//  208 #if (defined HAL_HID) && (HAL_HID == TRUE)
//  209   usbHidProcessEvents();
//  210 #endif
//  211 
//  212 }
        LJMP    ?Subroutine0 & 0xFFFF
        CFI EndBlock cfiBlock4

        RSEG BANK_RELAYS:CODE:REORDER:NOROOT(0)
??Hal_Init?relay:
        LCALL   ?BDISPATCH
        DATA
        DC24    Hal_Init

        RSEG BANK_RELAYS:CODE:REORDER:NOROOT(0)
??HalDriverInit?relay:
        LCALL   ?BDISPATCH
        DATA
        DC24    HalDriverInit

        RSEG BANK_RELAYS:CODE:REORDER:NOROOT(0)
??Hal_ProcessEvent?relay:
        LCALL   ?BDISPATCH
        DATA
        DC24    Hal_ProcessEvent

        RSEG BANK_RELAYS:CODE:REORDER:NOROOT(0)
??Hal_ProcessPoll?relay:
        LCALL   ?BDISPATCH
        DATA
        DC24    Hal_ProcessPoll

        END
// 
// 166 bytes in segment BANKED_CODE
//  24 bytes in segment BANK_RELAYS
//   1 byte  in segment XDATA_Z
// 
// 190 bytes of CODE  memory
//   1 byte  of XDATA memory
//
//Errors: none
//Warnings: none
