###############################################################################
#                                                                             #
# IAR C/C++ Compiler V7.51A/W32 for 8051                16/Aug/2013  02:06:12 #
# Copyright 2004-2009 IAR Systems AB.                                         #
#                                                                             #
#    Core               =  plain                                              #
#    Code model         =  banked                                             #
#    Data model         =  large                                              #
#    Calling convention =  xdata reentrant                                    #
#    Constant location  =  data_rom                                           #
#    Dptr setup         =  1,16                                               #
#    Source file        =  D:\z-stack_813\z-stack\Sensor Network              #
#                          Example\Components\hal\common\hal_drivers.c        #
#    Command line       =  -f "D:\z-stack_813\z-stack\Sensor Network          #
#                          Example\Projects\zstack\Sensor Network             #
#                          Application\ZIGBEE Coordinator &                   #
#                          Router\CC2530DB\..\..\..\Tools\CC2530DB\f8wCoord.c #
#                          fg" (-DCPU32MHZ -DROOT=__near_func                 #
#                          -DMAC_CFG_APP_PENDING_QUEUE=TRUE                   #
#                          -DZDO_COORDINATOR -DRTR_NWK -DBLINK_LEDS) -f       #
#                          "D:\z-stack_813\z-stack\Sensor Network             #
#                          Example\Projects\zstack\Sensor Network             #
#                          Application\ZIGBEE Coordinator &                   #
#                          Router\CC2530DB\..\..\..\Tools\CC2530DB\f8wConfig. #
#                          cfg" (-DSECURE=0 -DZG_SECURE_DYNAMIC=0             #
#                          -DREFLECTOR -DDEFAULT_CHANLIST=0x00000800          #
#                          -DZDAPP_CONFIG_PAN_ID=0xFFFF                       #
#                          -DNWK_START_DELAY=100 -DEXTENDED_JOINING_RANDOM_MA #
#                          SK=0x007F -DBEACON_REQUEST_DELAY=100               #
#                          -DBEACON_REQ_DELAY_MASK=0x00FF                     #
#                          -DROUTE_EXPIRY_TIME=30 -DAPSC_ACK_WAIT_DURATION_PO #
#                          LLED=3000 -DNWK_INDIRECT_MSG_TIMEOUT=7             #
#                          -DMAX_RREQ_ENTRIES=8 -DAPSC_MAX_FRAME_RETRIES=3    #
#                          -DNWK_MAX_DATA_RETRIES=2                           #
#                          -DMAX_POLL_FAILURE_RETRIES=2 -DMAX_BCAST=9         #
#                          -DAPS_MAX_GROUPS=16 -DMAX_RTG_ENTRIES=40           #
#                          -DNWK_MAX_BINDING_ENTRIES=4                        #
#                          -DMAX_BINDING_CLUSTER_IDS=4 "-DDEFAULT_KEY={0x01,  #
#                          0x03, 0x05, 0x07, 0x09, 0x0B, 0x0D, 0x0F, 0x00,    #
#                          0x02, 0x04, 0x06, 0x08, 0x0A, 0x0C, 0x0D}"         #
#                          -DMAC_MAX_FRAME_SIZE=116 "-DCONST=const __code"    #
#                          -DGENERIC=__generic -DRFD_RCVC_ALWAYS_ON=TRUE      #
#                          -DPOLL_RATE=1000 -DQUEUED_POLL_RATE=100            #
#                          -DRESPONSE_POLL_RATE=100 -DREJOIN_POLL_RATE=440)   #
#                          -f "D:\z-stack_813\z-stack\Sensor Network          #
#                          Example\Projects\zstack\Sensor Network             #
#                          Application\ZIGBEE Coordinator &                   #
#                          Router\CC2530DB\..\..\..\Tools\CC2530DB\f8wZCL.cfg #
#                          " (-DZCL_READ -DZCL_WRITE -DZCL_BASIC              #
#                          -DZCL_IDENTIFY -DZCL_ON_OFF -DZCL_KEY_ESTABLISH    #
#                          -DZCL_LOAD_CONTROL -DZCL_SIMPLE_METERING           #
#                          -DZCL_PRICING) -DZCL_MESSAGE                       #
#                          "D:\z-stack_813\z-stack\Sensor Network             #
#                          Example\Components\hal\common\hal_drivers.c" -D    #
#                          CC2530 -D ZTOOL_P1 -D MT_TASK -D MT_APP_FUNC -D    #
#                          MT_SYS_FUNC -D MT_ZDO_FUNC -D LCD_SUPPORTED=DEBUG  #
#                          -D Coor_receiver -D xHAL_KEYPAD -D xPA2591 -lC     #
#                          "D:\z-stack_813\z-stack\Sensor Network             #
#                          Example\Projects\zstack\Sensor Network             #
#                          Application\ZIGBEE Coordinator &                   #
#                          Router\CC2530DB\Coordinator_KB_PA\List\" -lA       #
#                          "D:\z-stack_813\z-stack\Sensor Network             #
#                          Example\Projects\zstack\Sensor Network             #
#                          Application\ZIGBEE Coordinator &                   #
#                          Router\CC2530DB\Coordinator_KB_PA\List\"           #
#                          --diag_suppress Pe001,Pa010 -o                     #
#                          "D:\z-stack_813\z-stack\Sensor Network             #
#                          Example\Projects\zstack\Sensor Network             #
#                          Application\ZIGBEE Coordinator &                   #
#                          Router\CC2530DB\Coordinator_KB_PA\Obj\" -e         #
#                          --require_prototypes --debug --core=plain          #
#                          --dptr=16,1 --data_model=large                     #
#                          --code_model=banked --calling_convention=xdata_ree #
#                          ntrant --place_constants=data_rom                  #
#                          --nr_virtual_regs 16 -I "D:\z-stack_813\z-stack\Se #
#                          nsor Network Example\Projects\zstack\Sensor        #
#                          Network Application\ZIGBEE Coordinator &           #
#                          Router\CC2530DB\" -I "D:\z-stack_813\z-stack\Senso #
#                          r Network Example\Projects\zstack\Sensor Network   #
#                          Application\ZIGBEE Coordinator &                   #
#                          Router\CC2530DB\..\SOURCE\" -I                     #
#                          "D:\z-stack_813\z-stack\Sensor Network             #
#                          Example\Projects\zstack\Sensor Network             #
#                          Application\ZIGBEE Coordinator &                   #
#                          Router\CC2530DB\..\..\SOURCE\" -I                  #
#                          "D:\z-stack_813\z-stack\Sensor Network             #
#                          Example\Projects\zstack\Sensor Network             #
#                          Application\ZIGBEE Coordinator &                   #
#                          Router\CC2530DB\..\..\..\ZMAIN\TI2530DB\" -I       #
#                          "D:\z-stack_813\z-stack\Sensor Network             #
#                          Example\Projects\zstack\Sensor Network             #
#                          Application\ZIGBEE Coordinator &                   #
#                          Router\CC2530DB\..\..\..\..\..\COMPONENTS\MT\" -I  #
#                          "D:\z-stack_813\z-stack\Sensor Network             #
#                          Example\Projects\zstack\Sensor Network             #
#                          Application\ZIGBEE Coordinator &                   #
#                          Router\CC2530DB\..\..\..\..\..\COMPONENTS\HAL\INCL #
#                          UDE\" -I "D:\z-stack_813\z-stack\Sensor Network    #
#                          Example\Projects\zstack\Sensor Network             #
#                          Application\ZIGBEE Coordinator &                   #
#                          Router\CC2530DB\..\..\..\..\..\COMPONENTS\HAL\TARG #
#                          ET\CC2530KB\" -I "D:\z-stack_813\z-stack\Sensor    #
#                          Network Example\Projects\zstack\Sensor Network     #
#                          Application\ZIGBEE Coordinator &                   #
#                          Router\CC2530DB\..\..\..\..\..\COMPONENTS\OSAL\MCU #
#                          \CCSOC\" -I "D:\z-stack_813\z-stack\Sensor         #
#                          Network Example\Projects\zstack\Sensor Network     #
#                          Application\ZIGBEE Coordinator &                   #
#                          Router\CC2530DB\..\..\..\..\..\COMPONENTS\OSAL\INC #
#                          LUDE\" -I "D:\z-stack_813\z-stack\Sensor Network   #
#                          Example\Projects\zstack\Sensor Network             #
#                          Application\ZIGBEE Coordinator &                   #
#                          Router\CC2530DB\..\..\..\..\..\COMPONENTS\STACK\AF #
#                          \" -I "D:\z-stack_813\z-stack\Sensor Network       #
#                          Example\Projects\zstack\Sensor Network             #
#                          Application\ZIGBEE Coordinator &                   #
#                          Router\CC2530DB\..\..\..\..\..\COMPONENTS\STACK\NW #
#                          K\" -I "D:\z-stack_813\z-stack\Sensor Network      #
#                          Example\Projects\zstack\Sensor Network             #
#                          Application\ZIGBEE Coordinator &                   #
#                          Router\CC2530DB\..\..\..\..\..\COMPONENTS\STACK\SE #
#                          C\" -I "D:\z-stack_813\z-stack\Sensor Network      #
#                          Example\Projects\zstack\Sensor Network             #
#                          Application\ZIGBEE Coordinator &                   #
#                          Router\CC2530DB\..\..\..\..\..\COMPONENTS\STACK\SA #
#                          PI\" -I "D:\z-stack_813\z-stack\Sensor Network     #
#                          Example\Projects\zstack\Sensor Network             #
#                          Application\ZIGBEE Coordinator &                   #
#                          Router\CC2530DB\..\..\..\..\..\COMPONENTS\STACK\SY #
#                          S\" -I "D:\z-stack_813\z-stack\Sensor Network      #
#                          Example\Projects\zstack\Sensor Network             #
#                          Application\ZIGBEE Coordinator &                   #
#                          Router\CC2530DB\..\..\..\..\..\COMPONENTS\STACK\ZC #
#                          L\" -I "D:\z-stack_813\z-stack\Sensor Network      #
#                          Example\Projects\zstack\Sensor Network             #
#                          Application\ZIGBEE Coordinator &                   #
#                          Router\CC2530DB\..\..\..\..\..\COMPONENTS\STACK\ZD #
#                          O\" -I "D:\z-stack_813\z-stack\Sensor Network      #
#                          Example\Projects\zstack\Sensor Network             #
#                          Application\ZIGBEE Coordinator &                   #
#                          Router\CC2530DB\..\..\..\..\..\COMPONENTS\ZMAC\F8W #
#                          \" -I "D:\z-stack_813\z-stack\Sensor Network       #
#                          Example\Projects\zstack\Sensor Network             #
#                          Application\ZIGBEE Coordinator &                   #
#                          Router\CC2530DB\..\..\..\..\..\COMPONENTS\ZMAC\"   #
#                          -I "D:\z-stack_813\z-stack\Sensor Network          #
#                          Example\Projects\zstack\Sensor Network             #
#                          Application\ZIGBEE Coordinator &                   #
#                          Router\CC2530DB\..\..\..\..\..\COMPONENTS\SERVICES #
#                          \SADDR\" -I "D:\z-stack_813\z-stack\Sensor         #
#                          Network Example\Projects\zstack\Sensor Network     #
#                          Application\ZIGBEE Coordinator &                   #
#                          Router\CC2530DB\..\..\..\..\..\COMPONENTS\SERVICES #
#                          \SDATA\" -I "D:\z-stack_813\z-stack\Sensor         #
#                          Network Example\Projects\zstack\Sensor Network     #
#                          Application\ZIGBEE Coordinator &                   #
#                          Router\CC2530DB\..\..\..\..\..\COMPONENTS\MAC\INCL #
#                          UDE\" -I "D:\z-stack_813\z-stack\Sensor Network    #
#                          Example\Projects\zstack\Sensor Network             #
#                          Application\ZIGBEE Coordinator &                   #
#                          Router\CC2530DB\..\..\..\..\..\COMPONENTS\MAC\HIGH #
#                          _LEVEL\" -I "D:\z-stack_813\z-stack\Sensor         #
#                          Network Example\Projects\zstack\Sensor Network     #
#                          Application\ZIGBEE Coordinator &                   #
#                          Router\CC2530DB\..\..\..\..\..\COMPONENTS\MAC\LOW_ #
#                          LEVEL\srf04\" -I "D:\z-stack_813\z-stack\Sensor    #
#                          Network Example\Projects\zstack\Sensor Network     #
#                          Application\ZIGBEE Coordinator &                   #
#                          Router\CC2530DB\..\..\..\..\..\COMPONENTS\MAC\LOW_ #
#                          LEVEL\srf04\SINGLE_CHIP\" -I "C:\Program Files     #
#                          (x86)\IAR Systems\Embedded Workbench               #
#                          5.3\8051\INC\" -I "C:\Program Files (x86)\IAR      #
#                          Systems\Embedded Workbench 5.3\8051\INC\CLIB\"     #
#                          -Ohz                                               #
#    List file          =  D:\z-stack_813\z-stack\Sensor Network              #
#                          Example\Projects\zstack\Sensor Network             #
#                          Application\ZIGBEE Coordinator &                   #
#                          Router\CC2530DB\Coordinator_KB_PA\List\hal_drivers #
#                          .lst                                               #
#    Object file        =  D:\z-stack_813\z-stack\Sensor Network              #
#                          Example\Projects\zstack\Sensor Network             #
#                          Application\ZIGBEE Coordinator &                   #
#                          Router\CC2530DB\Coordinator_KB_PA\Obj\hal_drivers. #
#                          r51                                                #
#                                                                             #
#                                                                             #
###############################################################################

D:\z-stack_813\z-stack\Sensor Network Example\Components\hal\common\hal_drivers.c
      1          /**************************************************************************************************
      2            Filename:       hal_drivers.c
      3            Revised:        $Date: 2007-07-06 10:42:24 -0700 (Fri, 06 Jul 2007) $
      4            Revision:       $Revision: 13579 $
      5          
      6            Description:    This file contains the interface to the Drivers Service.
      7          
      8          
      9            Copyright 2005-2009 Texas Instruments Incorporated. All rights reserved.
     10          
     11            IMPORTANT: Your use of this Software is limited to those specific rights
     12            granted under the terms of a software license agreement between the user
     13            who downloaded the software, his/her employer (which must be your employer)
     14            and Texas Instruments Incorporated (the "License").  You may not use this
     15            Software unless you agree to abide by the terms of the License. The License
     16            limits your use, and you acknowledge, that the Software may not be modified,
     17            copied or distributed unless embedded on a Texas Instruments microcontroller
     18            or used solely and exclusively in conjunction with a Texas Instruments radio
     19            frequency transceiver, which is integrated into your product.  Other than for
     20            the foregoing purpose, you may not use, reproduce, copy, prepare derivative
     21            works of, modify, distribute, perform, display or sell this Software and/or
     22            its documentation for any purpose.
     23          
     24            YOU FURTHER ACKNOWLEDGE AND AGREE THAT THE SOFTWARE AND DOCUMENTATION ARE
     25            PROVIDED “AS IS?WITHOUT WARRANTY OF ANY KIND, EITHER EXPRESS OR IMPLIED,
     26            INCLUDING WITHOUT LIMITATION, ANY WARRANTY OF MERCHANTABILITY, TITLE,
     27            NON-INFRINGEMENT AND FITNESS FOR A PARTICULAR PURPOSE. IN NO EVENT SHALL
     28            TEXAS INSTRUMENTS OR ITS LICENSORS BE LIABLE OR OBLIGATED UNDER CONTRACT,
     29            NEGLIGENCE, STRICT LIABILITY, CONTRIBUTION, BREACH OF WARRANTY, OR OTHER
     30            LEGAL EQUITABLE THEORY ANY DIRECT OR INDIRECT DAMAGES OR EXPENSES
     31            INCLUDING BUT NOT LIMITED TO ANY INCIDENTAL, SPECIAL, INDIRECT, PUNITIVE
     32            OR CONSEQUENTIAL DAMAGES, LOST PROFITS OR LOST DATA, COST OF PROCUREMENT
     33            OF SUBSTITUTE GOODS, TECHNOLOGY, SERVICES, OR ANY CLAIMS BY THIRD PARTIES
     34            (INCLUDING BUT NOT LIMITED TO ANY DEFENSE THEREOF), OR OTHER SIMILAR COSTS.
     35          
     36            Should you have any questions regarding your right to use this Software,
     37            contact Texas Instruments Incorporated at www.TI.com.
     38          **************************************************************************************************/
     39          
     40          
     41          /**************************************************************************************************
     42           *                                            INCLUDES
     43           **************************************************************************************************/
     44          #include "hal_types.h"
     45          #include "OSAL.h"
     46          #include "hal_drivers.h"
     47          #include "hal_adc.h"
     48          #if (defined HAL_DMA) && (HAL_DMA == TRUE)
     49            #include "hal_dma.h"
     50          #endif
     51          
     52          /* HAL */ 
     53          #include "hal_lcd.h"
     54          #include "hal_led.h"
     55          #include "hal_key.h"
     56          #include "hal_sleep.h"
     57          #include "hal_uart.h"
     58          #include "hal_timer.h"
     59          #include "hal_flash.h"
     60          #include "hal_buzzer.h"
     61          #include "hal_keypad.h" 
     62          #if (defined HAL_AES) && (HAL_AES == TRUE)
     63            #include "hal_aes.h"
     64          #endif
     65          #if (defined HAL_SPI) && (HAL_SPI == TRUE)
     66            #include "hal_spi.h"
     67          #endif
     68          #if (defined HAL_HID) && (HAL_HID == TRUE)
     69            #include "usb_hid.h"
     70          #endif
     71          #if defined(M190)
     72            #include "M190.h"
     73          #endif
     74          #if defined(M140) || (M200) // SensorApp example include header file
     75            #include "M140.h"
     76            #include "M200.h"
     77          #endif
     78          /**************************************************************************************************
     79           *                                            MACROS
     80           **************************************************************************************************/
     81          
     82          /**************************************************************************************************
     83           *                                          CONSTANTS
     84           **************************************************************************************************/
     85          
     86          /**************************************************************************************************
     87           *                                          TYPEDEFS
     88           **************************************************************************************************/
     89          
     90          /**************************************************************************************************
     91           *                                      GLOBAL VARIABLES
     92           **************************************************************************************************/

   \                                 In  segment XDATA_Z, align 1, keep-with-next
     93          uint8 Hal_TaskID;
   \                     Hal_TaskID:
   \   000000                DS 1
   \   000001                REQUIRE __INIT_XDATA_Z
     94          
     95          extern void HalLedUpdate( void ); /* Notes: This for internal only so it shouldn't be in hal_led.h */
     96          
     97          /**************************************************************************************************
     98           *                                      FUNCTIONS - API
     99           **************************************************************************************************/
    100          
    101          /**************************************************************************************************
    102           * @fn      Hal_Init
    103           *
    104           * @brief   Hal Initialization function.
    105           *
    106           * @param   task_id - Hal TaskId
    107           *
    108           * @return  None
    109           **************************************************************************************************/

   \                                 In  segment BANKED_CODE, align 1, keep-with-next
    110          void Hal_Init( uint8 task_id )
   \                     Hal_Init:
    111          {
   \   000000   C082         PUSH    DPL
   \   000002   C083         PUSH    DPH
   \   000004                ; Saved register size: 2
   \   000004                ; Auto size: 0
    112            /* Register task ID */
    113            Hal_TaskID = task_id;
   \   000004   E9           MOV     A,R1
   \   000005   90....       MOV     DPTR,#Hal_TaskID
   \   000008   F0           MOVX    @DPTR,A
    114          }
   \   000009                REQUIRE ?Subroutine0
   \   000009                ; // Fall through to label ?Subroutine0

   \                                 In  segment BANKED_CODE, align 1, keep-with-next
   \                     ?Subroutine0:
   \   000000   D083         POP     DPH
   \   000002   D082         POP     DPL
   \   000004   02....       LJMP    ?BRET
    115          
    116          /**************************************************************************************************
    117           * @fn      Hal_DriverInit (ªì©l¤ÆµwÅéªºÅX°Êµ{§Ç, ¨Ï¥ÎªÌ¥i¦b¦¹¨ç¼Æ²K¥[¬ÛÃöµwÅé)
    118           *
    119           * @brief   Initialize HW - These need to be initialized before anyone.
    120           *
    121           * @param   task_id - Hal TaskId
    122           *
    123           * @return  None
    124           **************************************************************************************************/

   \                                 In  segment BANKED_CODE, align 1, keep-with-next
    125          void HalDriverInit (void)
   \                     HalDriverInit:
    126          {
   \   000000   C082         PUSH    DPL
   \   000002   C083         PUSH    DPH
   \   000004                ; Saved register size: 2
   \   000004                ; Auto size: 0
    127            /* TIMER */
    128          #if (defined HAL_TIMER) && (HAL_TIMER == TRUE)
    129            HalTimerInit();
    130          #endif
    131          
    132            /* ADC */
    133          #if (defined HAL_ADC) && (HAL_ADC == TRUE)
    134            HalAdcInit();
   \   000004                ; Setup parameters for call to function HalAdcInit
   \   000004   12....       LCALL   ??HalAdcInit?relay
    135            #if defined(M170)
    136              M170_Init();
    137            #endif
    138            #if defined(M190)
    139              M190_Init();
    140            #endif
    141          #endif
    142          
    143            /* DMA */
    144          #if (defined HAL_DMA) && (HAL_DMA == TRUE)
    145            // Must be called before the init call to any module that uses DMA.
    146            HalDmaInit();
   \   000007                ; Setup parameters for call to function HalDmaInit
   \   000007   12....       LCALL   ??HalDmaInit?relay
    147          #endif
    148          
    149            /* Flash */
    150          #if (defined HAL_FLASH) && (HAL_FLASH == TRUE)
    151            // Must be called before the init call to any module that uses Flash access or NV.
    152            HalFlashInit();
   \   00000A                ; Setup parameters for call to function HalFlashInit
   \   00000A   12....       LCALL   ??HalFlashInit?relay
    153          #endif
    154          
    155            /* AES */
    156          #if (defined HAL_AES) && (HAL_AES == TRUE)
    157            HalAesInit();
   \   00000D                ; Setup parameters for call to function HalAesInit
   \   00000D   12....       LCALL   ??HalAesInit?relay
    158          #endif
    159          
    160            /* LCD */
    161          #if (defined HAL_LCD) && (HAL_LCD == TRUE)
    162            HalLcdInit();
   \   000010                ; Setup parameters for call to function HalLcdInit
   \   000010   12....       LCALL   ??HalLcdInit?relay
    163          #endif
    164          
    165            /* UART */
    166          #if (defined HAL_UART) && (HAL_UART == TRUE)
    167            HalUARTInit();
   \   000013                ; Setup parameters for call to function HalUARTInit
   \   000013   12....       LCALL   ??HalUARTInit?relay
    168          #endif
    169          
    170            /* KEY */
    171          #if (defined HAL_KEY) && (HAL_KEY == TRUE)
    172            HalKeyInit();
   \   000016                ; Setup parameters for call to function HalKeyInit
   \   000016   12....       LCALL   ??HalKeyInit?relay
    173          #endif
    174            
    175            /* SPI */
    176          #if (defined HAL_SPI) && (HAL_SPI == TRUE)
    177            HalSpiInit();
    178          #endif
    179          
    180            /* HID */
    181          #if (defined HAL_HID) && (HAL_HID == TRUE)
    182            usbHidInit();
    183          #endif
    184              
    185            /* KEYPAD */
    186          #if (defined HAL_KEYPAD) && (HAL_KEYPAD == TRUE)
    187            halKeypadInit();
   \   000019                ; Setup parameters for call to function halKeypadInit
   \   000019   12....       LCALL   ??halKeypadInit?relay
    188          #endif
    189            
    190            /* BUZZER */
    191          #if (defined HAL_BUZZER) && (HAL_BUZZER == TRUE)
    192            halBuzzerInit();
   \   00001C                ; Setup parameters for call to function halBuzzerInit
   \   00001C   12....       LCALL   ??halBuzzerInit?relay
    193          #endif
    194            
    195            /* I2C (M200 module) */
    196          #if (defined HAL_I2C) && (HAL_I2C == TRUE)
    197            #if defined(M200)
    198              M200_Init();
    199            #endif
    200          #endif
    201              
    202            /* LED */
    203          #if (defined HAL_LED) && (HAL_LED == TRUE)
    204            HalLedInit();
   \   00001F                ; Setup parameters for call to function HalLedInit
   \   00001F   12....       LCALL   ??HalLedInit?relay
    205          #endif
    206            
    207          }
   \   000022   80..         SJMP    ?Subroutine0
    208          
    209          /**************************************************************************************************
    210           * @fn      Hal_ProcessEvent (¦bOSALµn°OHAL¬ÛÃöªºªì©l¤Æ¨Æ¥ó)
    211           *
    212           * @brief   Hal Process Event
    213           *
    214           * @param   task_id - Hal TaskId
    215           *          events - events
    216           *
    217           * @return  None
    218           **************************************************************************************************/

   \                                 In  segment BANKED_CODE, align 1, keep-with-next
    219          uint16 Hal_ProcessEvent( uint8 task_id, uint16 events )
   \                     Hal_ProcessEvent:
    220          {
   \   000000   74F6         MOV     A,#-0xa
   \   000002   12....       LCALL   ?BANKED_ENTER_XDATA
   \   000005                ; Saved register size: 10
   \   000005                ; Auto size: 0
   \   000005   EA           MOV     A,R2
   \   000006   FE           MOV     R6,A
   \   000007   EB           MOV     A,R3
   \   000008   FF           MOV     R7,A
    221            uint8 *msgPtr;
    222            
    223            (void)task_id; // Intentionally unreferenced parameter
    224          
    225            if ( events & SYS_EVENT_MSG )
   \   000009   7480         MOV     A,#-0x80
   \   00000B   5F           ANL     A,R7
   \   00000C   F9           MOV     R1,A
   \   00000D   E4           CLR     A
   \   00000E   7001         JNZ     ??Hal_ProcessEvent_0
   \   000010   E9           MOV     A,R1
   \                     ??Hal_ProcessEvent_0:
   \   000011   601B         JZ      ??Hal_ProcessEvent_1
    226            {
    227              msgPtr = osal_msg_receive(Hal_TaskID);
   \   000013                ; Setup parameters for call to function osal_msg_receive
   \   000013   8003         SJMP    ??Hal_ProcessEvent_2
    228              
    229              while (msgPtr)
    230              {
    231                /* Do something here - for now, just deallocate the msg and move on */
    232                
    233                /* De-allocate(¤À°t) */ 
    234                osal_msg_deallocate( msgPtr );
   \                     ??Hal_ProcessEvent_3:
   \   000015                ; Setup parameters for call to function osal_msg_deallocate
   \   000015   12....       LCALL   ??osal_msg_deallocate?relay
    235                /* Next */
    236                msgPtr = osal_msg_receive( Hal_TaskID );
   \   000018                ; Setup parameters for call to function osal_msg_receive
   \                     ??Hal_ProcessEvent_2:
   \   000018   90....       MOV     DPTR,#Hal_TaskID
   \   00001B   E0           MOVX    A,@DPTR
   \   00001C   F9           MOV     R1,A
   \   00001D   12....       LCALL   ??osal_msg_receive?relay
    237              }
   \   000020   EA           MOV     A,R2
   \   000021   7001         JNZ     ??Hal_ProcessEvent_4
   \   000023   EB           MOV     A,R3
   \                     ??Hal_ProcessEvent_4:
   \   000024   70EF         JNZ     ??Hal_ProcessEvent_3
    238              return events ^ SYS_EVENT_MSG;
   \   000026   EE           MOV     A,R6
   \   000027   FA           MOV     R2,A
   \   000028   7480         MOV     A,#-0x80
   \   00002A   6F           XRL     A,R7
   \                     ??Hal_ProcessEvent_5:
   \   00002B   FB           MOV     R3,A
   \   00002C   8035         SJMP    ??Hal_ProcessEvent_6
    239            }
    240          
    241            if ( events & HAL_LED_BLINK_EVENT )
   \                     ??Hal_ProcessEvent_1:
   \   00002E   EE           MOV     A,R6
   \   00002F   5402         ANL     A,#0x2
   \   000031   600A         JZ      ??Hal_ProcessEvent_7
    242            {
    243              #if (defined (BLINK_LEDS)) && (HAL_LED == TRUE)
    244                HalLedUpdate();
   \   000033                ; Setup parameters for call to function HalLedUpdate
   \   000033   12....       LCALL   ??HalLedUpdate?relay
    245              #endif /* BLINK_LEDS && HAL_LED */
    246              return events ^ HAL_LED_BLINK_EVENT;
   \   000036   7402         MOV     A,#0x2
   \                     ??Hal_ProcessEvent_8:
   \   000038   6E           XRL     A,R6
   \   000039   FA           MOV     R2,A
   \   00003A   EF           MOV     A,R7
   \   00003B   80EE         SJMP    ??Hal_ProcessEvent_5
    247            }
    248          
    249            if (events & HAL_KEY_EVENT)
   \                     ??Hal_ProcessEvent_7:
   \   00003D   EE           MOV     A,R6
   \   00003E   A2E0         MOV     C,0xE0 /* A   */.0
   \   000040   501D         JNC     ??Hal_ProcessEvent_9
    250            {
    251              #if (defined HAL_KEY) && (HAL_KEY == TRUE)
    252              
    253              HalKeyPoll();/* Check for keys */
   \   000042                ; Setup parameters for call to function HalKeyPoll
   \   000042   12....       LCALL   ??HalKeyPoll?relay
    254              
    255              if (!Hal_KeyIntEnable)/* if interrupt disabled, do next polling */
   \   000045   90....       MOV     DPTR,#Hal_KeyIntEnable
   \   000048   E0           MOVX    A,@DPTR
   \   000049   7010         JNZ     ??Hal_ProcessEvent_10
    256              {
    257                osal_start_timerEx( Hal_TaskID, HAL_KEY_EVENT, 100);
   \   00004B                ; Setup parameters for call to function osal_start_timerEx
   \   00004B   7C64         MOV     R4,#0x64
   \   00004D   7D00         MOV     R5,#0x0
   \   00004F   7A01         MOV     R2,#0x1
   \   000051   7B00         MOV     R3,#0x0
   \   000053   90....       MOV     DPTR,#Hal_TaskID
   \   000056   E0           MOVX    A,@DPTR
   \   000057   F9           MOV     R1,A
   \   000058   12....       LCALL   ??osal_start_timerEx?relay
    258              }
    259              #endif // HAL_KEY
    260              return events ^ HAL_KEY_EVENT;
   \                     ??Hal_ProcessEvent_10:
   \   00005B   7401         MOV     A,#0x1
   \   00005D   80D9         SJMP    ??Hal_ProcessEvent_8
    261            }
    262          
    263          #ifdef POWER_SAVING
    264            if ( events & HAL_SLEEP_TIMER_EVENT )
    265            {
    266              halRestoreSleepLevel();
    267              return events ^ HAL_SLEEP_TIMER_EVENT;
    268            }
    269          #endif
    270            
    271            /* Nothing interested, discard the message */
    272            return 0;
   \                     ??Hal_ProcessEvent_9:
   \   00005F   7A00         MOV     R2,#0x0
   \   000061   7B00         MOV     R3,#0x0
   \                     ??Hal_ProcessEvent_6:
   \   000063   7F02         MOV     R7,#0x2
   \   000065   02....       LJMP    ?BANKED_LEAVE_XDATA
    273          
    274          }
    275          
    276          /**************************************************************************************************
    277           * @fn      Hal_ProcessPoll (¦¹¨ç¼Æ¥D­n¬O³z¹LOSAL¶i¦æ½ü¸ß)
    278           *
    279           * @brief   This routine will be called by OSAL to poll UART, TIMER...
    280           *
    281           * @param   task_id - Hal TaskId
    282           *
    283           * @return  None
    284           **************************************************************************************************/

   \                                 In  segment BANKED_CODE, align 1, keep-with-next
    285          void Hal_ProcessPoll ()
   \                     Hal_ProcessPoll:
    286          {
   \   000000   C082         PUSH    DPL
   \   000002   C083         PUSH    DPH
   \   000004                ; Saved register size: 2
   \   000004                ; Auto size: 0
    287            /* Timer Poll */
    288          #if (defined HAL_TIMER) && (HAL_TIMER == TRUE)
    289            HalTimerTick();  // ÀË¬d²×¤îªºcounter
    290          #endif
    291          
    292            /* UART Poll */
    293          #if (defined HAL_UART) && (HAL_UART == TRUE)
    294            HalUARTPoll();  // Poll the UART
   \   000004                ; Setup parameters for call to function HalUARTPoll
   \   000004   12....       LCALL   ??HalUARTPoll?relay
    295          #endif  
    296          
    297            /* SPI Poll */
    298          #if (defined HAL_SPI) && (HAL_SPI == TRUE)
    299            HalSpiPoll();  
    300          #endif
    301          
    302            /* HID poll */
    303          #if (defined HAL_HID) && (HAL_HID == TRUE)
    304            usbHidProcessEvents();
    305          #endif
    306          
    307          }
   \   000007   02....       LJMP    ?Subroutine0 & 0xFFFF

   \                                 In  segment BANK_RELAYS, align 1
   \                     ??Hal_Init?relay:
   \   000000   12....       LCALL   ?BDISPATCH
   \   000003   ......       DC24    Hal_Init

   \                                 In  segment BANK_RELAYS, align 1
   \                     ??HalDriverInit?relay:
   \   000000   12....       LCALL   ?BDISPATCH
   \   000003   ......       DC24    HalDriverInit

   \                                 In  segment BANK_RELAYS, align 1
   \                     ??Hal_ProcessEvent?relay:
   \   000000   12....       LCALL   ?BDISPATCH
   \   000003   ......       DC24    Hal_ProcessEvent

   \                                 In  segment BANK_RELAYS, align 1
   \                     ??Hal_ProcessPoll?relay:
   \   000000   12....       LCALL   ?BDISPATCH
   \   000003   ......       DC24    Hal_ProcessPoll
    308          
    309          
    310          /**************************************************************************************************
    311          **************************************************************************************************/
    312          

   Maximum stack usage in bytes:

     Function                 ISTACK PSTACK XSTACK
     --------                 ------ ------ ------
     HalDriverInit                2      0      0
       -> HalAdcInit              4      0      0
       -> HalDmaInit              4      0      0
       -> HalFlashInit            4      0      0
       -> HalAesInit              4      0      0
       -> HalLcdInit              4      0      0
       -> HalUARTInit             4      0      0
       -> HalKeyInit              4      0      0
       -> halKeypadInit           4      0      0
       -> halBuzzerInit           4      0      0
       -> HalLedInit              4      0      0
     Hal_Init                     2      0      0
     Hal_ProcessEvent             0      0     10
       -> osal_msg_receive        0      0     20
       -> osal_msg_deallocate     0      0     20
       -> osal_msg_receive        0      0     20
       -> HalLedUpdate            0      0     20
       -> HalKeyPoll              0      0     20
       -> osal_start_timerEx      0      0     20
     Hal_ProcessPoll              2      0      0
       -> HalUARTPoll             4      0      0


   Segment part sizes:

     Function/Label           Bytes
     --------------           -----
     Hal_TaskID                  1
     Hal_Init                    9
     ?Subroutine0                7
     HalDriverInit              36
     Hal_ProcessEvent          104
     Hal_ProcessPoll            10
     ??Hal_Init?relay            6
     ??HalDriverInit?relay       6
     ??Hal_ProcessEvent?relay    6
     ??Hal_ProcessPoll?relay     6

 
 166 bytes in segment BANKED_CODE
  24 bytes in segment BANK_RELAYS
   1 byte  in segment XDATA_Z
 
 190 bytes of CODE  memory
   1 byte  of XDATA memory

Errors: none
Warnings: none
