///////////////////////////////////////////////////////////////////////////////
//                                                                            /
// IAR C/C++ Compiler V7.51A/W32 for 8051               02/Sep/2013  17:26:00 /
// Copyright 2004-2009 IAR Systems AB.                                        /
//                                                                            /
//    Core               =  plain                                             /
//    Code model         =  banked                                            /
//    Data model         =  large                                             /
//    Calling convention =  xdata reentrant                                   /
//    Constant location  =  data_rom                                          /
//    Dptr setup         =  1,16                                              /
//    Source file        =  D:\GitHub\z-stack\Sensor Network                  /
//                          Example\Components\mac\low_level\srf04\single_chi /
//                          p\mac_radio_defs.c                                /
//    Command line       =  -f "D:\GitHub\z-stack\Sensor Network              /
//                          Example\Projects\zstack\Sensor Network            /
//                          Application\ZIGBEE Coordinator &                  /
//                          Router\CC2530DB\..\..\..\Tools\CC2530DB\f8wCoord. /
//                          cfg" (-DCPU32MHZ -DROOT=__near_func               /
//                          -DMAC_CFG_APP_PENDING_QUEUE=TRUE                  /
//                          -DZDO_COORDINATOR -DRTR_NWK -DBLINK_LEDS) -f      /
//                          "D:\GitHub\z-stack\Sensor Network                 /
//                          Example\Projects\zstack\Sensor Network            /
//                          Application\ZIGBEE Coordinator &                  /
//                          Router\CC2530DB\..\..\..\Tools\CC2530DB\f8wConfig /
//                          .cfg" (-DSECURE=0 -DZG_SECURE_DYNAMIC=0           /
//                          -DREFLECTOR -DDEFAULT_CHANLIST=0x00000800         /
//                          -DZDAPP_CONFIG_PAN_ID=0xFFFF                      /
//                          -DNWK_START_DELAY=100 -DEXTENDED_JOINING_RANDOM_M /
//                          ASK=0x007F -DBEACON_REQUEST_DELAY=100             /
//                          -DBEACON_REQ_DELAY_MASK=0x00FF                    /
//                          -DROUTE_EXPIRY_TIME=30 -DAPSC_ACK_WAIT_DURATION_P /
//                          OLLED=3000 -DNWK_INDIRECT_MSG_TIMEOUT=7           /
//                          -DMAX_RREQ_ENTRIES=8 -DAPSC_MAX_FRAME_RETRIES=3   /
//                          -DNWK_MAX_DATA_RETRIES=2                          /
//                          -DMAX_POLL_FAILURE_RETRIES=2 -DMAX_BCAST=9        /
//                          -DAPS_MAX_GROUPS=16 -DMAX_RTG_ENTRIES=40          /
//                          -DNWK_MAX_BINDING_ENTRIES=4                       /
//                          -DMAX_BINDING_CLUSTER_IDS=4                       /
//                          "-DDEFAULT_KEY={0x01, 0x03, 0x05, 0x07, 0x09,     /
//                          0x0B, 0x0D, 0x0F, 0x00, 0x02, 0x04, 0x06, 0x08,   /
//                          0x0A, 0x0C, 0x0D}" -DMAC_MAX_FRAME_SIZE=116       /
//                          "-DCONST=const __code" -DGENERIC=__generic        /
//                          -DRFD_RCVC_ALWAYS_ON=TRUE -DPOLL_RATE=1000        /
//                          -DQUEUED_POLL_RATE=100 -DRESPONSE_POLL_RATE=100   /
//                          -DREJOIN_POLL_RATE=440) -f                        /
//                          "D:\GitHub\z-stack\Sensor Network                 /
//                          Example\Projects\zstack\Sensor Network            /
//                          Application\ZIGBEE Coordinator &                  /
//                          Router\CC2530DB\..\..\..\Tools\CC2530DB\f8wZCL.cf /
//                          g" (-DZCL_READ -DZCL_WRITE -DZCL_BASIC            /
//                          -DZCL_IDENTIFY -DZCL_ON_OFF -DZCL_KEY_ESTABLISH   /
//                          -DZCL_LOAD_CONTROL -DZCL_SIMPLE_METERING          /
//                          -DZCL_PRICING) -DZCL_MESSAGE                      /
//                          "D:\GitHub\z-stack\Sensor Network                 /
//                          Example\Components\mac\low_level\srf04\single_chi /
//                          p\mac_radio_defs.c" -D CC2530 -D ZTOOL_P1 -D      /
//                          MT_TASK -D MT_APP_FUNC -D MT_SYS_FUNC -D          /
//                          MT_ZDO_FUNC -D LCD_SUPPORTED=DEBUG -D             /
//                          Coor_receiver -D xHAL_KEYPAD -D xPA2591 -lC       /
//                          "D:\GitHub\z-stack\Sensor Network                 /
//                          Example\Projects\zstack\Sensor Network            /
//                          Application\ZIGBEE Coordinator &                  /
//                          Router\CC2530DB\Coordinator_KB_PA\List\" -lA      /
//                          "D:\GitHub\z-stack\Sensor Network                 /
//                          Example\Projects\zstack\Sensor Network            /
//                          Application\ZIGBEE Coordinator &                  /
//                          Router\CC2530DB\Coordinator_KB_PA\List\"          /
//                          --diag_suppress Pe001,Pa010 -o                    /
//                          "D:\GitHub\z-stack\Sensor Network                 /
//                          Example\Projects\zstack\Sensor Network            /
//                          Application\ZIGBEE Coordinator &                  /
//                          Router\CC2530DB\Coordinator_KB_PA\Obj\" -e        /
//                          --require_prototypes --debug --core=plain         /
//                          --dptr=16,1 --data_model=large                    /
//                          --code_model=banked --calling_convention=xdata_re /
//                          entrant --place_constants=data_rom                /
//                          --nr_virtual_regs 16 -I                           /
//                          "D:\GitHub\z-stack\Sensor Network                 /
//                          Example\Projects\zstack\Sensor Network            /
//                          Application\ZIGBEE Coordinator &                  /
//                          Router\CC2530DB\" -I "D:\GitHub\z-stack\Sensor    /
//                          Network Example\Projects\zstack\Sensor Network    /
//                          Application\ZIGBEE Coordinator &                  /
//                          Router\CC2530DB\..\SOURCE\" -I                    /
//                          "D:\GitHub\z-stack\Sensor Network                 /
//                          Example\Projects\zstack\Sensor Network            /
//                          Application\ZIGBEE Coordinator &                  /
//                          Router\CC2530DB\..\..\SOURCE\" -I                 /
//                          "D:\GitHub\z-stack\Sensor Network                 /
//                          Example\Projects\zstack\Sensor Network            /
//                          Application\ZIGBEE Coordinator &                  /
//                          Router\CC2530DB\..\..\..\ZMAIN\TI2530DB\" -I      /
//                          "D:\GitHub\z-stack\Sensor Network                 /
//                          Example\Projects\zstack\Sensor Network            /
//                          Application\ZIGBEE Coordinator &                  /
//                          Router\CC2530DB\..\..\..\..\..\COMPONENTS\MT\"    /
//                          -I "D:\GitHub\z-stack\Sensor Network              /
//                          Example\Projects\zstack\Sensor Network            /
//                          Application\ZIGBEE Coordinator &                  /
//                          Router\CC2530DB\..\..\..\..\..\COMPONENTS\HAL\INC /
//                          LUDE\" -I "D:\GitHub\z-stack\Sensor Network       /
//                          Example\Projects\zstack\Sensor Network            /
//                          Application\ZIGBEE Coordinator &                  /
//                          Router\CC2530DB\..\..\..\..\..\COMPONENTS\HAL\TAR /
//                          GET\CC2530KB\" -I "D:\GitHub\z-stack\Sensor       /
//                          Network Example\Projects\zstack\Sensor Network    /
//                          Application\ZIGBEE Coordinator &                  /
//                          Router\CC2530DB\..\..\..\..\..\COMPONENTS\OSAL\MC /
//                          U\CCSOC\" -I "D:\GitHub\z-stack\Sensor Network    /
//                          Example\Projects\zstack\Sensor Network            /
//                          Application\ZIGBEE Coordinator &                  /
//                          Router\CC2530DB\..\..\..\..\..\COMPONENTS\OSAL\IN /
//                          CLUDE\" -I "D:\GitHub\z-stack\Sensor Network      /
//                          Example\Projects\zstack\Sensor Network            /
//                          Application\ZIGBEE Coordinator &                  /
//                          Router\CC2530DB\..\..\..\..\..\COMPONENTS\STACK\A /
//                          F\" -I "D:\GitHub\z-stack\Sensor Network          /
//                          Example\Projects\zstack\Sensor Network            /
//                          Application\ZIGBEE Coordinator &                  /
//                          Router\CC2530DB\..\..\..\..\..\COMPONENTS\STACK\N /
//                          WK\" -I "D:\GitHub\z-stack\Sensor Network         /
//                          Example\Projects\zstack\Sensor Network            /
//                          Application\ZIGBEE Coordinator &                  /
//                          Router\CC2530DB\..\..\..\..\..\COMPONENTS\STACK\S /
//                          EC\" -I "D:\GitHub\z-stack\Sensor Network         /
//                          Example\Projects\zstack\Sensor Network            /
//                          Application\ZIGBEE Coordinator &                  /
//                          Router\CC2530DB\..\..\..\..\..\COMPONENTS\STACK\S /
//                          API\" -I "D:\GitHub\z-stack\Sensor Network        /
//                          Example\Projects\zstack\Sensor Network            /
//                          Application\ZIGBEE Coordinator &                  /
//                          Router\CC2530DB\..\..\..\..\..\COMPONENTS\STACK\S /
//                          YS\" -I "D:\GitHub\z-stack\Sensor Network         /
//                          Example\Projects\zstack\Sensor Network            /
//                          Application\ZIGBEE Coordinator &                  /
//                          Router\CC2530DB\..\..\..\..\..\COMPONENTS\STACK\Z /
//                          CL\" -I "D:\GitHub\z-stack\Sensor Network         /
//                          Example\Projects\zstack\Sensor Network            /
//                          Application\ZIGBEE Coordinator &                  /
//                          Router\CC2530DB\..\..\..\..\..\COMPONENTS\STACK\Z /
//                          DO\" -I "D:\GitHub\z-stack\Sensor Network         /
//                          Example\Projects\zstack\Sensor Network            /
//                          Application\ZIGBEE Coordinator &                  /
//                          Router\CC2530DB\..\..\..\..\..\COMPONENTS\ZMAC\F8 /
//                          W\" -I "D:\GitHub\z-stack\Sensor Network          /
//                          Example\Projects\zstack\Sensor Network            /
//                          Application\ZIGBEE Coordinator &                  /
//                          Router\CC2530DB\..\..\..\..\..\COMPONENTS\ZMAC\"  /
//                          -I "D:\GitHub\z-stack\Sensor Network              /
//                          Example\Projects\zstack\Sensor Network            /
//                          Application\ZIGBEE Coordinator &                  /
//                          Router\CC2530DB\..\..\..\..\..\COMPONENTS\SERVICE /
//                          S\SADDR\" -I "D:\GitHub\z-stack\Sensor Network    /
//                          Example\Projects\zstack\Sensor Network            /
//                          Application\ZIGBEE Coordinator &                  /
//                          Router\CC2530DB\..\..\..\..\..\COMPONENTS\SERVICE /
//                          S\SDATA\" -I "D:\GitHub\z-stack\Sensor Network    /
//                          Example\Projects\zstack\Sensor Network            /
//                          Application\ZIGBEE Coordinator &                  /
//                          Router\CC2530DB\..\..\..\..\..\COMPONENTS\MAC\INC /
//                          LUDE\" -I "D:\GitHub\z-stack\Sensor Network       /
//                          Example\Projects\zstack\Sensor Network            /
//                          Application\ZIGBEE Coordinator &                  /
//                          Router\CC2530DB\..\..\..\..\..\COMPONENTS\MAC\HIG /
//                          H_LEVEL\" -I "D:\GitHub\z-stack\Sensor Network    /
//                          Example\Projects\zstack\Sensor Network            /
//                          Application\ZIGBEE Coordinator &                  /
//                          Router\CC2530DB\..\..\..\..\..\COMPONENTS\MAC\LOW /
//                          _LEVEL\srf04\" -I "D:\GitHub\z-stack\Sensor       /
//                          Network Example\Projects\zstack\Sensor Network    /
//                          Application\ZIGBEE Coordinator &                  /
//                          Router\CC2530DB\..\..\..\..\..\COMPONENTS\MAC\LOW /
//                          _LEVEL\srf04\SINGLE_CHIP\" -I "C:\Program Files   /
//                          (x86)\IAR Systems\Embedded Workbench              /
//                          5.3\8051\INC\" -I "C:\Program Files (x86)\IAR     /
//                          Systems\Embedded Workbench 5.3\8051\INC\CLIB\"    /
//                          -Ohz                                              /
//    List file          =  D:\GitHub\z-stack\Sensor Network                  /
//                          Example\Projects\zstack\Sensor Network            /
//                          Application\ZIGBEE Coordinator &                  /
//                          Router\CC2530DB\Coordinator_KB_PA\List\mac_radio_ /
//                          defs.s51                                          /
//                                                                            /
//                                                                            /
///////////////////////////////////////////////////////////////////////////////

        NAME mac_radio_defs

        RTMODEL "__calling_convention", "xdata_reentrant"
        RTMODEL "__code_model", "banked"
        RTMODEL "__core", "plain"
        RTMODEL "__data_model", "large"
        RTMODEL "__dptr_size", "16"
        RTMODEL "__extended_stack", "disabled"
        RTMODEL "__location_for_constants", "data"
        RTMODEL "__number_of_dptrs", "1"
        RTMODEL "__rt_version", "1"

        RSEG DOVERLAY:DATA:NOROOT(0)
        RSEG IOVERLAY:IDATA:NOROOT(0)
        RSEG ISTACK:IDATA:NOROOT(0)
        RSEG PSTACK:XDATA:NOROOT(0)
        RSEG XSTACK:XDATA:NOROOT(0)

        EXTERN ?BDISPATCH
        EXTERN ?BRET

        PUBLIC ??MAC_SetRadioRegTable?relay
        FUNCTION ??MAC_SetRadioRegTable?relay,0203H
        PUBLIC ??macRadioTurnOffPower?relay
        FUNCTION ??macRadioTurnOffPower?relay,0203H
        PUBLIC ??macRadioTurnOnPower?relay
        FUNCTION ??macRadioTurnOnPower?relay,0203H
        PUBLIC MAC_SetRadioRegTable
        FUNCTION MAC_SetRadioRegTable,0203H
        ARGFRAME XSTACK, 0, STACK
        PUBLIC macRadioDefsTxPwrBare
        PUBLIC macRadioTurnOffPower
        FUNCTION macRadioTurnOffPower,0203H
        ARGFRAME XSTACK, 0, STACK
        LOCFRAME ISTACK, 2, STACK
        PUBLIC macRadioTurnOnPower
        FUNCTION macRadioTurnOnPower,021203H
        ARGFRAME XSTACK, 0, STACK
        LOCFRAME ISTACK, 2, STACK
        
        CFI Names cfiNames0
        CFI StackFrame CFA_SP SP IDATA
        CFI StackFrame CFA_PSP16 PSP16 XDATA
        CFI StackFrame CFA_XSP16 XSP16 XDATA
        CFI StaticOverlayFrame CFA_IOVERLAY IOVERLAY
        CFI StaticOverlayFrame CFA_DOVERLAY DOVERLAY
        CFI Resource `PSW.CY`:1, `B.BR0`:1, `B.BR1`:1, `B.BR2`:1, `B.BR3`:1
        CFI Resource `B.BR4`:1, `B.BR5`:1, `B.BR6`:1, `B.BR7`:1, `VB.BR8`:1
        CFI Resource `VB.BR9`:1, `VB.BR10`:1, `VB.BR11`:1, `VB.BR12`:1
        CFI Resource `VB.BR13`:1, `VB.BR14`:1, `VB.BR15`:1, VB:8, B:8, A:8
        CFI Resource PSW:8, DPL0:8, DPH0:8, R0:8, R1:8, R2:8, R3:8, R4:8, R5:8
        CFI Resource R6:8, R7:8, V0:8, V1:8, V2:8, V3:8, V4:8, V5:8, V6:8, V7:8
        CFI Resource V8:8, V9:8, V10:8, V11:8, V12:8, V13:8, V14:8, V15:8, SP:8
        CFI Resource PSPH:8, PSPL:8, PSP16:16, XSPH:8, XSPL:8, XSP16:16
        CFI VirtualResource ?RET:24
        CFI Resource ?BRET_EXT:8
        CFI VirtualResource ?RET_HIGH:8, ?RET_LOW:8
        CFI ResourceParts PSP16 PSPH, PSPL
        CFI ResourceParts XSP16 XSPH, XSPL
        CFI ResourceParts ?RET ?BRET_EXT, ?RET_HIGH, ?RET_LOW
        CFI EndNames cfiNames0
        
        CFI Common cfiCommon0 Using cfiNames0
        CFI CodeAlign 1
        CFI DataAlign -1
        CFI ReturnAddress ?RET CODE
        CFI CFA_DOVERLAY Used
        CFI CFA_IOVERLAY Used
        CFI CFA_SP SP+-3
        CFI CFA_PSP16 PSP16+0
        CFI CFA_XSP16 XSP16+0
        CFI `PSW.CY` SameValue
        CFI `B.BR0` SameValue
        CFI `B.BR1` SameValue
        CFI `B.BR2` SameValue
        CFI `B.BR3` SameValue
        CFI `B.BR4` SameValue
        CFI `B.BR5` SameValue
        CFI `B.BR6` SameValue
        CFI `B.BR7` SameValue
        CFI `VB.BR8` SameValue
        CFI `VB.BR9` SameValue
        CFI `VB.BR10` SameValue
        CFI `VB.BR11` SameValue
        CFI `VB.BR12` SameValue
        CFI `VB.BR13` SameValue
        CFI `VB.BR14` SameValue
        CFI `VB.BR15` SameValue
        CFI VB SameValue
        CFI B Undefined
        CFI A Undefined
        CFI PSW SameValue
        CFI DPL0 SameValue
        CFI DPH0 SameValue
        CFI R0 Undefined
        CFI R1 Undefined
        CFI R2 Undefined
        CFI R3 Undefined
        CFI R4 Undefined
        CFI R5 Undefined
        CFI R6 SameValue
        CFI R7 SameValue
        CFI V0 SameValue
        CFI V1 SameValue
        CFI V2 SameValue
        CFI V3 SameValue
        CFI V4 SameValue
        CFI V5 SameValue
        CFI V6 SameValue
        CFI V7 SameValue
        CFI V8 SameValue
        CFI V9 SameValue
        CFI V10 SameValue
        CFI V11 SameValue
        CFI V12 SameValue
        CFI V13 SameValue
        CFI V14 SameValue
        CFI V15 SameValue
        CFI PSPH Undefined
        CFI PSPL Undefined
        CFI XSPH Undefined
        CFI XSPL Undefined
        CFI ?RET Concat
        CFI ?BRET_EXT Frame(CFA_SP, 3)
        CFI ?RET_HIGH Frame(CFA_SP, 2)
        CFI ?RET_LOW Frame(CFA_SP, 1)
        CFI EndCommon cfiCommon0
        
macMemWriteRam      SYMBOL "macMemWriteRam"
??macMemWriteRam?relay SYMBOL "?relay", macMemWriteRam
MAC_SetRadioRegTable SYMBOL "MAC_SetRadioRegTable"
??MAC_SetRadioRegTable?relay SYMBOL "?relay", MAC_SetRadioRegTable
macRadioTurnOffPower SYMBOL "macRadioTurnOffPower"
??macRadioTurnOffPower?relay SYMBOL "?relay", macRadioTurnOffPower
macRadioTurnOnPower SYMBOL "macRadioTurnOnPower"
??macRadioTurnOnPower?relay SYMBOL "?relay", macRadioTurnOnPower

        EXTERN macMemWriteRam
        FUNCTION macMemWriteRam,0202H
        ARGFRAME ISTACK, 2, STACK
        ARGFRAME PSTACK, 0, STACK
        ARGFRAME XSTACK, 0, STACK
        ARGFRAME IOVERLAY, 0, STATIC
        ARGFRAME DOVERLAY, 0, STATIC
        EXTERN ??macMemWriteRam?relay
        FUNCTION ??macMemWriteRam?relay,00H
        EXTERN macChipVersion
        EXTERN macPib

// D:\GitHub\z-stack\Sensor Network Example\Components\mac\low_level\srf04\single_chip\mac_radio_defs.c
//    1 /**************************************************************************************************
//    2   Filename:       mac_radio_defs.c
//    3   Revised:        $Date: 2010-01-06 14:40:42 -0800 (Wed, 06 Jan 2010) $
//    4   Revision:       $Revision: 21441 $
//    5 
//    6   Description:    Describe the purpose and contents of the file.
//    7 
//    8   Copyright 2006-2010 Texas Instruments Incorporated. All rights reserved.
//    9 
//   10   Should you have any questions regarding your right to use this Software,
//   11   contact Texas Instruments Incorporated at www.TI.com.
//   12 **************************************************************************************************/
//   13 
//   14 /* ------------------------------------------------------------------------------------------------
//   15  *                                             Includes
//   16  * ------------------------------------------------------------------------------------------------
//   17  */
//   18 #include "mac_radio_defs.h"
//   19 #include "hal_types.h"
//   20 #include "hal_assert.h"
//   21 #include "mac_pib.h"
//   22 
//   23 
//   24 /* ------------------------------------------------------------------------------------------------
//   25  *                                        Global Constants
//   26  * ------------------------------------------------------------------------------------------------
//   27  */
//   28 #if defined MAC_RUNTIME_CC2591 || defined MAC_RUNTIME_CC2590 || (!defined HAL_PA_LNA && !defined HAL_PA_LNA_CC2590)
//   29 

        RSEG CODE_C:CODE:REORDER:NOROOT(0)
        DATA
//   30 const uint8 CODE macRadioDefsTxPwrBare[] =
macRadioDefsTxPwrBare:
        DB 3, 234, 245, 229, 213, 213, 197, 181, 165, 149, 149, 133, 133, 117
        DB 117, 101, 101, 85, 85, 69, 69, 53, 53, 37, 37, 21, 21, 5
//   31 {
//   32   3,  /* tramsmit power level of the first entry */
//   33   (uint8)(int8)-22, /* transmit power level of the last entry */
//   34   /*   3 dBm */   0xF5,   /* characterized as  4.5 dBm in datasheet */
//   35   /*   2 dBm */   0xE5,   /* characterized as  2.5 dBm in datasheet */
//   36   /*   1 dBm */   0xD5,   /* characterized as  1   dBm in datasheet */
//   37   /*   0 dBm */   0xD5,   /* characterized as  1   dBm in datasheet */
//   38   /*  -1 dBm */   0xC5,   /* characterized as -0.5 dBm in datasheet */
//   39   /*  -2 dBm */   0xB5,   /* characterized as -1.5 dBm in datasheet */
//   40   /*  -3 dBm */   0xA5,   /* characterized as -3   dBm in datasheet */
//   41   /*  -4 dBm */   0x95,   /* characterized as -4   dBm in datasheet */
//   42   /*  -5 dBm */   0x95,
//   43   /*  -6 dBm */   0x85,   /* characterized as -6   dBm in datasheet */
//   44   /*  -7 dBm */   0x85,
//   45   /*  -8 dBm */   0x75,   /* characterized as -8   dBm in datasheet */
//   46   /*  -9 dBm */   0x75,
//   47   /* -10 dBm */   0x65,   /* characterized as -10  dBm in datasheet */
//   48   /* -11 dBm */   0x65,
//   49   /* -12 dBm */   0x55,   /* characterized as -12  dBm in datasheet */
//   50   /* -13 dBm */   0x55,
//   51   /* -14 dBm */   0x45,   /* characterized as -14  dBm in datasheet */
//   52   /* -15 dBm */   0x45,
//   53   /* -16 dBm */   0x35,   /* characterized as -16  dBm in datasheet */
//   54   /* -17 dBm */   0x35,
//   55   /* -18 dBm */   0x25,   /* characterized as -18  dBm in datasheet */
//   56   /* -19 dBm */   0x25,
//   57   /* -20 dBm */   0x15,   /* characterized as -20  dBm in datasheet */
//   58   /* -21 dBm */   0x15,
//   59   /* -22 dBm */   0x05    /* characterized as -22  dBm in datasheet */
//   60 };
//   61 #endif
//   62 
//   63 #if defined HAL_PA_LNA || defined MAC_RUNTIME_CC2591
//   64 const uint8 CODE macRadioDefsTxPwrCC2591[] =
//   65 {
//   66   19,  /* tramsmit power level of the first entry */
//   67   (uint8)(int8)0, /* transmit power level of the last entry */
//   68   /*   0 dBm */   0x05,   /* characterized as -0.8 dBm in datasheet */
//   69   /*   1 dBm */   0x15,   /* characterized as 0.70 dBm in datasheet*/
//   70   /*   2 dBm */   0x25,   /* characterized as 2.71 dBm in datasheet */
//   71   /*   3 dBm */   0x25,
//   72   /*   4 dBm */   0x35,   /* characterized as 4.30 dBm in datasheet */ 
//   73   /*   5 dBm */   0x35, 
//   74   /*   6 dBm */   0x45,   /* characterized as 6.64 dBm in datasheet */ 
//   75   /*   7 dBm */   0x45, 
//   76   /*   8 dBm */   0x55,   /* characterized as 8.94 dBm in datasheet */ 
//   77   /*   9 dBm */   0x55, 
//   78   /*  10 dBm */   0x55, 
//   79   /*  11 dBm */   0x65,   /* characterized as 10.97 dBm in datasheet */  
//   80   /*  12 dBm */   0x75,   /* characterized as 12.63 dBm in datasheet */ 
//   81   /*  13 dBm */   0x75, 
//   82   /*  14 dBm */   0x85,   /* characterized as 14.08 dBm in datasheet */ 
//   83   /*  15 dBm */   0x95,   /* characterized as 15.06 dBm in datasheet */
//   84   /*  16 dBm */   0xA5,   /* characterized as 16.42 dBm in datasheet */
//   85   /*  17 dBm */   0xB5,   /* characterized as 17.37 dBm in datasheet */
//   86   /*  18 dBm */   0xD5,   /* characterized as 18.45 dBm in datasheet */
//   87   /*  19 dBm */   0xF5,   /* characterized as 19.36 dBm in datasheet */
//   88 };
//   89 #endif
//   90 
//   91 
//   92 /* Placeholder for CC2590 */
//   93 #if defined HAL_PA_LNA_CC2590 || defined MAC_RUNTIME_CC2590
//   94 const uint8 CODE macRadioDefsTxPwrCC2590[] =
//   95 {
//   96   11,  /* tramsmit power level of the first entry */
//   97   (uint8)(int8)-12, /* transmit power level of the last entry */
//   98   /* Note that the characterization is preliminary */
//   99   /* 11 dBm */   0xF5,   /* characterized as 11.8 dBm */
//  100   /* 10 dBm */   0xE5,   /* characterized as 10.6 dBm */
//  101   /*  9 dBm */   0xD5,   /* characterized as 9.5 dBm */
//  102   /*  8 dBm */   0xC5,   /* characterized as 8.5 dBm */
//  103   /*  7 dBm */   0xB5,   /* characterized as 7.6 dBm */
//  104   /*  6 dBm */   0xA5,   /* characterized as 6.4 dBm */
//  105   /*  5 dBm */   0xA5,   /* characterized as 6.4 dBm */
//  106   /*  4 dBm */   0x95,   /* characterized as 4.7 dBm */
//  107   /*  3 dBm */   0x85,   /* characterized as 3.5 dBm */
//  108   /*  2 dBm */   0x75,   /* characterized as 2.0 dBm */
//  109   /*  1 dBm */   0x75,   /* characterized as 2.0 dBm */
//  110   /*  0 dBm */   0x65,   /* characterized as 0.3 dBm */
//  111   /* -1 dBm */   0x65,   /* characterized as 0.3 dBm */
//  112   /* -2 dBm */   0x55,   /* characterized as -1.7 dBm */
//  113   /* -3 dBm */   0x55,   /* characterized as -1.7 dBm */
//  114   /* -4 dBm */   0x45,   /* characterized as -3.9 dBm */
//  115   /* -5 dBm */   0x45,   /* characterized as -3.9 dBm */
//  116   /* -6 dBm */   0x45,   /* characterized as -3.9 dBm */
//  117   /* -7 dBm */   0x35,   /* characterized as -6.3 dBm*/
//  118   /* -8 dBm */   0x25,   /* characterized as -7.8 dBm */
//  119   /* -9 dBm */   0x25,   /* characterized as -7.8 dBm */
//  120   /* -10 dBm */  0x15,   /* characterized as -9.8 dBm */
//  121   /* -11 dBm */  0x15,   /* characterized as -9.8 dBm */
//  122   /* -12 dBm */  0x05,   /* characterized as -11.8 dBm */
//  123 };
//  124 #endif
//  125 
//  126 #if defined MAC_RUNTIME_CC2591 || defined MAC_RUNTIME_CC2590 || defined HAL_PA_LNA || defined HAL_PA_LNA_CC2590
//  127 
//  128 /* TX power table array */
//  129 const uint8 CODE *const CODE macRadioDefsTxPwrTables[] =
//  130 {
//  131 #if defined MAC_RUNTIME_CC2591 || defined MAC_RUNTIME_CC2590 || (!defined HAL_PA_LNA && !defined HAL_PA_LNA_CC2590)
//  132   macRadioDefsTxPwrBare,
//  133 #endif
//  134 
//  135 #if defined HAL_PA_LNA || defined MAC_RUNTIME_CC2591
//  136   macRadioDefsTxPwrCC2591,
//  137 #endif
//  138 
//  139 #if defined HAL_PA_LNA_CC2590 || defined MAC_RUNTIME_CC2590
//  140   macRadioDefsTxPwrCC2590,
//  141 #endif
//  142 };
//  143 
//  144 /* RSSI offset adjustment value array */
//  145 const int8 CODE macRadioDefsRssiAdj[] =
//  146 {
//  147 #if defined MAC_RUNTIME_CC2591 || defined MAC_RUNTIME_CC2590 || (!defined HAL_PA_LNA && !defined HAL_PA_LNA_CC2590)
//  148   0,
//  149 #endif
//  150 
//  151 #if defined HAL_PA_LNA || defined MAC_RUNTIME_CC2591
//  152   -9, /* high gain mode */
//  153   4,  /* low gain mode */
//  154 #endif
//  155 
//  156 #if defined HAL_PA_LNA_CC2590 || defined MAC_RUNTIME_CC2590
//  157   -10, /* high gain mode */
//  158   0,   /* low gain mode */
//  159 #endif
//  160 };
//  161 
//  162 #endif /* defined MAC_RUNTIME_CC2591 || defined MAC_RUNTIME_CC2590 || ... */
//  163 
//  164 #if defined MAC_RUNTIME_CC2591 || defined MAC_RUNTIME_CC2590 || defined HAL_PA_LNA || defined HAL_PA_LNA_CC2590
//  165 uint8 macRadioDefsRefTableId = 0;
//  166 #endif
//  167 
//  168 /* RF observable control register value to output PA signal */
//  169 #define RFC_OBS_CTRL_PA_PD_INV        0x68
//  170 
//  171 /* RF observable control register value to output LNA signal */
//  172 #define RFC_OBS_CTRL_LNAMIX_PD_INV    0x6A
//  173 
//  174 /* OBSSELn register value to select RF observable 0 */
//  175 #define OBSSEL_OBS_CTRL0             0xFB
//  176 
//  177 /* OBSSELn register value to select RF observable 1 */
//  178 #define OBSSEL_OBS_CTRL1             0xFC
//  179 
//  180 
//  181 /**************************************************************************************************
//  182  * @fn          MAC_SelectRadioRegTable
//  183  * @brief       Select radio register table in case multiple register tables are included
//  184  *              in the build
//  185  * @param       txPwrTblIdx - TX power register value table index
//  186  * @param       rssiAdjIdx - RSSI adjustment value index
//  187  **************************************************************************************************
//  188  */

        RSEG BANKED_CODE:CODE:NOROOT(0)
//  189 extern void MAC_SetRadioRegTable ( uint8 txPwrTblIdx, uint8 rssiAdjIdx )
MAC_SetRadioRegTable:
        CFI Block cfiBlock0 Using cfiCommon0
        CFI Function MAC_SetRadioRegTable
//  190 {
        ; Saved register size: 0
        ; Auto size: 0
//  191   /* Depending on compile flags, the parameters may not be used */
//  192   (void) txPwrTblIdx;
//  193   (void) rssiAdjIdx;
//  194 
//  195 #if defined MAC_RUNTIME_CC2591 || defined MAC_RUNTIME_CC2590
//  196   if (txPwrTblIdx >= sizeof(macRadioDefsTxPwrTables)/sizeof(macRadioDefsTxPwrTables[0]))
//  197   {
//  198     txPwrTblIdx = 0;
//  199   }
//  200 #endif /* defined MAC_RUNTIME_CC2591 || defined MAC_RUNTIME_CC2590 */
//  201 
//  202 #if defined MAC_RUNTIME_CC2591 || defined MAC_RUNTIME_CC2590 || \ 
//  203   defined HAL_PA_LNA || defined HAL_PA_LNA_CC2590
//  204 
//  205   if (rssiAdjIdx >= sizeof(macRadioDefsRssiAdj)/sizeof(macRadioDefsRssiAdj[0]))
//  206   {
//  207     rssiAdjIdx = 0;
//  208   }
//  209 
//  210   macRadioDefsRefTableId = (txPwrTblIdx << 4) | rssiAdjIdx;
//  211 
//  212 #endif /* defined MAC_RUNTIME_CC2591 || defined MAC_RUNTIME_CC2590 || .. */
//  213 }
        LJMP    ?BRET
        CFI EndBlock cfiBlock0
//  214 
//  215 
//  216 /**************************************************************************************************
//  217  * @fn          macRadioTurnOnPower
//  218  * @brief       Logic and sequence for powering up the radio.
//  219  **************************************************************************************************
//  220  */

        RSEG BANKED_CODE:CODE:NOROOT(0)
//  221 MAC_INTERNAL_API void macRadioTurnOnPower(void)
macRadioTurnOnPower:
        CFI Block cfiBlock1 Using cfiCommon0
        CFI Function macRadioTurnOnPower
//  222 {
        FUNCALL macRadioTurnOnPower, macMemWriteRam
        LOCFRAME ISTACK, 2, STACK
        LOCFRAME PSTACK, 0, STACK
        LOCFRAME XSTACK, 0, STACK
        LOCFRAME IOVERLAY, 0, STATIC
        LOCFRAME DOVERLAY, 0, STATIC
        ARGFRAME ISTACK, 2, STACK
        ARGFRAME PSTACK, 0, STACK
        ARGFRAME XSTACK, 0, STACK
        ARGFRAME IOVERLAY, 0, STATIC
        ARGFRAME DOVERLAY, 0, STATIC
        PUSH    DPL
        CFI DPL0 Frame(CFA_SP, 4)
        CFI CFA_SP SP+-4
        PUSH    DPH
        CFI DPH0 Frame(CFA_SP, 5)
        CFI CFA_SP SP+-5
        ; Saved register size: 2
        ; Auto size: 0
//  223   /* Enable RF error trap */
//  224   MAC_MCU_RFERR_ENABLE_INTERRUPT();
        MOV     DPTR,#0x61a5
        MOVX    A,@DPTR
        SETB    0xE0 /* A   */.2
        MOVX    @DPTR,A
//  225 
//  226 #if defined MAC_RUNTIME_CC2591 || defined MAC_RUNTIME_CC2590
//  227   /* table ID is referenced only when runtime configuratino is enabled */
//  228   if (macRadioDefsRefTableId & 0xf0)
//  229 #endif /* defined MAC_RUNTIME_CC2591 || defined MAC_RUNTIME_CC2590 */
//  230 
//  231 #if defined MAC_RUNTIME_CC2591 || defined MAC_RUNTIME_CC2590 || defined HAL_PA_LNA || defined HAL_PA_LNA_CC2590
//  232   { /* either if compound statement or non-conditional compound statement */
//  233 
//  234     /* (Re-)Configure PA and LNA control signals to RF frontend chips. Note that The register values
//  235        are not retained during sleep. */
//  236 
//  237 #ifdef XT200_PA  
//  238      /* P1_1 -> PAEN */
//  239     RFC_OBS_CTRL0 = RFC_OBS_CTRL_PA_PD_INV;
//  240     OBSSEL1       = OBSSEL_OBS_CTRL0;
//  241     /* P1_0 -> EN (LNA control) */
//  242     RFC_OBS_CTRL1 = RFC_OBS_CTRL_LNAMIX_PD_INV;
//  243     OBSSEL0       = OBSSEL_OBS_CTRL1;
//  244 #else
//  245     /* P1_1 -> PAEN */
//  246     RFC_OBS_CTRL0 = RFC_OBS_CTRL_PA_PD_INV;
//  247     OBSSEL1       = OBSSEL_OBS_CTRL0;
//  248     /* P1_4 -> EN (LNA control) */
//  249     RFC_OBS_CTRL1 = RFC_OBS_CTRL_LNAMIX_PD_INV;
//  250     OBSSEL4       = OBSSEL_OBS_CTRL1;
//  251 #endif
//  252     
//  253   }
//  254 #endif /* defined MAC_RUNTIME_CC2591 || ... || defined HAL_PA_LNA_CC2590 */
//  255 
//  256   if (macChipVersion <= REV_B)
        MOV     DPTR,#macChipVersion
        MOVX    A,@DPTR
        CLR     C
        SUBB    A,#0x12
        JNC     ??macRadioTurnOnPower_0
//  257   {
//  258     /* radio initializations for disappearing RAM; PG1.0 and before only */
//  259     MAC_RADIO_SET_PAN_ID(macPib.panId);
        MOV     DPTR,#(macPib + 29)
        MOVX    A,@DPTR
        MOV     DPTR,#0x6172
        MOVX    @DPTR,A
        MOV     DPTR,#(macPib + 30)
        MOVX    A,@DPTR
        MOV     DPTR,#0x6173
        MOVX    @DPTR,A
//  260     MAC_RADIO_SET_SHORT_ADDR(macPib.shortAddress);
        MOV     DPTR,#(macPib + 33)
        MOVX    A,@DPTR
        MOV     DPTR,#0x6174
        MOVX    @DPTR,A
        MOV     DPTR,#(macPib + 34)
        MOVX    A,@DPTR
        MOV     DPTR,#0x6175
        MOVX    @DPTR,A
//  261     MAC_RADIO_SET_IEEE_ADDR(macPib.extendedAddress.addr.extAddr);
        ; Setup parameters for call to function macMemWriteRam
        MOV     R1,#0x8
        MOV     R4,#((macPib + 49) & 0xff)
        MOV     R5,#(((macPib + 49) >> 8) & 0xff)
        MOV     R2,#0x6a
        MOV     R3,#0x61
        LCALL   ??macMemWriteRam?relay
        CFI EndBlock cfiBlock1
//  262   }
//  263 }
??macRadioTurnOnPower_0:
        REQUIRE ?Subroutine0
        ; // Fall through to label ?Subroutine0

        RSEG BANKED_CODE:CODE:NOROOT(0)
?Subroutine0:
        CFI Block cfiBlock2 Using cfiCommon0
        CFI NoFunction
        CFI CFA_SP SP+-5
        CFI DPL0 Frame(CFA_SP, 4)
        CFI DPH0 Frame(CFA_SP, 5)
        POP     DPH
        CFI CFA_SP SP+-4
        CFI DPH0 SameValue
        POP     DPL
        CFI CFA_SP SP+-3
        CFI DPL0 SameValue
        LJMP    ?BRET
        CFI EndBlock cfiBlock2
//  264 
//  265 
//  266 /**************************************************************************************************
//  267  * @fn          macRadioTurnOffPower
//  268  *
//  269  * @brief       Logic and sequence for powering down the radio.
//  270  *
//  271  * @param       none
//  272  *
//  273  * @return      none
//  274  **************************************************************************************************
//  275  */

        RSEG BANKED_CODE:CODE:NOROOT(0)
//  276 MAC_INTERNAL_API void macRadioTurnOffPower(void)
macRadioTurnOffPower:
        CFI Block cfiBlock3 Using cfiCommon0
        CFI Function macRadioTurnOffPower
//  277 {
        PUSH    DPL
        CFI DPL0 Frame(CFA_SP, 4)
        CFI CFA_SP SP+-4
        PUSH    DPH
        CFI DPH0 Frame(CFA_SP, 5)
        CFI CFA_SP SP+-5
        ; Saved register size: 2
        ; Auto size: 0
//  278   /* Disable RF error trap */
//  279   MAC_MCU_RFERR_DISABLE_INTERRUPT();
        MOV     DPTR,#0x61a5
        MOVX    A,@DPTR
        CLR     0xE0 /* A   */.2
        MOVX    @DPTR,A
//  280 }
        SJMP    ?Subroutine0
        CFI EndBlock cfiBlock3

        RSEG BANK_RELAYS:CODE:REORDER:NOROOT(0)
??MAC_SetRadioRegTable?relay:
        LCALL   ?BDISPATCH
        DATA
        DC24    MAC_SetRadioRegTable

        RSEG BANK_RELAYS:CODE:REORDER:NOROOT(0)
??macRadioTurnOnPower?relay:
        LCALL   ?BDISPATCH
        DATA
        DC24    macRadioTurnOnPower

        RSEG BANK_RELAYS:CODE:REORDER:NOROOT(0)
??macRadioTurnOffPower?relay:
        LCALL   ?BDISPATCH
        DATA
        DC24    macRadioTurnOffPower

        END
//  281 
//  282 
//  283 /**************************************************************************************************
//  284  *                                  Compile Time Integrity Checks
//  285  **************************************************************************************************
//  286  */
//  287 #if (HAL_CPU_CLOCK_MHZ != 32)
//  288 #error "ERROR: The only tested/supported clock speed is 32 MHz."
//  289 #endif
//  290 
//  291 #if (MAC_RADIO_RECEIVER_SENSITIVITY_DBM > MAC_SPEC_MIN_RECEIVER_SENSITIVITY)
//  292 #error "ERROR: Radio sensitivity does not meet specification."
//  293 #endif
//  294 
//  295 #if defined (HAL_PA_LNA) && defined (HAL_PA_LNA_CC2590)
//  296 #error "ERROR: HAL_PA_LNA and HAL_PA_LNA_CC2590 cannot be both defined."
//  297 #endif
//  298 
//  299 #if defined (HAL_PA_LNA) && defined (MAC_RUNTIME_CC2591)
//  300 #error "ERROR: HAL_PA_LNA and MAC_RUNTIME_CC2591 cannot be both defined."
//  301 #endif
//  302 
//  303 #if defined (HAL_PA_LNA_CC2590) && defined (MAC_RUNTIME_CC2590)
//  304 #error "ERROR: HAL_PA_LNA_CC2590 and MAC_RUNTIME_CC2590 cannot be both defined."
//  305 #endif
//  306 
//  307 
//  308 /**************************************************************************************************
//  309  */
// 
// 88 bytes in segment BANKED_CODE
// 18 bytes in segment BANK_RELAYS
// 28 bytes in segment CODE_C
// 
// 134 bytes of CODE memory
//
//Errors: none
//Warnings: none
