///////////////////////////////////////////////////////////////////////////////
//                                                                            /
// IAR C/C++ Compiler V7.51A/W32 for 8051               16/Aug/2013  02:06:00 /
// Copyright 2004-2009 IAR Systems AB.                                        /
//                                                                            /
//    Core               =  plain                                             /
//    Code model         =  banked                                            /
//    Data model         =  large                                             /
//    Calling convention =  xdata reentrant                                   /
//    Constant location  =  data_rom                                          /
//    Dptr setup         =  1,16                                              /
//    Source file        =  D:\z-stack_813\z-stack\Sensor Network             /
//                          Example\Projects\zstack\Sensor Network            /
//                          Application\ZIGBEE Coordinator &                  /
//                          Router\Source\OSAL_ZIGBEE Receiver.c              /
//    Command line       =  -f "D:\z-stack_813\z-stack\Sensor Network         /
//                          Example\Projects\zstack\Sensor Network            /
//                          Application\ZIGBEE Coordinator &                  /
//                          Router\CC2530DB\..\..\..\Tools\CC2530DB\f8wCoord. /
//                          cfg" (-DCPU32MHZ -DROOT=__near_func               /
//                          -DMAC_CFG_APP_PENDING_QUEUE=TRUE                  /
//                          -DZDO_COORDINATOR -DRTR_NWK -DBLINK_LEDS) -f      /
//                          "D:\z-stack_813\z-stack\Sensor Network            /
//                          Example\Projects\zstack\Sensor Network            /
//                          Application\ZIGBEE Coordinator &                  /
//                          Router\CC2530DB\..\..\..\Tools\CC2530DB\f8wConfig /
//                          .cfg" (-DSECURE=0 -DZG_SECURE_DYNAMIC=0           /
//                          -DREFLECTOR -DDEFAULT_CHANLIST=0x00000800         /
//                          -DZDAPP_CONFIG_PAN_ID=0xFFFF                      /
//                          -DNWK_START_DELAY=100 -DEXTENDED_JOINING_RANDOM_M /
//                          ASK=0x007F -DBEACON_REQUEST_DELAY=100             /
//                          -DBEACON_REQ_DELAY_MASK=0x00FF                    /
//                          -DROUTE_EXPIRY_TIME=30 -DAPSC_ACK_WAIT_DURATION_P /
//                          OLLED=3000 -DNWK_INDIRECT_MSG_TIMEOUT=7           /
//                          -DMAX_RREQ_ENTRIES=8 -DAPSC_MAX_FRAME_RETRIES=3   /
//                          -DNWK_MAX_DATA_RETRIES=2                          /
//                          -DMAX_POLL_FAILURE_RETRIES=2 -DMAX_BCAST=9        /
//                          -DAPS_MAX_GROUPS=16 -DMAX_RTG_ENTRIES=40          /
//                          -DNWK_MAX_BINDING_ENTRIES=4                       /
//                          -DMAX_BINDING_CLUSTER_IDS=4                       /
//                          "-DDEFAULT_KEY={0x01, 0x03, 0x05, 0x07, 0x09,     /
//                          0x0B, 0x0D, 0x0F, 0x00, 0x02, 0x04, 0x06, 0x08,   /
//                          0x0A, 0x0C, 0x0D}" -DMAC_MAX_FRAME_SIZE=116       /
//                          "-DCONST=const __code" -DGENERIC=__generic        /
//                          -DRFD_RCVC_ALWAYS_ON=TRUE -DPOLL_RATE=1000        /
//                          -DQUEUED_POLL_RATE=100 -DRESPONSE_POLL_RATE=100   /
//                          -DREJOIN_POLL_RATE=440) -f                        /
//                          "D:\z-stack_813\z-stack\Sensor Network            /
//                          Example\Projects\zstack\Sensor Network            /
//                          Application\ZIGBEE Coordinator &                  /
//                          Router\CC2530DB\..\..\..\Tools\CC2530DB\f8wZCL.cf /
//                          g" (-DZCL_READ -DZCL_WRITE -DZCL_BASIC            /
//                          -DZCL_IDENTIFY -DZCL_ON_OFF -DZCL_KEY_ESTABLISH   /
//                          -DZCL_LOAD_CONTROL -DZCL_SIMPLE_METERING          /
//                          -DZCL_PRICING) -DZCL_MESSAGE                      /
//                          "D:\z-stack_813\z-stack\Sensor Network            /
//                          Example\Projects\zstack\Sensor Network            /
//                          Application\ZIGBEE Coordinator &                  /
//                          Router\Source\OSAL_ZIGBEE Receiver.c" -D CC2530   /
//                          -D ZTOOL_P1 -D MT_TASK -D MT_APP_FUNC -D          /
//                          MT_SYS_FUNC -D MT_ZDO_FUNC -D                     /
//                          LCD_SUPPORTED=DEBUG -D Coor_receiver -D           /
//                          xHAL_KEYPAD -D xPA2591 -lC                        /
//                          "D:\z-stack_813\z-stack\Sensor Network            /
//                          Example\Projects\zstack\Sensor Network            /
//                          Application\ZIGBEE Coordinator &                  /
//                          Router\CC2530DB\Coordinator_KB_PA\List\" -lA      /
//                          "D:\z-stack_813\z-stack\Sensor Network            /
//                          Example\Projects\zstack\Sensor Network            /
//                          Application\ZIGBEE Coordinator &                  /
//                          Router\CC2530DB\Coordinator_KB_PA\List\"          /
//                          --diag_suppress Pe001,Pa010 -o                    /
//                          "D:\z-stack_813\z-stack\Sensor Network            /
//                          Example\Projects\zstack\Sensor Network            /
//                          Application\ZIGBEE Coordinator &                  /
//                          Router\CC2530DB\Coordinator_KB_PA\Obj\" -e        /
//                          --require_prototypes --debug --core=plain         /
//                          --dptr=16,1 --data_model=large                    /
//                          --code_model=banked --calling_convention=xdata_re /
//                          entrant --place_constants=data_rom                /
//                          --nr_virtual_regs 16 -I                           /
//                          "D:\z-stack_813\z-stack\Sensor Network            /
//                          Example\Projects\zstack\Sensor Network            /
//                          Application\ZIGBEE Coordinator &                  /
//                          Router\CC2530DB\" -I "D:\z-stack_813\z-stack\Sens /
//                          or Network Example\Projects\zstack\Sensor         /
//                          Network Application\ZIGBEE Coordinator &          /
//                          Router\CC2530DB\..\SOURCE\" -I                    /
//                          "D:\z-stack_813\z-stack\Sensor Network            /
//                          Example\Projects\zstack\Sensor Network            /
//                          Application\ZIGBEE Coordinator &                  /
//                          Router\CC2530DB\..\..\SOURCE\" -I                 /
//                          "D:\z-stack_813\z-stack\Sensor Network            /
//                          Example\Projects\zstack\Sensor Network            /
//                          Application\ZIGBEE Coordinator &                  /
//                          Router\CC2530DB\..\..\..\ZMAIN\TI2530DB\" -I      /
//                          "D:\z-stack_813\z-stack\Sensor Network            /
//                          Example\Projects\zstack\Sensor Network            /
//                          Application\ZIGBEE Coordinator &                  /
//                          Router\CC2530DB\..\..\..\..\..\COMPONENTS\MT\"    /
//                          -I "D:\z-stack_813\z-stack\Sensor Network         /
//                          Example\Projects\zstack\Sensor Network            /
//                          Application\ZIGBEE Coordinator &                  /
//                          Router\CC2530DB\..\..\..\..\..\COMPONENTS\HAL\INC /
//                          LUDE\" -I "D:\z-stack_813\z-stack\Sensor Network  /
//                          Example\Projects\zstack\Sensor Network            /
//                          Application\ZIGBEE Coordinator &                  /
//                          Router\CC2530DB\..\..\..\..\..\COMPONENTS\HAL\TAR /
//                          GET\CC2530KB\" -I "D:\z-stack_813\z-stack\Sensor  /
//                          Network Example\Projects\zstack\Sensor Network    /
//                          Application\ZIGBEE Coordinator &                  /
//                          Router\CC2530DB\..\..\..\..\..\COMPONENTS\OSAL\MC /
//                          U\CCSOC\" -I "D:\z-stack_813\z-stack\Sensor       /
//                          Network Example\Projects\zstack\Sensor Network    /
//                          Application\ZIGBEE Coordinator &                  /
//                          Router\CC2530DB\..\..\..\..\..\COMPONENTS\OSAL\IN /
//                          CLUDE\" -I "D:\z-stack_813\z-stack\Sensor         /
//                          Network Example\Projects\zstack\Sensor Network    /
//                          Application\ZIGBEE Coordinator &                  /
//                          Router\CC2530DB\..\..\..\..\..\COMPONENTS\STACK\A /
//                          F\" -I "D:\z-stack_813\z-stack\Sensor Network     /
//                          Example\Projects\zstack\Sensor Network            /
//                          Application\ZIGBEE Coordinator &                  /
//                          Router\CC2530DB\..\..\..\..\..\COMPONENTS\STACK\N /
//                          WK\" -I "D:\z-stack_813\z-stack\Sensor Network    /
//                          Example\Projects\zstack\Sensor Network            /
//                          Application\ZIGBEE Coordinator &                  /
//                          Router\CC2530DB\..\..\..\..\..\COMPONENTS\STACK\S /
//                          EC\" -I "D:\z-stack_813\z-stack\Sensor Network    /
//                          Example\Projects\zstack\Sensor Network            /
//                          Application\ZIGBEE Coordinator &                  /
//                          Router\CC2530DB\..\..\..\..\..\COMPONENTS\STACK\S /
//                          API\" -I "D:\z-stack_813\z-stack\Sensor Network   /
//                          Example\Projects\zstack\Sensor Network            /
//                          Application\ZIGBEE Coordinator &                  /
//                          Router\CC2530DB\..\..\..\..\..\COMPONENTS\STACK\S /
//                          YS\" -I "D:\z-stack_813\z-stack\Sensor Network    /
//                          Example\Projects\zstack\Sensor Network            /
//                          Application\ZIGBEE Coordinator &                  /
//                          Router\CC2530DB\..\..\..\..\..\COMPONENTS\STACK\Z /
//                          CL\" -I "D:\z-stack_813\z-stack\Sensor Network    /
//                          Example\Projects\zstack\Sensor Network            /
//                          Application\ZIGBEE Coordinator &                  /
//                          Router\CC2530DB\..\..\..\..\..\COMPONENTS\STACK\Z /
//                          DO\" -I "D:\z-stack_813\z-stack\Sensor Network    /
//                          Example\Projects\zstack\Sensor Network            /
//                          Application\ZIGBEE Coordinator &                  /
//                          Router\CC2530DB\..\..\..\..\..\COMPONENTS\ZMAC\F8 /
//                          W\" -I "D:\z-stack_813\z-stack\Sensor Network     /
//                          Example\Projects\zstack\Sensor Network            /
//                          Application\ZIGBEE Coordinator &                  /
//                          Router\CC2530DB\..\..\..\..\..\COMPONENTS\ZMAC\"  /
//                          -I "D:\z-stack_813\z-stack\Sensor Network         /
//                          Example\Projects\zstack\Sensor Network            /
//                          Application\ZIGBEE Coordinator &                  /
//                          Router\CC2530DB\..\..\..\..\..\COMPONENTS\SERVICE /
//                          S\SADDR\" -I "D:\z-stack_813\z-stack\Sensor       /
//                          Network Example\Projects\zstack\Sensor Network    /
//                          Application\ZIGBEE Coordinator &                  /
//                          Router\CC2530DB\..\..\..\..\..\COMPONENTS\SERVICE /
//                          S\SDATA\" -I "D:\z-stack_813\z-stack\Sensor       /
//                          Network Example\Projects\zstack\Sensor Network    /
//                          Application\ZIGBEE Coordinator &                  /
//                          Router\CC2530DB\..\..\..\..\..\COMPONENTS\MAC\INC /
//                          LUDE\" -I "D:\z-stack_813\z-stack\Sensor Network  /
//                          Example\Projects\zstack\Sensor Network            /
//                          Application\ZIGBEE Coordinator &                  /
//                          Router\CC2530DB\..\..\..\..\..\COMPONENTS\MAC\HIG /
//                          H_LEVEL\" -I "D:\z-stack_813\z-stack\Sensor       /
//                          Network Example\Projects\zstack\Sensor Network    /
//                          Application\ZIGBEE Coordinator &                  /
//                          Router\CC2530DB\..\..\..\..\..\COMPONENTS\MAC\LOW /
//                          _LEVEL\srf04\" -I "D:\z-stack_813\z-stack\Sensor  /
//                          Network Example\Projects\zstack\Sensor Network    /
//                          Application\ZIGBEE Coordinator &                  /
//                          Router\CC2530DB\..\..\..\..\..\COMPONENTS\MAC\LOW /
//                          _LEVEL\srf04\SINGLE_CHIP\" -I "C:\Program Files   /
//                          (x86)\IAR Systems\Embedded Workbench              /
//                          5.3\8051\INC\" -I "C:\Program Files (x86)\IAR     /
//                          Systems\Embedded Workbench 5.3\8051\INC\CLIB\"    /
//                          -Ohz                                              /
//    List file          =  D:\z-stack_813\z-stack\Sensor Network             /
//                          Example\Projects\zstack\Sensor Network            /
//                          Application\ZIGBEE Coordinator &                  /
//                          Router\CC2530DB\Coordinator_KB_PA\List\OSAL_ZIGBE /
//                          E Receiver.s51                                    /
//                                                                            /
//                                                                            /
///////////////////////////////////////////////////////////////////////////////

        NAME `OSAL_ZIGBEE Receiver`

        RTMODEL "__calling_convention", "xdata_reentrant"
        RTMODEL "__code_model", "banked"
        RTMODEL "__core", "plain"
        RTMODEL "__data_model", "large"
        RTMODEL "__dptr_size", "16"
        RTMODEL "__extended_stack", "disabled"
        RTMODEL "__location_for_constants", "data"
        RTMODEL "__number_of_dptrs", "1"
        RTMODEL "__rt_version", "1"

        RSEG DOVERLAY:DATA:NOROOT(0)
        RSEG IOVERLAY:IDATA:NOROOT(0)
        RSEG ISTACK:IDATA:NOROOT(0)
        RSEG PSTACK:XDATA:NOROOT(0)
        RSEG XSTACK:XDATA:NOROOT(0)

        EXTERN ?BDISPATCH
        EXTERN ?BRET
        EXTERN __INIT_XDATA_Z

        PUBLIC ??osalInitTasks?relay
        FUNCTION ??osalInitTasks?relay,0203H
        PUBLIC osalInitTasks
        FUNCTION osalInitTasks,021203H
        ARGFRAME XSTACK, 0, STACK
        LOCFRAME ISTACK, 2, STACK
        PUBLIC tasksArr
        PUBLIC tasksCnt
        PUBLIC tasksEvents
        
        CFI Names cfiNames0
        CFI StackFrame CFA_SP SP IDATA
        CFI StackFrame CFA_PSP16 PSP16 XDATA
        CFI StackFrame CFA_XSP16 XSP16 XDATA
        CFI StaticOverlayFrame CFA_IOVERLAY IOVERLAY
        CFI StaticOverlayFrame CFA_DOVERLAY DOVERLAY
        CFI Resource `PSW.CY`:1, `B.BR0`:1, `B.BR1`:1, `B.BR2`:1, `B.BR3`:1
        CFI Resource `B.BR4`:1, `B.BR5`:1, `B.BR6`:1, `B.BR7`:1, `VB.BR8`:1
        CFI Resource `VB.BR9`:1, `VB.BR10`:1, `VB.BR11`:1, `VB.BR12`:1
        CFI Resource `VB.BR13`:1, `VB.BR14`:1, `VB.BR15`:1, VB:8, B:8, A:8
        CFI Resource PSW:8, DPL0:8, DPH0:8, R0:8, R1:8, R2:8, R3:8, R4:8, R5:8
        CFI Resource R6:8, R7:8, V0:8, V1:8, V2:8, V3:8, V4:8, V5:8, V6:8, V7:8
        CFI Resource V8:8, V9:8, V10:8, V11:8, V12:8, V13:8, V14:8, V15:8, SP:8
        CFI Resource PSPH:8, PSPL:8, PSP16:16, XSPH:8, XSPL:8, XSP16:16
        CFI VirtualResource ?RET:24
        CFI Resource ?BRET_EXT:8
        CFI VirtualResource ?RET_HIGH:8, ?RET_LOW:8
        CFI ResourceParts PSP16 PSPH, PSPL
        CFI ResourceParts XSP16 XSPH, XSPL
        CFI ResourceParts ?RET ?BRET_EXT, ?RET_HIGH, ?RET_LOW
        CFI EndNames cfiNames0
        
        CFI Common cfiCommon0 Using cfiNames0
        CFI CodeAlign 1
        CFI DataAlign -1
        CFI ReturnAddress ?RET CODE
        CFI CFA_DOVERLAY Used
        CFI CFA_IOVERLAY Used
        CFI CFA_SP SP+-3
        CFI CFA_PSP16 PSP16+0
        CFI CFA_XSP16 XSP16+0
        CFI `PSW.CY` SameValue
        CFI `B.BR0` SameValue
        CFI `B.BR1` SameValue
        CFI `B.BR2` SameValue
        CFI `B.BR3` SameValue
        CFI `B.BR4` SameValue
        CFI `B.BR5` SameValue
        CFI `B.BR6` SameValue
        CFI `B.BR7` SameValue
        CFI `VB.BR8` SameValue
        CFI `VB.BR9` SameValue
        CFI `VB.BR10` SameValue
        CFI `VB.BR11` SameValue
        CFI `VB.BR12` SameValue
        CFI `VB.BR13` SameValue
        CFI `VB.BR14` SameValue
        CFI `VB.BR15` SameValue
        CFI VB SameValue
        CFI B Undefined
        CFI A Undefined
        CFI PSW SameValue
        CFI DPL0 SameValue
        CFI DPH0 SameValue
        CFI R0 Undefined
        CFI R1 Undefined
        CFI R2 Undefined
        CFI R3 Undefined
        CFI R4 Undefined
        CFI R5 Undefined
        CFI R6 SameValue
        CFI R7 SameValue
        CFI V0 SameValue
        CFI V1 SameValue
        CFI V2 SameValue
        CFI V3 SameValue
        CFI V4 SameValue
        CFI V5 SameValue
        CFI V6 SameValue
        CFI V7 SameValue
        CFI V8 SameValue
        CFI V9 SameValue
        CFI V10 SameValue
        CFI V11 SameValue
        CFI V12 SameValue
        CFI V13 SameValue
        CFI V14 SameValue
        CFI V15 SameValue
        CFI PSPH Undefined
        CFI PSPL Undefined
        CFI XSPH Undefined
        CFI XSPL Undefined
        CFI ?RET Concat
        CFI ?BRET_EXT Frame(CFA_SP, 3)
        CFI ?RET_HIGH Frame(CFA_SP, 2)
        CFI ?RET_LOW Frame(CFA_SP, 1)
        CFI EndCommon cfiCommon0
        
osal_mem_alloc      SYMBOL "osal_mem_alloc"
osal_memset         SYMBOL "osal_memset"
macTaskInit         SYMBOL "macTaskInit"
nwk_init            SYMBOL "nwk_init"
Hal_Init            SYMBOL "Hal_Init"
MT_TaskInit         SYMBOL "MT_TaskInit"
APS_Init            SYMBOL "APS_Init"
ZDApp_Init          SYMBOL "ZDApp_Init"
ZDNwkMgr_Init       SYMBOL "ZDNwkMgr_Init"
zcl_Init            SYMBOL "zcl_Init"
zclZigbeeRecv_Init  SYMBOL "zclZigbeeRecv_Init"
??APS_Init?relay    SYMBOL "?relay", APS_Init
`?<Name APS_event_loop 12>` SYMBOL "APS_event_loop"
??APS_event_loop?relay SYMBOL "?relay", `?<Name APS_event_loop 12>`
??Hal_Init?relay    SYMBOL "?relay", Hal_Init
`?<Name Hal_ProcessEvent 15>` SYMBOL "Hal_ProcessEvent"
??Hal_ProcessEvent?relay SYMBOL "?relay", `?<Name Hal_ProcessEvent 15>`
`?<Name MT_ProcessEvent 17>` SYMBOL "MT_ProcessEvent"
??MT_ProcessEvent?relay SYMBOL "?relay", `?<Name MT_ProcessEvent 17>`
??MT_TaskInit?relay SYMBOL "?relay", MT_TaskInit
??ZDApp_Init?relay  SYMBOL "?relay", ZDApp_Init
`?<Name ZDApp_event_loop 21>` SYMBOL "ZDApp_event_loop"
??ZDApp_event_loop?relay SYMBOL "?relay", `?<Name ZDApp_event_loop 21>`
??ZDNwkMgr_Init?relay SYMBOL "?relay", ZDNwkMgr_Init
`?<Name ZDNwkMgr_event_loop 24>` SYMBOL "ZDNwkMgr_event_loop"
??ZDNwkMgr_event_loop?relay SYMBOL "?relay", `?<Name ZDNwkMgr_event_loop 24>`
`?<Name macEventLoop 26>` SYMBOL "macEventLoop"
??macEventLoop?relay SYMBOL "?relay", `?<Name macEventLoop 26>`
??macTaskInit?relay SYMBOL "?relay", macTaskInit
`?<Name nwk_event_loop 29>` SYMBOL "nwk_event_loop"
??nwk_event_loop?relay SYMBOL "?relay", `?<Name nwk_event_loop 29>`
??nwk_init?relay    SYMBOL "?relay", nwk_init
??osal_mem_alloc?relay SYMBOL "?relay", osal_mem_alloc
??osal_memset?relay SYMBOL "?relay", osal_memset
??zclZigbeeRecv_Init?relay SYMBOL "?relay", zclZigbeeRecv_Init
`?<Name zclZigbeeRecv_event_ 35>` SYMBOL "zclZigbeeRecv_event_loop"
??zclZigbeeRecv_event_loop?relay SYMBOL "?relay", `?<Name zclZigbeeRecv_event_ 35>`
??zcl_Init?relay    SYMBOL "?relay", zcl_Init
`?<Name zcl_event_loop 38>` SYMBOL "zcl_event_loop"
??zcl_event_loop?relay SYMBOL "?relay", `?<Name zcl_event_loop 38>`
osalInitTasks       SYMBOL "osalInitTasks"
??osalInitTasks?relay SYMBOL "?relay", osalInitTasks

        EXTERN osal_mem_alloc
        FUNCTION osal_mem_alloc,0202H
        ARGFRAME ISTACK, 2, STACK
        ARGFRAME PSTACK, 0, STACK
        ARGFRAME XSTACK, 0, STACK
        ARGFRAME IOVERLAY, 0, STATIC
        ARGFRAME DOVERLAY, 0, STATIC
        EXTERN osal_memset
        FUNCTION osal_memset,0202H
        ARGFRAME ISTACK, 2, STACK
        ARGFRAME PSTACK, 0, STACK
        ARGFRAME XSTACK, 0, STACK
        ARGFRAME IOVERLAY, 0, STATIC
        ARGFRAME DOVERLAY, 0, STATIC
        EXTERN macTaskInit
        FUNCTION macTaskInit,0202H
        ARGFRAME ISTACK, 2, STACK
        ARGFRAME PSTACK, 0, STACK
        ARGFRAME XSTACK, 0, STACK
        ARGFRAME IOVERLAY, 0, STATIC
        ARGFRAME DOVERLAY, 0, STATIC
        EXTERN nwk_init
        FUNCTION nwk_init,0202H
        ARGFRAME ISTACK, 2, STACK
        ARGFRAME PSTACK, 0, STACK
        ARGFRAME XSTACK, 0, STACK
        ARGFRAME IOVERLAY, 0, STATIC
        ARGFRAME DOVERLAY, 0, STATIC
        EXTERN Hal_Init
        FUNCTION Hal_Init,0202H
        ARGFRAME ISTACK, 2, STACK
        ARGFRAME PSTACK, 0, STACK
        ARGFRAME XSTACK, 0, STACK
        ARGFRAME IOVERLAY, 0, STATIC
        ARGFRAME DOVERLAY, 0, STATIC
        EXTERN MT_TaskInit
        FUNCTION MT_TaskInit,0202H
        ARGFRAME ISTACK, 2, STACK
        ARGFRAME PSTACK, 0, STACK
        ARGFRAME XSTACK, 0, STACK
        ARGFRAME IOVERLAY, 0, STATIC
        ARGFRAME DOVERLAY, 0, STATIC
        EXTERN APS_Init
        FUNCTION APS_Init,0202H
        ARGFRAME ISTACK, 2, STACK
        ARGFRAME PSTACK, 0, STACK
        ARGFRAME XSTACK, 0, STACK
        ARGFRAME IOVERLAY, 0, STATIC
        ARGFRAME DOVERLAY, 0, STATIC
        EXTERN ZDApp_Init
        FUNCTION ZDApp_Init,0202H
        ARGFRAME ISTACK, 2, STACK
        ARGFRAME PSTACK, 0, STACK
        ARGFRAME XSTACK, 0, STACK
        ARGFRAME IOVERLAY, 0, STATIC
        ARGFRAME DOVERLAY, 0, STATIC
        EXTERN ZDNwkMgr_Init
        FUNCTION ZDNwkMgr_Init,0202H
        ARGFRAME ISTACK, 2, STACK
        ARGFRAME PSTACK, 0, STACK
        ARGFRAME XSTACK, 0, STACK
        ARGFRAME IOVERLAY, 0, STATIC
        ARGFRAME DOVERLAY, 0, STATIC
        EXTERN zcl_Init
        FUNCTION zcl_Init,0202H
        ARGFRAME ISTACK, 2, STACK
        ARGFRAME PSTACK, 0, STACK
        ARGFRAME XSTACK, 0, STACK
        ARGFRAME IOVERLAY, 0, STATIC
        ARGFRAME DOVERLAY, 0, STATIC
        EXTERN zclZigbeeRecv_Init
        FUNCTION zclZigbeeRecv_Init,0202H
        ARGFRAME ISTACK, 2, STACK
        ARGFRAME PSTACK, 0, STACK
        ARGFRAME XSTACK, 0, STACK
        ARGFRAME IOVERLAY, 0, STATIC
        ARGFRAME DOVERLAY, 0, STATIC
        EXTERN ??APS_Init?relay
        FUNCTION ??APS_Init?relay,00H
        EXTERN ??APS_event_loop?relay
        FUNCTION ??APS_event_loop?relay,00H
        EXTERN ??Hal_Init?relay
        FUNCTION ??Hal_Init?relay,00H
        EXTERN ??Hal_ProcessEvent?relay
        FUNCTION ??Hal_ProcessEvent?relay,00H
        EXTERN ??MT_ProcessEvent?relay
        FUNCTION ??MT_ProcessEvent?relay,00H
        EXTERN ??MT_TaskInit?relay
        FUNCTION ??MT_TaskInit?relay,00H
        EXTERN ??ZDApp_Init?relay
        FUNCTION ??ZDApp_Init?relay,00H
        EXTERN ??ZDApp_event_loop?relay
        FUNCTION ??ZDApp_event_loop?relay,00H
        EXTERN ??ZDNwkMgr_Init?relay
        FUNCTION ??ZDNwkMgr_Init?relay,00H
        EXTERN ??ZDNwkMgr_event_loop?relay
        FUNCTION ??ZDNwkMgr_event_loop?relay,00H
        EXTERN ??macEventLoop?relay
        FUNCTION ??macEventLoop?relay,00H
        EXTERN ??macTaskInit?relay
        FUNCTION ??macTaskInit?relay,00H
        EXTERN ??nwk_event_loop?relay
        FUNCTION ??nwk_event_loop?relay,00H
        EXTERN ??nwk_init?relay
        FUNCTION ??nwk_init?relay,00H
        EXTERN ??osal_mem_alloc?relay
        FUNCTION ??osal_mem_alloc?relay,00H
        EXTERN ??osal_memset?relay
        FUNCTION ??osal_memset?relay,00H
        EXTERN ??zclZigbeeRecv_Init?relay
        FUNCTION ??zclZigbeeRecv_Init?relay,00H
        EXTERN ??zclZigbeeRecv_event_loop?relay
        FUNCTION ??zclZigbeeRecv_event_loop?relay,00H
        EXTERN ??zcl_Init?relay
        FUNCTION ??zcl_Init?relay,00H
        EXTERN ??zcl_event_loop?relay
        FUNCTION ??zcl_event_loop?relay,00H

// D:\z-stack_813\z-stack\Sensor Network Example\Projects\zstack\Sensor Network Application\ZIGBEE Coordinator & Router\Source\OSAL_ZIGBEE Receiver.c
//    1 /**************************************************************************************************
//    2   Filename:       OSAL_ZIGBEE Receiver.c
//    3   Revised:        $Date: 2008-02-07 12:10:00 -0800 (Thu, 07 Feb 2008) $
//    4   Revision:       $Revision: 16360 $
//    5 
//    6   Description:    This file contains all the settings and other functions
//    7                   that the user should set and change.
//    8 
//    9   Copyright 2006-2007 Texas Instruments Incorporated. All rights reserved.
//   10 
//   11   Should you have any questions regarding your right to use this Software,
//   12   contact Texas Instruments Incorporated at www.TI.com.
//   13 **************************************************************************************************/
//   14 
//   15 /*********************************************************************
//   16  * INCLUDES
//   17  */
//   18 #include "ZComDef.h"
//   19 
//   20 /* HAL */
//   21 #include "hal_drivers.h"
//   22 #include "hal_uart.h"
//   23 
//   24 /* OSAL */
//   25 #include "OSAL.h"
//   26 #include "OSAL_Tasks.h"
//   27 
//   28 /* MT */
//   29 #if defined ( MT_TASK )
//   30   #include "MT.h"
//   31   #include "MT_TASK.h"
//   32 #endif
//   33 
//   34 /* NWK */
//   35 #include "nwk.h"
//   36 #include "APS.h"
//   37 
//   38 /* ZDO */
//   39 #include "ZDApp.h"
//   40 #if defined ( ZIGBEE_FREQ_AGILITY ) || defined ( ZIGBEE_PANID_CONFLICT )
//   41   #include "ZDNwkMgr.h"
//   42 #endif
//   43 #if defined ( ZIGBEE_FRAGMENTATION )
//   44   #include "aps_frag.h"
//   45 #endif
//   46 
//   47 /* APP */
//   48 #include "zcl_zigbee receiver.h"
//   49 
//   50 /*********************************************************************
//   51  * GLOBAL VARIABLES
//   52  */
//   53 
//   54 // The order in this table must be identical to the task initialization calls below in osalInitTask.

        RSEG XDATA_ROM_C:CONST:REORDER:NOROOT(0)
        DATA
//   55 const pTaskEventHandlerFn tasksArr[] = {
tasksArr:
        DW ??macEventLoop?relay, ??nwk_event_loop?relay
        DW ??Hal_ProcessEvent?relay, ??MT_ProcessEvent?relay
        DW ??APS_event_loop?relay, ??ZDApp_event_loop?relay
        DW ??ZDNwkMgr_event_loop?relay, ??zcl_event_loop?relay
        DW ??zclZigbeeRecv_event_loop?relay
//   56   macEventLoop,
//   57   nwk_event_loop,
//   58   Hal_ProcessEvent,
//   59 #if defined( MT_TASK )
//   60   MT_ProcessEvent,
//   61 #endif
//   62   APS_event_loop,
//   63 #if defined ( ZIGBEE_FRAGMENTATION )
//   64   APSF_ProcessEvent,
//   65 #endif
//   66   ZDApp_event_loop,
//   67 #if defined ( ZIGBEE_FREQ_AGILITY ) || defined ( ZIGBEE_PANID_CONFLICT )
//   68   ZDNwkMgr_event_loop,
//   69 #endif
//   70   zcl_event_loop,
//   71 //  zclZigbeeSendMsg_event_loop,  
//   72   zclZigbeeRecv_event_loop,
//   73 };
//   74 

        RSEG XDATA_ROM_C:CONST:REORDER:NOROOT(0)
        DATA
//   75 const uint8 tasksCnt = sizeof( tasksArr ) / sizeof( tasksArr[0] );
tasksCnt:
        DB 9

        RSEG XDATA_Z:XDATA:NOROOT(0)
//   76 uint16 *tasksEvents;
tasksEvents:
        DS 2
        REQUIRE __INIT_XDATA_Z
//   77 
//   78 /*********************************************************************
//   79  * FUNCTIONS
//   80  *********************************************************************/
//   81 
//   82 /*********************************************************************
//   83  * @fn      osalInitTasks
//   84  * @brief   This function invokes the initialization function for each task.
//   85  * @param   void
//   86  */

        RSEG BANKED_CODE:CODE:NOROOT(0)
//   87 void osalInitTasks( void )
osalInitTasks:
        CFI Block cfiBlock0 Using cfiCommon0
        CFI Function osalInitTasks
//   88 {
        FUNCALL osalInitTasks, osal_mem_alloc
        LOCFRAME ISTACK, 2, STACK
        LOCFRAME PSTACK, 0, STACK
        LOCFRAME XSTACK, 0, STACK
        LOCFRAME IOVERLAY, 0, STATIC
        LOCFRAME DOVERLAY, 0, STATIC
        ARGFRAME ISTACK, 2, STACK
        ARGFRAME PSTACK, 0, STACK
        ARGFRAME XSTACK, 0, STACK
        ARGFRAME IOVERLAY, 0, STATIC
        ARGFRAME DOVERLAY, 0, STATIC
        FUNCALL osalInitTasks, osal_memset
        LOCFRAME ISTACK, 2, STACK
        LOCFRAME PSTACK, 0, STACK
        LOCFRAME XSTACK, 0, STACK
        LOCFRAME IOVERLAY, 0, STATIC
        LOCFRAME DOVERLAY, 0, STATIC
        ARGFRAME ISTACK, 2, STACK
        ARGFRAME PSTACK, 0, STACK
        ARGFRAME XSTACK, 0, STACK
        ARGFRAME IOVERLAY, 0, STATIC
        ARGFRAME DOVERLAY, 0, STATIC
        FUNCALL osalInitTasks, macTaskInit
        LOCFRAME ISTACK, 2, STACK
        LOCFRAME PSTACK, 0, STACK
        LOCFRAME XSTACK, 0, STACK
        LOCFRAME IOVERLAY, 0, STATIC
        LOCFRAME DOVERLAY, 0, STATIC
        ARGFRAME ISTACK, 2, STACK
        ARGFRAME PSTACK, 0, STACK
        ARGFRAME XSTACK, 0, STACK
        ARGFRAME IOVERLAY, 0, STATIC
        ARGFRAME DOVERLAY, 0, STATIC
        FUNCALL osalInitTasks, nwk_init
        LOCFRAME ISTACK, 2, STACK
        LOCFRAME PSTACK, 0, STACK
        LOCFRAME XSTACK, 0, STACK
        LOCFRAME IOVERLAY, 0, STATIC
        LOCFRAME DOVERLAY, 0, STATIC
        ARGFRAME ISTACK, 2, STACK
        ARGFRAME PSTACK, 0, STACK
        ARGFRAME XSTACK, 0, STACK
        ARGFRAME IOVERLAY, 0, STATIC
        ARGFRAME DOVERLAY, 0, STATIC
        FUNCALL osalInitTasks, Hal_Init
        LOCFRAME ISTACK, 2, STACK
        LOCFRAME PSTACK, 0, STACK
        LOCFRAME XSTACK, 0, STACK
        LOCFRAME IOVERLAY, 0, STATIC
        LOCFRAME DOVERLAY, 0, STATIC
        ARGFRAME ISTACK, 2, STACK
        ARGFRAME PSTACK, 0, STACK
        ARGFRAME XSTACK, 0, STACK
        ARGFRAME IOVERLAY, 0, STATIC
        ARGFRAME DOVERLAY, 0, STATIC
        FUNCALL osalInitTasks, MT_TaskInit
        LOCFRAME ISTACK, 2, STACK
        LOCFRAME PSTACK, 0, STACK
        LOCFRAME XSTACK, 0, STACK
        LOCFRAME IOVERLAY, 0, STATIC
        LOCFRAME DOVERLAY, 0, STATIC
        ARGFRAME ISTACK, 2, STACK
        ARGFRAME PSTACK, 0, STACK
        ARGFRAME XSTACK, 0, STACK
        ARGFRAME IOVERLAY, 0, STATIC
        ARGFRAME DOVERLAY, 0, STATIC
        FUNCALL osalInitTasks, APS_Init
        LOCFRAME ISTACK, 2, STACK
        LOCFRAME PSTACK, 0, STACK
        LOCFRAME XSTACK, 0, STACK
        LOCFRAME IOVERLAY, 0, STATIC
        LOCFRAME DOVERLAY, 0, STATIC
        ARGFRAME ISTACK, 2, STACK
        ARGFRAME PSTACK, 0, STACK
        ARGFRAME XSTACK, 0, STACK
        ARGFRAME IOVERLAY, 0, STATIC
        ARGFRAME DOVERLAY, 0, STATIC
        FUNCALL osalInitTasks, ZDApp_Init
        LOCFRAME ISTACK, 2, STACK
        LOCFRAME PSTACK, 0, STACK
        LOCFRAME XSTACK, 0, STACK
        LOCFRAME IOVERLAY, 0, STATIC
        LOCFRAME DOVERLAY, 0, STATIC
        ARGFRAME ISTACK, 2, STACK
        ARGFRAME PSTACK, 0, STACK
        ARGFRAME XSTACK, 0, STACK
        ARGFRAME IOVERLAY, 0, STATIC
        ARGFRAME DOVERLAY, 0, STATIC
        FUNCALL osalInitTasks, ZDNwkMgr_Init
        LOCFRAME ISTACK, 2, STACK
        LOCFRAME PSTACK, 0, STACK
        LOCFRAME XSTACK, 0, STACK
        LOCFRAME IOVERLAY, 0, STATIC
        LOCFRAME DOVERLAY, 0, STATIC
        ARGFRAME ISTACK, 2, STACK
        ARGFRAME PSTACK, 0, STACK
        ARGFRAME XSTACK, 0, STACK
        ARGFRAME IOVERLAY, 0, STATIC
        ARGFRAME DOVERLAY, 0, STATIC
        FUNCALL osalInitTasks, zcl_Init
        LOCFRAME ISTACK, 2, STACK
        LOCFRAME PSTACK, 0, STACK
        LOCFRAME XSTACK, 0, STACK
        LOCFRAME IOVERLAY, 0, STATIC
        LOCFRAME DOVERLAY, 0, STATIC
        ARGFRAME ISTACK, 2, STACK
        ARGFRAME PSTACK, 0, STACK
        ARGFRAME XSTACK, 0, STACK
        ARGFRAME IOVERLAY, 0, STATIC
        ARGFRAME DOVERLAY, 0, STATIC
        FUNCALL osalInitTasks, zclZigbeeRecv_Init
        LOCFRAME ISTACK, 2, STACK
        LOCFRAME PSTACK, 0, STACK
        LOCFRAME XSTACK, 0, STACK
        LOCFRAME IOVERLAY, 0, STATIC
        LOCFRAME DOVERLAY, 0, STATIC
        ARGFRAME ISTACK, 2, STACK
        ARGFRAME PSTACK, 0, STACK
        ARGFRAME XSTACK, 0, STACK
        ARGFRAME IOVERLAY, 0, STATIC
        ARGFRAME DOVERLAY, 0, STATIC
        PUSH    DPL
        CFI DPL0 Frame(CFA_SP, 4)
        CFI CFA_SP SP+-4
        PUSH    DPH
        CFI DPH0 Frame(CFA_SP, 5)
        CFI CFA_SP SP+-5
        ; Saved register size: 2
        ; Auto size: 0
//   89   uint8 taskID = 0;
//   90 
//   91   tasksEvents = (uint16 *)osal_mem_alloc( sizeof( uint16 ) * tasksCnt);
        ; Setup parameters for call to function osal_mem_alloc
        MOV     R2,#0x12
        MOV     R3,#0x0
        LCALL   ??osal_mem_alloc?relay
        MOV     DPTR,#tasksEvents
        MOV     A,R2
        MOVX    @DPTR,A
        INC     DPTR
        MOV     A,R3
        MOVX    @DPTR,A
//   92   osal_memset( tasksEvents, 0, (sizeof( uint16 ) * tasksCnt));
        ; Setup parameters for call to function osal_memset
        MOV     R4,#0x12
        MOV     R5,#0x0
        MOV     R1,#0x0
        LCALL   ??osal_memset?relay
//   93 
//   94   macTaskInit( taskID++ );
        ; Setup parameters for call to function macTaskInit
        MOV     R1,#0x0
        LCALL   ??macTaskInit?relay
//   95   nwk_init( taskID++ );
        ; Setup parameters for call to function nwk_init
        MOV     R1,#0x1
        LCALL   ??nwk_init?relay
//   96   Hal_Init( taskID++ );
        ; Setup parameters for call to function Hal_Init
        MOV     R1,#0x2
        LCALL   ??Hal_Init?relay
//   97 #if defined( MT_TASK )
//   98   MT_TaskInit( taskID++ );
        ; Setup parameters for call to function MT_TaskInit
        MOV     R1,#0x3
        LCALL   ??MT_TaskInit?relay
//   99 #endif
//  100   APS_Init( taskID++ );
        ; Setup parameters for call to function APS_Init
        MOV     R1,#0x4
        LCALL   ??APS_Init?relay
//  101 #if defined ( ZIGBEE_FRAGMENTATION )
//  102   APSF_Init( taskID++ );
//  103 #endif
//  104   ZDApp_Init( taskID++ );
        ; Setup parameters for call to function ZDApp_Init
        MOV     R1,#0x5
        LCALL   ??ZDApp_Init?relay
//  105 #if defined ( ZIGBEE_FREQ_AGILITY ) || defined ( ZIGBEE_PANID_CONFLICT )
//  106   ZDNwkMgr_Init( taskID++ );
        ; Setup parameters for call to function ZDNwkMgr_Init
        MOV     R1,#0x6
        LCALL   ??ZDNwkMgr_Init?relay
//  107 #endif
//  108   zcl_Init( taskID++ );
        ; Setup parameters for call to function zcl_Init
        MOV     R1,#0x7
        LCALL   ??zcl_Init?relay
//  109   zclZigbeeRecv_Init( taskID );
        ; Setup parameters for call to function zclZigbeeRecv_Init
        MOV     R1,#0x8
        LCALL   ??zclZigbeeRecv_Init?relay
//  110 }
        POP     DPH
        CFI DPH0 SameValue
        CFI CFA_SP SP+-4
        POP     DPL
        CFI DPL0 SameValue
        CFI CFA_SP SP+-3
        LJMP    ?BRET
        CFI EndBlock cfiBlock0

        RSEG BANK_RELAYS:CODE:REORDER:NOROOT(0)
??osalInitTasks?relay:
        LCALL   ?BDISPATCH
        DATA
        DC24    osalInitTasks

        END
//  111 
//  112 /*********************************************************************
//  113 *********************************************************************/
// 
// 80 bytes in segment BANKED_CODE
//  6 bytes in segment BANK_RELAYS
// 19 bytes in segment XDATA_ROM_C
//  2 bytes in segment XDATA_Z
// 
// 86 bytes of CODE  memory
// 19 bytes of CONST memory
//  2 bytes of XDATA memory
//
//Errors: none
//Warnings: none
