///////////////////////////////////////////////////////////////////////////////
//                                                                            /
// IAR C/C++ Compiler V7.51A/W32 for 8051               19/Aug/2013  00:54:15 /
// Copyright 2004-2009 IAR Systems AB.                                        /
//                                                                            /
//    Core               =  plain                                             /
//    Code model         =  banked                                            /
//    Data model         =  large                                             /
//    Calling convention =  xdata reentrant                                   /
//    Constant location  =  data_rom                                          /
//    Dptr setup         =  1,16                                              /
//    Source file        =  C:\GitHub\z-stack\Sensor Network                  /
//                          Example\Projects\zstack\Sensor Network            /
//                          Application\ZIGBEE Coordinator &                  /
//                          Router\Source\zcl_zigbee receiver.c               /
//    Command line       =  -f "C:\GitHub\z-stack\Sensor Network              /
//                          Example\Projects\zstack\Sensor Network            /
//                          Application\ZIGBEE Coordinator &                  /
//                          Router\CC2530DB\..\..\..\Tools\CC2530DB\f8wCoord. /
//                          cfg" (-DCPU32MHZ -DROOT=__near_func               /
//                          -DMAC_CFG_APP_PENDING_QUEUE=TRUE                  /
//                          -DZDO_COORDINATOR -DRTR_NWK -DBLINK_LEDS) -f      /
//                          "C:\GitHub\z-stack\Sensor Network                 /
//                          Example\Projects\zstack\Sensor Network            /
//                          Application\ZIGBEE Coordinator &                  /
//                          Router\CC2530DB\..\..\..\Tools\CC2530DB\f8wConfig /
//                          .cfg" (-DSECURE=0 -DZG_SECURE_DYNAMIC=0           /
//                          -DREFLECTOR -DDEFAULT_CHANLIST=0x00000800         /
//                          -DZDAPP_CONFIG_PAN_ID=0xFFFF                      /
//                          -DNWK_START_DELAY=100 -DEXTENDED_JOINING_RANDOM_M /
//                          ASK=0x007F -DBEACON_REQUEST_DELAY=100             /
//                          -DBEACON_REQ_DELAY_MASK=0x00FF                    /
//                          -DROUTE_EXPIRY_TIME=30 -DAPSC_ACK_WAIT_DURATION_P /
//                          OLLED=3000 -DNWK_INDIRECT_MSG_TIMEOUT=7           /
//                          -DMAX_RREQ_ENTRIES=8 -DAPSC_MAX_FRAME_RETRIES=3   /
//                          -DNWK_MAX_DATA_RETRIES=2                          /
//                          -DMAX_POLL_FAILURE_RETRIES=2 -DMAX_BCAST=9        /
//                          -DAPS_MAX_GROUPS=16 -DMAX_RTG_ENTRIES=40          /
//                          -DNWK_MAX_BINDING_ENTRIES=4                       /
//                          -DMAX_BINDING_CLUSTER_IDS=4                       /
//                          "-DDEFAULT_KEY={0x01, 0x03, 0x05, 0x07, 0x09,     /
//                          0x0B, 0x0D, 0x0F, 0x00, 0x02, 0x04, 0x06, 0x08,   /
//                          0x0A, 0x0C, 0x0D}" -DMAC_MAX_FRAME_SIZE=116       /
//                          "-DCONST=const __code" -DGENERIC=__generic        /
//                          -DRFD_RCVC_ALWAYS_ON=TRUE -DPOLL_RATE=1000        /
//                          -DQUEUED_POLL_RATE=100 -DRESPONSE_POLL_RATE=100   /
//                          -DREJOIN_POLL_RATE=440) -f                        /
//                          "C:\GitHub\z-stack\Sensor Network                 /
//                          Example\Projects\zstack\Sensor Network            /
//                          Application\ZIGBEE Coordinator &                  /
//                          Router\CC2530DB\..\..\..\Tools\CC2530DB\f8wZCL.cf /
//                          g" (-DZCL_READ -DZCL_WRITE -DZCL_BASIC            /
//                          -DZCL_IDENTIFY -DZCL_ON_OFF -DZCL_KEY_ESTABLISH   /
//                          -DZCL_LOAD_CONTROL -DZCL_SIMPLE_METERING          /
//                          -DZCL_PRICING) -DZCL_MESSAGE                      /
//                          "C:\GitHub\z-stack\Sensor Network                 /
//                          Example\Projects\zstack\Sensor Network            /
//                          Application\ZIGBEE Coordinator &                  /
//                          Router\Source\zcl_zigbee receiver.c" -D CC2530    /
//                          -D ZTOOL_P1 -D MT_TASK -D MT_APP_FUNC -D          /
//                          MT_SYS_FUNC -D MT_ZDO_FUNC -D                     /
//                          LCD_SUPPORTED=DEBUG -D Coor_receiver -D           /
//                          xHAL_KEYPAD -D xPA2591 -lC                        /
//                          "C:\GitHub\z-stack\Sensor Network                 /
//                          Example\Projects\zstack\Sensor Network            /
//                          Application\ZIGBEE Coordinator &                  /
//                          Router\CC2530DB\Coordinator_KB_PA\List\" -lA      /
//                          "C:\GitHub\z-stack\Sensor Network                 /
//                          Example\Projects\zstack\Sensor Network            /
//                          Application\ZIGBEE Coordinator &                  /
//                          Router\CC2530DB\Coordinator_KB_PA\List\"          /
//                          --diag_suppress Pe001,Pa010 -o                    /
//                          "C:\GitHub\z-stack\Sensor Network                 /
//                          Example\Projects\zstack\Sensor Network            /
//                          Application\ZIGBEE Coordinator &                  /
//                          Router\CC2530DB\Coordinator_KB_PA\Obj\" -e        /
//                          --require_prototypes --debug --core=plain         /
//                          --dptr=16,1 --data_model=large                    /
//                          --code_model=banked --calling_convention=xdata_re /
//                          entrant --place_constants=data_rom                /
//                          --nr_virtual_regs 16 -I                           /
//                          "C:\GitHub\z-stack\Sensor Network                 /
//                          Example\Projects\zstack\Sensor Network            /
//                          Application\ZIGBEE Coordinator &                  /
//                          Router\CC2530DB\" -I "C:\GitHub\z-stack\Sensor    /
//                          Network Example\Projects\zstack\Sensor Network    /
//                          Application\ZIGBEE Coordinator &                  /
//                          Router\CC2530DB\..\SOURCE\" -I                    /
//                          "C:\GitHub\z-stack\Sensor Network                 /
//                          Example\Projects\zstack\Sensor Network            /
//                          Application\ZIGBEE Coordinator &                  /
//                          Router\CC2530DB\..\..\SOURCE\" -I                 /
//                          "C:\GitHub\z-stack\Sensor Network                 /
//                          Example\Projects\zstack\Sensor Network            /
//                          Application\ZIGBEE Coordinator &                  /
//                          Router\CC2530DB\..\..\..\ZMAIN\TI2530DB\" -I      /
//                          "C:\GitHub\z-stack\Sensor Network                 /
//                          Example\Projects\zstack\Sensor Network            /
//                          Application\ZIGBEE Coordinator &                  /
//                          Router\CC2530DB\..\..\..\..\..\COMPONENTS\MT\"    /
//                          -I "C:\GitHub\z-stack\Sensor Network              /
//                          Example\Projects\zstack\Sensor Network            /
//                          Application\ZIGBEE Coordinator &                  /
//                          Router\CC2530DB\..\..\..\..\..\COMPONENTS\HAL\INC /
//                          LUDE\" -I "C:\GitHub\z-stack\Sensor Network       /
//                          Example\Projects\zstack\Sensor Network            /
//                          Application\ZIGBEE Coordinator &                  /
//                          Router\CC2530DB\..\..\..\..\..\COMPONENTS\HAL\TAR /
//                          GET\CC2530KB\" -I "C:\GitHub\z-stack\Sensor       /
//                          Network Example\Projects\zstack\Sensor Network    /
//                          Application\ZIGBEE Coordinator &                  /
//                          Router\CC2530DB\..\..\..\..\..\COMPONENTS\OSAL\MC /
//                          U\CCSOC\" -I "C:\GitHub\z-stack\Sensor Network    /
//                          Example\Projects\zstack\Sensor Network            /
//                          Application\ZIGBEE Coordinator &                  /
//                          Router\CC2530DB\..\..\..\..\..\COMPONENTS\OSAL\IN /
//                          CLUDE\" -I "C:\GitHub\z-stack\Sensor Network      /
//                          Example\Projects\zstack\Sensor Network            /
//                          Application\ZIGBEE Coordinator &                  /
//                          Router\CC2530DB\..\..\..\..\..\COMPONENTS\STACK\A /
//                          F\" -I "C:\GitHub\z-stack\Sensor Network          /
//                          Example\Projects\zstack\Sensor Network            /
//                          Application\ZIGBEE Coordinator &                  /
//                          Router\CC2530DB\..\..\..\..\..\COMPONENTS\STACK\N /
//                          WK\" -I "C:\GitHub\z-stack\Sensor Network         /
//                          Example\Projects\zstack\Sensor Network            /
//                          Application\ZIGBEE Coordinator &                  /
//                          Router\CC2530DB\..\..\..\..\..\COMPONENTS\STACK\S /
//                          EC\" -I "C:\GitHub\z-stack\Sensor Network         /
//                          Example\Projects\zstack\Sensor Network            /
//                          Application\ZIGBEE Coordinator &                  /
//                          Router\CC2530DB\..\..\..\..\..\COMPONENTS\STACK\S /
//                          API\" -I "C:\GitHub\z-stack\Sensor Network        /
//                          Example\Projects\zstack\Sensor Network            /
//                          Application\ZIGBEE Coordinator &                  /
//                          Router\CC2530DB\..\..\..\..\..\COMPONENTS\STACK\S /
//                          YS\" -I "C:\GitHub\z-stack\Sensor Network         /
//                          Example\Projects\zstack\Sensor Network            /
//                          Application\ZIGBEE Coordinator &                  /
//                          Router\CC2530DB\..\..\..\..\..\COMPONENTS\STACK\Z /
//                          CL\" -I "C:\GitHub\z-stack\Sensor Network         /
//                          Example\Projects\zstack\Sensor Network            /
//                          Application\ZIGBEE Coordinator &                  /
//                          Router\CC2530DB\..\..\..\..\..\COMPONENTS\STACK\Z /
//                          DO\" -I "C:\GitHub\z-stack\Sensor Network         /
//                          Example\Projects\zstack\Sensor Network            /
//                          Application\ZIGBEE Coordinator &                  /
//                          Router\CC2530DB\..\..\..\..\..\COMPONENTS\ZMAC\F8 /
//                          W\" -I "C:\GitHub\z-stack\Sensor Network          /
//                          Example\Projects\zstack\Sensor Network            /
//                          Application\ZIGBEE Coordinator &                  /
//                          Router\CC2530DB\..\..\..\..\..\COMPONENTS\ZMAC\"  /
//                          -I "C:\GitHub\z-stack\Sensor Network              /
//                          Example\Projects\zstack\Sensor Network            /
//                          Application\ZIGBEE Coordinator &                  /
//                          Router\CC2530DB\..\..\..\..\..\COMPONENTS\SERVICE /
//                          S\SADDR\" -I "C:\GitHub\z-stack\Sensor Network    /
//                          Example\Projects\zstack\Sensor Network            /
//                          Application\ZIGBEE Coordinator &                  /
//                          Router\CC2530DB\..\..\..\..\..\COMPONENTS\SERVICE /
//                          S\SDATA\" -I "C:\GitHub\z-stack\Sensor Network    /
//                          Example\Projects\zstack\Sensor Network            /
//                          Application\ZIGBEE Coordinator &                  /
//                          Router\CC2530DB\..\..\..\..\..\COMPONENTS\MAC\INC /
//                          LUDE\" -I "C:\GitHub\z-stack\Sensor Network       /
//                          Example\Projects\zstack\Sensor Network            /
//                          Application\ZIGBEE Coordinator &                  /
//                          Router\CC2530DB\..\..\..\..\..\COMPONENTS\MAC\HIG /
//                          H_LEVEL\" -I "C:\GitHub\z-stack\Sensor Network    /
//                          Example\Projects\zstack\Sensor Network            /
//                          Application\ZIGBEE Coordinator &                  /
//                          Router\CC2530DB\..\..\..\..\..\COMPONENTS\MAC\LOW /
//                          _LEVEL\srf04\" -I "C:\GitHub\z-stack\Sensor       /
//                          Network Example\Projects\zstack\Sensor Network    /
//                          Application\ZIGBEE Coordinator &                  /
//                          Router\CC2530DB\..\..\..\..\..\COMPONENTS\MAC\LOW /
//                          _LEVEL\srf04\SINGLE_CHIP\" -I "C:\Program         /
//                          Files\IAR Systems\Embedded Workbench              /
//                          5.3\8051\INC\" -I "C:\Program Files\IAR           /
//                          Systems\Embedded Workbench 5.3\8051\INC\CLIB\"    /
//                          -Ohz                                              /
//    List file          =  C:\GitHub\z-stack\Sensor Network                  /
//                          Example\Projects\zstack\Sensor Network            /
//                          Application\ZIGBEE Coordinator &                  /
//                          Router\CC2530DB\Coordinator_KB_PA\List\zcl_zigbee /
//                           receiver.s51                                     /
//                                                                            /
//                                                                            /
///////////////////////////////////////////////////////////////////////////////

        NAME `zcl_zigbee receiver`

        RTMODEL "__calling_convention", "xdata_reentrant"
        RTMODEL "__code_model", "banked"
        RTMODEL "__core", "plain"
        RTMODEL "__data_model", "large"
        RTMODEL "__dptr_size", "16"
        RTMODEL "__extended_stack", "disabled"
        RTMODEL "__location_for_constants", "data"
        RTMODEL "__number_of_dptrs", "1"
        RTMODEL "__rt_version", "1"

        RSEG DOVERLAY:DATA:NOROOT(0)
        RSEG IOVERLAY:IDATA:NOROOT(0)
        RSEG ISTACK:IDATA:NOROOT(0)
        RSEG PSTACK:XDATA:NOROOT(0)
        RSEG XSTACK:XDATA:NOROOT(0)

        EXTERN ??ZSendMsgProcess?relay
        EXTERN ??zclUartReceiver?relay
        EXTERN ??zclZigbeeReceiver_ProcessIdentifyTimeChange?r
        EXTERN ?ALLOC_XSTACK8
        EXTERN ?BANKED_ENTER_XDATA
        EXTERN ?BANKED_LEAVE_XDATA
        EXTERN ?BDISPATCH
        EXTERN ?BRET
        EXTERN ?DEALLOC_XSTACK8
        EXTERN ?PUSH_XSTACK_I_ONE
        EXTERN ?PUSH_XSTACK_I_THREE
        EXTERN ?PUSH_XSTACK_I_TWO
        EXTERN ?UC_SWITCH_SPARSE
        EXTERN ?US_SWITCH_SPARSE
        EXTERN ?V0
        EXTERN ?XSP
        EXTERN ?XSTACK_DISP0_8
        EXTERN __INIT_XDATA_I
        EXTERN __INIT_XDATA_Z

        PUBLIC ??ZSendMsgProcess?relay
        FUNCTION ??ZSendMsgProcess?relay,0203H
        PUBLIC ??zclUARTMsg_CallBack?relay
        FUNCTION ??zclUARTMsg_CallBack?relay,0203H
        PUBLIC ??zclUartReceiver?relay
        FUNCTION ??zclUartReceiver?relay,0203H
        FUNCTION ??zclZigbeeReceiver_BasicResetCB?relay,0203H
        FUNCTION ??zclZigbeeReceiver_IdentifyCB?relay,0203H
        FUNCTION ??zclZigbeeReceiver_IdentifyQueryRspCB?relay,0203H
        FUNCTION ??zclZigbeeReceiver_OnOffCB?relay,0203H
        FUNCTION ??zclZigbeeReceiver_ProcessIdentifyTimeChange?r,0203H
        PUBLIC ??zclZigbeeRecv_Init?relay
        FUNCTION ??zclZigbeeRecv_Init?relay,0203H
        PUBLIC ??zclZigbeeRecv_event_loop?relay
        FUNCTION ??zclZigbeeRecv_event_loop?relay,0203H
        PUBLIC TransmitApp_Msg
        PUBLIC UartTransmit_Msg
        PUBLIC ZDO_MSG_SEND_ID
        PUBLIC ZSendMsgProcess
        FUNCTION ZSendMsgProcess,021203H
        ARGFRAME XSTACK, 23, STACK
        ARGFRAME IOVERLAY, 0, STATIC
        ARGFRAME DOVERLAY, 0, STATIC
        LOCFRAME ISTACK, 2, STACK
        PUBLIC len
        PUBLIC send_msg_counter
        PUBLIC uart_recv
        PUBLIC zclUARTMsg_CallBack
        FUNCTION zclUARTMsg_CallBack,021203H
        ARGFRAME XSTACK, 0, STACK
        LOCFRAME XSTACK, 10, STACK
        PUBLIC zclUartReceiver
        FUNCTION zclUartReceiver,021203H
        ARGFRAME XSTACK, 23, STACK
        ARGFRAME IOVERLAY, 0, STATIC
        ARGFRAME DOVERLAY, 0, STATIC
        LOCFRAME ISTACK, 1, STACK
        LOCFRAME XSTACK, 21, STACK
        FUNCTION zclZigbeeReceiver_BasicResetCB,0603H
        ARGFRAME XSTACK, 0, STACK
        FUNCTION zclZigbeeReceiver_IdentifyCB,021603H
        ARGFRAME XSTACK, 0, STACK
        LOCFRAME ISTACK, 2, STACK
        FUNCTION zclZigbeeReceiver_IdentifyQueryRspCB,0603H
        ARGFRAME XSTACK, 0, STACK
        FUNCTION zclZigbeeReceiver_OnOffCB,021603H
        ARGFRAME XSTACK, 0, STACK
        LOCFRAME ISTACK, 2, STACK
        FUNCTION zclZigbeeReceiver_ProcessIdentifyTimeChange,021203H
        ARGFRAME XSTACK, 23, STACK
        ARGFRAME IOVERLAY, 0, STATIC
        ARGFRAME DOVERLAY, 0, STATIC
        LOCFRAME ISTACK, 2, STACK
        PUBLIC zclZigbeeReceiver_TaskID
        PUBLIC zclZigbeeRecv_DstAddr
        PUBLIC zclZigbeeRecv_Group
        PUBLIC zclZigbeeRecv_Init
        FUNCTION zclZigbeeRecv_Init,021203H
        ARGFRAME XSTACK, 0, STACK
        LOCFRAME XSTACK, 14, STACK
        PUBLIC zclZigbeeRecv_event_loop
        FUNCTION zclZigbeeRecv_event_loop,0a1203H
        ARGFRAME XSTACK, 0, STACK
        LOCFRAME ISTACK, 1, STACK
        LOCFRAME XSTACK, 32, STACK
        
        CFI Names cfiNames0
        CFI StackFrame CFA_SP SP IDATA
        CFI StackFrame CFA_PSP16 PSP16 XDATA
        CFI StackFrame CFA_XSP16 XSP16 XDATA
        CFI StaticOverlayFrame CFA_IOVERLAY IOVERLAY
        CFI StaticOverlayFrame CFA_DOVERLAY DOVERLAY
        CFI Resource `PSW.CY`:1, `B.BR0`:1, `B.BR1`:1, `B.BR2`:1, `B.BR3`:1
        CFI Resource `B.BR4`:1, `B.BR5`:1, `B.BR6`:1, `B.BR7`:1, `VB.BR8`:1
        CFI Resource `VB.BR9`:1, `VB.BR10`:1, `VB.BR11`:1, `VB.BR12`:1
        CFI Resource `VB.BR13`:1, `VB.BR14`:1, `VB.BR15`:1, VB:8, B:8, A:8
        CFI Resource PSW:8, DPL0:8, DPH0:8, R0:8, R1:8, R2:8, R3:8, R4:8, R5:8
        CFI Resource R6:8, R7:8, V0:8, V1:8, V2:8, V3:8, V4:8, V5:8, V6:8, V7:8
        CFI Resource V8:8, V9:8, V10:8, V11:8, V12:8, V13:8, V14:8, V15:8, SP:8
        CFI Resource PSPH:8, PSPL:8, PSP16:16, XSPH:8, XSPL:8, XSP16:16
        CFI VirtualResource ?RET:24
        CFI Resource ?BRET_EXT:8
        CFI VirtualResource ?RET_HIGH:8, ?RET_LOW:8
        CFI ResourceParts PSP16 PSPH, PSPL
        CFI ResourceParts XSP16 XSPH, XSPL
        CFI ResourceParts ?RET ?BRET_EXT, ?RET_HIGH, ?RET_LOW
        CFI EndNames cfiNames0
        
        CFI Common cfiCommon0 Using cfiNames0
        CFI CodeAlign 1
        CFI DataAlign -1
        CFI ReturnAddress ?RET CODE
        CFI CFA_DOVERLAY Used
        CFI CFA_IOVERLAY Used
        CFI CFA_SP SP+-3
        CFI CFA_PSP16 PSP16+0
        CFI CFA_XSP16 XSP16+0
        CFI `PSW.CY` SameValue
        CFI `B.BR0` SameValue
        CFI `B.BR1` SameValue
        CFI `B.BR2` SameValue
        CFI `B.BR3` SameValue
        CFI `B.BR4` SameValue
        CFI `B.BR5` SameValue
        CFI `B.BR6` SameValue
        CFI `B.BR7` SameValue
        CFI `VB.BR8` SameValue
        CFI `VB.BR9` SameValue
        CFI `VB.BR10` SameValue
        CFI `VB.BR11` SameValue
        CFI `VB.BR12` SameValue
        CFI `VB.BR13` SameValue
        CFI `VB.BR14` SameValue
        CFI `VB.BR15` SameValue
        CFI VB SameValue
        CFI B Undefined
        CFI A Undefined
        CFI PSW SameValue
        CFI DPL0 SameValue
        CFI DPH0 SameValue
        CFI R0 Undefined
        CFI R1 Undefined
        CFI R2 Undefined
        CFI R3 Undefined
        CFI R4 Undefined
        CFI R5 Undefined
        CFI R6 SameValue
        CFI R7 SameValue
        CFI V0 SameValue
        CFI V1 SameValue
        CFI V2 SameValue
        CFI V3 SameValue
        CFI V4 SameValue
        CFI V5 SameValue
        CFI V6 SameValue
        CFI V7 SameValue
        CFI V8 SameValue
        CFI V9 SameValue
        CFI V10 SameValue
        CFI V11 SameValue
        CFI V12 SameValue
        CFI V13 SameValue
        CFI V14 SameValue
        CFI V15 SameValue
        CFI PSPH Undefined
        CFI PSPL Undefined
        CFI XSPH Undefined
        CFI XSPL Undefined
        CFI ?RET Concat
        CFI ?BRET_EXT Frame(CFA_SP, 3)
        CFI ?RET_HIGH Frame(CFA_SP, 2)
        CFI ?RET_LOW Frame(CFA_SP, 1)
        CFI EndCommon cfiCommon0
        
        
        CFI Common cfiCommon1 Using cfiNames0
        CFI CodeAlign 1
        CFI DataAlign -1
        CFI ReturnAddress ?RET CODE
        CFI CFA_DOVERLAY Used
        CFI CFA_IOVERLAY Used
        CFI CFA_SP SP+-2
        CFI CFA_PSP16 PSP16+0
        CFI CFA_XSP16 XSP16+0
        CFI `PSW.CY` SameValue
        CFI `B.BR0` SameValue
        CFI `B.BR1` SameValue
        CFI `B.BR2` SameValue
        CFI `B.BR3` SameValue
        CFI `B.BR4` SameValue
        CFI `B.BR5` SameValue
        CFI `B.BR6` SameValue
        CFI `B.BR7` SameValue
        CFI `VB.BR8` SameValue
        CFI `VB.BR9` SameValue
        CFI `VB.BR10` SameValue
        CFI `VB.BR11` SameValue
        CFI `VB.BR12` SameValue
        CFI `VB.BR13` SameValue
        CFI `VB.BR14` SameValue
        CFI `VB.BR15` SameValue
        CFI VB SameValue
        CFI B SameValue
        CFI A SameValue
        CFI PSW SameValue
        CFI DPL0 SameValue
        CFI DPH0 SameValue
        CFI R0 SameValue
        CFI R1 SameValue
        CFI R2 SameValue
        CFI R3 SameValue
        CFI R4 SameValue
        CFI R5 SameValue
        CFI R6 SameValue
        CFI R7 SameValue
        CFI V0 SameValue
        CFI V1 SameValue
        CFI V2 SameValue
        CFI V3 SameValue
        CFI V4 SameValue
        CFI V5 SameValue
        CFI V6 SameValue
        CFI V7 SameValue
        CFI V8 SameValue
        CFI V9 SameValue
        CFI V10 SameValue
        CFI V11 SameValue
        CFI V12 SameValue
        CFI V13 SameValue
        CFI V14 SameValue
        CFI V15 SameValue
        CFI PSPH Undefined
        CFI PSPL Undefined
        CFI XSPH Undefined
        CFI XSPL Undefined
        CFI ?RET Concat
        CFI ?BRET_EXT SameValue
        CFI ?RET_HIGH Frame(CFA_SP, 2)
        CFI ?RET_LOW Frame(CFA_SP, 1)
        CFI EndCommon cfiCommon1
        
HalUARTWrite        SYMBOL "HalUARTWrite"
osal_start_timerEx  SYMBOL "osal_start_timerEx"
zclZD_Init          SYMBOL "zclZD_Init"
zclGeneral_RegisterCmdCallbacks SYMBOL "zclGeneral_RegisterCmdCallbacks"
zcl_registerAttrList SYMBOL "zcl_registerAttrList"
zcl_registerForMsg  SYMBOL "zcl_registerForMsg"
RegisterForKeys     SYMBOL "RegisterForKeys"
osal_memcpy         SYMBOL "osal_memcpy"
aps_AddGroup        SYMBOL "aps_AddGroup"
afRegister          SYMBOL "afRegister"
osal_set_event      SYMBOL "osal_set_event"
show                SYMBOL "show"
osal_msg_deallocate SYMBOL "osal_msg_deallocate"
osal_msg_receive    SYMBOL "osal_msg_receive"
osal_mem_free       SYMBOL "osal_mem_free"
NLME_GetShortAddr   SYMBOL "NLME_GetShortAddr"
ZDP_EndDeviceBindReq SYMBOL "ZDP_EndDeviceBindReq"
strcpy              SYMBOL "strcpy"
HalLcdWriteChar     SYMBOL "HalLcdWriteChar"
HalLedBlink         SYMBOL "HalLedBlink"
HalLedSet           SYMBOL "HalLedSet"
osal_stop_timerEx   SYMBOL "osal_stop_timerEx"
Hal_UART_RxBufLen   SYMBOL "Hal_UART_RxBufLen"
HalUARTRead         SYMBOL "HalUARTRead"
zcl_SendCommand     SYMBOL "zcl_SendCommand"
??HalLcdWriteChar?relay SYMBOL "?relay", HalLcdWriteChar
??HalLedBlink?relay SYMBOL "?relay", HalLedBlink
??HalLedSet?relay   SYMBOL "?relay", HalLedSet
??HalUARTRead?relay SYMBOL "?relay", HalUARTRead
??HalUARTWrite?relay SYMBOL "?relay", HalUARTWrite
??Hal_UART_RxBufLen?relay SYMBOL "?relay", Hal_UART_RxBufLen
??NLME_GetShortAddr?relay SYMBOL "?relay", NLME_GetShortAddr
??RegisterForKeys?relay SYMBOL "?relay", RegisterForKeys
??ZDP_EndDeviceBindReq?relay SYMBOL "?relay", ZDP_EndDeviceBindReq
??afRegister?relay  SYMBOL "?relay", afRegister
??aps_AddGroup?relay SYMBOL "?relay", aps_AddGroup
??osal_mem_free?relay SYMBOL "?relay", osal_mem_free
??osal_memcpy?relay SYMBOL "?relay", osal_memcpy
??osal_msg_deallocate?relay SYMBOL "?relay", osal_msg_deallocate
??osal_msg_receive?relay SYMBOL "?relay", osal_msg_receive
??osal_set_event?relay SYMBOL "?relay", osal_set_event
??osal_start_timerEx?relay SYMBOL "?relay", osal_start_timerEx
??osal_stop_timerEx?relay SYMBOL "?relay", osal_stop_timerEx
??show?relay        SYMBOL "?relay", show
??strcpy?relay      SYMBOL "?relay", strcpy
??zclGeneral_RegisterCmdCallbacks?relay SYMBOL "?relay", zclGeneral_RegisterCmdCallbacks
??zclZD_Init?relay  SYMBOL "?relay", zclZD_Init
??zcl_SendCommand?relay SYMBOL "?relay", zcl_SendCommand
??zcl_registerAttrList?relay SYMBOL "?relay", zcl_registerAttrList
??zcl_registerForMsg?relay SYMBOL "?relay", zcl_registerForMsg
ZSendMsgProcess     SYMBOL "ZSendMsgProcess"
??ZSendMsgProcess?relay SYMBOL "?relay", ZSendMsgProcess
zclUARTMsg_CallBack SYMBOL "zclUARTMsg_CallBack"
??zclUARTMsg_CallBack?relay SYMBOL "?relay", zclUARTMsg_CallBack
zclUartReceiver     SYMBOL "zclUartReceiver"
??zclUartReceiver?relay SYMBOL "?relay", zclUartReceiver
zclZigbeeRecv_Init  SYMBOL "zclZigbeeRecv_Init"
??zclZigbeeRecv_Init?relay SYMBOL "?relay", zclZigbeeRecv_Init
zclZigbeeRecv_event_loop SYMBOL "zclZigbeeRecv_event_loop"
??zclZigbeeRecv_event_loop?relay SYMBOL "?relay", zclZigbeeRecv_event_loop

        EXTERN HalUARTWrite
        FUNCTION HalUARTWrite,0202H
        ARGFRAME ISTACK, 2, STACK
        ARGFRAME PSTACK, 0, STACK
        ARGFRAME XSTACK, 0, STACK
        ARGFRAME IOVERLAY, 0, STATIC
        ARGFRAME DOVERLAY, 0, STATIC
        EXTERN osal_start_timerEx
        FUNCTION osal_start_timerEx,0202H
        ARGFRAME ISTACK, 2, STACK
        ARGFRAME PSTACK, 0, STACK
        ARGFRAME XSTACK, 0, STACK
        ARGFRAME IOVERLAY, 0, STATIC
        ARGFRAME DOVERLAY, 0, STATIC
        EXTERN zclZD_Init
        FUNCTION zclZD_Init,0202H
        ARGFRAME ISTACK, 0, STACK
        ARGFRAME PSTACK, 0, STACK
        ARGFRAME XSTACK, 11, STACK
        ARGFRAME IOVERLAY, 0, STATIC
        ARGFRAME DOVERLAY, 0, STATIC
        EXTERN zclGeneral_RegisterCmdCallbacks
        FUNCTION zclGeneral_RegisterCmdCallbacks,0202H
        ARGFRAME ISTACK, 0, STACK
        ARGFRAME PSTACK, 0, STACK
        ARGFRAME XSTACK, 11, STACK
        ARGFRAME IOVERLAY, 0, STATIC
        ARGFRAME DOVERLAY, 0, STATIC
        EXTERN zcl_registerAttrList
        FUNCTION zcl_registerAttrList,0202H
        ARGFRAME ISTACK, 0, STACK
        ARGFRAME PSTACK, 0, STACK
        ARGFRAME XSTACK, 11, STACK
        ARGFRAME IOVERLAY, 0, STATIC
        ARGFRAME DOVERLAY, 0, STATIC
        EXTERN zcl_registerForMsg
        FUNCTION zcl_registerForMsg,0202H
        ARGFRAME ISTACK, 0, STACK
        ARGFRAME PSTACK, 0, STACK
        ARGFRAME XSTACK, 11, STACK
        ARGFRAME IOVERLAY, 0, STATIC
        ARGFRAME DOVERLAY, 0, STATIC
        EXTERN RegisterForKeys
        FUNCTION RegisterForKeys,0202H
        ARGFRAME ISTACK, 0, STACK
        ARGFRAME PSTACK, 0, STACK
        ARGFRAME XSTACK, 11, STACK
        ARGFRAME IOVERLAY, 0, STATIC
        ARGFRAME DOVERLAY, 0, STATIC
        EXTERN osal_memcpy
        FUNCTION osal_memcpy,0202H
        ARGFRAME ISTACK, 0, STACK
        ARGFRAME PSTACK, 0, STACK
        ARGFRAME XSTACK, 14, STACK
        ARGFRAME IOVERLAY, 0, STATIC
        ARGFRAME DOVERLAY, 0, STATIC
        EXTERN aps_AddGroup
        FUNCTION aps_AddGroup,0202H
        ARGFRAME ISTACK, 0, STACK
        ARGFRAME PSTACK, 0, STACK
        ARGFRAME XSTACK, 11, STACK
        ARGFRAME IOVERLAY, 0, STATIC
        ARGFRAME DOVERLAY, 0, STATIC
        EXTERN afRegister
        FUNCTION afRegister,0202H
        ARGFRAME ISTACK, 0, STACK
        ARGFRAME PSTACK, 0, STACK
        ARGFRAME XSTACK, 11, STACK
        ARGFRAME IOVERLAY, 0, STATIC
        ARGFRAME DOVERLAY, 0, STATIC
        EXTERN osal_set_event
        FUNCTION osal_set_event,0202H
        ARGFRAME ISTACK, 0, STACK
        ARGFRAME PSTACK, 0, STACK
        ARGFRAME XSTACK, 11, STACK
        ARGFRAME IOVERLAY, 0, STATIC
        ARGFRAME DOVERLAY, 0, STATIC
        EXTERN show
        FUNCTION show,0202H
        ARGFRAME ISTACK, 0, STACK
        ARGFRAME PSTACK, 0, STACK
        ARGFRAME XSTACK, 23, STACK
        ARGFRAME IOVERLAY, 0, STATIC
        ARGFRAME DOVERLAY, 0, STATIC
        EXTERN osal_msg_deallocate
        FUNCTION osal_msg_deallocate,0202H
        ARGFRAME ISTACK, 0, STACK
        ARGFRAME PSTACK, 0, STACK
        ARGFRAME XSTACK, 23, STACK
        ARGFRAME IOVERLAY, 0, STATIC
        ARGFRAME DOVERLAY, 0, STATIC
        EXTERN osal_msg_receive
        FUNCTION osal_msg_receive,0202H
        ARGFRAME ISTACK, 0, STACK
        ARGFRAME PSTACK, 0, STACK
        ARGFRAME XSTACK, 23, STACK
        ARGFRAME IOVERLAY, 0, STATIC
        ARGFRAME DOVERLAY, 0, STATIC
        EXTERN osal_mem_free
        FUNCTION osal_mem_free,0202H
        ARGFRAME ISTACK, 0, STACK
        ARGFRAME PSTACK, 0, STACK
        ARGFRAME XSTACK, 23, STACK
        ARGFRAME IOVERLAY, 0, STATIC
        ARGFRAME DOVERLAY, 0, STATIC
        EXTERN NLME_GetShortAddr
        FUNCTION NLME_GetShortAddr,0202H
        ARGFRAME ISTACK, 0, STACK
        ARGFRAME PSTACK, 0, STACK
        ARGFRAME XSTACK, 32, STACK
        ARGFRAME IOVERLAY, 0, STATIC
        ARGFRAME DOVERLAY, 0, STATIC
        EXTERN ZDP_EndDeviceBindReq
        FUNCTION ZDP_EndDeviceBindReq,0202H
        ARGFRAME ISTACK, 0, STACK
        ARGFRAME PSTACK, 0, STACK
        ARGFRAME XSTACK, 32, STACK
        ARGFRAME IOVERLAY, 0, STATIC
        ARGFRAME DOVERLAY, 0, STATIC
        EXTERN strcpy
        FUNCTION strcpy,010202H
        ARGFRAME ISTACK, 0, STACK
        ARGFRAME PSTACK, 0, STACK
        ARGFRAME XSTACK, 23, STACK
        ARGFRAME IOVERLAY, 0, STATIC
        ARGFRAME DOVERLAY, 0, STATIC
        EXTERN HalLcdWriteChar
        FUNCTION HalLcdWriteChar,0202H
        ARGFRAME ISTACK, 0, STACK
        ARGFRAME PSTACK, 0, STACK
        ARGFRAME XSTACK, 23, STACK
        ARGFRAME IOVERLAY, 0, STATIC
        ARGFRAME DOVERLAY, 0, STATIC
        EXTERN HalLedBlink
        FUNCTION HalLedBlink,0202H
        ARGFRAME ISTACK, 2, STACK
        ARGFRAME PSTACK, 0, STACK
        ARGFRAME XSTACK, 0, STACK
        ARGFRAME IOVERLAY, 0, STATIC
        ARGFRAME DOVERLAY, 0, STATIC
        EXTERN HalLedSet
        FUNCTION HalLedSet,0202H
        ARGFRAME ISTACK, 2, STACK
        ARGFRAME PSTACK, 0, STACK
        ARGFRAME XSTACK, 0, STACK
        ARGFRAME IOVERLAY, 0, STATIC
        ARGFRAME DOVERLAY, 0, STATIC
        EXTERN osal_stop_timerEx
        FUNCTION osal_stop_timerEx,0202H
        ARGFRAME ISTACK, 2, STACK
        ARGFRAME PSTACK, 0, STACK
        ARGFRAME XSTACK, 0, STACK
        ARGFRAME IOVERLAY, 0, STATIC
        ARGFRAME DOVERLAY, 0, STATIC
        EXTERN Hal_UART_RxBufLen
        FUNCTION Hal_UART_RxBufLen,0202H
        ARGFRAME ISTACK, 0, STACK
        ARGFRAME PSTACK, 0, STACK
        ARGFRAME XSTACK, 10, STACK
        ARGFRAME IOVERLAY, 0, STATIC
        ARGFRAME DOVERLAY, 0, STATIC
        EXTERN HalUARTRead
        FUNCTION HalUARTRead,0202H
        ARGFRAME ISTACK, 0, STACK
        ARGFRAME PSTACK, 0, STACK
        ARGFRAME XSTACK, 10, STACK
        ARGFRAME IOVERLAY, 0, STATIC
        ARGFRAME DOVERLAY, 0, STATIC
        EXTERN zcl_SendCommand
        FUNCTION zcl_SendCommand,0202H
        ARGFRAME ISTACK, 0, STACK
        ARGFRAME PSTACK, 0, STACK
        ARGFRAME XSTACK, 21, STACK
        ARGFRAME IOVERLAY, 0, STATIC
        ARGFRAME DOVERLAY, 0, STATIC
        EXTERN ??HalLcdWriteChar?relay
        FUNCTION ??HalLcdWriteChar?relay,00H
        EXTERN ??HalLedBlink?relay
        FUNCTION ??HalLedBlink?relay,00H
        EXTERN ??HalLedSet?relay
        FUNCTION ??HalLedSet?relay,00H
        EXTERN ??HalUARTRead?relay
        FUNCTION ??HalUARTRead?relay,00H
        EXTERN ??HalUARTWrite?relay
        FUNCTION ??HalUARTWrite?relay,00H
        EXTERN ??Hal_UART_RxBufLen?relay
        FUNCTION ??Hal_UART_RxBufLen?relay,00H
        EXTERN ??NLME_GetShortAddr?relay
        FUNCTION ??NLME_GetShortAddr?relay,00H
        EXTERN ??RegisterForKeys?relay
        FUNCTION ??RegisterForKeys?relay,00H
        EXTERN ??ZDP_EndDeviceBindReq?relay
        FUNCTION ??ZDP_EndDeviceBindReq?relay,00H
        EXTERN ??afRegister?relay
        FUNCTION ??afRegister?relay,00H
        EXTERN ??aps_AddGroup?relay
        FUNCTION ??aps_AddGroup?relay,00H
        EXTERN ??osal_mem_free?relay
        FUNCTION ??osal_mem_free?relay,00H
        EXTERN ??osal_memcpy?relay
        FUNCTION ??osal_memcpy?relay,00H
        EXTERN ??osal_msg_deallocate?relay
        FUNCTION ??osal_msg_deallocate?relay,00H
        EXTERN ??osal_msg_receive?relay
        FUNCTION ??osal_msg_receive?relay,00H
        EXTERN ??osal_set_event?relay
        FUNCTION ??osal_set_event?relay,00H
        EXTERN ??osal_start_timerEx?relay
        FUNCTION ??osal_start_timerEx?relay,00H
        EXTERN ??osal_stop_timerEx?relay
        FUNCTION ??osal_stop_timerEx?relay,00H
        EXTERN ??show?relay
        FUNCTION ??show?relay,00H
        EXTERN ??strcpy?relay
        FUNCTION ??strcpy?relay,00H
        EXTERN ??zclGeneral_RegisterCmdCallbacks?relay
        FUNCTION ??zclGeneral_RegisterCmdCallbacks?relay,00H
        EXTERN ??zclZD_Init?relay
        FUNCTION ??zclZD_Init?relay,00H
        EXTERN ??zcl_SendCommand?relay
        FUNCTION ??zcl_SendCommand?relay,00H
        EXTERN ??zcl_registerAttrList?relay
        FUNCTION ??zcl_registerAttrList?relay,00H
        EXTERN ??zcl_registerForMsg?relay
        FUNCTION ??zcl_registerForMsg?relay,00H
        EXTERN ch
        EXTERN device_manager
        EXTERN zclZigbeeRecv_Attrs
        EXTERN zclZigbeeRecv_IdentifyTime
        EXTERN zclZigbeeRecv_OnOff
        EXTERN zclZigbeeRecv_SimpleDesc

// C:\GitHub\z-stack\Sensor Network Example\Projects\zstack\Sensor Network Application\ZIGBEE Coordinator & Router\Source\zcl_zigbee receiver.c
//    1 #include <stdio.h>
//    2 #include <string.h>
//    3 #include <stdlib.h>
//    4 #include "ZComDef.h"
//    5 #include "OSAL.h"
//    6 #include "AF.h"
//    7 #include "ZDApp.h"
//    8 
//    9 /* ZCL */
//   10 #include "zcl.h"
//   11 #include "zcl_general.h"
//   12 #include "zcl_ha.h"
//   13 #include "zcl_zigbee receiver.h"
//   14 
//   15 /* HAL */
//   16 #include "onboard.h"
//   17 #include "hal_lcd.h"
//   18 #include "hal_led.h"
//   19 #include "hal_timer.h"
//   20 #include "hal_uart.h"
//   21 #include "hal_key.h"
//   22 #include "hal_keypad.h"
//   23 
//   24 /* MAC_high-level */
//   25 #include "mac_high_level.h"
//   26 
//   27 /* MT */
//   28 #include "MT_UART.h"
//   29 #include "MT.h"
//   30 #include "ZComDef.h"
//   31 
//   32 #define TRANSMITAPP_MAX_DATA_LEN    102
//   33 

        RSEG XDATA_Z:XDATA:NOROOT(0)
//   34 uint8 send_msg_counter = 0;
send_msg_counter:
        DS 1
        REQUIRE __INIT_XDATA_Z

        RSEG XDATA_Z:XDATA:NOROOT(0)
//   35 byte zclZigbeeReceiver_TaskID; // The zigbee task_ID
zclZigbeeReceiver_TaskID:
        DS 1
        REQUIRE __INIT_XDATA_Z

        RSEG XDATA_Z:XDATA:NOROOT(0)
//   36 byte ZDO_MSG_SEND_ID; // The zigbee task_ID
ZDO_MSG_SEND_ID:
        DS 1
        REQUIRE __INIT_XDATA_Z
//   37 
//   38 // The UART transmit variable and array, the transmit data length

        RSEG XDATA_Z:XDATA:NOROOT(0)
//   39 uint8 len; 
len:
        DS 1
        REQUIRE __INIT_XDATA_Z
//   40 // Transmit message array

        RSEG XDATA_Z:XDATA:NOROOT(0)
//   41 byte TransmitApp_Msg[ TRANSMITAPP_MAX_DATA_LEN ]; 
TransmitApp_Msg:
        DS 102
        REQUIRE __INIT_XDATA_Z
//   42 // The coordinator send to device message array

        RSEG XDATA_Z:XDATA:NOROOT(0)
//   43 byte UartTransmit_Msg[ TRANSMITAPP_MAX_DATA_LEN ]; 
UartTransmit_Msg:
        DS 102
        REQUIRE __INIT_XDATA_Z
//   44 // Receive the UART command

        RSEG XDATA_Z:XDATA:NOROOT(0)
//   45 uint8 uart_recv[TRANSMITAPP_MAX_DATA_LEN]; 
uart_recv:
        DS 102
        REQUIRE __INIT_XDATA_Z
//   46 
//   47 /*********************************************************************
//   48  * LOCAL VARIABLES
//   49  */

        RSEG XDATA_Z:XDATA:NOROOT(0)
//   50 afAddrType_t zclZigbeeRecv_DstAddr;  // AF address type
zclZigbeeRecv_DstAddr:
        DS 12
        REQUIRE __INIT_XDATA_Z

        RSEG XDATA_Z:XDATA:NOROOT(0)
//   51 aps_Group_t zclZigbeeRecv_Group;
zclZigbeeRecv_Group:
        DS 18
        REQUIRE __INIT_XDATA_Z
//   52 
//   53 #define ZCLZIGBEERECV_BINDINGLIST       2
//   54 

        RSEG XDATA_I:XDATA:NOROOT(0)
        DATA
//   55 static cId_t bindingInClusters[ZCLZIGBEERECV_BINDINGLIST] =
bindingInClusters:
        DS 4
        REQUIRE `?<Initializer for bindingInClusters>`
        REQUIRE __INIT_XDATA_I
//   56 {
//   57   ZCL_CLUSTER_ID_GEN_ON_OFF,
//   58   ZCL_CLUSTER_ID_GEN_LEVEL_CONTROL
//   59 };
//   60 
//   61 // Test Endpoint to allow SYS_APP_MSGs

        RSEG XDATA_I:XDATA:NOROOT(0)
        DATA
//   62 static endPointDesc_t zigbeeReceiver_TestEp =
zigbeeReceiver_TestEp:
        DS 6
        REQUIRE `?<Initializer for zigbeeReceiver_TestEp>`
        REQUIRE __INIT_XDATA_I
//   63 {
//   64   20,                                 // Test endpoint
//   65   &zclZigbeeReceiver_TaskID,
//   66   (SimpleDescriptionFormat_t *)NULL,  // No Simple description for this test endpoint
//   67   (afNetworkLatencyReq_t)0            // No Network Latency req
//   68 };
//   69 
//   70 /*********************************************************************
//   71  * LOCAL FUNCTIONS
//   72  */
//   73 static void zclZigbeeReceiver_HandleKeys( byte shift, byte keys );
//   74 static void zclZigbeeReceiver_BasicResetCB( void );
//   75 static void zclZigbeeReceiver_IdentifyCB( zclIdentify_t *pCmd );
//   76 static void zclZigbeeReceiver_IdentifyQueryRspCB( zclIdentifyQueryRsp_t *pRsp );
//   77 static void zclZigbeeReceiver_OnOffCB( uint8 cmd );
//   78 static void zclZigbeeReceiver_ProcessIdentifyTimeChange( void );
//   79 
//   80 void zclUARTMsg_CallBack(uint8 port, uint8 event); // The UART Message callback
//   81 void zclUartReceiver( void ); // The coordinator receive command function
//   82 
//   83 // Functions to process ZCL Foundation incoming Command/Response messages 
//   84 static void zclZigbeeReceiver_ProcessIncomingMsg( zclIncomingMsg_t *msg );
//   85 #ifdef ZCL_READ
//   86   static uint8 zclZigbeeReceiver_ProcessInReadRspCmd( zclIncomingMsg_t *pInMsg );
//   87 #endif
//   88 #ifdef ZCL_WRITE
//   89   static uint8 zclZigbeeReceiver_ProcessInWriteRspCmd( zclIncomingMsg_t *pInMsg );
//   90 #endif
//   91   static uint8 zclZigbeeReceiver_ProcessInDefaultRspCmd( zclIncomingMsg_t *pInMsg );
//   92 #ifdef ZCL_DISCOVER
//   93   static uint8 zclZigbeeReceiver_ProcessInDiscRspCmd( zclIncomingMsg_t *pInMsg );
//   94 #endif
//   95   
//   96 /*********************************************************************
//   97  * ZCL General Profile Callback table
//   98  */

        RSEG XDATA_I:XDATA:NOROOT(0)
        DATA
//   99 static zclGeneral_AppCallbacks_t zclZigbeeReceiver_CmdCallbacks =
zclZigbeeReceiver_CmdCallbacks:
        DS 30
        REQUIRE `?<Initializer for zclZigbeeReceiver_CmdCallbac`
        REQUIRE __INIT_XDATA_I
//  100 {
//  101   zclZigbeeReceiver_BasicResetCB,              // Basic Cluster Reset command
//  102   zclZigbeeReceiver_IdentifyCB,                // Identify command  
//  103   zclZigbeeReceiver_IdentifyQueryRspCB,        // Identify Query Response command
//  104   zclZigbeeReceiver_OnOffCB,                   // On/Off cluster command
//  105   NULL,                                        // Level Control Move to Level command
//  106   NULL,                                        // Level Control Move command
//  107   NULL,                                        // Level Control Step command
//  108   NULL,                                        // Group Response commands
//  109   NULL,                                        // Scene Store Request command
//  110   NULL,                                        // Scene Recall Request command
//  111   NULL,                                        // Scene Response command
//  112   NULL,                                        // Alarm (Response) command
//  113   NULL,                                        // RSSI Location commands
//  114   NULL,                                        // RSSI Location Response commands
//  115 };
//  116 

        RSEG BANKED_CODE:CODE:NOROOT(0)
//  117 void ZSendMsgProcess(char *temp)
ZSendMsgProcess:
        CFI Block cfiBlock0 Using cfiCommon0
        CFI Function ZSendMsgProcess
//  118 {  
        FUNCALL ZSendMsgProcess, HalUARTWrite
        LOCFRAME ISTACK, 2, STACK
        LOCFRAME PSTACK, 0, STACK
        LOCFRAME XSTACK, 0, STACK
        LOCFRAME IOVERLAY, 0, STATIC
        LOCFRAME DOVERLAY, 0, STATIC
        ARGFRAME ISTACK, 2, STACK
        ARGFRAME PSTACK, 0, STACK
        ARGFRAME XSTACK, 0, STACK
        ARGFRAME IOVERLAY, 0, STATIC
        ARGFRAME DOVERLAY, 0, STATIC
        FUNCALL ZSendMsgProcess, HalUARTWrite
        LOCFRAME ISTACK, 2, STACK
        LOCFRAME PSTACK, 0, STACK
        LOCFRAME XSTACK, 0, STACK
        LOCFRAME IOVERLAY, 0, STATIC
        LOCFRAME DOVERLAY, 0, STATIC
        ARGFRAME ISTACK, 2, STACK
        ARGFRAME PSTACK, 0, STACK
        ARGFRAME XSTACK, 0, STACK
        ARGFRAME IOVERLAY, 0, STATIC
        ARGFRAME DOVERLAY, 0, STATIC
        FUNCALL ZSendMsgProcess, HalUARTWrite
        LOCFRAME ISTACK, 2, STACK
        LOCFRAME PSTACK, 0, STACK
        LOCFRAME XSTACK, 0, STACK
        LOCFRAME IOVERLAY, 0, STATIC
        LOCFRAME DOVERLAY, 0, STATIC
        ARGFRAME ISTACK, 2, STACK
        ARGFRAME PSTACK, 0, STACK
        ARGFRAME XSTACK, 0, STACK
        ARGFRAME IOVERLAY, 0, STATIC
        ARGFRAME DOVERLAY, 0, STATIC
        FUNCALL ZSendMsgProcess, HalUARTWrite
        LOCFRAME ISTACK, 2, STACK
        LOCFRAME PSTACK, 0, STACK
        LOCFRAME XSTACK, 0, STACK
        LOCFRAME IOVERLAY, 0, STATIC
        LOCFRAME DOVERLAY, 0, STATIC
        ARGFRAME ISTACK, 2, STACK
        ARGFRAME PSTACK, 0, STACK
        ARGFRAME XSTACK, 0, STACK
        ARGFRAME IOVERLAY, 0, STATIC
        ARGFRAME DOVERLAY, 0, STATIC
        FUNCALL ZSendMsgProcess, osal_start_timerEx
        LOCFRAME ISTACK, 2, STACK
        LOCFRAME PSTACK, 0, STACK
        LOCFRAME XSTACK, 0, STACK
        LOCFRAME IOVERLAY, 0, STATIC
        LOCFRAME DOVERLAY, 0, STATIC
        ARGFRAME ISTACK, 2, STACK
        ARGFRAME PSTACK, 0, STACK
        ARGFRAME XSTACK, 0, STACK
        ARGFRAME IOVERLAY, 0, STATIC
        ARGFRAME DOVERLAY, 0, STATIC
        PUSH    DPL
        CFI DPL0 Frame(CFA_SP, 4)
        CFI CFA_SP SP+-4
        PUSH    DPH
        CFI DPH0 Frame(CFA_SP, 5)
        CFI CFA_SP SP+-5
        ; Saved register size: 2
        ; Auto size: 0
//  119     HalUARTWrite(HAL_UART_PORT_0, device_manager.Type, 8);
        ; Setup parameters for call to function HalUARTWrite
        MOV     R4,#0x8
        MOV     R5,#0x0
        MOV     R2,#(device_manager & 0xff)
        MOV     R3,#((device_manager >> 8) & 0xff)
        MOV     R1,#0x0
        LCALL   ??HalUARTWrite?relay
//  120     HalUARTWrite(HAL_UART_PORT_0, device_manager.Module, 10);       
        ; Setup parameters for call to function HalUARTWrite
        MOV     R4,#0xa
        MOV     R5,#0x0
        MOV     R2,#((device_manager + 8) & 0xff)
        MOV     R3,#(((device_manager + 8) >> 8) & 0xff)
        MOV     R1,#0x0
        LCALL   ??HalUARTWrite?relay
//  121     HalUARTWrite(HAL_UART_PORT_0, device_manager.Data, len-2);    
        ; Setup parameters for call to function HalUARTWrite
        MOV     DPTR,#len
        MOVX    A,@DPTR
        MOV     R0,A
        MOV     A,#-0x2
        ADD     A,R0
        MOV     R4,A
        MOV     A,#-0x1
        ADDC    A,#0x0
        MOV     R5,A
        MOV     R2,#((device_manager + 18) & 0xff)
        MOV     R3,#(((device_manager + 18) >> 8) & 0xff)
        MOV     R1,#0x0
        LCALL   ??HalUARTWrite?relay
//  122     HalUARTWrite(HAL_UART_PORT_0, "\r\n", 3);   
        ; Setup parameters for call to function HalUARTWrite
        MOV     R4,#0x3
        MOV     R5,#0x0
        MOV     R2,#(`?<Constant "\\r\\n">` & 0xff)
        MOV     R3,#((`?<Constant "\\r\\n">` >> 8) & 0xff)
        MOV     R1,#0x0
        LCALL   ??HalUARTWrite?relay
//  123  
//  124     osal_start_timerEx( zclZigbeeReceiver_TaskID, ZDO_MSG_SEND_EVT, 1000 );        
        ; Setup parameters for call to function osal_start_timerEx
        MOV     R4,#-0x18
        MOV     R5,#0x3
        MOV     R2,#0x0
        MOV     R3,#0x8
        MOV     DPTR,#zclZigbeeReceiver_TaskID
        MOVX    A,@DPTR
        MOV     R1,A
        LCALL   ??osal_start_timerEx?relay
        CFI EndBlock cfiBlock0
//  125 }
        REQUIRE ?Subroutine3
        ; // Fall through to label ?Subroutine3

        RSEG BANKED_CODE:CODE:NOROOT(0)
?Subroutine3:
        CFI Block cfiBlock1 Using cfiCommon0
        CFI NoFunction
        CFI CFA_SP SP+-5
        CFI DPL0 Frame(CFA_SP, 4)
        CFI DPH0 Frame(CFA_SP, 5)
        POP     DPH
        CFI CFA_SP SP+-4
        CFI DPH0 SameValue
        POP     DPL
        CFI CFA_SP SP+-3
        CFI DPL0 SameValue
        LJMP    ?BRET
        CFI EndBlock cfiBlock1
//  126 
//  127 /*
//  128  * @fn          zclZigbeeRecv_Init
//  129  * @brief       Initialization function for the zclGeneral layer.
//  130  */

        RSEG BANKED_CODE:CODE:NOROOT(0)
//  131 void zclZigbeeRecv_Init( byte task_id )
zclZigbeeRecv_Init:
        CFI Block cfiBlock2 Using cfiCommon0
        CFI Function zclZigbeeRecv_Init
//  132 {
        FUNCALL zclZigbeeRecv_Init, zclZD_Init
        LOCFRAME ISTACK, 0, STACK
        LOCFRAME PSTACK, 0, STACK
        LOCFRAME XSTACK, 11, STACK
        LOCFRAME IOVERLAY, 0, STATIC
        LOCFRAME DOVERLAY, 0, STATIC
        ARGFRAME ISTACK, 0, STACK
        ARGFRAME PSTACK, 0, STACK
        ARGFRAME XSTACK, 11, STACK
        ARGFRAME IOVERLAY, 0, STATIC
        ARGFRAME DOVERLAY, 0, STATIC
        FUNCALL zclZigbeeRecv_Init, zclGeneral_RegisterCmdCallbacks
        LOCFRAME ISTACK, 0, STACK
        LOCFRAME PSTACK, 0, STACK
        LOCFRAME XSTACK, 11, STACK
        LOCFRAME IOVERLAY, 0, STATIC
        LOCFRAME DOVERLAY, 0, STATIC
        ARGFRAME ISTACK, 0, STACK
        ARGFRAME PSTACK, 0, STACK
        ARGFRAME XSTACK, 11, STACK
        ARGFRAME IOVERLAY, 0, STATIC
        ARGFRAME DOVERLAY, 0, STATIC
        FUNCALL zclZigbeeRecv_Init, zcl_registerAttrList
        LOCFRAME ISTACK, 0, STACK
        LOCFRAME PSTACK, 0, STACK
        LOCFRAME XSTACK, 11, STACK
        LOCFRAME IOVERLAY, 0, STATIC
        LOCFRAME DOVERLAY, 0, STATIC
        ARGFRAME ISTACK, 0, STACK
        ARGFRAME PSTACK, 0, STACK
        ARGFRAME XSTACK, 11, STACK
        ARGFRAME IOVERLAY, 0, STATIC
        ARGFRAME DOVERLAY, 0, STATIC
        FUNCALL zclZigbeeRecv_Init, zcl_registerForMsg
        LOCFRAME ISTACK, 0, STACK
        LOCFRAME PSTACK, 0, STACK
        LOCFRAME XSTACK, 11, STACK
        LOCFRAME IOVERLAY, 0, STATIC
        LOCFRAME DOVERLAY, 0, STATIC
        ARGFRAME ISTACK, 0, STACK
        ARGFRAME PSTACK, 0, STACK
        ARGFRAME XSTACK, 11, STACK
        ARGFRAME IOVERLAY, 0, STATIC
        ARGFRAME DOVERLAY, 0, STATIC
        FUNCALL zclZigbeeRecv_Init, RegisterForKeys
        LOCFRAME ISTACK, 0, STACK
        LOCFRAME PSTACK, 0, STACK
        LOCFRAME XSTACK, 11, STACK
        LOCFRAME IOVERLAY, 0, STATIC
        LOCFRAME DOVERLAY, 0, STATIC
        ARGFRAME ISTACK, 0, STACK
        ARGFRAME PSTACK, 0, STACK
        ARGFRAME XSTACK, 11, STACK
        ARGFRAME IOVERLAY, 0, STATIC
        ARGFRAME DOVERLAY, 0, STATIC
        FUNCALL zclZigbeeRecv_Init, osal_memcpy
        LOCFRAME ISTACK, 0, STACK
        LOCFRAME PSTACK, 0, STACK
        LOCFRAME XSTACK, 14, STACK
        LOCFRAME IOVERLAY, 0, STATIC
        LOCFRAME DOVERLAY, 0, STATIC
        ARGFRAME ISTACK, 0, STACK
        ARGFRAME PSTACK, 0, STACK
        ARGFRAME XSTACK, 14, STACK
        ARGFRAME IOVERLAY, 0, STATIC
        ARGFRAME DOVERLAY, 0, STATIC
        FUNCALL zclZigbeeRecv_Init, aps_AddGroup
        LOCFRAME ISTACK, 0, STACK
        LOCFRAME PSTACK, 0, STACK
        LOCFRAME XSTACK, 11, STACK
        LOCFRAME IOVERLAY, 0, STATIC
        LOCFRAME DOVERLAY, 0, STATIC
        ARGFRAME ISTACK, 0, STACK
        ARGFRAME PSTACK, 0, STACK
        ARGFRAME XSTACK, 11, STACK
        ARGFRAME IOVERLAY, 0, STATIC
        ARGFRAME DOVERLAY, 0, STATIC
        FUNCALL zclZigbeeRecv_Init, afRegister
        LOCFRAME ISTACK, 0, STACK
        LOCFRAME PSTACK, 0, STACK
        LOCFRAME XSTACK, 11, STACK
        LOCFRAME IOVERLAY, 0, STATIC
        LOCFRAME DOVERLAY, 0, STATIC
        ARGFRAME ISTACK, 0, STACK
        ARGFRAME PSTACK, 0, STACK
        ARGFRAME XSTACK, 11, STACK
        ARGFRAME IOVERLAY, 0, STATIC
        ARGFRAME DOVERLAY, 0, STATIC
        FUNCALL zclZigbeeRecv_Init, osal_set_event
        LOCFRAME ISTACK, 0, STACK
        LOCFRAME PSTACK, 0, STACK
        LOCFRAME XSTACK, 11, STACK
        LOCFRAME IOVERLAY, 0, STATIC
        LOCFRAME DOVERLAY, 0, STATIC
        ARGFRAME ISTACK, 0, STACK
        ARGFRAME PSTACK, 0, STACK
        ARGFRAME XSTACK, 11, STACK
        ARGFRAME IOVERLAY, 0, STATIC
        ARGFRAME DOVERLAY, 0, STATIC
        MOV     A,#-0xb
        LCALL   ?BANKED_ENTER_XDATA
        CFI DPH0 load(1, XDATA, add(CFA_XSP16, literal(-1)))
        CFI DPL0 load(1, XDATA, add(CFA_XSP16, literal(-2)))
        CFI ?BRET_EXT load(1, XDATA, add(CFA_XSP16, literal(-3)))
        CFI ?RET_HIGH load(1, XDATA, add(CFA_XSP16, literal(-4)))
        CFI ?RET_LOW load(1, XDATA, add(CFA_XSP16, literal(-5)))
        CFI R7 load(1, XDATA, add(CFA_XSP16, literal(-6)))
        CFI V2 load(1, XDATA, add(CFA_XSP16, literal(-7)))
        CFI V1 load(1, XDATA, add(CFA_XSP16, literal(-8)))
        CFI V0 load(1, XDATA, add(CFA_XSP16, literal(-9)))
        CFI VB load(1, XDATA, add(CFA_XSP16, literal(-10)))
        CFI R6 load(1, XDATA, add(CFA_XSP16, literal(-11)))
        CFI CFA_SP SP+0
        CFI CFA_XSP16 add(XSP16, 11)
        ; Saved register size: 11
        ; Auto size: 0
//  133   zclZigbeeReceiver_TaskID = task_id;
        MOV     A,R1
        MOV     DPTR,#zclZigbeeReceiver_TaskID
        MOVX    @DPTR,A
//  134   
//  135   // Setup for the flash command's destination address ( Group )
//  136   zclZigbeeRecv_DstAddr.addrMode = (afAddrMode_t)afAddrGroup;  // transmit mode - Group address
        MOV     A,#0x1
        MOV     DPTR,#(zclZigbeeRecv_DstAddr + 8)
        MOVX    @DPTR,A
//  137   zclZigbeeRecv_DstAddr.endPoint = ZIGBEERECV_ENDPOINT;        // end-point number:20
        MOV     A,#0xd
        MOV     DPTR,#(zclZigbeeRecv_DstAddr + 9)
        MOVX    @DPTR,A
//  138   zclZigbeeRecv_DstAddr.addr.shortAddr = RECV_GROUP;           // Group short address
        MOV     DPTR,#zclZigbeeRecv_DstAddr
        MOV     A,#0x10
        MOVX    @DPTR,A
        INC     DPTR
        MOV     A,#0x20
        MOVX    @DPTR,A
//  139   
//  140   // This App is part of the Zigbee Device Profile
//  141   zclZD_Init( &zclZigbeeRecv_SimpleDesc ); 
        ; Setup parameters for call to function zclZD_Init
        MOV     R2,#(zclZigbeeRecv_SimpleDesc & 0xff)
        MOV     R3,#((zclZigbeeRecv_SimpleDesc >> 8) & 0xff)
        LCALL   ??zclZD_Init?relay
//  142   
//  143   // Register the ZCL General Cluster Library callback functions
//  144   zclGeneral_RegisterCmdCallbacks( ZIGBEERECV_ENDPOINT, &zclZigbeeReceiver_CmdCallbacks ); 
        ; Setup parameters for call to function zclGeneral_RegisterCmdCallbacks
        MOV     R2,#(zclZigbeeReceiver_CmdCallbacks & 0xff)
        MOV     R3,#((zclZigbeeReceiver_CmdCallbacks >> 8) & 0xff)
        MOV     R1,#0xd
        LCALL   ??zclGeneral_RegisterCmdCallbacks?relay
//  145   
//  146   // Register the application's attribute list
//  147   zcl_registerAttrList( ZIGBEERECV_ENDPOINT, ZIGBEERECV_MAX_ATTRIBUTES, zclZigbeeRecv_Attrs ); 
        ; Setup parameters for call to function zcl_registerAttrList
        MOV     R4,#(zclZigbeeRecv_Attrs & 0xff)
        MOV     R5,#((zclZigbeeRecv_Attrs >> 8) & 0xff)
        MOV     R2,#0xc
        MOV     R1,#0xd
        LCALL   ??zcl_registerAttrList?relay
//  148   
//  149   // Register the Application to receive the unprocessed Foundation command/response messages
//  150   zcl_registerForMsg( zclZigbeeReceiver_TaskID ); 
        ; Setup parameters for call to function zcl_registerForMsg
        MOV     DPTR,#zclZigbeeReceiver_TaskID
        MOVX    A,@DPTR
        MOV     R1,A
        LCALL   ??zcl_registerForMsg?relay
//  151   
//  152   // Register for all key events - This app will handle all key events
//  153   RegisterForKeys( zclZigbeeReceiver_TaskID ); 
        ; Setup parameters for call to function RegisterForKeys
        MOV     DPTR,#zclZigbeeReceiver_TaskID
        MOVX    A,@DPTR
        MOV     R1,A
        LCALL   ??RegisterForKeys?relay
//  154   
//  155   // By default, all devices start out in Group 1 ( register grouop )
//  156   zclZigbeeRecv_Group.ID = RECV_GROUP;
        MOV     DPTR,#zclZigbeeRecv_Group
        MOV     A,#0x10
        MOVX    @DPTR,A
        INC     DPTR
        MOV     A,#0x20
        MOVX    @DPTR,A
//  157   osal_memcpy( zclZigbeeRecv_Group.name, "RECV_GROUP", 8  );
        ; Setup parameters for call to function osal_memcpy
        MOV     ?V0 + 0,#(`?<Constant "RECV_GROUP">` & 0xff)
        MOV     ?V0 + 1,#((`?<Constant "RECV_GROUP">` >> 8) & 0xff)
        MOV     ?V0 + 2,#0x0
        MOV     R0,#?V0 + 0
        LCALL   ?PUSH_XSTACK_I_THREE
        CFI CFA_XSP16 add(XSP16, 14)
        MOV     R4,#0x8
        MOV     R5,#0x0
        MOV     R2,#((zclZigbeeRecv_Group + 2) & 0xff)
        MOV     R3,#(((zclZigbeeRecv_Group + 2) >> 8) & 0xff)
        LCALL   ??osal_memcpy?relay
        MOV     A,#0x3
        LCALL   ?DEALLOC_XSTACK8
        CFI CFA_XSP16 add(XSP16, 11)
//  158   aps_AddGroup( ZIGBEERECV_ENDPOINT, &zclZigbeeRecv_Group ); 
        ; Setup parameters for call to function aps_AddGroup
        MOV     R2,#(zclZigbeeRecv_Group & 0xff)
        MOV     R3,#((zclZigbeeRecv_Group >> 8) & 0xff)
        MOV     R1,#0xd
        LCALL   ??aps_AddGroup?relay
//  159   
//  160   // Register for a test endpoint
//  161   afRegister( &zigbeeReceiver_TestEp ); 
        ; Setup parameters for call to function afRegister
        MOV     R2,#(zigbeeReceiver_TestEp & 0xff)
        MOV     R3,#((zigbeeReceiver_TestEp >> 8) & 0xff)
        LCALL   ??afRegister?relay
//  162     osal_set_event( zclZigbeeReceiver_TaskID, NWK_RETRY_DELAY);//chris  
        ; Setup parameters for call to function osal_set_event
        MOV     R2,#-0x18
        MOV     R3,#0x3
        MOV     DPTR,#zclZigbeeReceiver_TaskID
        MOVX    A,@DPTR
        MOV     R1,A
        LCALL   ??osal_set_event?relay
//  163 }
        MOV     R7,#0x3
        LJMP    ?BANKED_LEAVE_XDATA
        CFI EndBlock cfiBlock2
//  164 
//  165 /*********************************************************************
//  166  * @fn          zclZigbeeRecv_event_loop
//  167  * @brief       Event Loop Processor for zclGeneral.
//  168  */

        RSEG BANKED_CODE:CODE:NOROOT(0)
//  169 uint16 zclZigbeeRecv_event_loop( uint8 task_id, uint16 events )
zclZigbeeRecv_event_loop:
        CFI Block cfiBlock3 Using cfiCommon0
        CFI Function zclZigbeeRecv_event_loop
//  170 {   
        FUNCALL zclZigbeeRecv_event_loop, ZSendMsgProcess
        LOCFRAME ISTACK, 0, STACK
        LOCFRAME PSTACK, 0, STACK
        LOCFRAME XSTACK, 23, STACK
        LOCFRAME IOVERLAY, 0, STATIC
        LOCFRAME DOVERLAY, 0, STATIC
        ARGFRAME ISTACK, 0, STACK
        ARGFRAME PSTACK, 0, STACK
        ARGFRAME XSTACK, 23, STACK
        ARGFRAME IOVERLAY, 0, STATIC
        ARGFRAME DOVERLAY, 0, STATIC
        FUNCALL zclZigbeeRecv_event_loop, show
        LOCFRAME ISTACK, 0, STACK
        LOCFRAME PSTACK, 0, STACK
        LOCFRAME XSTACK, 23, STACK
        LOCFRAME IOVERLAY, 0, STATIC
        LOCFRAME DOVERLAY, 0, STATIC
        ARGFRAME ISTACK, 0, STACK
        ARGFRAME PSTACK, 0, STACK
        ARGFRAME XSTACK, 23, STACK
        ARGFRAME IOVERLAY, 0, STATIC
        ARGFRAME DOVERLAY, 0, STATIC
        FUNCALL zclZigbeeRecv_event_loop, osal_msg_deallocate
        LOCFRAME ISTACK, 0, STACK
        LOCFRAME PSTACK, 0, STACK
        LOCFRAME XSTACK, 23, STACK
        LOCFRAME IOVERLAY, 0, STATIC
        LOCFRAME DOVERLAY, 0, STATIC
        ARGFRAME ISTACK, 0, STACK
        ARGFRAME PSTACK, 0, STACK
        ARGFRAME XSTACK, 23, STACK
        ARGFRAME IOVERLAY, 0, STATIC
        ARGFRAME DOVERLAY, 0, STATIC
        FUNCALL zclZigbeeRecv_event_loop, osal_msg_receive
        LOCFRAME ISTACK, 0, STACK
        LOCFRAME PSTACK, 0, STACK
        LOCFRAME XSTACK, 23, STACK
        LOCFRAME IOVERLAY, 0, STATIC
        LOCFRAME DOVERLAY, 0, STATIC
        ARGFRAME ISTACK, 0, STACK
        ARGFRAME PSTACK, 0, STACK
        ARGFRAME XSTACK, 23, STACK
        ARGFRAME IOVERLAY, 0, STATIC
        ARGFRAME DOVERLAY, 0, STATIC
        FUNCALL zclZigbeeRecv_event_loop, show
        LOCFRAME ISTACK, 0, STACK
        LOCFRAME PSTACK, 0, STACK
        LOCFRAME XSTACK, 23, STACK
        LOCFRAME IOVERLAY, 0, STATIC
        LOCFRAME DOVERLAY, 0, STATIC
        ARGFRAME ISTACK, 0, STACK
        ARGFRAME PSTACK, 0, STACK
        ARGFRAME XSTACK, 23, STACK
        ARGFRAME IOVERLAY, 0, STATIC
        ARGFRAME DOVERLAY, 0, STATIC
        FUNCALL zclZigbeeRecv_event_loop, osal_mem_free
        LOCFRAME ISTACK, 0, STACK
        LOCFRAME PSTACK, 0, STACK
        LOCFRAME XSTACK, 23, STACK
        LOCFRAME IOVERLAY, 0, STATIC
        LOCFRAME DOVERLAY, 0, STATIC
        ARGFRAME ISTACK, 0, STACK
        ARGFRAME PSTACK, 0, STACK
        ARGFRAME XSTACK, 23, STACK
        ARGFRAME IOVERLAY, 0, STATIC
        ARGFRAME DOVERLAY, 0, STATIC
        FUNCALL zclZigbeeRecv_event_loop, show
        LOCFRAME ISTACK, 0, STACK
        LOCFRAME PSTACK, 0, STACK
        LOCFRAME XSTACK, 23, STACK
        LOCFRAME IOVERLAY, 0, STATIC
        LOCFRAME DOVERLAY, 0, STATIC
        ARGFRAME ISTACK, 0, STACK
        ARGFRAME PSTACK, 0, STACK
        ARGFRAME XSTACK, 23, STACK
        ARGFRAME IOVERLAY, 0, STATIC
        ARGFRAME DOVERLAY, 0, STATIC
        FUNCALL zclZigbeeRecv_event_loop, NLME_GetShortAddr
        LOCFRAME ISTACK, 0, STACK
        LOCFRAME PSTACK, 0, STACK
        LOCFRAME XSTACK, 32, STACK
        LOCFRAME IOVERLAY, 0, STATIC
        LOCFRAME DOVERLAY, 0, STATIC
        ARGFRAME ISTACK, 0, STACK
        ARGFRAME PSTACK, 0, STACK
        ARGFRAME XSTACK, 32, STACK
        ARGFRAME IOVERLAY, 0, STATIC
        ARGFRAME DOVERLAY, 0, STATIC
        FUNCALL zclZigbeeRecv_event_loop, ZDP_EndDeviceBindReq
        LOCFRAME ISTACK, 0, STACK
        LOCFRAME PSTACK, 0, STACK
        LOCFRAME XSTACK, 32, STACK
        LOCFRAME IOVERLAY, 0, STATIC
        LOCFRAME DOVERLAY, 0, STATIC
        ARGFRAME ISTACK, 0, STACK
        ARGFRAME PSTACK, 0, STACK
        ARGFRAME XSTACK, 32, STACK
        ARGFRAME IOVERLAY, 0, STATIC
        ARGFRAME DOVERLAY, 0, STATIC
        FUNCALL zclZigbeeRecv_event_loop, strcpy
        LOCFRAME ISTACK, 0, STACK
        LOCFRAME PSTACK, 0, STACK
        LOCFRAME XSTACK, 23, STACK
        LOCFRAME IOVERLAY, 0, STATIC
        LOCFRAME DOVERLAY, 0, STATIC
        ARGFRAME ISTACK, 0, STACK
        ARGFRAME PSTACK, 0, STACK
        ARGFRAME XSTACK, 23, STACK
        ARGFRAME IOVERLAY, 0, STATIC
        ARGFRAME DOVERLAY, 0, STATIC
        FUNCALL zclZigbeeRecv_event_loop, strcpy
        LOCFRAME ISTACK, 0, STACK
        LOCFRAME PSTACK, 0, STACK
        LOCFRAME XSTACK, 23, STACK
        LOCFRAME IOVERLAY, 0, STATIC
        LOCFRAME DOVERLAY, 0, STATIC
        ARGFRAME ISTACK, 0, STACK
        ARGFRAME PSTACK, 0, STACK
        ARGFRAME XSTACK, 23, STACK
        ARGFRAME IOVERLAY, 0, STATIC
        ARGFRAME DOVERLAY, 0, STATIC
        FUNCALL zclZigbeeRecv_event_loop, ZSendMsgProcess
        LOCFRAME ISTACK, 0, STACK
        LOCFRAME PSTACK, 0, STACK
        LOCFRAME XSTACK, 23, STACK
        LOCFRAME IOVERLAY, 0, STATIC
        LOCFRAME DOVERLAY, 0, STATIC
        ARGFRAME ISTACK, 0, STACK
        ARGFRAME PSTACK, 0, STACK
        ARGFRAME XSTACK, 23, STACK
        ARGFRAME IOVERLAY, 0, STATIC
        ARGFRAME DOVERLAY, 0, STATIC
        FUNCALL zclZigbeeRecv_event_loop, show
        LOCFRAME ISTACK, 0, STACK
        LOCFRAME PSTACK, 0, STACK
        LOCFRAME XSTACK, 23, STACK
        LOCFRAME IOVERLAY, 0, STATIC
        LOCFRAME DOVERLAY, 0, STATIC
        ARGFRAME ISTACK, 0, STACK
        ARGFRAME PSTACK, 0, STACK
        ARGFRAME XSTACK, 23, STACK
        ARGFRAME IOVERLAY, 0, STATIC
        ARGFRAME DOVERLAY, 0, STATIC
        FUNCALL zclZigbeeRecv_event_loop, zclZigbeeReceiver_ProcessIdentifyTimeChange
        LOCFRAME ISTACK, 0, STACK
        LOCFRAME PSTACK, 0, STACK
        LOCFRAME XSTACK, 23, STACK
        LOCFRAME IOVERLAY, 0, STATIC
        LOCFRAME DOVERLAY, 0, STATIC
        ARGFRAME ISTACK, 0, STACK
        ARGFRAME PSTACK, 0, STACK
        ARGFRAME XSTACK, 23, STACK
        ARGFRAME IOVERLAY, 0, STATIC
        ARGFRAME DOVERLAY, 0, STATIC
        FUNCALL zclZigbeeRecv_event_loop, show
        LOCFRAME ISTACK, 0, STACK
        LOCFRAME PSTACK, 0, STACK
        LOCFRAME XSTACK, 23, STACK
        LOCFRAME IOVERLAY, 0, STATIC
        LOCFRAME DOVERLAY, 0, STATIC
        ARGFRAME ISTACK, 0, STACK
        ARGFRAME PSTACK, 0, STACK
        ARGFRAME XSTACK, 23, STACK
        ARGFRAME IOVERLAY, 0, STATIC
        ARGFRAME DOVERLAY, 0, STATIC
        FUNCALL zclZigbeeRecv_event_loop, zclUartReceiver
        LOCFRAME ISTACK, 0, STACK
        LOCFRAME PSTACK, 0, STACK
        LOCFRAME XSTACK, 23, STACK
        LOCFRAME IOVERLAY, 0, STATIC
        LOCFRAME DOVERLAY, 0, STATIC
        ARGFRAME ISTACK, 0, STACK
        ARGFRAME PSTACK, 0, STACK
        ARGFRAME XSTACK, 23, STACK
        ARGFRAME IOVERLAY, 0, STATIC
        ARGFRAME DOVERLAY, 0, STATIC
        FUNCALL zclZigbeeRecv_event_loop, show
        LOCFRAME ISTACK, 0, STACK
        LOCFRAME PSTACK, 0, STACK
        LOCFRAME XSTACK, 23, STACK
        LOCFRAME IOVERLAY, 0, STATIC
        LOCFRAME DOVERLAY, 0, STATIC
        ARGFRAME ISTACK, 0, STACK
        ARGFRAME PSTACK, 0, STACK
        ARGFRAME XSTACK, 23, STACK
        ARGFRAME IOVERLAY, 0, STATIC
        ARGFRAME DOVERLAY, 0, STATIC
        FUNCALL zclZigbeeRecv_event_loop, HalLcdWriteChar
        LOCFRAME ISTACK, 0, STACK
        LOCFRAME PSTACK, 0, STACK
        LOCFRAME XSTACK, 23, STACK
        LOCFRAME IOVERLAY, 0, STATIC
        LOCFRAME DOVERLAY, 0, STATIC
        ARGFRAME ISTACK, 0, STACK
        ARGFRAME PSTACK, 0, STACK
        ARGFRAME XSTACK, 23, STACK
        ARGFRAME IOVERLAY, 0, STATIC
        ARGFRAME DOVERLAY, 0, STATIC
        MOV     A,#-0xe
        LCALL   ?BANKED_ENTER_XDATA
        CFI DPH0 load(1, XDATA, add(CFA_XSP16, literal(-1)))
        CFI DPL0 load(1, XDATA, add(CFA_XSP16, literal(-2)))
        CFI ?BRET_EXT load(1, XDATA, add(CFA_XSP16, literal(-3)))
        CFI ?RET_HIGH load(1, XDATA, add(CFA_XSP16, literal(-4)))
        CFI ?RET_LOW load(1, XDATA, add(CFA_XSP16, literal(-5)))
        CFI R7 load(1, XDATA, add(CFA_XSP16, literal(-6)))
        CFI V5 load(1, XDATA, add(CFA_XSP16, literal(-7)))
        CFI V4 load(1, XDATA, add(CFA_XSP16, literal(-8)))
        CFI V3 load(1, XDATA, add(CFA_XSP16, literal(-9)))
        CFI V2 load(1, XDATA, add(CFA_XSP16, literal(-10)))
        CFI V1 load(1, XDATA, add(CFA_XSP16, literal(-11)))
        CFI V0 load(1, XDATA, add(CFA_XSP16, literal(-12)))
        CFI VB load(1, XDATA, add(CFA_XSP16, literal(-13)))
        CFI R6 load(1, XDATA, add(CFA_XSP16, literal(-14)))
        CFI CFA_SP SP+0
        CFI CFA_XSP16 add(XSP16, 14)
        ; Saved register size: 14
        ; Auto size: 9
        MOV     A,#-0x9
        LCALL   ?ALLOC_XSTACK8
        CFI CFA_XSP16 add(XSP16, 23)
        MOV     ?V0 + 2,R2
        MOV     ?V0 + 3,R3
//  171     afIncomingMSGPacket_t *MSGpkt;
//  172     (void)task_id;  // Intentionally unreferenced parameter
//  173   
//  174     if ( events & SYS_EVENT_MSG ) // SYSTEM Message event
        MOV     A,#-0x80
        ANL     A,?V0 + 3
        MOV     R1,A
        CLR     A
        JNZ     ??zclZigbeeRecv_event_loop_0
        MOV     A,R1
??zclZigbeeRecv_event_loop_0:
        JNZ     ??zclZigbeeRecv_event_loop_1
//  175     {
//  176       while ( (MSGpkt = (afIncomingMSGPacket_t *)osal_msg_receive( zclZigbeeReceiver_TaskID )) )
//  177       {   
//  178         switch ( MSGpkt->hdr.event )
//  179         {       
//  180         case ZCL_INCOMING_MSG: //0x34 : Incoming ZCL foundation message
//  181             show("ZCL_INCOMING_MSG");
//  182             // Incoming ZCL Foundation command/response messages
//  183             zclZigbeeReceiver_ProcessIncomingMsg( (zclIncomingMsg_t *)MSGpkt ); 
//  184             break; 
//  185         case KEY_CHANGE: //0xC0 : Key Events
//  186             show("KEY_CHANGE");
//  187             zclZigbeeReceiver_HandleKeys( ((keyChange_t *)MSGpkt)->state, ((keyChange_t *)MSGpkt)->keys );            
//  188             break;           
//  189         case AF_DATA_CONFIRM_CMD:           
//  190             strcpy(device_manager.Type, "\r 1 \n");  
//  191             strcpy(device_manager.Module, "\r 140 \n");        
//  192             
//  193             if (MSGpkt->cmd.DataLength > 0)
//  194               for(len = 0; len < MSGpkt->cmd.DataLength; len++) // Send the recv_data to UART
//  195               {
//  196                 device_manager.Data[len] = MSGpkt->cmd.Data[len+3]; // the cmd.Data[0~2] is cluster ID.
//  197               }       
//  198             len = MSGpkt->cmd.DataLength;
//  199             break;         
//  200         case ZDO_STATE_CHANGE:       
//  201 //            show("ZDO_STATE_CHANGE");
//  202             ZSendMsgProcess("Hi");            
//  203             break;         
//  204         case ZDO_MATCH_DESC_RSP_SENT:       
//  205             show("ZDO_MATCH_DESC_RSP_SENT");
//  206             // Check the state of NWK
//  207             break;         
//  208           default:
//  209             break;
//  210         }
//  211         osal_msg_deallocate( (uint8 *)MSGpkt ); // Release the memory
//  212       }
//  213       return (events ^ SYS_EVENT_MSG); // return unprocessed events
//  214     }
//  215   
//  216     // The user define application events
//  217     switch ( events )
        MOV     R0,#?V0 + 2
        LCALL   ?US_SWITCH_SPARSE
`?<Jumptable for zclZigbeeRecv_event_loop>_0`:
        DATA
        DW        0
        DW        4
        DW        1
        DW        ??zclZigbeeRecv_event_loop_2
        DW        2
        DW        ??zclZigbeeRecv_event_loop_3
        DW        3
        DW        ??zclZigbeeRecv_event_loop_4
        DW        2048
        DW        ??zclZigbeeRecv_event_loop_5
        DW        ??zclZigbeeRecv_event_loop_6
        CODE
//  218     {
//  219       case ZDO_MSG_SEND_EVT:
//  220 //          show("ZDO_MSG_SEND_EVT");
//  221             ZSendMsgProcess("Chris:ZDO_MSG_SEND_EVT");                
??zclZigbeeRecv_event_loop_5:
        ; Setup parameters for call to function ZSendMsgProcess
        MOV     R2,#(`?<Constant "Chris:ZDO_MSG_SEND_EVT">` & 0xff)
        MOV     R3,#((`?<Constant "Chris:ZDO_MSG_SEND_EVT">` >> 8) & 0xff)
        LCALL   ??ZSendMsgProcess?relay
        LJMP    ??zclZigbeeRecv_event_loop_6 & 0xFFFF
??zclZigbeeRecv_event_loop_7:
        ; Setup parameters for call to function show
        MOV     R2,#(`?<Constant "ZDO_MATCH_DESC_RSP_SENT">` & 0xff)
        MOV     R3,#((`?<Constant "ZDO_MATCH_DESC_RSP_SENT">` >> 8) & 0xff)
        LCALL   ??show?relay
??zclZigbeeRecv_event_loop_8:
        ; Setup parameters for call to function osal_msg_deallocate
        MOV     R2,?V0 + 0
        MOV     R3,?V0 + 1
        LCALL   ??osal_msg_deallocate?relay
??zclZigbeeRecv_event_loop_1:
        ; Setup parameters for call to function osal_msg_receive
        MOV     DPTR,#zclZigbeeReceiver_TaskID
        MOVX    A,@DPTR
        MOV     R1,A
        LCALL   ??osal_msg_receive?relay
        MOV     ?V0 + 0,R2
        MOV     ?V0 + 1,R3
        MOV     A,R2
        JNZ     ??zclZigbeeRecv_event_loop_9
        MOV     A,R3
??zclZigbeeRecv_event_loop_9:
        JNZ     $+5
        LJMP    ??zclZigbeeRecv_event_loop_10 & 0xFFFF
        MOV     DPL,R2
        MOV     DPH,R3
        MOVX    A,@DPTR
        LCALL   ?UC_SWITCH_SPARSE
`?<Jumptable for zclZigbeeRecv_event_loop>_1`:
        DATA
        DB        0
        DB        5
        DB        52
        DW        ??zclZigbeeRecv_event_loop_11
        DB        192
        DW        ??zclZigbeeRecv_event_loop_12
        DB        209
        DW        ??zclZigbeeRecv_event_loop_13
        DB        210
        DW        ??zclZigbeeRecv_event_loop_7
        DB        253
        DW        ??zclZigbeeRecv_event_loop_14
        DW        ??zclZigbeeRecv_event_loop_8
        CODE
??zclZigbeeRecv_event_loop_11:
        ; Setup parameters for call to function show
        MOV     R2,#(`?<Constant "ZCL_INCOMING_MSG">` & 0xff)
        MOV     R3,#((`?<Constant "ZCL_INCOMING_MSG">` >> 8) & 0xff)
        LCALL   ?Subroutine1 & 0xFFFF
??CrossCallReturnLabel_2:
        INC     DPTR
        INC     DPTR
        INC     DPTR
        INC     DPTR
        MOVX    A,@DPTR
        LCALL   ?UC_SWITCH_SPARSE
`?<Jumptable for zclZigbeeRecv_event_loop>_2`:
        DATA
        DB        0
        DB        2
        DB        1
        DW        ??zclZigbeeRecv_event_loop_15
        DB        4
        DW        ??zclZigbeeRecv_event_loop_16
        DW        ??zclZigbeeRecv_event_loop_17
        CODE
??zclZigbeeRecv_event_loop_15:
        LCALL   ?Subroutine0 & 0xFFFF
??CrossCallReturnLabel_0:
        MOVX    A,@DPTR
        MOV     R2,A
        MOV     A,R3
        CLR     C
        SUBB    A,R2
        JNC     ??zclZigbeeRecv_event_loop_17
        INC     R3
        SJMP    ??CrossCallReturnLabel_0
??zclZigbeeRecv_event_loop_16:
        LCALL   ?Subroutine0 & 0xFFFF
??CrossCallReturnLabel_1:
        SJMP    ??zclZigbeeRecv_event_loop_18
??zclZigbeeRecv_event_loop_19:
        INC     R3
??zclZigbeeRecv_event_loop_18:
        MOVX    A,@DPTR
        MOV     R2,A
        MOV     A,R3
        CLR     C
        SUBB    A,R2
        JC      ??zclZigbeeRecv_event_loop_19
??zclZigbeeRecv_event_loop_17:
        LCALL   ?Subroutine2 & 0xFFFF
??CrossCallReturnLabel_4:
        MOV     R2,A
        INC     DPTR
        MOVX    A,@DPTR
        MOV     R3,A
        MOV     A,R2
        JNZ     ??zclZigbeeRecv_event_loop_20
        MOV     A,R3
??zclZigbeeRecv_event_loop_20:
        JZ      ??zclZigbeeRecv_event_loop_8
        ; Setup parameters for call to function osal_mem_free
        LCALL   ??osal_mem_free?relay
        SJMP    ??zclZigbeeRecv_event_loop_8
??zclZigbeeRecv_event_loop_12:
        ; Setup parameters for call to function show
        MOV     R2,#(`?<Constant "KEY_CHANGE">` & 0xff)
        MOV     R3,#((`?<Constant "KEY_CHANGE">` >> 8) & 0xff)
        LCALL   ?Subroutine1 & 0xFFFF
??CrossCallReturnLabel_3:
        MOVX    A,@DPTR
        MOV     C,0xE0 /* A   */.0
        JC      $+5
        LJMP    ??zclZigbeeRecv_event_loop_8 & 0xFFFF
        MOV     A,#0x8
        LCALL   ?XSTACK_DISP0_8
        MOV     A,#0x2
        MOVX    @DPTR,A
        MOV     DPL,?XSP + 0
        MOV     DPH,?XSP + 1
        CLR     A
        MOVX    @DPTR,A
        INC     DPTR
        MOVX    @DPTR,A
        ; Setup parameters for call to function ZDP_EndDeviceBindReq
        MOV     ?V0 + 4,#0x1
        MOV     R0,#?V0 + 4
        LCALL   ?PUSH_XSTACK_I_ONE
        CFI CFA_XSP16 add(XSP16, 24)
        MOV     ?V0 + 4,#0x0
        MOV     ?V0 + 5,#0x0
        MOV     R0,#?V0 + 4
        LCALL   ?PUSH_XSTACK_I_TWO
        CFI CFA_XSP16 add(XSP16, 26)
        MOV     R0,#?V0 + 4
        LCALL   ?PUSH_XSTACK_I_ONE
        CFI CFA_XSP16 add(XSP16, 27)
        MOV     ?V0 + 4,#(bindingInClusters & 0xff)
        MOV     ?V0 + 5,#((bindingInClusters >> 8) & 0xff)
        MOV     R0,#?V0 + 4
        LCALL   ?PUSH_XSTACK_I_TWO
        CFI CFA_XSP16 add(XSP16, 29)
        MOV     ?V0 + 4,#0x2
        MOV     R0,#?V0 + 4
        LCALL   ?PUSH_XSTACK_I_ONE
        CFI CFA_XSP16 add(XSP16, 30)
        MOV     ?V0 + 4,#0x4
        MOV     ?V0 + 5,#0x1
        MOV     R0,#?V0 + 4
        LCALL   ?PUSH_XSTACK_I_TWO
        CFI CFA_XSP16 add(XSP16, 32)
        ; Setup parameters for call to function NLME_GetShortAddr
        LCALL   ??NLME_GetShortAddr?relay
        MOV     A,R2
        MOV     R4,A
        MOV     A,R3
        MOV     R5,A
        MOV     R1,#0xd
        MOV     A,#0x9
        LCALL   ?XSTACK_DISP0_8
        MOV     R2,DPL
        MOV     R3,DPH
        LCALL   ??ZDP_EndDeviceBindReq?relay
        MOV     A,#0x9
        LCALL   ?DEALLOC_XSTACK8
        CFI CFA_XSP16 add(XSP16, 23)
        LJMP    ??zclZigbeeRecv_event_loop_8 & 0xFFFF
??zclZigbeeRecv_event_loop_14:
        ; Setup parameters for call to function strcpy
        MOV     R4,#(`?<Constant "\\r 1 \\n">` & 0xff)
        MOV     R5,#((`?<Constant "\\r 1 \\n">` >> 8) & 0xff)
        MOV     R2,#(device_manager & 0xff)
        MOV     R3,#((device_manager >> 8) & 0xff)
        LCALL   ??strcpy?relay
        ; Setup parameters for call to function strcpy
        MOV     R4,#(`?<Constant "\\r 140 \\n">` & 0xff)
        MOV     R5,#((`?<Constant "\\r 140 \\n">` >> 8) & 0xff)
        MOV     R2,#((device_manager + 8) & 0xff)
        MOV     R3,#(((device_manager + 8) >> 8) & 0xff)
        LCALL   ??strcpy?relay
        MOV     A,?V0 + 0
        ADD     A,#0x1f
        MOV     R0,A
        MOV     A,?V0 + 1
        ADDC    A,#0x0
        MOV     R1,A
        MOV     DPL,R0
        MOV     DPH,R1
        MOVX    A,@DPTR
        JNZ     ??zclZigbeeRecv_event_loop_21
        INC     DPTR
        MOVX    A,@DPTR
??zclZigbeeRecv_event_loop_21:
        JZ      ??zclZigbeeRecv_event_loop_22
        CLR     A
        MOV     DPTR,#len
        SJMP    ??zclZigbeeRecv_event_loop_23
??zclZigbeeRecv_event_loop_24:
        MOV     DPTR,#len
        MOVX    A,@DPTR
        MOV     R2,A
        MOV     A,?V0 + 0
        ADD     A,#0x21
        MOV     DPL,A
        MOV     A,?V0 + 1
        ADDC    A,#0x0
        MOV     DPH,A
        MOVX    A,@DPTR
        ADD     A,R2
        MOV     R4,A
        INC     DPTR
        MOVX    A,@DPTR
        ADDC    A,#0x0
        MOV     DPL,R4
        MOV     DPH,A
        INC     DPTR
        INC     DPTR
        INC     DPTR
        MOVX    A,@DPTR
        PUSH    A
        CFI CFA_SP SP+-1
        MOV     A,R2
        ADD     A,#((device_manager + 18) & 0xff)
        MOV     DPL,A
        CLR     A
        ADDC    A,#(((device_manager + 18) >> 8) & 0xff)
        MOV     DPH,A
        POP     A
        CFI CFA_SP SP+0
        MOVX    @DPTR,A
        MOV     DPTR,#len
        MOVX    A,@DPTR
        INC     A
??zclZigbeeRecv_event_loop_23:
        MOVX    @DPTR,A
        MOVX    A,@DPTR
        MOV     R4,A
        MOV     DPL,R0
        MOV     DPH,R1
        MOVX    A,@DPTR
        MOV     R2,A
        INC     DPTR
        MOVX    A,@DPTR
        MOV     R3,A
        CLR     C
        MOV     A,R4
        SUBB    A,R2
        CLR     A
        SUBB    A,R3
        JC      ??zclZigbeeRecv_event_loop_24
??zclZigbeeRecv_event_loop_22:
        MOV     DPL,R0
        MOV     DPH,R1
        MOVX    A,@DPTR
        MOV     DPTR,#len
        MOVX    @DPTR,A
        LJMP    ??zclZigbeeRecv_event_loop_8 & 0xFFFF
??zclZigbeeRecv_event_loop_13:
        ; Setup parameters for call to function ZSendMsgProcess
        MOV     R2,#(`?<Constant "Hi">` & 0xff)
        MOV     R3,#((`?<Constant "Hi">` >> 8) & 0xff)
        LCALL   ??ZSendMsgProcess?relay
        LJMP    ??zclZigbeeRecv_event_loop_8 & 0xFFFF
??zclZigbeeRecv_event_loop_10:
        MOV     R2,?V0 + 2
        MOV     A,#-0x80
        XRL     A,?V0 + 3
        MOV     R3,A
        SJMP    ??zclZigbeeRecv_event_loop_25
//  222             break;
//  223       case SAMPLELIGHT_IDENTIFY_TIMEOUT_EVT: // ZIGBEE Receiver identify timeout event
//  224         show("SAMPLELIGHT_IDENTIFY_TIMEOUT_EVT");
??zclZigbeeRecv_event_loop_2:
        ; Setup parameters for call to function show
        MOV     R2,#(`?<Constant "SAMPLELIGHT_IDENTIFY_...">` & 0xff)
        MOV     R3,#((`?<Constant "SAMPLELIGHT_IDENTIFY_...">` >> 8) & 0xff)
        LCALL   ??show?relay
//  225         if ( zclZigbeeRecv_IdentifyTime > 0 )
        MOV     DPTR,#zclZigbeeRecv_IdentifyTime
        MOVX    A,@DPTR
        JNZ     ??zclZigbeeRecv_event_loop_26
        INC     DPTR
        MOVX    A,@DPTR
??zclZigbeeRecv_event_loop_26:
        JZ      ??zclZigbeeRecv_event_loop_27
//  226              zclZigbeeRecv_IdentifyTime--;
        MOV     DPTR,#zclZigbeeRecv_IdentifyTime
        MOVX    A,@DPTR
        ADD     A,#-0x1
        MOVX    @DPTR,A
        INC     DPTR
        MOVX    A,@DPTR
        ADDC    A,#-0x1
        MOVX    @DPTR,A
//  227              zclZigbeeReceiver_ProcessIdentifyTimeChange();
??zclZigbeeRecv_event_loop_27:
        ; Setup parameters for call to function zclZigbeeReceiver_ProcessIdentifyTimeChange
        LCALL   ??zclZigbeeReceiver_ProcessIdentifyTimeChange?r
        SJMP    ??zclZigbeeRecv_event_loop_6
//  228         break;
//  229       
//  230       case UART_MSG_EVT: // The UART Message event
//  231         show("UART_MSG_EVT");
??zclZigbeeRecv_event_loop_3:
        ; Setup parameters for call to function show
        MOV     R2,#(`?<Constant "UART_MSG_EVT">` & 0xff)
        MOV     R3,#((`?<Constant "UART_MSG_EVT">` >> 8) & 0xff)
        LCALL   ??show?relay
//  232         zclUartReceiver();
        ; Setup parameters for call to function zclUartReceiver
        LCALL   ??zclUartReceiver?relay
        SJMP    ??zclZigbeeRecv_event_loop_6
//  233         break;
//  234       
//  235       case KEYPAD_MSG_EVT: // The KEYPAD keyin event
//  236         show("KEYPAD_MSG_EVT");
??zclZigbeeRecv_event_loop_4:
        ; Setup parameters for call to function show
        MOV     R2,#(`?<Constant "KEYPAD_MSG_EVT">` & 0xff)
        MOV     R3,#((`?<Constant "KEYPAD_MSG_EVT">` >> 8) & 0xff)
        LCALL   ??show?relay
//  237         #if defined( LCD_SUPPORTED )
//  238           HalLcdWriteChar(HAL_LCD_LINE_3, 0, ch);
        ; Setup parameters for call to function HalLcdWriteChar
        MOV     DPTR,#ch
        MOVX    A,@DPTR
        MOV     R3,A
        MOV     R2,#0x0
        MOV     R1,#0x3
        LCALL   ??HalLcdWriteChar?relay
//  239         #endif
//  240         break;
//  241     }    
//  242     return 0; // Discard unknown events
??zclZigbeeRecv_event_loop_6:
        MOV     R2,#0x0
        MOV     R3,#0x0
??zclZigbeeRecv_event_loop_25:
        MOV     A,#0x9
        LCALL   ?DEALLOC_XSTACK8
        CFI CFA_XSP16 add(XSP16, 14)
        MOV     R7,#0x6
        LJMP    ?BANKED_LEAVE_XDATA
        CFI EndBlock cfiBlock3
//  243 }

        RSEG BANKED_CODE:CODE:NOROOT(0)
?Subroutine1:
        CFI Block cfiCond4 Using cfiCommon0
        CFI NoFunction
        CFI Conditional ??CrossCallReturnLabel_2
        CFI R6 load(1, XDATA, add(CFA_XSP16, literal(-14)))
        CFI VB load(1, XDATA, add(CFA_XSP16, literal(-13)))
        CFI V0 load(1, XDATA, add(CFA_XSP16, literal(-12)))
        CFI V1 load(1, XDATA, add(CFA_XSP16, literal(-11)))
        CFI V2 load(1, XDATA, add(CFA_XSP16, literal(-10)))
        CFI V3 load(1, XDATA, add(CFA_XSP16, literal(-9)))
        CFI V4 load(1, XDATA, add(CFA_XSP16, literal(-8)))
        CFI V5 load(1, XDATA, add(CFA_XSP16, literal(-7)))
        CFI R7 load(1, XDATA, add(CFA_XSP16, literal(-6)))
        CFI ?RET_LOW load(1, XDATA, add(CFA_XSP16, literal(-5)))
        CFI ?RET_HIGH load(1, XDATA, add(CFA_XSP16, literal(-4)))
        CFI ?BRET_EXT load(1, XDATA, add(CFA_XSP16, literal(-3)))
        CFI DPL0 load(1, XDATA, add(CFA_XSP16, literal(-2)))
        CFI DPH0 load(1, XDATA, add(CFA_XSP16, literal(-1)))
        CFI CFA_SP SP+0
        CFI CFA_XSP16 add(XSP16, 23)
        CFI Block cfiCond5 Using cfiCommon0
        CFI (cfiCond5) NoFunction
        CFI (cfiCond5) Conditional ??CrossCallReturnLabel_3
        CFI (cfiCond5) R6 load(1, XDATA, add(CFA_XSP16, literal(-14)))
        CFI (cfiCond5) VB load(1, XDATA, add(CFA_XSP16, literal(-13)))
        CFI (cfiCond5) V0 load(1, XDATA, add(CFA_XSP16, literal(-12)))
        CFI (cfiCond5) V1 load(1, XDATA, add(CFA_XSP16, literal(-11)))
        CFI (cfiCond5) V2 load(1, XDATA, add(CFA_XSP16, literal(-10)))
        CFI (cfiCond5) V3 load(1, XDATA, add(CFA_XSP16, literal(-9)))
        CFI (cfiCond5) V4 load(1, XDATA, add(CFA_XSP16, literal(-8)))
        CFI (cfiCond5) V5 load(1, XDATA, add(CFA_XSP16, literal(-7)))
        CFI (cfiCond5) R7 load(1, XDATA, add(CFA_XSP16, literal(-6)))
        CFI (cfiCond5) ?RET_LOW load(1, XDATA, add(CFA_XSP16, literal(-5)))
        CFI (cfiCond5) ?RET_HIGH load(1, XDATA, add(CFA_XSP16, literal(-4)))
        CFI (cfiCond5) ?BRET_EXT load(1, XDATA, add(CFA_XSP16, literal(-3)))
        CFI (cfiCond5) DPL0 load(1, XDATA, add(CFA_XSP16, literal(-2)))
        CFI (cfiCond5) DPH0 load(1, XDATA, add(CFA_XSP16, literal(-1)))
        CFI (cfiCond5) CFA_SP SP+0
        CFI (cfiCond5) CFA_XSP16 add(XSP16, 23)
        CFI Block cfiPicker6 Using cfiCommon1
        CFI (cfiPicker6) NoFunction
        CFI (cfiPicker6) Picker
        LCALL   ??show?relay
        MOV     DPL,?V0 + 0
        MOV     DPH,?V0 + 1
        INC     DPTR
        INC     DPTR
        INC     DPTR
        RET
        CFI EndBlock cfiCond4
        CFI EndBlock cfiCond5
        CFI EndBlock cfiPicker6

        RSEG BANKED_CODE:CODE:NOROOT(0)
?Subroutine0:
        CFI Block cfiCond7 Using cfiCommon0
        CFI NoFunction
        CFI Conditional ??CrossCallReturnLabel_0
        CFI R6 load(1, XDATA, add(CFA_XSP16, literal(-14)))
        CFI VB load(1, XDATA, add(CFA_XSP16, literal(-13)))
        CFI V0 load(1, XDATA, add(CFA_XSP16, literal(-12)))
        CFI V1 load(1, XDATA, add(CFA_XSP16, literal(-11)))
        CFI V2 load(1, XDATA, add(CFA_XSP16, literal(-10)))
        CFI V3 load(1, XDATA, add(CFA_XSP16, literal(-9)))
        CFI V4 load(1, XDATA, add(CFA_XSP16, literal(-8)))
        CFI V5 load(1, XDATA, add(CFA_XSP16, literal(-7)))
        CFI R7 load(1, XDATA, add(CFA_XSP16, literal(-6)))
        CFI ?RET_LOW load(1, XDATA, add(CFA_XSP16, literal(-5)))
        CFI ?RET_HIGH load(1, XDATA, add(CFA_XSP16, literal(-4)))
        CFI ?BRET_EXT load(1, XDATA, add(CFA_XSP16, literal(-3)))
        CFI DPL0 load(1, XDATA, add(CFA_XSP16, literal(-2)))
        CFI DPH0 load(1, XDATA, add(CFA_XSP16, literal(-1)))
        CFI CFA_SP SP+0
        CFI CFA_XSP16 add(XSP16, 23)
        CFI Block cfiCond8 Using cfiCommon0
        CFI (cfiCond8) NoFunction
        CFI (cfiCond8) Conditional ??CrossCallReturnLabel_1
        CFI (cfiCond8) R6 load(1, XDATA, add(CFA_XSP16, literal(-14)))
        CFI (cfiCond8) VB load(1, XDATA, add(CFA_XSP16, literal(-13)))
        CFI (cfiCond8) V0 load(1, XDATA, add(CFA_XSP16, literal(-12)))
        CFI (cfiCond8) V1 load(1, XDATA, add(CFA_XSP16, literal(-11)))
        CFI (cfiCond8) V2 load(1, XDATA, add(CFA_XSP16, literal(-10)))
        CFI (cfiCond8) V3 load(1, XDATA, add(CFA_XSP16, literal(-9)))
        CFI (cfiCond8) V4 load(1, XDATA, add(CFA_XSP16, literal(-8)))
        CFI (cfiCond8) V5 load(1, XDATA, add(CFA_XSP16, literal(-7)))
        CFI (cfiCond8) R7 load(1, XDATA, add(CFA_XSP16, literal(-6)))
        CFI (cfiCond8) ?RET_LOW load(1, XDATA, add(CFA_XSP16, literal(-5)))
        CFI (cfiCond8) ?RET_HIGH load(1, XDATA, add(CFA_XSP16, literal(-4)))
        CFI (cfiCond8) ?BRET_EXT load(1, XDATA, add(CFA_XSP16, literal(-3)))
        CFI (cfiCond8) DPL0 load(1, XDATA, add(CFA_XSP16, literal(-2)))
        CFI (cfiCond8) DPH0 load(1, XDATA, add(CFA_XSP16, literal(-1)))
        CFI (cfiCond8) CFA_SP SP+0
        CFI (cfiCond8) CFA_XSP16 add(XSP16, 23)
        CFI Block cfiPicker9 Using cfiCommon1
        CFI (cfiPicker9) NoFunction
        CFI (cfiPicker9) Picker
        LCALL   ?Subroutine2 & 0xFFFF
??CrossCallReturnLabel_5:
        MOV     R0,A
        INC     DPTR
        MOVX    A,@DPTR
        MOV     R1,A
        MOV     DPL,R0
        MOV     DPH,R1
        MOV     R3,#0x0
        RET
        CFI EndBlock cfiCond7
        CFI EndBlock cfiCond8
        CFI EndBlock cfiPicker9

        RSEG BANKED_CODE:CODE:NOROOT(0)
?Subroutine2:
        CFI Block cfiCond10 Using cfiCommon0
        CFI NoFunction
        CFI Conditional ??CrossCallReturnLabel_4
        CFI R6 load(1, XDATA, add(CFA_XSP16, literal(-14)))
        CFI VB load(1, XDATA, add(CFA_XSP16, literal(-13)))
        CFI V0 load(1, XDATA, add(CFA_XSP16, literal(-12)))
        CFI V1 load(1, XDATA, add(CFA_XSP16, literal(-11)))
        CFI V2 load(1, XDATA, add(CFA_XSP16, literal(-10)))
        CFI V3 load(1, XDATA, add(CFA_XSP16, literal(-9)))
        CFI V4 load(1, XDATA, add(CFA_XSP16, literal(-8)))
        CFI V5 load(1, XDATA, add(CFA_XSP16, literal(-7)))
        CFI R7 load(1, XDATA, add(CFA_XSP16, literal(-6)))
        CFI ?RET_LOW load(1, XDATA, add(CFA_XSP16, literal(-5)))
        CFI ?RET_HIGH load(1, XDATA, add(CFA_XSP16, literal(-4)))
        CFI ?BRET_EXT load(1, XDATA, add(CFA_XSP16, literal(-3)))
        CFI DPL0 load(1, XDATA, add(CFA_XSP16, literal(-2)))
        CFI DPH0 load(1, XDATA, add(CFA_XSP16, literal(-1)))
        CFI CFA_SP SP+0
        CFI CFA_XSP16 add(XSP16, 23)
        CFI Block cfiCond11 Using cfiCommon0
        CFI (cfiCond11) NoFunction
        CFI (cfiCond11) Conditional ??CrossCallReturnLabel_5, ??CrossCallReturnLabel_0
        CFI (cfiCond11) R6 load(1, XDATA, add(CFA_XSP16, literal(-14)))
        CFI (cfiCond11) VB load(1, XDATA, add(CFA_XSP16, literal(-13)))
        CFI (cfiCond11) V0 load(1, XDATA, add(CFA_XSP16, literal(-12)))
        CFI (cfiCond11) V1 load(1, XDATA, add(CFA_XSP16, literal(-11)))
        CFI (cfiCond11) V2 load(1, XDATA, add(CFA_XSP16, literal(-10)))
        CFI (cfiCond11) V3 load(1, XDATA, add(CFA_XSP16, literal(-9)))
        CFI (cfiCond11) V4 load(1, XDATA, add(CFA_XSP16, literal(-8)))
        CFI (cfiCond11) V5 load(1, XDATA, add(CFA_XSP16, literal(-7)))
        CFI (cfiCond11) R7 load(1, XDATA, add(CFA_XSP16, literal(-6)))
        CFI (cfiCond11) ?RET_LOW load(1, XDATA, add(CFA_XSP16, literal(-5)))
        CFI (cfiCond11) ?RET_HIGH load(1, XDATA, add(CFA_XSP16, literal(-4)))
        CFI (cfiCond11) ?BRET_EXT load(1, XDATA, add(CFA_XSP16, literal(-3)))
        CFI (cfiCond11) DPL0 load(1, XDATA, add(CFA_XSP16, literal(-2)))
        CFI (cfiCond11) DPH0 load(1, XDATA, add(CFA_XSP16, literal(-1)))
        CFI (cfiCond11) CFA_SP SP+0
        CFI (cfiCond11) CFA_XSP16 add(XSP16, 23)
        CFI Block cfiCond12 Using cfiCommon0
        CFI (cfiCond12) NoFunction
        CFI (cfiCond12) Conditional ??CrossCallReturnLabel_5, ??CrossCallReturnLabel_1
        CFI (cfiCond12) R6 load(1, XDATA, add(CFA_XSP16, literal(-14)))
        CFI (cfiCond12) VB load(1, XDATA, add(CFA_XSP16, literal(-13)))
        CFI (cfiCond12) V0 load(1, XDATA, add(CFA_XSP16, literal(-12)))
        CFI (cfiCond12) V1 load(1, XDATA, add(CFA_XSP16, literal(-11)))
        CFI (cfiCond12) V2 load(1, XDATA, add(CFA_XSP16, literal(-10)))
        CFI (cfiCond12) V3 load(1, XDATA, add(CFA_XSP16, literal(-9)))
        CFI (cfiCond12) V4 load(1, XDATA, add(CFA_XSP16, literal(-8)))
        CFI (cfiCond12) V5 load(1, XDATA, add(CFA_XSP16, literal(-7)))
        CFI (cfiCond12) R7 load(1, XDATA, add(CFA_XSP16, literal(-6)))
        CFI (cfiCond12) ?RET_LOW load(1, XDATA, add(CFA_XSP16, literal(-5)))
        CFI (cfiCond12) ?RET_HIGH load(1, XDATA, add(CFA_XSP16, literal(-4)))
        CFI (cfiCond12) ?BRET_EXT load(1, XDATA, add(CFA_XSP16, literal(-3)))
        CFI (cfiCond12) DPL0 load(1, XDATA, add(CFA_XSP16, literal(-2)))
        CFI (cfiCond12) DPH0 load(1, XDATA, add(CFA_XSP16, literal(-1)))
        CFI (cfiCond12) CFA_SP SP+0
        CFI (cfiCond12) CFA_XSP16 add(XSP16, 23)
        CFI Block cfiPicker13 Using cfiCommon1
        CFI (cfiPicker13) NoFunction
        CFI (cfiPicker13) Picker
        MOV     A,?V0 + 0
        ADD     A,#0x16
        MOV     DPL,A
        MOV     A,?V0 + 1
        ADDC    A,#0x0
        MOV     DPH,A
        MOVX    A,@DPTR
        RET
        CFI EndBlock cfiCond10
        CFI EndBlock cfiCond11
        CFI EndBlock cfiCond12
        CFI EndBlock cfiPicker13
//  244 
//  245 /*********************************************************************
//  246  * @fn      zclZigbeeReceiver_HandleKeys
//  247  * @brief   Handles all key events for this device.
//  248  * @param   shift - true if in shift/alt.
//  249  * @param   keys - bit field for key events.
//  250  *          Valid entries: HAL_KEY_SW_1(MCU-K1)                        
//  251  */
//  252 static void zclZigbeeReceiver_HandleKeys( byte shift, byte keys )
//  253 {
//  254   zAddrType_t dstAddr;
//  255   (void)shift; // Intentionally unreferenced parameter
//  256   
//  257 #if defined(Coor_receiver) || defined (Router_receiver)
//  258 
//  259   if ( keys & HAL_KEY_SW1 ) // Init EndDevice bind reequest, and use cluster list important to binding.
//  260   {
//  261     dstAddr.addrMode = afAddr16Bit;
//  262     dstAddr.addr.shortAddr = 0x0000;   // Coordinator makes the match
//  263     ZDP_EndDeviceBindReq( &dstAddr, NLME_GetShortAddr(), ZIGBEERECV_ENDPOINT, // ZIGBEERECV_ENDPOINT = 13 is coordinator
//  264                           ZCL_HA_PROFILE_ID, ZCLZIGBEERECV_BINDINGLIST, bindingInClusters, 0,
//  265                           NULL, // No Outgoing clusters to bind
//  266                           TRUE );
//  267   }
//  268   
//  269   if ( keys & HAL_KEY_SW2 ) 
//  270   {
//  271     
//  272   }
//  273   
//  274 #endif
//  275 }
//  276 
//  277 /*********************************************************************
//  278  * @fn      zclZigbeeReceiver_ProcessIdentifyTimeChange
//  279  * @brief   Called to process any change to the IdentifyTime attribute.
//  280  */

        RSEG BANKED_CODE:CODE:NOROOT(0)
//  281 static void zclZigbeeReceiver_ProcessIdentifyTimeChange( void )
zclZigbeeReceiver_ProcessIdentifyTimeChange:
        CFI Block cfiBlock14 Using cfiCommon0
        CFI Function zclZigbeeReceiver_ProcessIdentifyTimeChange
//  282 {
        FUNCALL zclZigbeeReceiver_ProcessIdentifyTimeChange, osal_start_timerEx
        LOCFRAME ISTACK, 2, STACK
        LOCFRAME PSTACK, 0, STACK
        LOCFRAME XSTACK, 0, STACK
        LOCFRAME IOVERLAY, 0, STATIC
        LOCFRAME DOVERLAY, 0, STATIC
        ARGFRAME ISTACK, 2, STACK
        ARGFRAME PSTACK, 0, STACK
        ARGFRAME XSTACK, 0, STACK
        ARGFRAME IOVERLAY, 0, STATIC
        ARGFRAME DOVERLAY, 0, STATIC
        FUNCALL zclZigbeeReceiver_ProcessIdentifyTimeChange, HalLedBlink
        LOCFRAME ISTACK, 2, STACK
        LOCFRAME PSTACK, 0, STACK
        LOCFRAME XSTACK, 0, STACK
        LOCFRAME IOVERLAY, 0, STATIC
        LOCFRAME DOVERLAY, 0, STATIC
        ARGFRAME ISTACK, 2, STACK
        ARGFRAME PSTACK, 0, STACK
        ARGFRAME XSTACK, 0, STACK
        ARGFRAME IOVERLAY, 0, STATIC
        ARGFRAME DOVERLAY, 0, STATIC
        FUNCALL zclZigbeeReceiver_ProcessIdentifyTimeChange, HalLedSet
        LOCFRAME ISTACK, 2, STACK
        LOCFRAME PSTACK, 0, STACK
        LOCFRAME XSTACK, 0, STACK
        LOCFRAME IOVERLAY, 0, STATIC
        LOCFRAME DOVERLAY, 0, STATIC
        ARGFRAME ISTACK, 2, STACK
        ARGFRAME PSTACK, 0, STACK
        ARGFRAME XSTACK, 0, STACK
        ARGFRAME IOVERLAY, 0, STATIC
        ARGFRAME DOVERLAY, 0, STATIC
        FUNCALL zclZigbeeReceiver_ProcessIdentifyTimeChange, HalLedSet
        LOCFRAME ISTACK, 2, STACK
        LOCFRAME PSTACK, 0, STACK
        LOCFRAME XSTACK, 0, STACK
        LOCFRAME IOVERLAY, 0, STATIC
        LOCFRAME DOVERLAY, 0, STATIC
        ARGFRAME ISTACK, 2, STACK
        ARGFRAME PSTACK, 0, STACK
        ARGFRAME XSTACK, 0, STACK
        ARGFRAME IOVERLAY, 0, STATIC
        ARGFRAME DOVERLAY, 0, STATIC
        FUNCALL zclZigbeeReceiver_ProcessIdentifyTimeChange, osal_stop_timerEx
        LOCFRAME ISTACK, 2, STACK
        LOCFRAME PSTACK, 0, STACK
        LOCFRAME XSTACK, 0, STACK
        LOCFRAME IOVERLAY, 0, STATIC
        LOCFRAME DOVERLAY, 0, STATIC
        ARGFRAME ISTACK, 2, STACK
        ARGFRAME PSTACK, 0, STACK
        ARGFRAME XSTACK, 0, STACK
        ARGFRAME IOVERLAY, 0, STATIC
        ARGFRAME DOVERLAY, 0, STATIC
        PUSH    DPL
        CFI DPL0 Frame(CFA_SP, 4)
        CFI CFA_SP SP+-4
        PUSH    DPH
        CFI DPH0 Frame(CFA_SP, 5)
        CFI CFA_SP SP+-5
        ; Saved register size: 2
        ; Auto size: 0
//  283   if ( zclZigbeeRecv_IdentifyTime > 0 )
        MOV     DPTR,#zclZigbeeRecv_IdentifyTime
        MOVX    A,@DPTR
        JNZ     ??zclZigbeeReceiver_ProcessIdentifyTimeChange_0
        INC     DPTR
        MOVX    A,@DPTR
??zclZigbeeReceiver_ProcessIdentifyTimeChange_0:
        JZ      ??zclZigbeeReceiver_ProcessIdentifyTimeChange_1
//  284   {
//  285     osal_start_timerEx( zclZigbeeReceiver_TaskID, SAMPLELIGHT_IDENTIFY_TIMEOUT_EVT, 1000 );
        ; Setup parameters for call to function osal_start_timerEx
        MOV     R4,#-0x18
        MOV     R5,#0x3
        MOV     R2,#0x1
        MOV     R3,#0x0
        MOV     DPTR,#zclZigbeeReceiver_TaskID
        MOVX    A,@DPTR
        MOV     R1,A
        LCALL   ??osal_start_timerEx?relay
//  286     HalLedBlink ( HAL_LED_2, 0xFF, HAL_LED_DEFAULT_DUTY_CYCLE, HAL_LED_DEFAULT_FLASH_TIME );
        ; Setup parameters for call to function HalLedBlink
        MOV     R4,#-0x18
        MOV     R5,#0x3
        MOV     R3,#0x5
        MOV     R2,#-0x1
        MOV     R1,#0x2
        LCALL   ??HalLedBlink?relay
        SJMP    ??zclZigbeeReceiver_ProcessIdentifyTimeChange_2
//  287   }
//  288   else
//  289     {
//  290       if ( zclZigbeeRecv_OnOff )
??zclZigbeeReceiver_ProcessIdentifyTimeChange_1:
        MOV     DPTR,#zclZigbeeRecv_OnOff
        MOVX    A,@DPTR
        JZ      ??zclZigbeeReceiver_ProcessIdentifyTimeChange_3
//  291       {
//  292         HalLedSet ( HAL_LED_1, HAL_LED_MODE_ON );
        ; Setup parameters for call to function HalLedSet
        MOV     R2,#0x1
        MOV     R1,#0x1
        LCALL   ??HalLedSet?relay
        SJMP    ??zclZigbeeReceiver_ProcessIdentifyTimeChange_2
//  293       }
//  294       else
//  295         {
//  296           HalLedSet ( HAL_LED_1, HAL_LED_MODE_OFF );
??zclZigbeeReceiver_ProcessIdentifyTimeChange_3:
        ; Setup parameters for call to function HalLedSet
        MOV     R2,#0x0
        MOV     R1,#0x1
        LCALL   ??HalLedSet?relay
//  297           osal_stop_timerEx( zclZigbeeReceiver_TaskID, SAMPLELIGHT_IDENTIFY_TIMEOUT_EVT );
        ; Setup parameters for call to function osal_stop_timerEx
        MOV     R2,#0x1
        MOV     R3,#0x0
        MOV     DPTR,#zclZigbeeReceiver_TaskID
        MOVX    A,@DPTR
        MOV     R1,A
        LCALL   ??osal_stop_timerEx?relay
//  298         }
//  299     }
//  300 }
??zclZigbeeReceiver_ProcessIdentifyTimeChange_2:
        LJMP    ?Subroutine3 & 0xFFFF
        CFI EndBlock cfiBlock14
//  301 
//  302 /*********************************************************************
//  303  * @fn      zclZigbeeReceiver_BasicResetCB
//  304  * @brief   Callback from the ZCL General Cluster Library
//  305  *          to set all the Basic Cluster attributes to default values.
//  306  */

        RSEG BANKED_CODE:CODE:NOROOT(0)
//  307 static void zclZigbeeReceiver_BasicResetCB( void )
zclZigbeeReceiver_BasicResetCB:
        CFI Block cfiBlock15 Using cfiCommon0
        CFI Function zclZigbeeReceiver_BasicResetCB
//  308 {
        ; Saved register size: 0
        ; Auto size: 0
//  309   // Reset all attributes to default values
//  310 }
        LJMP    ?BRET
        CFI EndBlock cfiBlock15
//  311 
//  312 /*********************************************************************
//  313  * @fn      zclZigbeeReceiver_IdentifyCB
//  314  * @brief   Callback from the ZCL General Cluster Library when
//  315  *          it received an Identity Command for this application.
//  316  * @param   srcAddr - source address and endpoint of the response message
//  317  *          identifyTime - the number of seconds to identify yourself
//  318  */

        RSEG BANKED_CODE:CODE:NOROOT(0)
//  319 static void zclZigbeeReceiver_IdentifyCB( zclIdentify_t *pCmd )
zclZigbeeReceiver_IdentifyCB:
        CFI Block cfiBlock16 Using cfiCommon0
        CFI Function zclZigbeeReceiver_IdentifyCB
//  320 {
        FUNCALL zclZigbeeReceiver_IdentifyCB, zclZigbeeReceiver_ProcessIdentifyTimeChange
        LOCFRAME ISTACK, 2, STACK
        LOCFRAME PSTACK, 0, STACK
        LOCFRAME XSTACK, 0, STACK
        LOCFRAME IOVERLAY, 0, STATIC
        LOCFRAME DOVERLAY, 0, STATIC
        ARGFRAME ISTACK, 2, STACK
        ARGFRAME PSTACK, 0, STACK
        ARGFRAME XSTACK, 0, STACK
        ARGFRAME IOVERLAY, 0, STATIC
        ARGFRAME DOVERLAY, 0, STATIC
        PUSH    DPL
        CFI DPL0 Frame(CFA_SP, 4)
        CFI CFA_SP SP+-4
        PUSH    DPH
        CFI DPH0 Frame(CFA_SP, 5)
        CFI CFA_SP SP+-5
        ; Saved register size: 2
        ; Auto size: 0
//  321   zclZigbeeRecv_IdentifyTime = pCmd->identifyTime;
        MOV     DPL,R2
        MOV     DPH,R3
        INC     DPTR
        INC     DPTR
        MOVX    A,@DPTR
        MOV     R0,A
        INC     DPTR
        MOVX    A,@DPTR
        MOV     R1,A
        MOV     DPTR,#zclZigbeeRecv_IdentifyTime
        MOV     A,R0
        MOVX    @DPTR,A
        INC     DPTR
        MOV     A,R1
        MOVX    @DPTR,A
//  322   zclZigbeeReceiver_ProcessIdentifyTimeChange();
        ; Setup parameters for call to function zclZigbeeReceiver_ProcessIdentifyTimeChange
        LCALL   ??zclZigbeeReceiver_ProcessIdentifyTimeChange?r
//  323 }
        LJMP    ?Subroutine3 & 0xFFFF
        CFI EndBlock cfiBlock16
//  324 
//  325 /*********************************************************************
//  326  * @fn      zclZigbeeReceiver_IdentifyQueryRspCB
//  327  * @brief   Callback from the ZCL General Cluster Library when
//  328  *          it received an Identity Query Response Command for this application.
//  329  * @param   srcAddr - requestor's address
//  330  *          timeout - number of seconds to identify yourself (valid for query response)
//  331  */

        RSEG BANKED_CODE:CODE:NOROOT(0)
//  332 static void zclZigbeeReceiver_IdentifyQueryRspCB( zclIdentifyQueryRsp_t *pRsp )
zclZigbeeReceiver_IdentifyQueryRspCB:
        CFI Block cfiBlock17 Using cfiCommon0
        CFI Function zclZigbeeReceiver_IdentifyQueryRspCB
//  333 {
        ; Saved register size: 0
        ; Auto size: 0
//  334   (void)pRsp; // Query Response (with timeout value)
//  335 }
        LJMP    ?BRET
        CFI EndBlock cfiBlock17
//  336 
//  337 /*********************************************************************
//  338  * @fn      zclZigbeeReceiver_OnOffCB
//  339  * @brief   Callback from the ZCL General Cluster Library when
//  340  *          it received an On/Off Command for this application.
//  341  * @param   cmd - COMMAND_ON, COMMAND_OFF or COMMAND_TOGGLE
//  342  */

        RSEG BANKED_CODE:CODE:NOROOT(0)
//  343 static void zclZigbeeReceiver_OnOffCB( uint8 cmd )
zclZigbeeReceiver_OnOffCB:
        CFI Block cfiBlock18 Using cfiCommon0
        CFI Function zclZigbeeReceiver_OnOffCB
//  344 { 
        FUNCALL zclZigbeeReceiver_OnOffCB, HalLedSet
        LOCFRAME ISTACK, 2, STACK
        LOCFRAME PSTACK, 0, STACK
        LOCFRAME XSTACK, 0, STACK
        LOCFRAME IOVERLAY, 0, STATIC
        LOCFRAME DOVERLAY, 0, STATIC
        ARGFRAME ISTACK, 2, STACK
        ARGFRAME PSTACK, 0, STACK
        ARGFRAME XSTACK, 0, STACK
        ARGFRAME IOVERLAY, 0, STATIC
        ARGFRAME DOVERLAY, 0, STATIC
        FUNCALL zclZigbeeReceiver_OnOffCB, HalLedSet
        LOCFRAME ISTACK, 2, STACK
        LOCFRAME PSTACK, 0, STACK
        LOCFRAME XSTACK, 0, STACK
        LOCFRAME IOVERLAY, 0, STATIC
        LOCFRAME DOVERLAY, 0, STATIC
        ARGFRAME ISTACK, 2, STACK
        ARGFRAME PSTACK, 0, STACK
        ARGFRAME XSTACK, 0, STACK
        ARGFRAME IOVERLAY, 0, STATIC
        ARGFRAME DOVERLAY, 0, STATIC
        PUSH    DPL
        CFI DPL0 Frame(CFA_SP, 4)
        CFI CFA_SP SP+-4
        PUSH    DPH
        CFI DPH0 Frame(CFA_SP, 5)
        CFI CFA_SP SP+-5
        ; Saved register size: 2
        ; Auto size: 0
//  345   if ( cmd == COMMAND_ON ) // Turn on the light
        MOV     A,#0x1
        XRL     A,R1
        JNZ     ??zclZigbeeReceiver_OnOffCB_0
//  346     zclZigbeeRecv_OnOff = LIGHT_ON;
??zclZigbeeReceiver_OnOffCB_1:
        MOV     A,#0x1
??zclZigbeeReceiver_OnOffCB_2:
        MOV     DPTR,#zclZigbeeRecv_OnOff
        MOVX    @DPTR,A
//  347 
//  348   else if ( cmd == COMMAND_OFF ) // Turn off the light
//  349     zclZigbeeRecv_OnOff = LIGHT_OFF;
//  350 
//  351   else // Toggle the light
//  352   {
//  353     if ( zclZigbeeRecv_OnOff == LIGHT_OFF )
//  354           zclZigbeeRecv_OnOff = LIGHT_ON;
//  355     else
//  356           zclZigbeeRecv_OnOff = LIGHT_OFF;
//  357   }
//  358 
//  359   // In this sample app, we use LED4 to simulate the Light  
//  360   if ( zclZigbeeRecv_OnOff == LIGHT_ON )
//  361   {
//  362     HalLedSet( HAL_LED_2, HAL_LED_MODE_ON ); // setting the LED_1 on
        ; Setup parameters for call to function HalLedSet
        MOV     R2,A
        MOV     R1,#0x2
        LCALL   ??HalLedSet?relay
//  363   }
//  364   else
//  365     HalLedSet( HAL_LED_2, HAL_LED_MODE_OFF ); // setting the LED_1 off
//  366 }
        LJMP    ?Subroutine3 & 0xFFFF
??zclZigbeeReceiver_OnOffCB_0:
        MOV     A,R1
        JNZ     ??zclZigbeeReceiver_OnOffCB_3
??zclZigbeeReceiver_OnOffCB_4:
        CLR     A
        SJMP    ??zclZigbeeReceiver_OnOffCB_2
??zclZigbeeReceiver_OnOffCB_3:
        MOV     DPTR,#zclZigbeeRecv_OnOff
        MOVX    A,@DPTR
        JNZ     ??zclZigbeeReceiver_OnOffCB_4
        SJMP    ??zclZigbeeReceiver_OnOffCB_1
        CFI EndBlock cfiBlock18
//  367 /****************************************************************************** 
//  368  * 
//  369  *  Functions for processing ZCL Foundation incoming Command/Response messages
//  370  *
//  371  *****************************************************************************/
//  372 
//  373 /*********************************************************************
//  374  * @fn      zclZigbeeReceiver_ProcessIncomingMsg
//  375  * @brief   Process ZCL Foundation incoming message
//  376  * @param   pInMsg - pointer to the received message
//  377  */
//  378 static void zclZigbeeReceiver_ProcessIncomingMsg( zclIncomingMsg_t *pInMsg)
//  379 {
//  380   switch ( pInMsg->zclHdr.commandID )
//  381   {
//  382 #ifdef ZCL_READ
//  383     case ZCL_CMD_READ_RSP:
//  384       zclZigbeeReceiver_ProcessInReadRspCmd( pInMsg );
//  385       break;
//  386 #endif
//  387       
//  388 #ifdef ZCL_WRITE    
//  389     case ZCL_CMD_WRITE_RSP:
//  390       zclZigbeeReceiver_ProcessInWriteRspCmd( pInMsg );
//  391       break;
//  392 #endif
//  393       
//  394 #ifdef ZCL_REPORT
//  395     case ZCL_CMD_CONFIG_REPORT: // See ZCL Test Applicaiton (zcl_testapp.c) for sample code on Attribute Reporting
//  396       //zclSampleLight_ProcessInConfigReportCmd( pInMsg );
//  397       break;
//  398     
//  399     case ZCL_CMD_CONFIG_REPORT_RSP:
//  400       //zclSampleLight_ProcessInConfigReportRspCmd( pInMsg );
//  401       break;
//  402     
//  403     case ZCL_CMD_READ_REPORT_CFG:
//  404       //zclSampleLight_ProcessInReadReportCfgCmd( pInMsg );
//  405       break;
//  406     
//  407     case ZCL_CMD_READ_REPORT_CFG_RSP:
//  408       //zclSampleLight_ProcessInReadReportCfgRspCmd( pInMsg );
//  409       break;
//  410     
//  411     case ZCL_CMD_REPORT:
//  412       //zclSampleLight_ProcessInReportCmd( pInMsg );
//  413       break;
//  414 #endif   
//  415       
//  416     case ZCL_CMD_DEFAULT_RSP:
//  417       zclZigbeeReceiver_ProcessInDefaultRspCmd( pInMsg );
//  418       break;
//  419       
//  420 #ifdef ZCL_DISCOVER     
//  421     case ZCL_CMD_DISCOVER_RSP:
//  422       zclZigbeeReceiver_ProcessInDiscRspCmd( pInMsg );
//  423       break;
//  424 #endif
//  425       
//  426     default:
//  427       break;
//  428   }
//  429   if ( pInMsg->attrCmd )
//  430     osal_mem_free( pInMsg->attrCmd );
//  431 }
//  432 
//  433 #ifdef ZCL_READ
//  434 /*********************************************************************
//  435  * @fn      zclZigbeeReceiver_ProcessInReadRspCmd
//  436  * @brief   Process the "Profile" Read Response Command
//  437  * @param   pInMsg - incoming message to process
//  438  */
//  439 static uint8 zclZigbeeReceiver_ProcessInReadRspCmd( zclIncomingMsg_t *pInMsg )
//  440 {
//  441   zclReadRspCmd_t *readRspCmd;
//  442   uint8 i;
//  443 
//  444   readRspCmd = (zclReadRspCmd_t *)pInMsg->attrCmd;
//  445   for (i = 0; i < readRspCmd->numAttr; i++)
//  446   {
//  447     // Notify the originator of the results of the original read attributes attempt and, 
//  448     // for each successfull request, the value of the requested attribute
//  449   }
//  450   return TRUE; 
//  451 }
//  452 #endif // ZCL_READ
//  453 
//  454 #ifdef ZCL_WRITE
//  455 /*********************************************************************
//  456  * @fn      zclZigbeeReceiver_ProcessInWriteRspCmd
//  457  * @brief   Process the "Profile" Write Response Command
//  458  * @param   pInMsg - incoming message to process
//  459  */
//  460 static uint8 zclZigbeeReceiver_ProcessInWriteRspCmd( zclIncomingMsg_t *pInMsg )
//  461 {
//  462   zclWriteRspCmd_t *writeRspCmd;
//  463   uint8 i;
//  464 
//  465   writeRspCmd = (zclWriteRspCmd_t *)pInMsg->attrCmd;
//  466   for (i = 0; i < writeRspCmd->numAttr; i++)
//  467   {
//  468     // Notify the device of the results of the its original write attributes command.
//  469   }
//  470   return TRUE; 
//  471 }
//  472 #endif // ZCL_WRITE
//  473 
//  474 /*********************************************************************
//  475  * @fn      zclZigbeeReceiver_ProcessInDefaultRspCmd
//  476  * @brief   Process the "Profile" Default Response Command
//  477  * @param   pInMsg - incoming message to process
//  478  */
//  479 static uint8 zclZigbeeReceiver_ProcessInDefaultRspCmd( zclIncomingMsg_t *pInMsg )
//  480 {
//  481   // zclDefaultRspCmd_t *defaultRspCmd = (zclDefaultRspCmd_t *)pInMsg->attrCmd; 
//  482   // Device is notified of the Default Response command.
//  483   (void)pInMsg;
//  484   return TRUE; 
//  485 }
//  486 
//  487 #ifdef ZCL_DISCOVER
//  488 /*********************************************************************
//  489  * @fn      zclZigbeeReceiver_ProcessInDiscRspCmd
//  490  * @brief   Process the "Profile" Discover Response Command
//  491  * @param   pInMsg - incoming message to process
//  492  */
//  493 static uint8 zclZigbeeReceiver_ProcessInDiscRspCmd( zclIncomingMsg_t *pInMsg )
//  494 {
//  495   zclDiscoverRspCmd_t *discoverRspCmd;
//  496   uint8 i;
//  497   
//  498   discoverRspCmd = (zclDiscoverRspCmd_t *)pInMsg->attrCmd;
//  499   for ( i = 0; i < discoverRspCmd->numAttr; i++ )
//  500   {
//  501     // Device is notified of the result of its attribute discovery command.
//  502   }
//  503   return TRUE;
//  504 }
//  505 #endif // ZCL_DISCOVER
//  506 
//  507 /*********************************************************************
//  508  * @fn      zclUARTMsg_CallBack
//  509  * @brief   Send data OTA.
//  510  * @param   port - UART port.
//  511  * @param   event - the UART port event flag.
//  512  */

        RSEG BANKED_CODE:CODE:NOROOT(0)
//  513 void zclUARTMsg_CallBack(uint8 port, uint8 event)
zclUARTMsg_CallBack:
        CFI Block cfiBlock19 Using cfiCommon0
        CFI Function zclUARTMsg_CallBack
//  514 {
        FUNCALL zclUARTMsg_CallBack, Hal_UART_RxBufLen
        LOCFRAME ISTACK, 0, STACK
        LOCFRAME PSTACK, 0, STACK
        LOCFRAME XSTACK, 10, STACK
        LOCFRAME IOVERLAY, 0, STATIC
        LOCFRAME DOVERLAY, 0, STATIC
        ARGFRAME ISTACK, 0, STACK
        ARGFRAME PSTACK, 0, STACK
        ARGFRAME XSTACK, 10, STACK
        ARGFRAME IOVERLAY, 0, STATIC
        ARGFRAME DOVERLAY, 0, STATIC
        FUNCALL zclUARTMsg_CallBack, Hal_UART_RxBufLen
        LOCFRAME ISTACK, 0, STACK
        LOCFRAME PSTACK, 0, STACK
        LOCFRAME XSTACK, 10, STACK
        LOCFRAME IOVERLAY, 0, STATIC
        LOCFRAME DOVERLAY, 0, STATIC
        ARGFRAME ISTACK, 0, STACK
        ARGFRAME PSTACK, 0, STACK
        ARGFRAME XSTACK, 10, STACK
        ARGFRAME IOVERLAY, 0, STATIC
        ARGFRAME DOVERLAY, 0, STATIC
        FUNCALL zclUARTMsg_CallBack, HalUARTRead
        LOCFRAME ISTACK, 0, STACK
        LOCFRAME PSTACK, 0, STACK
        LOCFRAME XSTACK, 10, STACK
        LOCFRAME IOVERLAY, 0, STATIC
        LOCFRAME DOVERLAY, 0, STATIC
        ARGFRAME ISTACK, 0, STACK
        ARGFRAME PSTACK, 0, STACK
        ARGFRAME XSTACK, 10, STACK
        ARGFRAME IOVERLAY, 0, STATIC
        ARGFRAME DOVERLAY, 0, STATIC
        FUNCALL zclUARTMsg_CallBack, osal_set_event
        LOCFRAME ISTACK, 0, STACK
        LOCFRAME PSTACK, 0, STACK
        LOCFRAME XSTACK, 10, STACK
        LOCFRAME IOVERLAY, 0, STATIC
        LOCFRAME DOVERLAY, 0, STATIC
        ARGFRAME ISTACK, 0, STACK
        ARGFRAME PSTACK, 0, STACK
        ARGFRAME XSTACK, 10, STACK
        ARGFRAME IOVERLAY, 0, STATIC
        ARGFRAME DOVERLAY, 0, STATIC
        MOV     A,#-0xa
        LCALL   ?BANKED_ENTER_XDATA
        CFI DPH0 load(1, XDATA, add(CFA_XSP16, literal(-1)))
        CFI DPL0 load(1, XDATA, add(CFA_XSP16, literal(-2)))
        CFI ?BRET_EXT load(1, XDATA, add(CFA_XSP16, literal(-3)))
        CFI ?RET_HIGH load(1, XDATA, add(CFA_XSP16, literal(-4)))
        CFI ?RET_LOW load(1, XDATA, add(CFA_XSP16, literal(-5)))
        CFI R7 load(1, XDATA, add(CFA_XSP16, literal(-6)))
        CFI V1 load(1, XDATA, add(CFA_XSP16, literal(-7)))
        CFI V0 load(1, XDATA, add(CFA_XSP16, literal(-8)))
        CFI VB load(1, XDATA, add(CFA_XSP16, literal(-9)))
        CFI R6 load(1, XDATA, add(CFA_XSP16, literal(-10)))
        CFI CFA_SP SP+0
        CFI CFA_XSP16 add(XSP16, 10)
        ; Saved register size: 10
        ; Auto size: 0
//  515   (void)port;
//  516   
//  517   if(Hal_UART_RxBufLen( MT_UART_DEFAULT_PORT) > 0 )
        ; Setup parameters for call to function Hal_UART_RxBufLen
        MOV     R1,#0x0
        LCALL   ??Hal_UART_RxBufLen?relay
        MOV     A,R2
        JNZ     ??zclUARTMsg_CallBack_0
        MOV     A,R3
??zclUARTMsg_CallBack_0:
        JZ      ??zclUARTMsg_CallBack_1
//  518   {
//  519       len = Hal_UART_RxBufLen( MT_UART_DEFAULT_PORT );
        ; Setup parameters for call to function Hal_UART_RxBufLen
        MOV     R1,#0x0
        LCALL   ??Hal_UART_RxBufLen?relay
        MOV     A,R2
        MOV     DPTR,#len
        MOVX    @DPTR,A
//  520       HalUARTRead( MT_UART_DEFAULT_PORT, TransmitApp_Msg, len );
        ; Setup parameters for call to function HalUARTRead
        MOV     R4,A
        MOV     R5,#0x0
        MOV     R2,#(TransmitApp_Msg & 0xff)
        MOV     R3,#((TransmitApp_Msg >> 8) & 0xff)
        MOV     R1,#0x0
        LCALL   ??HalUARTRead?relay
//  521       osal_set_event( zclZigbeeReceiver_TaskID, UART_MSG_EVT );
        ; Setup parameters for call to function osal_set_event
        MOV     R2,#0x2
        MOV     R3,#0x0
        MOV     DPTR,#zclZigbeeReceiver_TaskID
        MOVX    A,@DPTR
        MOV     R1,A
        LCALL   ??osal_set_event?relay
        CFI EndBlock cfiBlock19
//  522   }
//  523 }
??zclUARTMsg_CallBack_1:
        REQUIRE ?Subroutine4
        ; // Fall through to label ?Subroutine4

        RSEG BANKED_CODE:CODE:NOROOT(0)
?Subroutine4:
        CFI Block cfiBlock20 Using cfiCommon0
        CFI NoFunction
        CFI CFA_SP SP+0
        CFI CFA_XSP16 add(XSP16, 10)
        CFI VB load(1, XDATA, add(CFA_XSP16, literal(-9)))
        CFI DPL0 load(1, XDATA, add(CFA_XSP16, literal(-2)))
        CFI DPH0 load(1, XDATA, add(CFA_XSP16, literal(-1)))
        CFI R6 load(1, XDATA, add(CFA_XSP16, literal(-10)))
        CFI R7 load(1, XDATA, add(CFA_XSP16, literal(-6)))
        CFI V0 load(1, XDATA, add(CFA_XSP16, literal(-8)))
        CFI V1 load(1, XDATA, add(CFA_XSP16, literal(-7)))
        CFI ?BRET_EXT load(1, XDATA, add(CFA_XSP16, literal(-3)))
        CFI ?RET_HIGH load(1, XDATA, add(CFA_XSP16, literal(-4)))
        CFI ?RET_LOW load(1, XDATA, add(CFA_XSP16, literal(-5)))
        MOV     R7,#0x2
        LJMP    ?BANKED_LEAVE_XDATA
        CFI EndBlock cfiBlock20
//  524 
//  525 /*********************************************************************
//  526  * @fn      zclUartReceiver
//  527  * @brief   The coordinator receive command.
//  528  */

        RSEG BANKED_CODE:CODE:NOROOT(0)
//  529 void zclUartReceiver( void )
zclUartReceiver:
        CFI Block cfiBlock21 Using cfiCommon0
        CFI Function zclUartReceiver
//  530 { 
        FUNCALL zclUartReceiver, show
        LOCFRAME ISTACK, 0, STACK
        LOCFRAME PSTACK, 0, STACK
        LOCFRAME XSTACK, 10, STACK
        LOCFRAME IOVERLAY, 0, STATIC
        LOCFRAME DOVERLAY, 0, STATIC
        ARGFRAME ISTACK, 0, STACK
        ARGFRAME PSTACK, 0, STACK
        ARGFRAME XSTACK, 10, STACK
        ARGFRAME IOVERLAY, 0, STATIC
        ARGFRAME DOVERLAY, 0, STATIC
        FUNCALL zclUartReceiver, HalLcdWriteChar
        LOCFRAME ISTACK, 0, STACK
        LOCFRAME PSTACK, 0, STACK
        LOCFRAME XSTACK, 10, STACK
        LOCFRAME IOVERLAY, 0, STATIC
        LOCFRAME DOVERLAY, 0, STATIC
        ARGFRAME ISTACK, 0, STACK
        ARGFRAME PSTACK, 0, STACK
        ARGFRAME XSTACK, 10, STACK
        ARGFRAME IOVERLAY, 0, STATIC
        ARGFRAME DOVERLAY, 0, STATIC
        FUNCALL zclUartReceiver, zcl_SendCommand
        LOCFRAME ISTACK, 0, STACK
        LOCFRAME PSTACK, 0, STACK
        LOCFRAME XSTACK, 21, STACK
        LOCFRAME IOVERLAY, 0, STATIC
        LOCFRAME DOVERLAY, 0, STATIC
        ARGFRAME ISTACK, 0, STACK
        ARGFRAME PSTACK, 0, STACK
        ARGFRAME XSTACK, 21, STACK
        ARGFRAME IOVERLAY, 0, STATIC
        ARGFRAME DOVERLAY, 0, STATIC
        MOV     A,#-0xa
        LCALL   ?BANKED_ENTER_XDATA
        CFI DPH0 load(1, XDATA, add(CFA_XSP16, literal(-1)))
        CFI DPL0 load(1, XDATA, add(CFA_XSP16, literal(-2)))
        CFI ?BRET_EXT load(1, XDATA, add(CFA_XSP16, literal(-3)))
        CFI ?RET_HIGH load(1, XDATA, add(CFA_XSP16, literal(-4)))
        CFI ?RET_LOW load(1, XDATA, add(CFA_XSP16, literal(-5)))
        CFI R7 load(1, XDATA, add(CFA_XSP16, literal(-6)))
        CFI V1 load(1, XDATA, add(CFA_XSP16, literal(-7)))
        CFI V0 load(1, XDATA, add(CFA_XSP16, literal(-8)))
        CFI VB load(1, XDATA, add(CFA_XSP16, literal(-9)))
        CFI R6 load(1, XDATA, add(CFA_XSP16, literal(-10)))
        CFI CFA_SP SP+0
        CFI CFA_XSP16 add(XSP16, 10)
        ; Saved register size: 10
        ; Auto size: 0
//  531   show("zclUartReceiver");
        ; Setup parameters for call to function show
        MOV     R2,#(`?<Constant "zclUartReceiver">` & 0xff)
        MOV     R3,#((`?<Constant "zclUartReceiver">` >> 8) & 0xff)
        LCALL   ??show?relay
//  532   
//  533   for(uint8 length = 0; length < len; length++)
        MOV     R6,#0x0
        SJMP    ??zclUartReceiver_0
//  534   {
//  535     uart_recv[length] = TransmitApp_Msg[length];
??zclUartReceiver_1:
        MOV     DPL,R6
        MOV     R0,DPL
        MOV     A,R0
        ADD     A,#(TransmitApp_Msg & 0xff)
        MOV     DPL,A
        CLR     A
        ADDC    A,#((TransmitApp_Msg >> 8) & 0xff)
        MOV     DPH,A
        MOVX    A,@DPTR
        MOV     R3,A
        MOV     A,R0
        ADD     A,#(uart_recv & 0xff)
        MOV     DPL,A
        CLR     A
        ADDC    A,#((uart_recv >> 8) & 0xff)
        MOV     DPH,A
        MOV     A,R3
        MOVX    @DPTR,A
//  536   #if defined( LCD_SUPPORTED )
//  537     HalLcdWriteChar(HAL_LCD_LINE_4, length, uart_recv[length]);
        ; Setup parameters for call to function HalLcdWriteChar
        MOV     A,R6
        MOV     R2,A
        MOV     R1,#0x4
        LCALL   ??HalLcdWriteChar?relay
//  538   #endif
//  539   }
        INC     R6
??zclUartReceiver_0:
        MOV     DPTR,#len
        MOVX    A,@DPTR
        MOV     R2,A
        MOV     A,R6
        CLR     C
        SUBB    A,R2
        JC      ??zclUartReceiver_1
//  540   
//  541   // Set the End Device state
//  542   zclZigbeeRecv_DstAddr.endPoint = 12;
        MOV     A,#0xc
        MOV     DPTR,#(zclZigbeeRecv_DstAddr + 9)
        MOVX    @DPTR,A
//  543   zclZigbeeRecv_DstAddr.addr.shortAddr = 0xFFFF;
        MOV     DPTR,#zclZigbeeRecv_DstAddr
        MOV     A,#-0x1
        MOVX    @DPTR,A
        INC     DPTR
        MOVX    @DPTR,A
//  544   zclZigbeeRecv_DstAddr.addrMode = (afAddrMode_t)AddrBroadcast;
        MOV     A,#0xf
        MOV     DPTR,#(zclZigbeeRecv_DstAddr + 8)
        MOVX    @DPTR,A
//  545     
//  546   // Transmit the UART command to End Device
//  547   uint8 send = zcl_SendCommand( ZIGBEERECV_ENDPOINT, 
//  548                                 &zclZigbeeRecv_DstAddr,
//  549                                 ZCL_CLUSTER_ID_GEN_ON_OFF,
//  550                                 COMMAND_TOGGLE,
//  551                                 TRUE,
//  552                                 ZCL_FRAME_CLIENT_SERVER_DIR,
//  553                                 false,
//  554                                 0,
//  555                                 0,
//  556                                 10,
//  557                                 uart_recv );
        ; Setup parameters for call to function zcl_SendCommand
        MOV     ?V0 + 0,#(uart_recv & 0xff)
        MOV     ?V0 + 1,#((uart_recv >> 8) & 0xff)
        MOV     R0,#?V0 + 0
        LCALL   ?PUSH_XSTACK_I_TWO
        CFI CFA_XSP16 add(XSP16, 12)
        MOV     ?V0 + 0,#0xa
        MOV     ?V0 + 1,#0x0
        MOV     R0,#?V0 + 0
        LCALL   ?PUSH_XSTACK_I_TWO
        CFI CFA_XSP16 add(XSP16, 14)
        MOV     ?V0 + 0,#0x0
        MOV     R0,#?V0 + 0
        LCALL   ?PUSH_XSTACK_I_ONE
        CFI CFA_XSP16 add(XSP16, 15)
        MOV     R0,#?V0 + 0
        LCALL   ?PUSH_XSTACK_I_TWO
        CFI CFA_XSP16 add(XSP16, 17)
        MOV     R0,#?V0 + 0
        LCALL   ?PUSH_XSTACK_I_ONE
        CFI CFA_XSP16 add(XSP16, 18)
        MOV     R0,#?V0 + 0
        LCALL   ?PUSH_XSTACK_I_ONE
        CFI CFA_XSP16 add(XSP16, 19)
        MOV     ?V0 + 0,#0x1
        MOV     R0,#?V0 + 0
        LCALL   ?PUSH_XSTACK_I_ONE
        CFI CFA_XSP16 add(XSP16, 20)
        MOV     ?V0 + 0,#0x2
        MOV     R0,#?V0 + 0
        LCALL   ?PUSH_XSTACK_I_ONE
        CFI CFA_XSP16 add(XSP16, 21)
        MOV     R4,#0x6
        MOV     R5,#0x0
        MOV     R2,#(zclZigbeeRecv_DstAddr & 0xff)
        MOV     R3,#((zclZigbeeRecv_DstAddr >> 8) & 0xff)
        MOV     R1,#0xd
        LCALL   ??zcl_SendCommand?relay
        MOV     A,#0xb
        LCALL   ?DEALLOC_XSTACK8
        CFI CFA_XSP16 add(XSP16, 10)
//  558 }
        LJMP    ?Subroutine4 & 0xFFFF
        CFI EndBlock cfiBlock21

        RSEG XDATA_ID:CODE:NOROOT(0)
        DATA
`?<Initializer for bindingInClusters>`:
        DW 6, 8

        RSEG XDATA_ID:CODE:NOROOT(0)
        DATA
`?<Initializer for zigbeeReceiver_TestEp>`:
        DB 20
        DW zclZigbeeReceiver_TaskID, 0H
        DB 0

        RSEG XDATA_ID:CODE:NOROOT(0)
        DATA
`?<Initializer for zclZigbeeReceiver_CmdCallbac`:
        DW ??zclZigbeeReceiver_BasicResetCB?relay
        DW ??zclZigbeeReceiver_IdentifyCB?relay
        DW ??zclZigbeeReceiver_IdentifyQueryRspCB?relay
        DW ??zclZigbeeReceiver_OnOffCB?relay, 0H, 0H, 0H, 0H, 0H, 0H, 0H, 0H
        DW 0H, 0H
        DB 0, 0

        RSEG BANK_RELAYS:CODE:REORDER:NOROOT(0)
??ZSendMsgProcess?relay:
        LCALL   ?BDISPATCH
        DATA
        DC24    ZSendMsgProcess

        RSEG BANK_RELAYS:CODE:REORDER:NOROOT(0)
??zclZigbeeRecv_Init?relay:
        LCALL   ?BDISPATCH
        DATA
        DC24    zclZigbeeRecv_Init

        RSEG BANK_RELAYS:CODE:REORDER:NOROOT(0)
??zclZigbeeRecv_event_loop?relay:
        LCALL   ?BDISPATCH
        DATA
        DC24    zclZigbeeRecv_event_loop

        RSEG BANK_RELAYS:CODE:REORDER:NOROOT(0)
??zclZigbeeReceiver_ProcessIdentifyTimeChange?r:
        LCALL   ?BDISPATCH
        DATA
        DC24    zclZigbeeReceiver_ProcessIdentifyTimeChange

        RSEG BANK_RELAYS:CODE:REORDER:NOROOT(0)
??zclZigbeeReceiver_BasicResetCB?relay:
        LCALL   ?BDISPATCH
        DATA
        DC24    zclZigbeeReceiver_BasicResetCB

        RSEG BANK_RELAYS:CODE:REORDER:NOROOT(0)
??zclZigbeeReceiver_IdentifyCB?relay:
        LCALL   ?BDISPATCH
        DATA
        DC24    zclZigbeeReceiver_IdentifyCB

        RSEG BANK_RELAYS:CODE:REORDER:NOROOT(0)
??zclZigbeeReceiver_IdentifyQueryRspCB?relay:
        LCALL   ?BDISPATCH
        DATA
        DC24    zclZigbeeReceiver_IdentifyQueryRspCB

        RSEG BANK_RELAYS:CODE:REORDER:NOROOT(0)
??zclZigbeeReceiver_OnOffCB?relay:
        LCALL   ?BDISPATCH
        DATA
        DC24    zclZigbeeReceiver_OnOffCB

        RSEG BANK_RELAYS:CODE:REORDER:NOROOT(0)
??zclUARTMsg_CallBack?relay:
        LCALL   ?BDISPATCH
        DATA
        DC24    zclUARTMsg_CallBack

        RSEG BANK_RELAYS:CODE:REORDER:NOROOT(0)
??zclUartReceiver?relay:
        LCALL   ?BDISPATCH
        DATA
        DC24    zclUartReceiver

        RSEG XDATA_ROM_C:CONST:REORDER:NOROOT(0)
        DATA
`?<Constant "\\r\\n">`:
        DB "\015\012"

        RSEG XDATA_ROM_C:CONST:REORDER:NOROOT(0)
        DATA
`?<Constant "RECV_GROUP">`:
        DB "RECV_GROUP"

        RSEG XDATA_ROM_C:CONST:REORDER:NOROOT(0)
        DATA
`?<Constant "ZCL_INCOMING_MSG">`:
        DB "ZCL_INCOMING_MSG"

        RSEG XDATA_ROM_C:CONST:REORDER:NOROOT(0)
        DATA
`?<Constant "KEY_CHANGE">`:
        DB "KEY_CHANGE"

        RSEG XDATA_ROM_C:CONST:REORDER:NOROOT(0)
        DATA
`?<Constant "\\r 1 \\n">`:
        DB "\015 1 \012"

        RSEG XDATA_ROM_C:CONST:REORDER:NOROOT(0)
        DATA
`?<Constant "\\r 140 \\n">`:
        DB "\015 140 \012"

        RSEG XDATA_ROM_C:CONST:REORDER:NOROOT(0)
        DATA
`?<Constant "Hi">`:
        DB "Hi"

        RSEG XDATA_ROM_C:CONST:REORDER:NOROOT(0)
        DATA
`?<Constant "ZDO_MATCH_DESC_RSP_SENT">`:
        DB "ZDO_MATCH_DESC_RSP_SENT"

        RSEG XDATA_ROM_C:CONST:REORDER:NOROOT(0)
        DATA
`?<Constant "Chris:ZDO_MSG_SEND_EVT">`:
        DB "Chris:ZDO_MSG_SEND_EVT"

        RSEG XDATA_ROM_C:CONST:REORDER:NOROOT(0)
        DATA
`?<Constant "SAMPLELIGHT_IDENTIFY_...">`:
        DB "SAMPLELIGHT_IDENTIFY_TIMEOUT_EVT"

        RSEG XDATA_ROM_C:CONST:REORDER:NOROOT(0)
        DATA
`?<Constant "UART_MSG_EVT">`:
        DB "UART_MSG_EVT"

        RSEG XDATA_ROM_C:CONST:REORDER:NOROOT(0)
        DATA
`?<Constant "KEYPAD_MSG_EVT">`:
        DB "KEYPAD_MSG_EVT"

        RSEG XDATA_ROM_C:CONST:REORDER:NOROOT(0)
        DATA
`?<Constant "zclUartReceiver">`:
        DB "zclUartReceiver"

        END
// 
// 1 191 bytes in segment BANKED_CODE
//    60 bytes in segment BANK_RELAYS
//    40 bytes in segment XDATA_I
//    40 bytes in segment XDATA_ID
//   183 bytes in segment XDATA_ROM_C
//   340 bytes in segment XDATA_Z
// 
// 1 291 bytes of CODE  memory
//   183 bytes of CONST memory
//   380 bytes of XDATA memory
//
//Errors: none
//Warnings: 2
