///////////////////////////////////////////////////////////////////////////////
//                                                                            /
// IAR C/C++ Compiler V7.51A/W32 for 8051               16/Aug/2013  20:25:03 /
// Copyright 2004-2009 IAR Systems AB.                                        /
//                                                                            /
//    Core               =  plain                                             /
//    Code model         =  banked                                            /
//    Data model         =  large                                             /
//    Calling convention =  xdata reentrant                                   /
//    Constant location  =  data_rom                                          /
//    Dptr setup         =  1,16                                              /
//    Source file        =  D:\z-stack\z-stack\Sensor Network                 /
//                          Example\Projects\zstack\Sensor Network            /
//                          Application\ZIGBEE Coordinator &                  /
//                          Router\Source\zcl_zigbee receiver.c               /
//    Command line       =  -f "D:\z-stack\z-stack\Sensor Network             /
//                          Example\Projects\zstack\Sensor Network            /
//                          Application\ZIGBEE Coordinator &                  /
//                          Router\CC2530DB\..\..\..\Tools\CC2530DB\f8wCoord. /
//                          cfg" (-DCPU32MHZ -DROOT=__near_func               /
//                          -DMAC_CFG_APP_PENDING_QUEUE=TRUE                  /
//                          -DZDO_COORDINATOR -DRTR_NWK -DBLINK_LEDS) -f      /
//                          "D:\z-stack\z-stack\Sensor Network                /
//                          Example\Projects\zstack\Sensor Network            /
//                          Application\ZIGBEE Coordinator &                  /
//                          Router\CC2530DB\..\..\..\Tools\CC2530DB\f8wConfig /
//                          .cfg" (-DSECURE=0 -DZG_SECURE_DYNAMIC=0           /
//                          -DREFLECTOR -DDEFAULT_CHANLIST=0x00000800         /
//                          -DZDAPP_CONFIG_PAN_ID=0xFFFF                      /
//                          -DNWK_START_DELAY=100 -DEXTENDED_JOINING_RANDOM_M /
//                          ASK=0x007F -DBEACON_REQUEST_DELAY=100             /
//                          -DBEACON_REQ_DELAY_MASK=0x00FF                    /
//                          -DROUTE_EXPIRY_TIME=30 -DAPSC_ACK_WAIT_DURATION_P /
//                          OLLED=3000 -DNWK_INDIRECT_MSG_TIMEOUT=7           /
//                          -DMAX_RREQ_ENTRIES=8 -DAPSC_MAX_FRAME_RETRIES=3   /
//                          -DNWK_MAX_DATA_RETRIES=2                          /
//                          -DMAX_POLL_FAILURE_RETRIES=2 -DMAX_BCAST=9        /
//                          -DAPS_MAX_GROUPS=16 -DMAX_RTG_ENTRIES=40          /
//                          -DNWK_MAX_BINDING_ENTRIES=4                       /
//                          -DMAX_BINDING_CLUSTER_IDS=4                       /
//                          "-DDEFAULT_KEY={0x01, 0x03, 0x05, 0x07, 0x09,     /
//                          0x0B, 0x0D, 0x0F, 0x00, 0x02, 0x04, 0x06, 0x08,   /
//                          0x0A, 0x0C, 0x0D}" -DMAC_MAX_FRAME_SIZE=116       /
//                          "-DCONST=const __code" -DGENERIC=__generic        /
//                          -DRFD_RCVC_ALWAYS_ON=TRUE -DPOLL_RATE=1000        /
//                          -DQUEUED_POLL_RATE=100 -DRESPONSE_POLL_RATE=100   /
//                          -DREJOIN_POLL_RATE=440) -f                        /
//                          "D:\z-stack\z-stack\Sensor Network                /
//                          Example\Projects\zstack\Sensor Network            /
//                          Application\ZIGBEE Coordinator &                  /
//                          Router\CC2530DB\..\..\..\Tools\CC2530DB\f8wZCL.cf /
//                          g" (-DZCL_READ -DZCL_WRITE -DZCL_BASIC            /
//                          -DZCL_IDENTIFY -DZCL_ON_OFF -DZCL_KEY_ESTABLISH   /
//                          -DZCL_LOAD_CONTROL -DZCL_SIMPLE_METERING          /
//                          -DZCL_PRICING) -DZCL_MESSAGE                      /
//                          "D:\z-stack\z-stack\Sensor Network                /
//                          Example\Projects\zstack\Sensor Network            /
//                          Application\ZIGBEE Coordinator &                  /
//                          Router\Source\zcl_zigbee receiver.c" -D CC2530    /
//                          -D ZTOOL_P1 -D MT_TASK -D MT_APP_FUNC -D          /
//                          MT_SYS_FUNC -D MT_ZDO_FUNC -D                     /
//                          LCD_SUPPORTED=DEBUG -D Coor_receiver -D           /
//                          xHAL_KEYPAD -D xPA2591 -lC                        /
//                          "D:\z-stack\z-stack\Sensor Network                /
//                          Example\Projects\zstack\Sensor Network            /
//                          Application\ZIGBEE Coordinator &                  /
//                          Router\CC2530DB\Coordinator_KB_PA\List\" -lA      /
//                          "D:\z-stack\z-stack\Sensor Network                /
//                          Example\Projects\zstack\Sensor Network            /
//                          Application\ZIGBEE Coordinator &                  /
//                          Router\CC2530DB\Coordinator_KB_PA\List\"          /
//                          --diag_suppress Pe001,Pa010 -o                    /
//                          "D:\z-stack\z-stack\Sensor Network                /
//                          Example\Projects\zstack\Sensor Network            /
//                          Application\ZIGBEE Coordinator &                  /
//                          Router\CC2530DB\Coordinator_KB_PA\Obj\" -e        /
//                          --require_prototypes --debug --core=plain         /
//                          --dptr=16,1 --data_model=large                    /
//                          --code_model=banked --calling_convention=xdata_re /
//                          entrant --place_constants=data_rom                /
//                          --nr_virtual_regs 16 -I                           /
//                          "D:\z-stack\z-stack\Sensor Network                /
//                          Example\Projects\zstack\Sensor Network            /
//                          Application\ZIGBEE Coordinator &                  /
//                          Router\CC2530DB\" -I "D:\z-stack\z-stack\Sensor   /
//                          Network Example\Projects\zstack\Sensor Network    /
//                          Application\ZIGBEE Coordinator &                  /
//                          Router\CC2530DB\..\SOURCE\" -I                    /
//                          "D:\z-stack\z-stack\Sensor Network                /
//                          Example\Projects\zstack\Sensor Network            /
//                          Application\ZIGBEE Coordinator &                  /
//                          Router\CC2530DB\..\..\SOURCE\" -I                 /
//                          "D:\z-stack\z-stack\Sensor Network                /
//                          Example\Projects\zstack\Sensor Network            /
//                          Application\ZIGBEE Coordinator &                  /
//                          Router\CC2530DB\..\..\..\ZMAIN\TI2530DB\" -I      /
//                          "D:\z-stack\z-stack\Sensor Network                /
//                          Example\Projects\zstack\Sensor Network            /
//                          Application\ZIGBEE Coordinator &                  /
//                          Router\CC2530DB\..\..\..\..\..\COMPONENTS\MT\"    /
//                          -I "D:\z-stack\z-stack\Sensor Network             /
//                          Example\Projects\zstack\Sensor Network            /
//                          Application\ZIGBEE Coordinator &                  /
//                          Router\CC2530DB\..\..\..\..\..\COMPONENTS\HAL\INC /
//                          LUDE\" -I "D:\z-stack\z-stack\Sensor Network      /
//                          Example\Projects\zstack\Sensor Network            /
//                          Application\ZIGBEE Coordinator &                  /
//                          Router\CC2530DB\..\..\..\..\..\COMPONENTS\HAL\TAR /
//                          GET\CC2530KB\" -I "D:\z-stack\z-stack\Sensor      /
//                          Network Example\Projects\zstack\Sensor Network    /
//                          Application\ZIGBEE Coordinator &                  /
//                          Router\CC2530DB\..\..\..\..\..\COMPONENTS\OSAL\MC /
//                          U\CCSOC\" -I "D:\z-stack\z-stack\Sensor Network   /
//                          Example\Projects\zstack\Sensor Network            /
//                          Application\ZIGBEE Coordinator &                  /
//                          Router\CC2530DB\..\..\..\..\..\COMPONENTS\OSAL\IN /
//                          CLUDE\" -I "D:\z-stack\z-stack\Sensor Network     /
//                          Example\Projects\zstack\Sensor Network            /
//                          Application\ZIGBEE Coordinator &                  /
//                          Router\CC2530DB\..\..\..\..\..\COMPONENTS\STACK\A /
//                          F\" -I "D:\z-stack\z-stack\Sensor Network         /
//                          Example\Projects\zstack\Sensor Network            /
//                          Application\ZIGBEE Coordinator &                  /
//                          Router\CC2530DB\..\..\..\..\..\COMPONENTS\STACK\N /
//                          WK\" -I "D:\z-stack\z-stack\Sensor Network        /
//                          Example\Projects\zstack\Sensor Network            /
//                          Application\ZIGBEE Coordinator &                  /
//                          Router\CC2530DB\..\..\..\..\..\COMPONENTS\STACK\S /
//                          EC\" -I "D:\z-stack\z-stack\Sensor Network        /
//                          Example\Projects\zstack\Sensor Network            /
//                          Application\ZIGBEE Coordinator &                  /
//                          Router\CC2530DB\..\..\..\..\..\COMPONENTS\STACK\S /
//                          API\" -I "D:\z-stack\z-stack\Sensor Network       /
//                          Example\Projects\zstack\Sensor Network            /
//                          Application\ZIGBEE Coordinator &                  /
//                          Router\CC2530DB\..\..\..\..\..\COMPONENTS\STACK\S /
//                          YS\" -I "D:\z-stack\z-stack\Sensor Network        /
//                          Example\Projects\zstack\Sensor Network            /
//                          Application\ZIGBEE Coordinator &                  /
//                          Router\CC2530DB\..\..\..\..\..\COMPONENTS\STACK\Z /
//                          CL\" -I "D:\z-stack\z-stack\Sensor Network        /
//                          Example\Projects\zstack\Sensor Network            /
//                          Application\ZIGBEE Coordinator &                  /
//                          Router\CC2530DB\..\..\..\..\..\COMPONENTS\STACK\Z /
//                          DO\" -I "D:\z-stack\z-stack\Sensor Network        /
//                          Example\Projects\zstack\Sensor Network            /
//                          Application\ZIGBEE Coordinator &                  /
//                          Router\CC2530DB\..\..\..\..\..\COMPONENTS\ZMAC\F8 /
//                          W\" -I "D:\z-stack\z-stack\Sensor Network         /
//                          Example\Projects\zstack\Sensor Network            /
//                          Application\ZIGBEE Coordinator &                  /
//                          Router\CC2530DB\..\..\..\..\..\COMPONENTS\ZMAC\"  /
//                          -I "D:\z-stack\z-stack\Sensor Network             /
//                          Example\Projects\zstack\Sensor Network            /
//                          Application\ZIGBEE Coordinator &                  /
//                          Router\CC2530DB\..\..\..\..\..\COMPONENTS\SERVICE /
//                          S\SADDR\" -I "D:\z-stack\z-stack\Sensor Network   /
//                          Example\Projects\zstack\Sensor Network            /
//                          Application\ZIGBEE Coordinator &                  /
//                          Router\CC2530DB\..\..\..\..\..\COMPONENTS\SERVICE /
//                          S\SDATA\" -I "D:\z-stack\z-stack\Sensor Network   /
//                          Example\Projects\zstack\Sensor Network            /
//                          Application\ZIGBEE Coordinator &                  /
//                          Router\CC2530DB\..\..\..\..\..\COMPONENTS\MAC\INC /
//                          LUDE\" -I "D:\z-stack\z-stack\Sensor Network      /
//                          Example\Projects\zstack\Sensor Network            /
//                          Application\ZIGBEE Coordinator &                  /
//                          Router\CC2530DB\..\..\..\..\..\COMPONENTS\MAC\HIG /
//                          H_LEVEL\" -I "D:\z-stack\z-stack\Sensor Network   /
//                          Example\Projects\zstack\Sensor Network            /
//                          Application\ZIGBEE Coordinator &                  /
//                          Router\CC2530DB\..\..\..\..\..\COMPONENTS\MAC\LOW /
//                          _LEVEL\srf04\" -I "D:\z-stack\z-stack\Sensor      /
//                          Network Example\Projects\zstack\Sensor Network    /
//                          Application\ZIGBEE Coordinator &                  /
//                          Router\CC2530DB\..\..\..\..\..\COMPONENTS\MAC\LOW /
//                          _LEVEL\srf04\SINGLE_CHIP\" -I "C:\Program Files   /
//                          (x86)\IAR Systems\Embedded Workbench              /
//                          5.3\8051\INC\" -I "C:\Program Files (x86)\IAR     /
//                          Systems\Embedded Workbench 5.3\8051\INC\CLIB\"    /
//                          -Ohz                                              /
//    List file          =  D:\z-stack\z-stack\Sensor Network                 /
//                          Example\Projects\zstack\Sensor Network            /
//                          Application\ZIGBEE Coordinator &                  /
//                          Router\CC2530DB\Coordinator_KB_PA\List\zcl_zigbee /
//                           receiver.s51                                     /
//                                                                            /
//                                                                            /
///////////////////////////////////////////////////////////////////////////////

        NAME `zcl_zigbee receiver`

        RTMODEL "__calling_convention", "xdata_reentrant"
        RTMODEL "__code_model", "banked"
        RTMODEL "__core", "plain"
        RTMODEL "__data_model", "large"
        RTMODEL "__dptr_size", "16"
        RTMODEL "__extended_stack", "disabled"
        RTMODEL "__location_for_constants", "data"
        RTMODEL "__number_of_dptrs", "1"
        RTMODEL "__rt_version", "1"

        RSEG DOVERLAY:DATA:NOROOT(0)
        RSEG IOVERLAY:IDATA:NOROOT(0)
        RSEG ISTACK:IDATA:NOROOT(0)
        RSEG PSTACK:XDATA:NOROOT(0)
        RSEG XSTACK:XDATA:NOROOT(0)

        EXTERN ??ZSendMsgProcess?relay
        EXTERN ??zclUartReceiver?relay
        EXTERN ??zclZigbeeReceiver_ProcessIdentifyTimeChange?r
        EXTERN ?ALLOC_XSTACK8
        EXTERN ?BANKED_ENTER_XDATA
        EXTERN ?BANKED_LEAVE_XDATA
        EXTERN ?BDISPATCH
        EXTERN ?BRET
        EXTERN ?DEALLOC_XSTACK8
        EXTERN ?PUSH_XSTACK_I_ONE
        EXTERN ?PUSH_XSTACK_I_THREE
        EXTERN ?PUSH_XSTACK_I_TWO
        EXTERN ?UC_SWITCH_SPARSE
        EXTERN ?US_SWITCH_SPARSE
        EXTERN ?V0
        EXTERN ?XSP
        EXTERN ?XSTACK_DISP0_8
        EXTERN __INIT_XDATA_I
        EXTERN __INIT_XDATA_Z

        PUBLIC ??ZSendMsgProcess?relay
        FUNCTION ??ZSendMsgProcess?relay,0203H
        PUBLIC ??zclUARTMsg_CallBack?relay
        FUNCTION ??zclUARTMsg_CallBack?relay,0203H
        PUBLIC ??zclUartReceiver?relay
        FUNCTION ??zclUartReceiver?relay,0203H
        FUNCTION ??zclZigbeeReceiver_BasicResetCB?relay,0203H
        FUNCTION ??zclZigbeeReceiver_IdentifyCB?relay,0203H
        FUNCTION ??zclZigbeeReceiver_IdentifyQueryRspCB?relay,0203H
        FUNCTION ??zclZigbeeReceiver_OnOffCB?relay,0203H
        FUNCTION ??zclZigbeeReceiver_ProcessIdentifyTimeChange?r,0203H
        PUBLIC ??zclZigbeeRecv_Init?relay
        FUNCTION ??zclZigbeeRecv_Init?relay,0203H
        PUBLIC ??zclZigbeeRecv_event_loop?relay
        FUNCTION ??zclZigbeeRecv_event_loop?relay,0203H
        PUBLIC TransmitApp_Msg
        PUBLIC UartTransmit_Msg
        PUBLIC ZDO_MSG_SEND_ID
        PUBLIC ZSendMsgProcess
        FUNCTION ZSendMsgProcess,021203H
        ARGFRAME XSTACK, 23, STACK
        ARGFRAME IOVERLAY, 0, STATIC
        ARGFRAME DOVERLAY, 0, STATIC
        LOCFRAME XSTACK, 9, STACK
        PUBLIC len
        PUBLIC send_msg_counter
        PUBLIC uart_recv
        PUBLIC zclUARTMsg_CallBack
        FUNCTION zclUARTMsg_CallBack,021203H
        ARGFRAME XSTACK, 0, STACK
        LOCFRAME XSTACK, 10, STACK
        PUBLIC zclUartReceiver
        FUNCTION zclUartReceiver,021203H
        ARGFRAME XSTACK, 23, STACK
        ARGFRAME IOVERLAY, 0, STATIC
        ARGFRAME DOVERLAY, 0, STATIC
        LOCFRAME ISTACK, 1, STACK
        LOCFRAME XSTACK, 21, STACK
        FUNCTION zclZigbeeReceiver_BasicResetCB,0603H
        ARGFRAME XSTACK, 0, STACK
        FUNCTION zclZigbeeReceiver_IdentifyCB,021603H
        ARGFRAME XSTACK, 0, STACK
        LOCFRAME ISTACK, 2, STACK
        FUNCTION zclZigbeeReceiver_IdentifyQueryRspCB,0603H
        ARGFRAME XSTACK, 0, STACK
        FUNCTION zclZigbeeReceiver_OnOffCB,021603H
        ARGFRAME XSTACK, 0, STACK
        LOCFRAME ISTACK, 2, STACK
        FUNCTION zclZigbeeReceiver_ProcessIdentifyTimeChange,021203H
        ARGFRAME XSTACK, 23, STACK
        ARGFRAME IOVERLAY, 0, STATIC
        ARGFRAME DOVERLAY, 0, STATIC
        LOCFRAME ISTACK, 2, STACK
        PUBLIC zclZigbeeReceiver_TaskID
        PUBLIC zclZigbeeRecv_DstAddr
        PUBLIC zclZigbeeRecv_Group
        PUBLIC zclZigbeeRecv_Init
        FUNCTION zclZigbeeRecv_Init,021203H
        ARGFRAME XSTACK, 0, STACK
        LOCFRAME XSTACK, 14, STACK
        PUBLIC zclZigbeeRecv_event_loop
        FUNCTION zclZigbeeRecv_event_loop,0a1203H
        ARGFRAME XSTACK, 0, STACK
        LOCFRAME ISTACK, 1, STACK
        LOCFRAME XSTACK, 32, STACK
        
        CFI Names cfiNames0
        CFI StackFrame CFA_SP SP IDATA
        CFI StackFrame CFA_PSP16 PSP16 XDATA
        CFI StackFrame CFA_XSP16 XSP16 XDATA
        CFI StaticOverlayFrame CFA_IOVERLAY IOVERLAY
        CFI StaticOverlayFrame CFA_DOVERLAY DOVERLAY
        CFI Resource `PSW.CY`:1, `B.BR0`:1, `B.BR1`:1, `B.BR2`:1, `B.BR3`:1
        CFI Resource `B.BR4`:1, `B.BR5`:1, `B.BR6`:1, `B.BR7`:1, `VB.BR8`:1
        CFI Resource `VB.BR9`:1, `VB.BR10`:1, `VB.BR11`:1, `VB.BR12`:1
        CFI Resource `VB.BR13`:1, `VB.BR14`:1, `VB.BR15`:1, VB:8, B:8, A:8
        CFI Resource PSW:8, DPL0:8, DPH0:8, R0:8, R1:8, R2:8, R3:8, R4:8, R5:8
        CFI Resource R6:8, R7:8, V0:8, V1:8, V2:8, V3:8, V4:8, V5:8, V6:8, V7:8
        CFI Resource V8:8, V9:8, V10:8, V11:8, V12:8, V13:8, V14:8, V15:8, SP:8
        CFI Resource PSPH:8, PSPL:8, PSP16:16, XSPH:8, XSPL:8, XSP16:16
        CFI VirtualResource ?RET:24
        CFI Resource ?BRET_EXT:8
        CFI VirtualResource ?RET_HIGH:8, ?RET_LOW:8
        CFI ResourceParts PSP16 PSPH, PSPL
        CFI ResourceParts XSP16 XSPH, XSPL
        CFI ResourceParts ?RET ?BRET_EXT, ?RET_HIGH, ?RET_LOW
        CFI EndNames cfiNames0
        
        CFI Common cfiCommon0 Using cfiNames0
        CFI CodeAlign 1
        CFI DataAlign -1
        CFI ReturnAddress ?RET CODE
        CFI CFA_DOVERLAY Used
        CFI CFA_IOVERLAY Used
        CFI CFA_SP SP+-3
        CFI CFA_PSP16 PSP16+0
        CFI CFA_XSP16 XSP16+0
        CFI `PSW.CY` SameValue
        CFI `B.BR0` SameValue
        CFI `B.BR1` SameValue
        CFI `B.BR2` SameValue
        CFI `B.BR3` SameValue
        CFI `B.BR4` SameValue
        CFI `B.BR5` SameValue
        CFI `B.BR6` SameValue
        CFI `B.BR7` SameValue
        CFI `VB.BR8` SameValue
        CFI `VB.BR9` SameValue
        CFI `VB.BR10` SameValue
        CFI `VB.BR11` SameValue
        CFI `VB.BR12` SameValue
        CFI `VB.BR13` SameValue
        CFI `VB.BR14` SameValue
        CFI `VB.BR15` SameValue
        CFI VB SameValue
        CFI B Undefined
        CFI A Undefined
        CFI PSW SameValue
        CFI DPL0 SameValue
        CFI DPH0 SameValue
        CFI R0 Undefined
        CFI R1 Undefined
        CFI R2 Undefined
        CFI R3 Undefined
        CFI R4 Undefined
        CFI R5 Undefined
        CFI R6 SameValue
        CFI R7 SameValue
        CFI V0 SameValue
        CFI V1 SameValue
        CFI V2 SameValue
        CFI V3 SameValue
        CFI V4 SameValue
        CFI V5 SameValue
        CFI V6 SameValue
        CFI V7 SameValue
        CFI V8 SameValue
        CFI V9 SameValue
        CFI V10 SameValue
        CFI V11 SameValue
        CFI V12 SameValue
        CFI V13 SameValue
        CFI V14 SameValue
        CFI V15 SameValue
        CFI PSPH Undefined
        CFI PSPL Undefined
        CFI XSPH Undefined
        CFI XSPL Undefined
        CFI ?RET Concat
        CFI ?BRET_EXT Frame(CFA_SP, 3)
        CFI ?RET_HIGH Frame(CFA_SP, 2)
        CFI ?RET_LOW Frame(CFA_SP, 1)
        CFI EndCommon cfiCommon0
        
        
        CFI Common cfiCommon1 Using cfiNames0
        CFI CodeAlign 1
        CFI DataAlign -1
        CFI ReturnAddress ?RET CODE
        CFI CFA_DOVERLAY Used
        CFI CFA_IOVERLAY Used
        CFI CFA_SP SP+-2
        CFI CFA_PSP16 PSP16+0
        CFI CFA_XSP16 XSP16+0
        CFI `PSW.CY` SameValue
        CFI `B.BR0` SameValue
        CFI `B.BR1` SameValue
        CFI `B.BR2` SameValue
        CFI `B.BR3` SameValue
        CFI `B.BR4` SameValue
        CFI `B.BR5` SameValue
        CFI `B.BR6` SameValue
        CFI `B.BR7` SameValue
        CFI `VB.BR8` SameValue
        CFI `VB.BR9` SameValue
        CFI `VB.BR10` SameValue
        CFI `VB.BR11` SameValue
        CFI `VB.BR12` SameValue
        CFI `VB.BR13` SameValue
        CFI `VB.BR14` SameValue
        CFI `VB.BR15` SameValue
        CFI VB SameValue
        CFI B SameValue
        CFI A SameValue
        CFI PSW SameValue
        CFI DPL0 SameValue
        CFI DPH0 SameValue
        CFI R0 SameValue
        CFI R1 SameValue
        CFI R2 SameValue
        CFI R3 SameValue
        CFI R4 SameValue
        CFI R5 SameValue
        CFI R6 SameValue
        CFI R7 SameValue
        CFI V0 SameValue
        CFI V1 SameValue
        CFI V2 SameValue
        CFI V3 SameValue
        CFI V4 SameValue
        CFI V5 SameValue
        CFI V6 SameValue
        CFI V7 SameValue
        CFI V8 SameValue
        CFI V9 SameValue
        CFI V10 SameValue
        CFI V11 SameValue
        CFI V12 SameValue
        CFI V13 SameValue
        CFI V14 SameValue
        CFI V15 SameValue
        CFI PSPH Undefined
        CFI PSPL Undefined
        CFI XSPH Undefined
        CFI XSPL Undefined
        CFI ?RET Concat
        CFI ?BRET_EXT SameValue
        CFI ?RET_HIGH Frame(CFA_SP, 2)
        CFI ?RET_LOW Frame(CFA_SP, 1)
        CFI EndCommon cfiCommon1
        
HalUARTWrite        SYMBOL "HalUARTWrite"
osal_start_timerEx  SYMBOL "osal_start_timerEx"
zclZD_Init          SYMBOL "zclZD_Init"
zclGeneral_RegisterCmdCallbacks SYMBOL "zclGeneral_RegisterCmdCallbacks"
zcl_registerAttrList SYMBOL "zcl_registerAttrList"
zcl_registerForMsg  SYMBOL "zcl_registerForMsg"
RegisterForKeys     SYMBOL "RegisterForKeys"
osal_memcpy         SYMBOL "osal_memcpy"
aps_AddGroup        SYMBOL "aps_AddGroup"
afRegister          SYMBOL "afRegister"
osal_set_event      SYMBOL "osal_set_event"
show                SYMBOL "show"
osal_msg_deallocate SYMBOL "osal_msg_deallocate"
osal_msg_receive    SYMBOL "osal_msg_receive"
osal_mem_free       SYMBOL "osal_mem_free"
NLME_GetShortAddr   SYMBOL "NLME_GetShortAddr"
ZDP_EndDeviceBindReq SYMBOL "ZDP_EndDeviceBindReq"
strcpy              SYMBOL "strcpy"
strncpy             SYMBOL "strncpy"
HalLcdWriteChar     SYMBOL "HalLcdWriteChar"
HalLedBlink         SYMBOL "HalLedBlink"
HalLedSet           SYMBOL "HalLedSet"
osal_stop_timerEx   SYMBOL "osal_stop_timerEx"
Hal_UART_RxBufLen   SYMBOL "Hal_UART_RxBufLen"
HalUARTRead         SYMBOL "HalUARTRead"
zcl_SendCommand     SYMBOL "zcl_SendCommand"
??HalLcdWriteChar?relay SYMBOL "?relay", HalLcdWriteChar
??HalLedBlink?relay SYMBOL "?relay", HalLedBlink
??HalLedSet?relay   SYMBOL "?relay", HalLedSet
??HalUARTRead?relay SYMBOL "?relay", HalUARTRead
??HalUARTWrite?relay SYMBOL "?relay", HalUARTWrite
??Hal_UART_RxBufLen?relay SYMBOL "?relay", Hal_UART_RxBufLen
??NLME_GetShortAddr?relay SYMBOL "?relay", NLME_GetShortAddr
??RegisterForKeys?relay SYMBOL "?relay", RegisterForKeys
??ZDP_EndDeviceBindReq?relay SYMBOL "?relay", ZDP_EndDeviceBindReq
??afRegister?relay  SYMBOL "?relay", afRegister
??aps_AddGroup?relay SYMBOL "?relay", aps_AddGroup
??osal_mem_free?relay SYMBOL "?relay", osal_mem_free
??osal_memcpy?relay SYMBOL "?relay", osal_memcpy
??osal_msg_deallocate?relay SYMBOL "?relay", osal_msg_deallocate
??osal_msg_receive?relay SYMBOL "?relay", osal_msg_receive
??osal_set_event?relay SYMBOL "?relay", osal_set_event
??osal_start_timerEx?relay SYMBOL "?relay", osal_start_timerEx
??osal_stop_timerEx?relay SYMBOL "?relay", osal_stop_timerEx
??show?relay        SYMBOL "?relay", show
??strcpy?relay      SYMBOL "?relay", strcpy
??strncpy?relay     SYMBOL "?relay", strncpy
??zclGeneral_RegisterCmdCallbacks?relay SYMBOL "?relay", zclGeneral_RegisterCmdCallbacks
??zclZD_Init?relay  SYMBOL "?relay", zclZD_Init
??zcl_SendCommand?relay SYMBOL "?relay", zcl_SendCommand
??zcl_registerAttrList?relay SYMBOL "?relay", zcl_registerAttrList
??zcl_registerForMsg?relay SYMBOL "?relay", zcl_registerForMsg
ZSendMsgProcess     SYMBOL "ZSendMsgProcess"
??ZSendMsgProcess?relay SYMBOL "?relay", ZSendMsgProcess
zclUARTMsg_CallBack SYMBOL "zclUARTMsg_CallBack"
??zclUARTMsg_CallBack?relay SYMBOL "?relay", zclUARTMsg_CallBack
zclUartReceiver     SYMBOL "zclUartReceiver"
??zclUartReceiver?relay SYMBOL "?relay", zclUartReceiver
zclZigbeeRecv_Init  SYMBOL "zclZigbeeRecv_Init"
??zclZigbeeRecv_Init?relay SYMBOL "?relay", zclZigbeeRecv_Init
zclZigbeeRecv_event_loop SYMBOL "zclZigbeeRecv_event_loop"
??zclZigbeeRecv_event_loop?relay SYMBOL "?relay", zclZigbeeRecv_event_loop

        EXTERN HalUARTWrite
        FUNCTION HalUARTWrite,0202H
        ARGFRAME ISTACK, 0, STACK
        ARGFRAME PSTACK, 0, STACK
        ARGFRAME XSTACK, 9, STACK
        ARGFRAME IOVERLAY, 0, STATIC
        ARGFRAME DOVERLAY, 0, STATIC
        EXTERN osal_start_timerEx
        FUNCTION osal_start_timerEx,0202H
        ARGFRAME ISTACK, 2, STACK
        ARGFRAME PSTACK, 0, STACK
        ARGFRAME XSTACK, 9, STACK
        ARGFRAME IOVERLAY, 0, STATIC
        ARGFRAME DOVERLAY, 0, STATIC
        EXTERN zclZD_Init
        FUNCTION zclZD_Init,0202H
        ARGFRAME ISTACK, 0, STACK
        ARGFRAME PSTACK, 0, STACK
        ARGFRAME XSTACK, 11, STACK
        ARGFRAME IOVERLAY, 0, STATIC
        ARGFRAME DOVERLAY, 0, STATIC
        EXTERN zclGeneral_RegisterCmdCallbacks
        FUNCTION zclGeneral_RegisterCmdCallbacks,0202H
        ARGFRAME ISTACK, 0, STACK
        ARGFRAME PSTACK, 0, STACK
        ARGFRAME XSTACK, 11, STACK
        ARGFRAME IOVERLAY, 0, STATIC
        ARGFRAME DOVERLAY, 0, STATIC
        EXTERN zcl_registerAttrList
        FUNCTION zcl_registerAttrList,0202H
        ARGFRAME ISTACK, 0, STACK
        ARGFRAME PSTACK, 0, STACK
        ARGFRAME XSTACK, 11, STACK
        ARGFRAME IOVERLAY, 0, STATIC
        ARGFRAME DOVERLAY, 0, STATIC
        EXTERN zcl_registerForMsg
        FUNCTION zcl_registerForMsg,0202H
        ARGFRAME ISTACK, 0, STACK
        ARGFRAME PSTACK, 0, STACK
        ARGFRAME XSTACK, 11, STACK
        ARGFRAME IOVERLAY, 0, STATIC
        ARGFRAME DOVERLAY, 0, STATIC
        EXTERN RegisterForKeys
        FUNCTION RegisterForKeys,0202H
        ARGFRAME ISTACK, 0, STACK
        ARGFRAME PSTACK, 0, STACK
        ARGFRAME XSTACK, 11, STACK
        ARGFRAME IOVERLAY, 0, STATIC
        ARGFRAME DOVERLAY, 0, STATIC
        EXTERN osal_memcpy
        FUNCTION osal_memcpy,0202H
        ARGFRAME ISTACK, 0, STACK
        ARGFRAME PSTACK, 0, STACK
        ARGFRAME XSTACK, 14, STACK
        ARGFRAME IOVERLAY, 0, STATIC
        ARGFRAME DOVERLAY, 0, STATIC
        EXTERN aps_AddGroup
        FUNCTION aps_AddGroup,0202H
        ARGFRAME ISTACK, 0, STACK
        ARGFRAME PSTACK, 0, STACK
        ARGFRAME XSTACK, 11, STACK
        ARGFRAME IOVERLAY, 0, STATIC
        ARGFRAME DOVERLAY, 0, STATIC
        EXTERN afRegister
        FUNCTION afRegister,0202H
        ARGFRAME ISTACK, 0, STACK
        ARGFRAME PSTACK, 0, STACK
        ARGFRAME XSTACK, 11, STACK
        ARGFRAME IOVERLAY, 0, STATIC
        ARGFRAME DOVERLAY, 0, STATIC
        EXTERN osal_set_event
        FUNCTION osal_set_event,0202H
        ARGFRAME ISTACK, 0, STACK
        ARGFRAME PSTACK, 0, STACK
        ARGFRAME XSTACK, 11, STACK
        ARGFRAME IOVERLAY, 0, STATIC
        ARGFRAME DOVERLAY, 0, STATIC
        EXTERN show
        FUNCTION show,0202H
        ARGFRAME ISTACK, 0, STACK
        ARGFRAME PSTACK, 0, STACK
        ARGFRAME XSTACK, 23, STACK
        ARGFRAME IOVERLAY, 0, STATIC
        ARGFRAME DOVERLAY, 0, STATIC
        EXTERN osal_msg_deallocate
        FUNCTION osal_msg_deallocate,0202H
        ARGFRAME ISTACK, 0, STACK
        ARGFRAME PSTACK, 0, STACK
        ARGFRAME XSTACK, 23, STACK
        ARGFRAME IOVERLAY, 0, STATIC
        ARGFRAME DOVERLAY, 0, STATIC
        EXTERN osal_msg_receive
        FUNCTION osal_msg_receive,0202H
        ARGFRAME ISTACK, 0, STACK
        ARGFRAME PSTACK, 0, STACK
        ARGFRAME XSTACK, 23, STACK
        ARGFRAME IOVERLAY, 0, STATIC
        ARGFRAME DOVERLAY, 0, STATIC
        EXTERN osal_mem_free
        FUNCTION osal_mem_free,0202H
        ARGFRAME ISTACK, 0, STACK
        ARGFRAME PSTACK, 0, STACK
        ARGFRAME XSTACK, 23, STACK
        ARGFRAME IOVERLAY, 0, STATIC
        ARGFRAME DOVERLAY, 0, STATIC
        EXTERN NLME_GetShortAddr
        FUNCTION NLME_GetShortAddr,0202H
        ARGFRAME ISTACK, 0, STACK
        ARGFRAME PSTACK, 0, STACK
        ARGFRAME XSTACK, 32, STACK
        ARGFRAME IOVERLAY, 0, STATIC
        ARGFRAME DOVERLAY, 0, STATIC
        EXTERN ZDP_EndDeviceBindReq
        FUNCTION ZDP_EndDeviceBindReq,0202H
        ARGFRAME ISTACK, 0, STACK
        ARGFRAME PSTACK, 0, STACK
        ARGFRAME XSTACK, 32, STACK
        ARGFRAME IOVERLAY, 0, STATIC
        ARGFRAME DOVERLAY, 0, STATIC
        EXTERN strcpy
        FUNCTION strcpy,010202H
        ARGFRAME ISTACK, 0, STACK
        ARGFRAME PSTACK, 0, STACK
        ARGFRAME XSTACK, 23, STACK
        ARGFRAME IOVERLAY, 0, STATIC
        ARGFRAME DOVERLAY, 0, STATIC
        EXTERN strncpy
        FUNCTION strncpy,010202H
        ARGFRAME ISTACK, 0, STACK
        ARGFRAME PSTACK, 0, STACK
        ARGFRAME XSTACK, 25, STACK
        ARGFRAME IOVERLAY, 0, STATIC
        ARGFRAME DOVERLAY, 0, STATIC
        EXTERN HalLcdWriteChar
        FUNCTION HalLcdWriteChar,0202H
        ARGFRAME ISTACK, 0, STACK
        ARGFRAME PSTACK, 0, STACK
        ARGFRAME XSTACK, 23, STACK
        ARGFRAME IOVERLAY, 0, STATIC
        ARGFRAME DOVERLAY, 0, STATIC
        EXTERN HalLedBlink
        FUNCTION HalLedBlink,0202H
        ARGFRAME ISTACK, 2, STACK
        ARGFRAME PSTACK, 0, STACK
        ARGFRAME XSTACK, 0, STACK
        ARGFRAME IOVERLAY, 0, STATIC
        ARGFRAME DOVERLAY, 0, STATIC
        EXTERN HalLedSet
        FUNCTION HalLedSet,0202H
        ARGFRAME ISTACK, 2, STACK
        ARGFRAME PSTACK, 0, STACK
        ARGFRAME XSTACK, 0, STACK
        ARGFRAME IOVERLAY, 0, STATIC
        ARGFRAME DOVERLAY, 0, STATIC
        EXTERN osal_stop_timerEx
        FUNCTION osal_stop_timerEx,0202H
        ARGFRAME ISTACK, 2, STACK
        ARGFRAME PSTACK, 0, STACK
        ARGFRAME XSTACK, 0, STACK
        ARGFRAME IOVERLAY, 0, STATIC
        ARGFRAME DOVERLAY, 0, STATIC
        EXTERN Hal_UART_RxBufLen
        FUNCTION Hal_UART_RxBufLen,0202H
        ARGFRAME ISTACK, 0, STACK
        ARGFRAME PSTACK, 0, STACK
        ARGFRAME XSTACK, 10, STACK
        ARGFRAME IOVERLAY, 0, STATIC
        ARGFRAME DOVERLAY, 0, STATIC
        EXTERN HalUARTRead
        FUNCTION HalUARTRead,0202H
        ARGFRAME ISTACK, 0, STACK
        ARGFRAME PSTACK, 0, STACK
        ARGFRAME XSTACK, 10, STACK
        ARGFRAME IOVERLAY, 0, STATIC
        ARGFRAME DOVERLAY, 0, STATIC
        EXTERN zcl_SendCommand
        FUNCTION zcl_SendCommand,0202H
        ARGFRAME ISTACK, 0, STACK
        ARGFRAME PSTACK, 0, STACK
        ARGFRAME XSTACK, 21, STACK
        ARGFRAME IOVERLAY, 0, STATIC
        ARGFRAME DOVERLAY, 0, STATIC
        EXTERN ??HalLcdWriteChar?relay
        FUNCTION ??HalLcdWriteChar?relay,00H
        EXTERN ??HalLedBlink?relay
        FUNCTION ??HalLedBlink?relay,00H
        EXTERN ??HalLedSet?relay
        FUNCTION ??HalLedSet?relay,00H
        EXTERN ??HalUARTRead?relay
        FUNCTION ??HalUARTRead?relay,00H
        EXTERN ??HalUARTWrite?relay
        FUNCTION ??HalUARTWrite?relay,00H
        EXTERN ??Hal_UART_RxBufLen?relay
        FUNCTION ??Hal_UART_RxBufLen?relay,00H
        EXTERN ??NLME_GetShortAddr?relay
        FUNCTION ??NLME_GetShortAddr?relay,00H
        EXTERN ??RegisterForKeys?relay
        FUNCTION ??RegisterForKeys?relay,00H
        EXTERN ??ZDP_EndDeviceBindReq?relay
        FUNCTION ??ZDP_EndDeviceBindReq?relay,00H
        EXTERN ??afRegister?relay
        FUNCTION ??afRegister?relay,00H
        EXTERN ??aps_AddGroup?relay
        FUNCTION ??aps_AddGroup?relay,00H
        EXTERN ??osal_mem_free?relay
        FUNCTION ??osal_mem_free?relay,00H
        EXTERN ??osal_memcpy?relay
        FUNCTION ??osal_memcpy?relay,00H
        EXTERN ??osal_msg_deallocate?relay
        FUNCTION ??osal_msg_deallocate?relay,00H
        EXTERN ??osal_msg_receive?relay
        FUNCTION ??osal_msg_receive?relay,00H
        EXTERN ??osal_set_event?relay
        FUNCTION ??osal_set_event?relay,00H
        EXTERN ??osal_start_timerEx?relay
        FUNCTION ??osal_start_timerEx?relay,00H
        EXTERN ??osal_stop_timerEx?relay
        FUNCTION ??osal_stop_timerEx?relay,00H
        EXTERN ??show?relay
        FUNCTION ??show?relay,00H
        EXTERN ??strcpy?relay
        FUNCTION ??strcpy?relay,00H
        EXTERN ??strncpy?relay
        FUNCTION ??strncpy?relay,00H
        EXTERN ??zclGeneral_RegisterCmdCallbacks?relay
        FUNCTION ??zclGeneral_RegisterCmdCallbacks?relay,00H
        EXTERN ??zclZD_Init?relay
        FUNCTION ??zclZD_Init?relay,00H
        EXTERN ??zcl_SendCommand?relay
        FUNCTION ??zcl_SendCommand?relay,00H
        EXTERN ??zcl_registerAttrList?relay
        FUNCTION ??zcl_registerAttrList?relay,00H
        EXTERN ??zcl_registerForMsg?relay
        FUNCTION ??zcl_registerForMsg?relay,00H
        EXTERN ch
        EXTERN device_manager
        EXTERN zclZigbeeRecv_Attrs
        EXTERN zclZigbeeRecv_IdentifyTime
        EXTERN zclZigbeeRecv_OnOff
        EXTERN zclZigbeeRecv_SimpleDesc

// D:\z-stack\z-stack\Sensor Network Example\Projects\zstack\Sensor Network Application\ZIGBEE Coordinator & Router\Source\zcl_zigbee receiver.c
//    1 /**************************************************************************************************
//    2   Filename:       zcl_zigbee receiver.c
//    3   Revised:        $Date: 2009-03-18 15:56:27 -0700 (Wed, 18 Mar 2009) $
//    4   Revision:       $Revision: 19453 $
//    5 
//    6   Description:    Zigbee Cluster Library - ZIGBEE Receiver device application.
//    7 
//    8   Copyright 2006-2009 Texas Instruments Incorporated. All rights reserved.
//    9 
//   10   Should you have any questions regarding your right to use this Software,
//   11   contact Texas Instruments Incorporated at www.TI.com. 
//   12 **************************************************************************************************/
//   13 
//   14 /*********************************************************************
//   15  * INCLUDES
//   16  */
//   17 #include <stdio.h>
//   18 #include <string.h>
//   19 #include "ZComDef.h"
//   20 #include "OSAL.h"
//   21 #include "AF.h"
//   22 #include "ZDApp.h"
//   23 
//   24 /* ZCL */
//   25 #include "zcl.h"
//   26 #include "zcl_general.h"
//   27 #include "zcl_ha.h"
//   28 #include "zcl_zigbee receiver.h"
//   29 
//   30 /* HAL */
//   31 #include "onboard.h"
//   32 #include "hal_lcd.h"
//   33 #include "hal_led.h"
//   34 #include "hal_timer.h"
//   35 #include "hal_uart.h"
//   36 #include "hal_key.h"
//   37 #include "hal_keypad.h"
//   38 
//   39 /* MAC_high-level */
//   40 #include "mac_high_level.h"
//   41 
//   42 /* MT */
//   43 #include "MT_UART.h"
//   44 #include "MT.h"
//   45 
//   46 #include "ZComDef.h"
//   47 /*********************************************************************
//   48  * MACROS
//   49  */
//   50 /*********************************************************************
//   51  * CONSTANTS
//   52  */
//   53  #define TRANSMITAPP_MAX_DATA_LEN    102
//   54 
//   55 /*********************************************************************
//   56  * TYPEDEFS
//   57  */
//   58 /*********************************************************************
//   59  * GLOBAL VARIABLES
//   60  */
//   61 

        RSEG XDATA_Z:XDATA:NOROOT(0)
//   62 uint8 send_msg_counter = 0;
send_msg_counter:
        DS 1
        REQUIRE __INIT_XDATA_Z
//   63 

        RSEG XDATA_Z:XDATA:NOROOT(0)
//   64 byte zclZigbeeReceiver_TaskID; // The zigbee task_ID
zclZigbeeReceiver_TaskID:
        DS 1
        REQUIRE __INIT_XDATA_Z
//   65 

        RSEG XDATA_Z:XDATA:NOROOT(0)
//   66 byte ZDO_MSG_SEND_ID; // The zigbee task_ID
ZDO_MSG_SEND_ID:
        DS 1
        REQUIRE __INIT_XDATA_Z
//   67 
//   68 // The UART transmit variable and array
//   69 // the transmit data length

        RSEG XDATA_Z:XDATA:NOROOT(0)
//   70 uint8 len; 
len:
        DS 1
        REQUIRE __INIT_XDATA_Z
//   71 // Transmit message array

        RSEG XDATA_Z:XDATA:NOROOT(0)
//   72 byte TransmitApp_Msg[ TRANSMITAPP_MAX_DATA_LEN ]; 
TransmitApp_Msg:
        DS 102
        REQUIRE __INIT_XDATA_Z
//   73 // The coordinator send to device message array

        RSEG XDATA_Z:XDATA:NOROOT(0)
//   74 byte UartTransmit_Msg[ TRANSMITAPP_MAX_DATA_LEN ]; 
UartTransmit_Msg:
        DS 102
        REQUIRE __INIT_XDATA_Z
//   75 // Receive the UART command

        RSEG XDATA_Z:XDATA:NOROOT(0)
//   76 uint8 uart_recv[TRANSMITAPP_MAX_DATA_LEN]; 
uart_recv:
        DS 102
        REQUIRE __INIT_XDATA_Z
//   77 
//   78 /*********************************************************************
//   79  * GLOBAL FUNCTIONS
//   80  */
//   81 
//   82 /*********************************************************************
//   83  * LOCAL VARIABLES
//   84  */

        RSEG XDATA_Z:XDATA:NOROOT(0)
//   85 afAddrType_t zclZigbeeRecv_DstAddr;  // AF address type
zclZigbeeRecv_DstAddr:
        DS 12
        REQUIRE __INIT_XDATA_Z

        RSEG XDATA_Z:XDATA:NOROOT(0)
//   86 aps_Group_t zclZigbeeRecv_Group;
zclZigbeeRecv_Group:
        DS 18
        REQUIRE __INIT_XDATA_Z
//   87 
//   88 #define ZCLZIGBEERECV_BINDINGLIST       2
//   89 

        RSEG XDATA_I:XDATA:NOROOT(0)
        DATA
//   90 static cId_t bindingInClusters[ZCLZIGBEERECV_BINDINGLIST] =
bindingInClusters:
        DS 4
        REQUIRE `?<Initializer for bindingInClusters>`
        REQUIRE __INIT_XDATA_I
//   91 {
//   92   ZCL_CLUSTER_ID_GEN_ON_OFF,
//   93   ZCL_CLUSTER_ID_GEN_LEVEL_CONTROL
//   94 };
//   95 
//   96 // Test Endpoint to allow SYS_APP_MSGs

        RSEG XDATA_I:XDATA:NOROOT(0)
        DATA
//   97 static endPointDesc_t zigbeeReceiver_TestEp =
zigbeeReceiver_TestEp:
        DS 6
        REQUIRE `?<Initializer for zigbeeReceiver_TestEp>`
        REQUIRE __INIT_XDATA_I
//   98 {
//   99   20,                                 // Test endpoint
//  100   &zclZigbeeReceiver_TaskID,
//  101   (SimpleDescriptionFormat_t *)NULL,  // No Simple description for this test endpoint
//  102   (afNetworkLatencyReq_t)0            // No Network Latency req
//  103 };
//  104 
//  105 /*********************************************************************
//  106  * LOCAL FUNCTIONS
//  107  */
//  108 static void zclZigbeeReceiver_HandleKeys( byte shift, byte keys );
//  109 static void zclZigbeeReceiver_BasicResetCB( void );
//  110 static void zclZigbeeReceiver_IdentifyCB( zclIdentify_t *pCmd );
//  111 static void zclZigbeeReceiver_IdentifyQueryRspCB( zclIdentifyQueryRsp_t *pRsp );
//  112 static void zclZigbeeReceiver_OnOffCB( uint8 cmd );
//  113 static void zclZigbeeReceiver_ProcessIdentifyTimeChange( void );
//  114 
//  115 void zclUARTMsg_CallBack(uint8 port, uint8 event); // The UART Message callback
//  116 void zclUartReceiver( void ); // The coordinator receive command function
//  117 
//  118 // Functions to process ZCL Foundation incoming Command/Response messages 
//  119 static void zclZigbeeReceiver_ProcessIncomingMsg( zclIncomingMsg_t *msg );
//  120 #ifdef ZCL_READ
//  121   static uint8 zclZigbeeReceiver_ProcessInReadRspCmd( zclIncomingMsg_t *pInMsg );
//  122 #endif
//  123 #ifdef ZCL_WRITE
//  124   static uint8 zclZigbeeReceiver_ProcessInWriteRspCmd( zclIncomingMsg_t *pInMsg );
//  125 #endif
//  126   static uint8 zclZigbeeReceiver_ProcessInDefaultRspCmd( zclIncomingMsg_t *pInMsg );
//  127 #ifdef ZCL_DISCOVER
//  128   static uint8 zclZigbeeReceiver_ProcessInDiscRspCmd( zclIncomingMsg_t *pInMsg );
//  129 #endif
//  130   
//  131 /*********************************************************************
//  132  * ZCL General Profile Callback table
//  133  */

        RSEG XDATA_I:XDATA:NOROOT(0)
        DATA
//  134 static zclGeneral_AppCallbacks_t zclZigbeeReceiver_CmdCallbacks =
zclZigbeeReceiver_CmdCallbacks:
        DS 30
        REQUIRE `?<Initializer for zclZigbeeReceiver_CmdCallbac`
        REQUIRE __INIT_XDATA_I
//  135 {
//  136   zclZigbeeReceiver_BasicResetCB,              // Basic Cluster Reset command
//  137   zclZigbeeReceiver_IdentifyCB,                // Identify command  
//  138   zclZigbeeReceiver_IdentifyQueryRspCB,        // Identify Query Response command
//  139   zclZigbeeReceiver_OnOffCB,                   // On/Off cluster command
//  140   NULL,                                        // Level Control Move to Level command
//  141   NULL,                                        // Level Control Move command
//  142   NULL,                                        // Level Control Step command
//  143   NULL,                                        // Group Response commands
//  144   NULL,                                        // Scene Store Request command
//  145   NULL,                                        // Scene Recall Request command
//  146   NULL,                                        // Scene Response command
//  147   NULL,                                        // Alarm (Response) command
//  148   NULL,                                        // RSSI Location commands
//  149   NULL,                                        // RSSI Location Response commands
//  150 };
//  151 

        RSEG BANKED_CODE:CODE:NOROOT(0)
//  152 void ZSendMsgProcess(char *temp)
ZSendMsgProcess:
        CFI Block cfiBlock0 Using cfiCommon0
        CFI Function ZSendMsgProcess
//  153 {  
        FUNCALL ZSendMsgProcess, HalUARTWrite
        LOCFRAME ISTACK, 0, STACK
        LOCFRAME PSTACK, 0, STACK
        LOCFRAME XSTACK, 9, STACK
        LOCFRAME IOVERLAY, 0, STATIC
        LOCFRAME DOVERLAY, 0, STATIC
        ARGFRAME ISTACK, 0, STACK
        ARGFRAME PSTACK, 0, STACK
        ARGFRAME XSTACK, 9, STACK
        ARGFRAME IOVERLAY, 0, STATIC
        ARGFRAME DOVERLAY, 0, STATIC
        FUNCALL ZSendMsgProcess, HalUARTWrite
        LOCFRAME ISTACK, 0, STACK
        LOCFRAME PSTACK, 0, STACK
        LOCFRAME XSTACK, 9, STACK
        LOCFRAME IOVERLAY, 0, STATIC
        LOCFRAME DOVERLAY, 0, STATIC
        ARGFRAME ISTACK, 0, STACK
        ARGFRAME PSTACK, 0, STACK
        ARGFRAME XSTACK, 9, STACK
        ARGFRAME IOVERLAY, 0, STATIC
        ARGFRAME DOVERLAY, 0, STATIC
        FUNCALL ZSendMsgProcess, HalUARTWrite
        LOCFRAME ISTACK, 0, STACK
        LOCFRAME PSTACK, 0, STACK
        LOCFRAME XSTACK, 9, STACK
        LOCFRAME IOVERLAY, 0, STATIC
        LOCFRAME DOVERLAY, 0, STATIC
        ARGFRAME ISTACK, 0, STACK
        ARGFRAME PSTACK, 0, STACK
        ARGFRAME XSTACK, 9, STACK
        ARGFRAME IOVERLAY, 0, STATIC
        ARGFRAME DOVERLAY, 0, STATIC
        FUNCALL ZSendMsgProcess, HalUARTWrite
        LOCFRAME ISTACK, 0, STACK
        LOCFRAME PSTACK, 0, STACK
        LOCFRAME XSTACK, 9, STACK
        LOCFRAME IOVERLAY, 0, STATIC
        LOCFRAME DOVERLAY, 0, STATIC
        ARGFRAME ISTACK, 0, STACK
        ARGFRAME PSTACK, 0, STACK
        ARGFRAME XSTACK, 9, STACK
        ARGFRAME IOVERLAY, 0, STATIC
        ARGFRAME DOVERLAY, 0, STATIC
        FUNCALL ZSendMsgProcess, HalUARTWrite
        LOCFRAME ISTACK, 0, STACK
        LOCFRAME PSTACK, 0, STACK
        LOCFRAME XSTACK, 9, STACK
        LOCFRAME IOVERLAY, 0, STATIC
        LOCFRAME DOVERLAY, 0, STATIC
        ARGFRAME ISTACK, 0, STACK
        ARGFRAME PSTACK, 0, STACK
        ARGFRAME XSTACK, 9, STACK
        ARGFRAME IOVERLAY, 0, STATIC
        ARGFRAME DOVERLAY, 0, STATIC
        FUNCALL ZSendMsgProcess, osal_start_timerEx
        LOCFRAME ISTACK, 0, STACK
        LOCFRAME PSTACK, 0, STACK
        LOCFRAME XSTACK, 9, STACK
        LOCFRAME IOVERLAY, 0, STATIC
        LOCFRAME DOVERLAY, 0, STATIC
        ARGFRAME ISTACK, 0, STACK
        ARGFRAME PSTACK, 0, STACK
        ARGFRAME XSTACK, 9, STACK
        ARGFRAME IOVERLAY, 0, STATIC
        ARGFRAME DOVERLAY, 0, STATIC
        MOV     A,#-0x9
        LCALL   ?BANKED_ENTER_XDATA
        CFI DPH0 load(1, XDATA, add(CFA_XSP16, literal(-1)))
        CFI DPL0 load(1, XDATA, add(CFA_XSP16, literal(-2)))
        CFI ?BRET_EXT load(1, XDATA, add(CFA_XSP16, literal(-3)))
        CFI ?RET_HIGH load(1, XDATA, add(CFA_XSP16, literal(-4)))
        CFI ?RET_LOW load(1, XDATA, add(CFA_XSP16, literal(-5)))
        CFI R7 load(1, XDATA, add(CFA_XSP16, literal(-6)))
        CFI V0 load(1, XDATA, add(CFA_XSP16, literal(-7)))
        CFI VB load(1, XDATA, add(CFA_XSP16, literal(-8)))
        CFI R6 load(1, XDATA, add(CFA_XSP16, literal(-9)))
        CFI CFA_SP SP+0
        CFI CFA_XSP16 add(XSP16, 9)
        ; Saved register size: 9
        ; Auto size: 0
//  154 //    show("ZSendMsgProcess"); 
//  155 //    afIncomingMSGPacket_t *MSGpkt;
//  156 //    char buf[64];
//  157     
//  158 //    memset(buf, 0x0, 64);
//  159 //    MSGpkt = (afIncomingMSGPacket_t *)osal_msg_receive( zclZigbeeReceiver_TaskID );
//  160 //    sprintf(buf, "%s", MSGpkt->cmd.Data);
//  161  //   sprintf(buf, "%s", temp);
//  162 //    show(device_manager.Type);
//  163     
//  164 //    sprintf(buf, "\r%s\n", temp);
//  165   
//  166     HalUARTWrite(HAL_UART_PORT_0, device_manager.Type, 8);
        ; Setup parameters for call to function HalUARTWrite
        MOV     R4,#0x8
        MOV     R5,#0x0
        MOV     R2,#(device_manager & 0xff)
        MOV     R3,#((device_manager >> 8) & 0xff)
        MOV     R1,#0x0
        LCALL   ??HalUARTWrite?relay
//  167     HalUARTWrite(HAL_UART_PORT_0, device_manager.Module, 10);   
        ; Setup parameters for call to function HalUARTWrite
        MOV     R4,#0xa
        MOV     R5,#0x0
        MOV     R2,#((device_manager + 8) & 0xff)
        MOV     R3,#(((device_manager + 8) >> 8) & 0xff)
        LCALL   ?Subroutine1 & 0xFFFF
//  168     HalUARTWrite(HAL_UART_PORT_0, "\r\n", 3);     
//  169     HalUARTWrite(HAL_UART_PORT_0, device_manager.Data, 20);   
??CrossCallReturnLabel_2:
        ; Setup parameters for call to function HalUARTWrite
        MOV     R4,#0x14
        MOV     R5,#0x0
        MOV     R2,#((device_manager + 18) & 0xff)
        MOV     R3,#(((device_manager + 18) >> 8) & 0xff)
        LCALL   ?Subroutine1 & 0xFFFF
//  170     HalUARTWrite(HAL_UART_PORT_0, "\r\n", 3);   
//  171  
//  172 //    show(device_manager.Data);    
//  173 //    show(device_manager.Module);    
//  174    
//  175     osal_start_timerEx( zclZigbeeReceiver_TaskID, ZDO_MSG_SEND_EVT, 3000 );        
??CrossCallReturnLabel_3:
        ; Setup parameters for call to function osal_start_timerEx
        MOV     R4,#-0x48
        MOV     R5,#0xb
        MOV     R2,#0x0
        MOV     R3,#0x8
        MOV     DPTR,#zclZigbeeReceiver_TaskID
        MOVX    A,@DPTR
        MOV     R1,A
        LCALL   ??osal_start_timerEx?relay
//  176 }
        MOV     R7,#0x1
        LJMP    ?BANKED_LEAVE_XDATA
        CFI EndBlock cfiBlock0

        RSEG BANKED_CODE:CODE:NOROOT(0)
?Subroutine1:
        CFI Block cfiCond1 Using cfiCommon0
        CFI NoFunction
        CFI Conditional ??CrossCallReturnLabel_2
        CFI R6 load(1, XDATA, add(CFA_XSP16, literal(-9)))
        CFI VB load(1, XDATA, add(CFA_XSP16, literal(-8)))
        CFI V0 load(1, XDATA, add(CFA_XSP16, literal(-7)))
        CFI R7 load(1, XDATA, add(CFA_XSP16, literal(-6)))
        CFI ?RET_LOW load(1, XDATA, add(CFA_XSP16, literal(-5)))
        CFI ?RET_HIGH load(1, XDATA, add(CFA_XSP16, literal(-4)))
        CFI ?BRET_EXT load(1, XDATA, add(CFA_XSP16, literal(-3)))
        CFI DPL0 load(1, XDATA, add(CFA_XSP16, literal(-2)))
        CFI DPH0 load(1, XDATA, add(CFA_XSP16, literal(-1)))
        CFI CFA_SP SP+0
        CFI CFA_XSP16 add(XSP16, 9)
        CFI Block cfiCond2 Using cfiCommon0
        CFI (cfiCond2) NoFunction
        CFI (cfiCond2) Conditional ??CrossCallReturnLabel_3
        CFI (cfiCond2) R6 load(1, XDATA, add(CFA_XSP16, literal(-9)))
        CFI (cfiCond2) VB load(1, XDATA, add(CFA_XSP16, literal(-8)))
        CFI (cfiCond2) V0 load(1, XDATA, add(CFA_XSP16, literal(-7)))
        CFI (cfiCond2) R7 load(1, XDATA, add(CFA_XSP16, literal(-6)))
        CFI (cfiCond2) ?RET_LOW load(1, XDATA, add(CFA_XSP16, literal(-5)))
        CFI (cfiCond2) ?RET_HIGH load(1, XDATA, add(CFA_XSP16, literal(-4)))
        CFI (cfiCond2) ?BRET_EXT load(1, XDATA, add(CFA_XSP16, literal(-3)))
        CFI (cfiCond2) DPL0 load(1, XDATA, add(CFA_XSP16, literal(-2)))
        CFI (cfiCond2) DPH0 load(1, XDATA, add(CFA_XSP16, literal(-1)))
        CFI (cfiCond2) CFA_SP SP+0
        CFI (cfiCond2) CFA_XSP16 add(XSP16, 9)
        CFI Block cfiPicker3 Using cfiCommon1
        CFI (cfiPicker3) NoFunction
        CFI (cfiPicker3) Picker
        MOV     R1,#0x0
        LCALL   ??HalUARTWrite?relay
        ; Setup parameters for call to function HalUARTWrite
        ; Setup parameters for call to function HalUARTWrite
        MOV     R4,#0x3
        MOV     R5,#0x0
        MOV     R2,#(`?<Constant "\\r\\n">` & 0xff)
        MOV     R3,#((`?<Constant "\\r\\n">` >> 8) & 0xff)
        MOV     R1,#0x0
        LCALL   ??HalUARTWrite?relay
        RET
        CFI EndBlock cfiCond1
        CFI EndBlock cfiCond2
        CFI EndBlock cfiPicker3
//  177 
//  178 /*********************************************************************
//  179  * @fn          zclZigbeeRecv_Init
//  180  * @brief       Initialization function for the zclGeneral layer.
//  181  */

        RSEG BANKED_CODE:CODE:NOROOT(0)
//  182 void zclZigbeeRecv_Init( byte task_id )
zclZigbeeRecv_Init:
        CFI Block cfiBlock4 Using cfiCommon0
        CFI Function zclZigbeeRecv_Init
//  183 {
        FUNCALL zclZigbeeRecv_Init, zclZD_Init
        LOCFRAME ISTACK, 0, STACK
        LOCFRAME PSTACK, 0, STACK
        LOCFRAME XSTACK, 11, STACK
        LOCFRAME IOVERLAY, 0, STATIC
        LOCFRAME DOVERLAY, 0, STATIC
        ARGFRAME ISTACK, 0, STACK
        ARGFRAME PSTACK, 0, STACK
        ARGFRAME XSTACK, 11, STACK
        ARGFRAME IOVERLAY, 0, STATIC
        ARGFRAME DOVERLAY, 0, STATIC
        FUNCALL zclZigbeeRecv_Init, zclGeneral_RegisterCmdCallbacks
        LOCFRAME ISTACK, 0, STACK
        LOCFRAME PSTACK, 0, STACK
        LOCFRAME XSTACK, 11, STACK
        LOCFRAME IOVERLAY, 0, STATIC
        LOCFRAME DOVERLAY, 0, STATIC
        ARGFRAME ISTACK, 0, STACK
        ARGFRAME PSTACK, 0, STACK
        ARGFRAME XSTACK, 11, STACK
        ARGFRAME IOVERLAY, 0, STATIC
        ARGFRAME DOVERLAY, 0, STATIC
        FUNCALL zclZigbeeRecv_Init, zcl_registerAttrList
        LOCFRAME ISTACK, 0, STACK
        LOCFRAME PSTACK, 0, STACK
        LOCFRAME XSTACK, 11, STACK
        LOCFRAME IOVERLAY, 0, STATIC
        LOCFRAME DOVERLAY, 0, STATIC
        ARGFRAME ISTACK, 0, STACK
        ARGFRAME PSTACK, 0, STACK
        ARGFRAME XSTACK, 11, STACK
        ARGFRAME IOVERLAY, 0, STATIC
        ARGFRAME DOVERLAY, 0, STATIC
        FUNCALL zclZigbeeRecv_Init, zcl_registerForMsg
        LOCFRAME ISTACK, 0, STACK
        LOCFRAME PSTACK, 0, STACK
        LOCFRAME XSTACK, 11, STACK
        LOCFRAME IOVERLAY, 0, STATIC
        LOCFRAME DOVERLAY, 0, STATIC
        ARGFRAME ISTACK, 0, STACK
        ARGFRAME PSTACK, 0, STACK
        ARGFRAME XSTACK, 11, STACK
        ARGFRAME IOVERLAY, 0, STATIC
        ARGFRAME DOVERLAY, 0, STATIC
        FUNCALL zclZigbeeRecv_Init, RegisterForKeys
        LOCFRAME ISTACK, 0, STACK
        LOCFRAME PSTACK, 0, STACK
        LOCFRAME XSTACK, 11, STACK
        LOCFRAME IOVERLAY, 0, STATIC
        LOCFRAME DOVERLAY, 0, STATIC
        ARGFRAME ISTACK, 0, STACK
        ARGFRAME PSTACK, 0, STACK
        ARGFRAME XSTACK, 11, STACK
        ARGFRAME IOVERLAY, 0, STATIC
        ARGFRAME DOVERLAY, 0, STATIC
        FUNCALL zclZigbeeRecv_Init, osal_memcpy
        LOCFRAME ISTACK, 0, STACK
        LOCFRAME PSTACK, 0, STACK
        LOCFRAME XSTACK, 14, STACK
        LOCFRAME IOVERLAY, 0, STATIC
        LOCFRAME DOVERLAY, 0, STATIC
        ARGFRAME ISTACK, 0, STACK
        ARGFRAME PSTACK, 0, STACK
        ARGFRAME XSTACK, 14, STACK
        ARGFRAME IOVERLAY, 0, STATIC
        ARGFRAME DOVERLAY, 0, STATIC
        FUNCALL zclZigbeeRecv_Init, aps_AddGroup
        LOCFRAME ISTACK, 0, STACK
        LOCFRAME PSTACK, 0, STACK
        LOCFRAME XSTACK, 11, STACK
        LOCFRAME IOVERLAY, 0, STATIC
        LOCFRAME DOVERLAY, 0, STATIC
        ARGFRAME ISTACK, 0, STACK
        ARGFRAME PSTACK, 0, STACK
        ARGFRAME XSTACK, 11, STACK
        ARGFRAME IOVERLAY, 0, STATIC
        ARGFRAME DOVERLAY, 0, STATIC
        FUNCALL zclZigbeeRecv_Init, afRegister
        LOCFRAME ISTACK, 0, STACK
        LOCFRAME PSTACK, 0, STACK
        LOCFRAME XSTACK, 11, STACK
        LOCFRAME IOVERLAY, 0, STATIC
        LOCFRAME DOVERLAY, 0, STATIC
        ARGFRAME ISTACK, 0, STACK
        ARGFRAME PSTACK, 0, STACK
        ARGFRAME XSTACK, 11, STACK
        ARGFRAME IOVERLAY, 0, STATIC
        ARGFRAME DOVERLAY, 0, STATIC
        FUNCALL zclZigbeeRecv_Init, osal_set_event
        LOCFRAME ISTACK, 0, STACK
        LOCFRAME PSTACK, 0, STACK
        LOCFRAME XSTACK, 11, STACK
        LOCFRAME IOVERLAY, 0, STATIC
        LOCFRAME DOVERLAY, 0, STATIC
        ARGFRAME ISTACK, 0, STACK
        ARGFRAME PSTACK, 0, STACK
        ARGFRAME XSTACK, 11, STACK
        ARGFRAME IOVERLAY, 0, STATIC
        ARGFRAME DOVERLAY, 0, STATIC
        MOV     A,#-0xb
        LCALL   ?BANKED_ENTER_XDATA
        CFI DPH0 load(1, XDATA, add(CFA_XSP16, literal(-1)))
        CFI DPL0 load(1, XDATA, add(CFA_XSP16, literal(-2)))
        CFI ?BRET_EXT load(1, XDATA, add(CFA_XSP16, literal(-3)))
        CFI ?RET_HIGH load(1, XDATA, add(CFA_XSP16, literal(-4)))
        CFI ?RET_LOW load(1, XDATA, add(CFA_XSP16, literal(-5)))
        CFI R7 load(1, XDATA, add(CFA_XSP16, literal(-6)))
        CFI V2 load(1, XDATA, add(CFA_XSP16, literal(-7)))
        CFI V1 load(1, XDATA, add(CFA_XSP16, literal(-8)))
        CFI V0 load(1, XDATA, add(CFA_XSP16, literal(-9)))
        CFI VB load(1, XDATA, add(CFA_XSP16, literal(-10)))
        CFI R6 load(1, XDATA, add(CFA_XSP16, literal(-11)))
        CFI CFA_SP SP+0
        CFI CFA_XSP16 add(XSP16, 11)
        ; Saved register size: 11
        ; Auto size: 0
//  184   zclZigbeeReceiver_TaskID = task_id;
        MOV     A,R1
        MOV     DPTR,#zclZigbeeReceiver_TaskID
        MOVX    @DPTR,A
//  185   
//  186   // Setup for the flash command's destination address ( Group )
//  187   zclZigbeeRecv_DstAddr.addrMode = (afAddrMode_t)afAddrGroup;  // transmit mode - Group address
        MOV     A,#0x1
        MOV     DPTR,#(zclZigbeeRecv_DstAddr + 8)
        MOVX    @DPTR,A
//  188   zclZigbeeRecv_DstAddr.endPoint = ZIGBEERECV_ENDPOINT;        // end-point number:20
        MOV     A,#0xd
        MOV     DPTR,#(zclZigbeeRecv_DstAddr + 9)
        MOVX    @DPTR,A
//  189   zclZigbeeRecv_DstAddr.addr.shortAddr = RECV_GROUP;           // Group short address
        MOV     DPTR,#zclZigbeeRecv_DstAddr
        MOV     A,#0x10
        MOVX    @DPTR,A
        INC     DPTR
        MOV     A,#0x20
        MOVX    @DPTR,A
//  190   
//  191   // This App is part of the Zigbee Device Profile
//  192   zclZD_Init( &zclZigbeeRecv_SimpleDesc ); 
        ; Setup parameters for call to function zclZD_Init
        MOV     R2,#(zclZigbeeRecv_SimpleDesc & 0xff)
        MOV     R3,#((zclZigbeeRecv_SimpleDesc >> 8) & 0xff)
        LCALL   ??zclZD_Init?relay
//  193   
//  194   // Register the ZCL General Cluster Library callback functions
//  195   zclGeneral_RegisterCmdCallbacks( ZIGBEERECV_ENDPOINT, &zclZigbeeReceiver_CmdCallbacks ); 
        ; Setup parameters for call to function zclGeneral_RegisterCmdCallbacks
        MOV     R2,#(zclZigbeeReceiver_CmdCallbacks & 0xff)
        MOV     R3,#((zclZigbeeReceiver_CmdCallbacks >> 8) & 0xff)
        MOV     R1,#0xd
        LCALL   ??zclGeneral_RegisterCmdCallbacks?relay
//  196   
//  197   // Register the application's attribute list
//  198   zcl_registerAttrList( ZIGBEERECV_ENDPOINT, ZIGBEERECV_MAX_ATTRIBUTES, zclZigbeeRecv_Attrs ); 
        ; Setup parameters for call to function zcl_registerAttrList
        MOV     R4,#(zclZigbeeRecv_Attrs & 0xff)
        MOV     R5,#((zclZigbeeRecv_Attrs >> 8) & 0xff)
        MOV     R2,#0xc
        MOV     R1,#0xd
        LCALL   ??zcl_registerAttrList?relay
//  199   
//  200   // Register the Application to receive the unprocessed Foundation command/response messages
//  201   zcl_registerForMsg( zclZigbeeReceiver_TaskID ); 
        ; Setup parameters for call to function zcl_registerForMsg
        MOV     DPTR,#zclZigbeeReceiver_TaskID
        MOVX    A,@DPTR
        MOV     R1,A
        LCALL   ??zcl_registerForMsg?relay
//  202   
//  203   // Register for all key events - This app will handle all key events
//  204   RegisterForKeys( zclZigbeeReceiver_TaskID ); 
        ; Setup parameters for call to function RegisterForKeys
        MOV     DPTR,#zclZigbeeReceiver_TaskID
        MOVX    A,@DPTR
        MOV     R1,A
        LCALL   ??RegisterForKeys?relay
//  205   
//  206   // By default, all devices start out in Group 1 ( register grouop )
//  207   zclZigbeeRecv_Group.ID = RECV_GROUP;
        MOV     DPTR,#zclZigbeeRecv_Group
        MOV     A,#0x10
        MOVX    @DPTR,A
        INC     DPTR
        MOV     A,#0x20
        MOVX    @DPTR,A
//  208   osal_memcpy( zclZigbeeRecv_Group.name, "RECV_GROUP", 8  );
        ; Setup parameters for call to function osal_memcpy
        MOV     ?V0 + 0,#(`?<Constant "RECV_GROUP">` & 0xff)
        MOV     ?V0 + 1,#((`?<Constant "RECV_GROUP">` >> 8) & 0xff)
        MOV     ?V0 + 2,#0x0
        MOV     R0,#?V0 + 0
        LCALL   ?PUSH_XSTACK_I_THREE
        CFI CFA_XSP16 add(XSP16, 14)
        MOV     R4,#0x8
        MOV     R5,#0x0
        MOV     R2,#((zclZigbeeRecv_Group + 2) & 0xff)
        MOV     R3,#(((zclZigbeeRecv_Group + 2) >> 8) & 0xff)
        LCALL   ??osal_memcpy?relay
        MOV     A,#0x3
        LCALL   ?DEALLOC_XSTACK8
        CFI CFA_XSP16 add(XSP16, 11)
//  209   aps_AddGroup( ZIGBEERECV_ENDPOINT, &zclZigbeeRecv_Group ); 
        ; Setup parameters for call to function aps_AddGroup
        MOV     R2,#(zclZigbeeRecv_Group & 0xff)
        MOV     R3,#((zclZigbeeRecv_Group >> 8) & 0xff)
        MOV     R1,#0xd
        LCALL   ??aps_AddGroup?relay
//  210   
//  211   // Register for a test endpoint
//  212   afRegister( &zigbeeReceiver_TestEp ); 
        ; Setup parameters for call to function afRegister
        MOV     R2,#(zigbeeReceiver_TestEp & 0xff)
        MOV     R3,#((zigbeeReceiver_TestEp >> 8) & 0xff)
        LCALL   ??afRegister?relay
//  213     osal_set_event( zclZigbeeReceiver_TaskID, NWK_RETRY_DELAY);//chris  
        ; Setup parameters for call to function osal_set_event
        MOV     R2,#-0x18
        MOV     R3,#0x3
        MOV     DPTR,#zclZigbeeReceiver_TaskID
        MOVX    A,@DPTR
        MOV     R1,A
        LCALL   ??osal_set_event?relay
//  214 }
        MOV     R7,#0x3
        LJMP    ?BANKED_LEAVE_XDATA
        CFI EndBlock cfiBlock4
//  215 
//  216 /*********************************************************************
//  217  * @fn          zclZigbeeRecv_event_loop
//  218  * @brief       Event Loop Processor for zclGeneral.
//  219  */

        RSEG BANKED_CODE:CODE:NOROOT(0)
//  220 uint16 zclZigbeeRecv_event_loop( uint8 task_id, uint16 events )
zclZigbeeRecv_event_loop:
        CFI Block cfiBlock5 Using cfiCommon0
        CFI Function zclZigbeeRecv_event_loop
//  221 {   
        FUNCALL zclZigbeeRecv_event_loop, ZSendMsgProcess
        LOCFRAME ISTACK, 0, STACK
        LOCFRAME PSTACK, 0, STACK
        LOCFRAME XSTACK, 23, STACK
        LOCFRAME IOVERLAY, 0, STATIC
        LOCFRAME DOVERLAY, 0, STATIC
        ARGFRAME ISTACK, 0, STACK
        ARGFRAME PSTACK, 0, STACK
        ARGFRAME XSTACK, 23, STACK
        ARGFRAME IOVERLAY, 0, STATIC
        ARGFRAME DOVERLAY, 0, STATIC
        FUNCALL zclZigbeeRecv_event_loop, show
        LOCFRAME ISTACK, 0, STACK
        LOCFRAME PSTACK, 0, STACK
        LOCFRAME XSTACK, 23, STACK
        LOCFRAME IOVERLAY, 0, STATIC
        LOCFRAME DOVERLAY, 0, STATIC
        ARGFRAME ISTACK, 0, STACK
        ARGFRAME PSTACK, 0, STACK
        ARGFRAME XSTACK, 23, STACK
        ARGFRAME IOVERLAY, 0, STATIC
        ARGFRAME DOVERLAY, 0, STATIC
        FUNCALL zclZigbeeRecv_event_loop, osal_msg_deallocate
        LOCFRAME ISTACK, 0, STACK
        LOCFRAME PSTACK, 0, STACK
        LOCFRAME XSTACK, 23, STACK
        LOCFRAME IOVERLAY, 0, STATIC
        LOCFRAME DOVERLAY, 0, STATIC
        ARGFRAME ISTACK, 0, STACK
        ARGFRAME PSTACK, 0, STACK
        ARGFRAME XSTACK, 23, STACK
        ARGFRAME IOVERLAY, 0, STATIC
        ARGFRAME DOVERLAY, 0, STATIC
        FUNCALL zclZigbeeRecv_event_loop, osal_msg_receive
        LOCFRAME ISTACK, 0, STACK
        LOCFRAME PSTACK, 0, STACK
        LOCFRAME XSTACK, 23, STACK
        LOCFRAME IOVERLAY, 0, STATIC
        LOCFRAME DOVERLAY, 0, STATIC
        ARGFRAME ISTACK, 0, STACK
        ARGFRAME PSTACK, 0, STACK
        ARGFRAME XSTACK, 23, STACK
        ARGFRAME IOVERLAY, 0, STATIC
        ARGFRAME DOVERLAY, 0, STATIC
        FUNCALL zclZigbeeRecv_event_loop, show
        LOCFRAME ISTACK, 0, STACK
        LOCFRAME PSTACK, 0, STACK
        LOCFRAME XSTACK, 23, STACK
        LOCFRAME IOVERLAY, 0, STATIC
        LOCFRAME DOVERLAY, 0, STATIC
        ARGFRAME ISTACK, 0, STACK
        ARGFRAME PSTACK, 0, STACK
        ARGFRAME XSTACK, 23, STACK
        ARGFRAME IOVERLAY, 0, STATIC
        ARGFRAME DOVERLAY, 0, STATIC
        FUNCALL zclZigbeeRecv_event_loop, osal_mem_free
        LOCFRAME ISTACK, 0, STACK
        LOCFRAME PSTACK, 0, STACK
        LOCFRAME XSTACK, 23, STACK
        LOCFRAME IOVERLAY, 0, STATIC
        LOCFRAME DOVERLAY, 0, STATIC
        ARGFRAME ISTACK, 0, STACK
        ARGFRAME PSTACK, 0, STACK
        ARGFRAME XSTACK, 23, STACK
        ARGFRAME IOVERLAY, 0, STATIC
        ARGFRAME DOVERLAY, 0, STATIC
        FUNCALL zclZigbeeRecv_event_loop, show
        LOCFRAME ISTACK, 0, STACK
        LOCFRAME PSTACK, 0, STACK
        LOCFRAME XSTACK, 23, STACK
        LOCFRAME IOVERLAY, 0, STATIC
        LOCFRAME DOVERLAY, 0, STATIC
        ARGFRAME ISTACK, 0, STACK
        ARGFRAME PSTACK, 0, STACK
        ARGFRAME XSTACK, 23, STACK
        ARGFRAME IOVERLAY, 0, STATIC
        ARGFRAME DOVERLAY, 0, STATIC
        FUNCALL zclZigbeeRecv_event_loop, NLME_GetShortAddr
        LOCFRAME ISTACK, 0, STACK
        LOCFRAME PSTACK, 0, STACK
        LOCFRAME XSTACK, 32, STACK
        LOCFRAME IOVERLAY, 0, STATIC
        LOCFRAME DOVERLAY, 0, STATIC
        ARGFRAME ISTACK, 0, STACK
        ARGFRAME PSTACK, 0, STACK
        ARGFRAME XSTACK, 32, STACK
        ARGFRAME IOVERLAY, 0, STATIC
        ARGFRAME DOVERLAY, 0, STATIC
        FUNCALL zclZigbeeRecv_event_loop, ZDP_EndDeviceBindReq
        LOCFRAME ISTACK, 0, STACK
        LOCFRAME PSTACK, 0, STACK
        LOCFRAME XSTACK, 32, STACK
        LOCFRAME IOVERLAY, 0, STATIC
        LOCFRAME DOVERLAY, 0, STATIC
        ARGFRAME ISTACK, 0, STACK
        ARGFRAME PSTACK, 0, STACK
        ARGFRAME XSTACK, 32, STACK
        ARGFRAME IOVERLAY, 0, STATIC
        ARGFRAME DOVERLAY, 0, STATIC
        FUNCALL zclZigbeeRecv_event_loop, strcpy
        LOCFRAME ISTACK, 0, STACK
        LOCFRAME PSTACK, 0, STACK
        LOCFRAME XSTACK, 23, STACK
        LOCFRAME IOVERLAY, 0, STATIC
        LOCFRAME DOVERLAY, 0, STATIC
        ARGFRAME ISTACK, 0, STACK
        ARGFRAME PSTACK, 0, STACK
        ARGFRAME XSTACK, 23, STACK
        ARGFRAME IOVERLAY, 0, STATIC
        ARGFRAME DOVERLAY, 0, STATIC
        FUNCALL zclZigbeeRecv_event_loop, strcpy
        LOCFRAME ISTACK, 0, STACK
        LOCFRAME PSTACK, 0, STACK
        LOCFRAME XSTACK, 23, STACK
        LOCFRAME IOVERLAY, 0, STATIC
        LOCFRAME DOVERLAY, 0, STATIC
        ARGFRAME ISTACK, 0, STACK
        ARGFRAME PSTACK, 0, STACK
        ARGFRAME XSTACK, 23, STACK
        ARGFRAME IOVERLAY, 0, STATIC
        ARGFRAME DOVERLAY, 0, STATIC
        FUNCALL zclZigbeeRecv_event_loop, strncpy
        LOCFRAME ISTACK, 0, STACK
        LOCFRAME PSTACK, 0, STACK
        LOCFRAME XSTACK, 25, STACK
        LOCFRAME IOVERLAY, 0, STATIC
        LOCFRAME DOVERLAY, 0, STATIC
        ARGFRAME ISTACK, 0, STACK
        ARGFRAME PSTACK, 0, STACK
        ARGFRAME XSTACK, 25, STACK
        ARGFRAME IOVERLAY, 0, STATIC
        ARGFRAME DOVERLAY, 0, STATIC
        FUNCALL zclZigbeeRecv_event_loop, ZSendMsgProcess
        LOCFRAME ISTACK, 0, STACK
        LOCFRAME PSTACK, 0, STACK
        LOCFRAME XSTACK, 23, STACK
        LOCFRAME IOVERLAY, 0, STATIC
        LOCFRAME DOVERLAY, 0, STATIC
        ARGFRAME ISTACK, 0, STACK
        ARGFRAME PSTACK, 0, STACK
        ARGFRAME XSTACK, 23, STACK
        ARGFRAME IOVERLAY, 0, STATIC
        ARGFRAME DOVERLAY, 0, STATIC
        FUNCALL zclZigbeeRecv_event_loop, show
        LOCFRAME ISTACK, 0, STACK
        LOCFRAME PSTACK, 0, STACK
        LOCFRAME XSTACK, 23, STACK
        LOCFRAME IOVERLAY, 0, STATIC
        LOCFRAME DOVERLAY, 0, STATIC
        ARGFRAME ISTACK, 0, STACK
        ARGFRAME PSTACK, 0, STACK
        ARGFRAME XSTACK, 23, STACK
        ARGFRAME IOVERLAY, 0, STATIC
        ARGFRAME DOVERLAY, 0, STATIC
        FUNCALL zclZigbeeRecv_event_loop, zclZigbeeReceiver_ProcessIdentifyTimeChange
        LOCFRAME ISTACK, 0, STACK
        LOCFRAME PSTACK, 0, STACK
        LOCFRAME XSTACK, 23, STACK
        LOCFRAME IOVERLAY, 0, STATIC
        LOCFRAME DOVERLAY, 0, STATIC
        ARGFRAME ISTACK, 0, STACK
        ARGFRAME PSTACK, 0, STACK
        ARGFRAME XSTACK, 23, STACK
        ARGFRAME IOVERLAY, 0, STATIC
        ARGFRAME DOVERLAY, 0, STATIC
        FUNCALL zclZigbeeRecv_event_loop, show
        LOCFRAME ISTACK, 0, STACK
        LOCFRAME PSTACK, 0, STACK
        LOCFRAME XSTACK, 23, STACK
        LOCFRAME IOVERLAY, 0, STATIC
        LOCFRAME DOVERLAY, 0, STATIC
        ARGFRAME ISTACK, 0, STACK
        ARGFRAME PSTACK, 0, STACK
        ARGFRAME XSTACK, 23, STACK
        ARGFRAME IOVERLAY, 0, STATIC
        ARGFRAME DOVERLAY, 0, STATIC
        FUNCALL zclZigbeeRecv_event_loop, zclUartReceiver
        LOCFRAME ISTACK, 0, STACK
        LOCFRAME PSTACK, 0, STACK
        LOCFRAME XSTACK, 23, STACK
        LOCFRAME IOVERLAY, 0, STATIC
        LOCFRAME DOVERLAY, 0, STATIC
        ARGFRAME ISTACK, 0, STACK
        ARGFRAME PSTACK, 0, STACK
        ARGFRAME XSTACK, 23, STACK
        ARGFRAME IOVERLAY, 0, STATIC
        ARGFRAME DOVERLAY, 0, STATIC
        FUNCALL zclZigbeeRecv_event_loop, show
        LOCFRAME ISTACK, 0, STACK
        LOCFRAME PSTACK, 0, STACK
        LOCFRAME XSTACK, 23, STACK
        LOCFRAME IOVERLAY, 0, STATIC
        LOCFRAME DOVERLAY, 0, STATIC
        ARGFRAME ISTACK, 0, STACK
        ARGFRAME PSTACK, 0, STACK
        ARGFRAME XSTACK, 23, STACK
        ARGFRAME IOVERLAY, 0, STATIC
        ARGFRAME DOVERLAY, 0, STATIC
        FUNCALL zclZigbeeRecv_event_loop, HalLcdWriteChar
        LOCFRAME ISTACK, 0, STACK
        LOCFRAME PSTACK, 0, STACK
        LOCFRAME XSTACK, 23, STACK
        LOCFRAME IOVERLAY, 0, STATIC
        LOCFRAME DOVERLAY, 0, STATIC
        ARGFRAME ISTACK, 0, STACK
        ARGFRAME PSTACK, 0, STACK
        ARGFRAME XSTACK, 23, STACK
        ARGFRAME IOVERLAY, 0, STATIC
        ARGFRAME DOVERLAY, 0, STATIC
        MOV     A,#-0xe
        LCALL   ?BANKED_ENTER_XDATA
        CFI DPH0 load(1, XDATA, add(CFA_XSP16, literal(-1)))
        CFI DPL0 load(1, XDATA, add(CFA_XSP16, literal(-2)))
        CFI ?BRET_EXT load(1, XDATA, add(CFA_XSP16, literal(-3)))
        CFI ?RET_HIGH load(1, XDATA, add(CFA_XSP16, literal(-4)))
        CFI ?RET_LOW load(1, XDATA, add(CFA_XSP16, literal(-5)))
        CFI R7 load(1, XDATA, add(CFA_XSP16, literal(-6)))
        CFI V5 load(1, XDATA, add(CFA_XSP16, literal(-7)))
        CFI V4 load(1, XDATA, add(CFA_XSP16, literal(-8)))
        CFI V3 load(1, XDATA, add(CFA_XSP16, literal(-9)))
        CFI V2 load(1, XDATA, add(CFA_XSP16, literal(-10)))
        CFI V1 load(1, XDATA, add(CFA_XSP16, literal(-11)))
        CFI V0 load(1, XDATA, add(CFA_XSP16, literal(-12)))
        CFI VB load(1, XDATA, add(CFA_XSP16, literal(-13)))
        CFI R6 load(1, XDATA, add(CFA_XSP16, literal(-14)))
        CFI CFA_SP SP+0
        CFI CFA_XSP16 add(XSP16, 14)
        ; Saved register size: 14
        ; Auto size: 9
        MOV     A,#-0x9
        LCALL   ?ALLOC_XSTACK8
        CFI CFA_XSP16 add(XSP16, 23)
        MOV     ?V0 + 2,R2
        MOV     ?V0 + 3,R3
//  222     afIncomingMSGPacket_t *MSGpkt;
//  223     (void)task_id;  // Intentionally unreferenced parameter
//  224   
//  225     if ( events & SYS_EVENT_MSG ) // SYSTEM Message event
        MOV     A,#-0x80
        ANL     A,?V0 + 3
        MOV     R1,A
        CLR     A
        JNZ     ??zclZigbeeRecv_event_loop_0
        MOV     A,R1
??zclZigbeeRecv_event_loop_0:
        JNZ     ??zclZigbeeRecv_event_loop_1
//  226     {
//  227       while ( (MSGpkt = (afIncomingMSGPacket_t *)osal_msg_receive( zclZigbeeReceiver_TaskID )) )
//  228       {   
//  229         switch ( MSGpkt->hdr.event )
//  230         {       
//  231         case ZCL_INCOMING_MSG: //0x34 : Incoming ZCL foundation message
//  232             show("ZCL_INCOMING_MSG");
//  233             // Incoming ZCL Foundation command/response messages
//  234             zclZigbeeReceiver_ProcessIncomingMsg( (zclIncomingMsg_t *)MSGpkt ); 
//  235             break; 
//  236         case KEY_CHANGE: //0xC0 : Key Events
//  237             show("KEY_CHANGE");
//  238             zclZigbeeReceiver_HandleKeys( ((keyChange_t *)MSGpkt)->state, ((keyChange_t *)MSGpkt)->keys );            
//  239             break;           
//  240         case AF_DATA_CONFIRM_CMD:           
//  241               strcpy(device_manager.Type, "\r 1 \n");  
//  242               strcpy(device_manager.Module, "\r 140 \n");                            
//  243               strncpy(device_manager.Data, MSGpkt->cmd.Data, 14);         
//  244             break;         
//  245         case ZDO_STATE_CHANGE:       
//  246 //            show("ZDO_STATE_CHANGE");
//  247             ZSendMsgProcess("Hi");            
//  248             break;         
//  249         case ZDO_MATCH_DESC_RSP_SENT:       
//  250             show("ZDO_MATCH_DESC_RSP_SENT");
//  251             // Check the state of NWK
//  252             break;         
//  253           default:
//  254             break;
//  255         }
//  256         osal_msg_deallocate( (uint8 *)MSGpkt ); // Release the memory
//  257       }
//  258       return (events ^ SYS_EVENT_MSG); // return unprocessed events
//  259     }
//  260   
//  261     // The user define application events
//  262     switch ( events )
        MOV     R0,#?V0 + 2
        LCALL   ?US_SWITCH_SPARSE
`?<Jumptable for zclZigbeeRecv_event_loop>_0`:
        DATA
        DW        0
        DW        4
        DW        1
        DW        ??zclZigbeeRecv_event_loop_2
        DW        2
        DW        ??zclZigbeeRecv_event_loop_3
        DW        3
        DW        ??zclZigbeeRecv_event_loop_4
        DW        2048
        DW        ??zclZigbeeRecv_event_loop_5
        DW        ??zclZigbeeRecv_event_loop_6
        CODE
//  263     {
//  264       case ZDO_MSG_SEND_EVT:
//  265 //          show("ZDO_MSG_SEND_EVT");
//  266             ZSendMsgProcess("Chris:ZDO_MSG_SEND_EVT");                
??zclZigbeeRecv_event_loop_5:
        ; Setup parameters for call to function ZSendMsgProcess
        MOV     R2,#(`?<Constant "Chris:ZDO_MSG_SEND_EVT">` & 0xff)
        MOV     R3,#((`?<Constant "Chris:ZDO_MSG_SEND_EVT">` >> 8) & 0xff)
        LCALL   ??ZSendMsgProcess?relay
        LJMP    ??zclZigbeeRecv_event_loop_6 & 0xFFFF
??zclZigbeeRecv_event_loop_7:
        ; Setup parameters for call to function show
        MOV     R2,#(`?<Constant "ZDO_MATCH_DESC_RSP_SENT">` & 0xff)
        MOV     R3,#((`?<Constant "ZDO_MATCH_DESC_RSP_SENT">` >> 8) & 0xff)
        LCALL   ??show?relay
??zclZigbeeRecv_event_loop_8:
        ; Setup parameters for call to function osal_msg_deallocate
        MOV     R2,?V0 + 0
        MOV     R3,?V0 + 1
        LCALL   ??osal_msg_deallocate?relay
??zclZigbeeRecv_event_loop_1:
        ; Setup parameters for call to function osal_msg_receive
        MOV     DPTR,#zclZigbeeReceiver_TaskID
        MOVX    A,@DPTR
        MOV     R1,A
        LCALL   ??osal_msg_receive?relay
        MOV     ?V0 + 0,R2
        MOV     ?V0 + 1,R3
        MOV     A,R2
        JNZ     ??zclZigbeeRecv_event_loop_9
        MOV     A,R3
??zclZigbeeRecv_event_loop_9:
        JNZ     $+5
        LJMP    ??zclZigbeeRecv_event_loop_10 & 0xFFFF
        MOV     DPL,R2
        MOV     DPH,R3
        MOVX    A,@DPTR
        LCALL   ?UC_SWITCH_SPARSE
`?<Jumptable for zclZigbeeRecv_event_loop>_1`:
        DATA
        DB        0
        DB        5
        DB        52
        DW        ??zclZigbeeRecv_event_loop_11
        DB        192
        DW        ??zclZigbeeRecv_event_loop_12
        DB        209
        DW        ??zclZigbeeRecv_event_loop_13
        DB        210
        DW        ??zclZigbeeRecv_event_loop_7
        DB        253
        DW        ??zclZigbeeRecv_event_loop_14
        DW        ??zclZigbeeRecv_event_loop_8
        CODE
??zclZigbeeRecv_event_loop_11:
        ; Setup parameters for call to function show
        MOV     R2,#(`?<Constant "ZCL_INCOMING_MSG">` & 0xff)
        MOV     R3,#((`?<Constant "ZCL_INCOMING_MSG">` >> 8) & 0xff)
        LCALL   ?Subroutine2 & 0xFFFF
??CrossCallReturnLabel_4:
        INC     DPTR
        INC     DPTR
        INC     DPTR
        INC     DPTR
        MOVX    A,@DPTR
        LCALL   ?UC_SWITCH_SPARSE
`?<Jumptable for zclZigbeeRecv_event_loop>_2`:
        DATA
        DB        0
        DB        2
        DB        1
        DW        ??zclZigbeeRecv_event_loop_15
        DB        4
        DW        ??zclZigbeeRecv_event_loop_16
        DW        ??zclZigbeeRecv_event_loop_17
        CODE
??zclZigbeeRecv_event_loop_15:
        LCALL   ?Subroutine0 & 0xFFFF
??CrossCallReturnLabel_0:
        MOVX    A,@DPTR
        MOV     R2,A
        MOV     A,R3
        CLR     C
        SUBB    A,R2
        JNC     ??zclZigbeeRecv_event_loop_17
        INC     R3
        SJMP    ??CrossCallReturnLabel_0
??zclZigbeeRecv_event_loop_16:
        LCALL   ?Subroutine0 & 0xFFFF
??CrossCallReturnLabel_1:
        SJMP    ??zclZigbeeRecv_event_loop_18
??zclZigbeeRecv_event_loop_19:
        INC     R3
??zclZigbeeRecv_event_loop_18:
        MOVX    A,@DPTR
        MOV     R2,A
        MOV     A,R3
        CLR     C
        SUBB    A,R2
        JC      ??zclZigbeeRecv_event_loop_19
??zclZigbeeRecv_event_loop_17:
        LCALL   ?Subroutine3 & 0xFFFF
??CrossCallReturnLabel_6:
        MOV     R2,A
        INC     DPTR
        MOVX    A,@DPTR
        MOV     R3,A
        MOV     A,R2
        JNZ     ??zclZigbeeRecv_event_loop_20
        MOV     A,R3
??zclZigbeeRecv_event_loop_20:
        JZ      ??zclZigbeeRecv_event_loop_8
        ; Setup parameters for call to function osal_mem_free
        LCALL   ??osal_mem_free?relay
        SJMP    ??zclZigbeeRecv_event_loop_8
??zclZigbeeRecv_event_loop_12:
        ; Setup parameters for call to function show
        MOV     R2,#(`?<Constant "KEY_CHANGE">` & 0xff)
        MOV     R3,#((`?<Constant "KEY_CHANGE">` >> 8) & 0xff)
        LCALL   ?Subroutine2 & 0xFFFF
??CrossCallReturnLabel_5:
        MOVX    A,@DPTR
        MOV     C,0xE0 /* A   */.0
        JC      $+5
        LJMP    ??zclZigbeeRecv_event_loop_8 & 0xFFFF
        MOV     A,#0x8
        LCALL   ?XSTACK_DISP0_8
        MOV     A,#0x2
        MOVX    @DPTR,A
        MOV     DPL,?XSP + 0
        MOV     DPH,?XSP + 1
        CLR     A
        MOVX    @DPTR,A
        INC     DPTR
        MOVX    @DPTR,A
        ; Setup parameters for call to function ZDP_EndDeviceBindReq
        MOV     ?V0 + 4,#0x1
        MOV     R0,#?V0 + 4
        LCALL   ?PUSH_XSTACK_I_ONE
        CFI CFA_XSP16 add(XSP16, 24)
        MOV     ?V0 + 4,#0x0
        MOV     ?V0 + 5,#0x0
        MOV     R0,#?V0 + 4
        LCALL   ?PUSH_XSTACK_I_TWO
        CFI CFA_XSP16 add(XSP16, 26)
        MOV     R0,#?V0 + 4
        LCALL   ?PUSH_XSTACK_I_ONE
        CFI CFA_XSP16 add(XSP16, 27)
        MOV     ?V0 + 4,#(bindingInClusters & 0xff)
        MOV     ?V0 + 5,#((bindingInClusters >> 8) & 0xff)
        MOV     R0,#?V0 + 4
        LCALL   ?PUSH_XSTACK_I_TWO
        CFI CFA_XSP16 add(XSP16, 29)
        MOV     ?V0 + 4,#0x2
        MOV     R0,#?V0 + 4
        LCALL   ?PUSH_XSTACK_I_ONE
        CFI CFA_XSP16 add(XSP16, 30)
        MOV     ?V0 + 4,#0x4
        MOV     ?V0 + 5,#0x1
        MOV     R0,#?V0 + 4
        LCALL   ?PUSH_XSTACK_I_TWO
        CFI CFA_XSP16 add(XSP16, 32)
        ; Setup parameters for call to function NLME_GetShortAddr
        LCALL   ??NLME_GetShortAddr?relay
        MOV     A,R2
        MOV     R4,A
        MOV     A,R3
        MOV     R5,A
        MOV     R1,#0xd
        MOV     A,#0x9
        LCALL   ?XSTACK_DISP0_8
        MOV     R2,DPL
        MOV     R3,DPH
        LCALL   ??ZDP_EndDeviceBindReq?relay
        MOV     A,#0x9
        LCALL   ?DEALLOC_XSTACK8
        CFI CFA_XSP16 add(XSP16, 23)
        LJMP    ??zclZigbeeRecv_event_loop_8 & 0xFFFF
??zclZigbeeRecv_event_loop_14:
        ; Setup parameters for call to function strcpy
        MOV     R4,#(`?<Constant "\\r 1 \\n">` & 0xff)
        MOV     R5,#((`?<Constant "\\r 1 \\n">` >> 8) & 0xff)
        MOV     R2,#(device_manager & 0xff)
        MOV     R3,#((device_manager >> 8) & 0xff)
        LCALL   ??strcpy?relay
        ; Setup parameters for call to function strcpy
        MOV     R4,#(`?<Constant "\\r 140 \\n">` & 0xff)
        MOV     R5,#((`?<Constant "\\r 140 \\n">` >> 8) & 0xff)
        MOV     R2,#((device_manager + 8) & 0xff)
        MOV     R3,#(((device_manager + 8) >> 8) & 0xff)
        LCALL   ??strcpy?relay
        ; Setup parameters for call to function strncpy
        MOV     ?V0 + 4,#0xe
        MOV     ?V0 + 5,#0x0
        MOV     R0,#?V0 + 4
        LCALL   ?PUSH_XSTACK_I_TWO
        CFI CFA_XSP16 add(XSP16, 25)
        MOV     A,?V0 + 0
        ADD     A,#0x21
        MOV     DPL,A
        MOV     A,?V0 + 1
        ADDC    A,#0x0
        MOV     DPH,A
        MOVX    A,@DPTR
        MOV     R4,A
        INC     DPTR
        MOVX    A,@DPTR
        MOV     R5,A
        MOV     R2,#((device_manager + 18) & 0xff)
        MOV     R3,#(((device_manager + 18) >> 8) & 0xff)
        LCALL   ??strncpy?relay
        MOV     A,#0x2
        LCALL   ?DEALLOC_XSTACK8
        CFI CFA_XSP16 add(XSP16, 23)
        LJMP    ??zclZigbeeRecv_event_loop_8 & 0xFFFF
??zclZigbeeRecv_event_loop_13:
        ; Setup parameters for call to function ZSendMsgProcess
        MOV     R2,#(`?<Constant "Hi">` & 0xff)
        MOV     R3,#((`?<Constant "Hi">` >> 8) & 0xff)
        LCALL   ??ZSendMsgProcess?relay
        LJMP    ??zclZigbeeRecv_event_loop_8 & 0xFFFF
??zclZigbeeRecv_event_loop_10:
        MOV     R2,?V0 + 2
        MOV     A,#-0x80
        XRL     A,?V0 + 3
        MOV     R3,A
        SJMP    ??zclZigbeeRecv_event_loop_21
//  267             break;
//  268       case SAMPLELIGHT_IDENTIFY_TIMEOUT_EVT: // ZIGBEE Receiver identify timeout event
//  269         show("SAMPLELIGHT_IDENTIFY_TIMEOUT_EVT");
??zclZigbeeRecv_event_loop_2:
        ; Setup parameters for call to function show
        MOV     R2,#(`?<Constant "SAMPLELIGHT_IDENTIFY_...">` & 0xff)
        MOV     R3,#((`?<Constant "SAMPLELIGHT_IDENTIFY_...">` >> 8) & 0xff)
        LCALL   ??show?relay
//  270         if ( zclZigbeeRecv_IdentifyTime > 0 )
        MOV     DPTR,#zclZigbeeRecv_IdentifyTime
        MOVX    A,@DPTR
        JNZ     ??zclZigbeeRecv_event_loop_22
        INC     DPTR
        MOVX    A,@DPTR
??zclZigbeeRecv_event_loop_22:
        JZ      ??zclZigbeeRecv_event_loop_23
//  271              zclZigbeeRecv_IdentifyTime--;
        MOV     DPTR,#zclZigbeeRecv_IdentifyTime
        MOVX    A,@DPTR
        ADD     A,#-0x1
        MOVX    @DPTR,A
        INC     DPTR
        MOVX    A,@DPTR
        ADDC    A,#-0x1
        MOVX    @DPTR,A
//  272              zclZigbeeReceiver_ProcessIdentifyTimeChange();
??zclZigbeeRecv_event_loop_23:
        ; Setup parameters for call to function zclZigbeeReceiver_ProcessIdentifyTimeChange
        LCALL   ??zclZigbeeReceiver_ProcessIdentifyTimeChange?r
        SJMP    ??zclZigbeeRecv_event_loop_6
//  273         break;
//  274       
//  275       case UART_MSG_EVT: // The UART Message event
//  276         show("UART_MSG_EVT");
??zclZigbeeRecv_event_loop_3:
        ; Setup parameters for call to function show
        MOV     R2,#(`?<Constant "UART_MSG_EVT">` & 0xff)
        MOV     R3,#((`?<Constant "UART_MSG_EVT">` >> 8) & 0xff)
        LCALL   ??show?relay
//  277         zclUartReceiver();
        ; Setup parameters for call to function zclUartReceiver
        LCALL   ??zclUartReceiver?relay
        SJMP    ??zclZigbeeRecv_event_loop_6
//  278         break;
//  279       
//  280       case KEYPAD_MSG_EVT: // The KEYPAD keyin event
//  281         show("KEYPAD_MSG_EVT");
??zclZigbeeRecv_event_loop_4:
        ; Setup parameters for call to function show
        MOV     R2,#(`?<Constant "KEYPAD_MSG_EVT">` & 0xff)
        MOV     R3,#((`?<Constant "KEYPAD_MSG_EVT">` >> 8) & 0xff)
        LCALL   ??show?relay
//  282         #if defined( LCD_SUPPORTED )
//  283           HalLcdWriteChar(HAL_LCD_LINE_3, 0, ch);
        ; Setup parameters for call to function HalLcdWriteChar
        MOV     DPTR,#ch
        MOVX    A,@DPTR
        MOV     R3,A
        MOV     R2,#0x0
        MOV     R1,#0x3
        LCALL   ??HalLcdWriteChar?relay
//  284         #endif
//  285         break;
//  286     }    
//  287     return 0; // Discard unknown events
??zclZigbeeRecv_event_loop_6:
        MOV     R2,#0x0
        MOV     R3,#0x0
??zclZigbeeRecv_event_loop_21:
        MOV     A,#0x9
        LCALL   ?DEALLOC_XSTACK8
        CFI CFA_XSP16 add(XSP16, 14)
        MOV     R7,#0x6
        LJMP    ?BANKED_LEAVE_XDATA
        CFI EndBlock cfiBlock5
//  288 }

        RSEG BANKED_CODE:CODE:NOROOT(0)
?Subroutine2:
        CFI Block cfiCond6 Using cfiCommon0
        CFI NoFunction
        CFI Conditional ??CrossCallReturnLabel_4
        CFI R6 load(1, XDATA, add(CFA_XSP16, literal(-14)))
        CFI VB load(1, XDATA, add(CFA_XSP16, literal(-13)))
        CFI V0 load(1, XDATA, add(CFA_XSP16, literal(-12)))
        CFI V1 load(1, XDATA, add(CFA_XSP16, literal(-11)))
        CFI V2 load(1, XDATA, add(CFA_XSP16, literal(-10)))
        CFI V3 load(1, XDATA, add(CFA_XSP16, literal(-9)))
        CFI V4 load(1, XDATA, add(CFA_XSP16, literal(-8)))
        CFI V5 load(1, XDATA, add(CFA_XSP16, literal(-7)))
        CFI R7 load(1, XDATA, add(CFA_XSP16, literal(-6)))
        CFI ?RET_LOW load(1, XDATA, add(CFA_XSP16, literal(-5)))
        CFI ?RET_HIGH load(1, XDATA, add(CFA_XSP16, literal(-4)))
        CFI ?BRET_EXT load(1, XDATA, add(CFA_XSP16, literal(-3)))
        CFI DPL0 load(1, XDATA, add(CFA_XSP16, literal(-2)))
        CFI DPH0 load(1, XDATA, add(CFA_XSP16, literal(-1)))
        CFI CFA_SP SP+0
        CFI CFA_XSP16 add(XSP16, 23)
        CFI Block cfiCond7 Using cfiCommon0
        CFI (cfiCond7) NoFunction
        CFI (cfiCond7) Conditional ??CrossCallReturnLabel_5
        CFI (cfiCond7) R6 load(1, XDATA, add(CFA_XSP16, literal(-14)))
        CFI (cfiCond7) VB load(1, XDATA, add(CFA_XSP16, literal(-13)))
        CFI (cfiCond7) V0 load(1, XDATA, add(CFA_XSP16, literal(-12)))
        CFI (cfiCond7) V1 load(1, XDATA, add(CFA_XSP16, literal(-11)))
        CFI (cfiCond7) V2 load(1, XDATA, add(CFA_XSP16, literal(-10)))
        CFI (cfiCond7) V3 load(1, XDATA, add(CFA_XSP16, literal(-9)))
        CFI (cfiCond7) V4 load(1, XDATA, add(CFA_XSP16, literal(-8)))
        CFI (cfiCond7) V5 load(1, XDATA, add(CFA_XSP16, literal(-7)))
        CFI (cfiCond7) R7 load(1, XDATA, add(CFA_XSP16, literal(-6)))
        CFI (cfiCond7) ?RET_LOW load(1, XDATA, add(CFA_XSP16, literal(-5)))
        CFI (cfiCond7) ?RET_HIGH load(1, XDATA, add(CFA_XSP16, literal(-4)))
        CFI (cfiCond7) ?BRET_EXT load(1, XDATA, add(CFA_XSP16, literal(-3)))
        CFI (cfiCond7) DPL0 load(1, XDATA, add(CFA_XSP16, literal(-2)))
        CFI (cfiCond7) DPH0 load(1, XDATA, add(CFA_XSP16, literal(-1)))
        CFI (cfiCond7) CFA_SP SP+0
        CFI (cfiCond7) CFA_XSP16 add(XSP16, 23)
        CFI Block cfiPicker8 Using cfiCommon1
        CFI (cfiPicker8) NoFunction
        CFI (cfiPicker8) Picker
        LCALL   ??show?relay
        MOV     DPL,?V0 + 0
        MOV     DPH,?V0 + 1
        INC     DPTR
        INC     DPTR
        INC     DPTR
        RET
        CFI EndBlock cfiCond6
        CFI EndBlock cfiCond7
        CFI EndBlock cfiPicker8

        RSEG BANKED_CODE:CODE:NOROOT(0)
?Subroutine0:
        CFI Block cfiCond9 Using cfiCommon0
        CFI NoFunction
        CFI Conditional ??CrossCallReturnLabel_0
        CFI R6 load(1, XDATA, add(CFA_XSP16, literal(-14)))
        CFI VB load(1, XDATA, add(CFA_XSP16, literal(-13)))
        CFI V0 load(1, XDATA, add(CFA_XSP16, literal(-12)))
        CFI V1 load(1, XDATA, add(CFA_XSP16, literal(-11)))
        CFI V2 load(1, XDATA, add(CFA_XSP16, literal(-10)))
        CFI V3 load(1, XDATA, add(CFA_XSP16, literal(-9)))
        CFI V4 load(1, XDATA, add(CFA_XSP16, literal(-8)))
        CFI V5 load(1, XDATA, add(CFA_XSP16, literal(-7)))
        CFI R7 load(1, XDATA, add(CFA_XSP16, literal(-6)))
        CFI ?RET_LOW load(1, XDATA, add(CFA_XSP16, literal(-5)))
        CFI ?RET_HIGH load(1, XDATA, add(CFA_XSP16, literal(-4)))
        CFI ?BRET_EXT load(1, XDATA, add(CFA_XSP16, literal(-3)))
        CFI DPL0 load(1, XDATA, add(CFA_XSP16, literal(-2)))
        CFI DPH0 load(1, XDATA, add(CFA_XSP16, literal(-1)))
        CFI CFA_SP SP+0
        CFI CFA_XSP16 add(XSP16, 23)
        CFI Block cfiCond10 Using cfiCommon0
        CFI (cfiCond10) NoFunction
        CFI (cfiCond10) Conditional ??CrossCallReturnLabel_1
        CFI (cfiCond10) R6 load(1, XDATA, add(CFA_XSP16, literal(-14)))
        CFI (cfiCond10) VB load(1, XDATA, add(CFA_XSP16, literal(-13)))
        CFI (cfiCond10) V0 load(1, XDATA, add(CFA_XSP16, literal(-12)))
        CFI (cfiCond10) V1 load(1, XDATA, add(CFA_XSP16, literal(-11)))
        CFI (cfiCond10) V2 load(1, XDATA, add(CFA_XSP16, literal(-10)))
        CFI (cfiCond10) V3 load(1, XDATA, add(CFA_XSP16, literal(-9)))
        CFI (cfiCond10) V4 load(1, XDATA, add(CFA_XSP16, literal(-8)))
        CFI (cfiCond10) V5 load(1, XDATA, add(CFA_XSP16, literal(-7)))
        CFI (cfiCond10) R7 load(1, XDATA, add(CFA_XSP16, literal(-6)))
        CFI (cfiCond10) ?RET_LOW load(1, XDATA, add(CFA_XSP16, literal(-5)))
        CFI (cfiCond10) ?RET_HIGH load(1, XDATA, add(CFA_XSP16, literal(-4)))
        CFI (cfiCond10) ?BRET_EXT load(1, XDATA, add(CFA_XSP16, literal(-3)))
        CFI (cfiCond10) DPL0 load(1, XDATA, add(CFA_XSP16, literal(-2)))
        CFI (cfiCond10) DPH0 load(1, XDATA, add(CFA_XSP16, literal(-1)))
        CFI (cfiCond10) CFA_SP SP+0
        CFI (cfiCond10) CFA_XSP16 add(XSP16, 23)
        CFI Block cfiPicker11 Using cfiCommon1
        CFI (cfiPicker11) NoFunction
        CFI (cfiPicker11) Picker
        LCALL   ?Subroutine3 & 0xFFFF
??CrossCallReturnLabel_7:
        MOV     R0,A
        INC     DPTR
        MOVX    A,@DPTR
        MOV     R1,A
        MOV     DPL,R0
        MOV     DPH,R1
        MOV     R3,#0x0
        RET
        CFI EndBlock cfiCond9
        CFI EndBlock cfiCond10
        CFI EndBlock cfiPicker11

        RSEG BANKED_CODE:CODE:NOROOT(0)
?Subroutine3:
        CFI Block cfiCond12 Using cfiCommon0
        CFI NoFunction
        CFI Conditional ??CrossCallReturnLabel_6
        CFI R6 load(1, XDATA, add(CFA_XSP16, literal(-14)))
        CFI VB load(1, XDATA, add(CFA_XSP16, literal(-13)))
        CFI V0 load(1, XDATA, add(CFA_XSP16, literal(-12)))
        CFI V1 load(1, XDATA, add(CFA_XSP16, literal(-11)))
        CFI V2 load(1, XDATA, add(CFA_XSP16, literal(-10)))
        CFI V3 load(1, XDATA, add(CFA_XSP16, literal(-9)))
        CFI V4 load(1, XDATA, add(CFA_XSP16, literal(-8)))
        CFI V5 load(1, XDATA, add(CFA_XSP16, literal(-7)))
        CFI R7 load(1, XDATA, add(CFA_XSP16, literal(-6)))
        CFI ?RET_LOW load(1, XDATA, add(CFA_XSP16, literal(-5)))
        CFI ?RET_HIGH load(1, XDATA, add(CFA_XSP16, literal(-4)))
        CFI ?BRET_EXT load(1, XDATA, add(CFA_XSP16, literal(-3)))
        CFI DPL0 load(1, XDATA, add(CFA_XSP16, literal(-2)))
        CFI DPH0 load(1, XDATA, add(CFA_XSP16, literal(-1)))
        CFI CFA_SP SP+0
        CFI CFA_XSP16 add(XSP16, 23)
        CFI Block cfiCond13 Using cfiCommon0
        CFI (cfiCond13) NoFunction
        CFI (cfiCond13) Conditional ??CrossCallReturnLabel_7, ??CrossCallReturnLabel_0
        CFI (cfiCond13) R6 load(1, XDATA, add(CFA_XSP16, literal(-14)))
        CFI (cfiCond13) VB load(1, XDATA, add(CFA_XSP16, literal(-13)))
        CFI (cfiCond13) V0 load(1, XDATA, add(CFA_XSP16, literal(-12)))
        CFI (cfiCond13) V1 load(1, XDATA, add(CFA_XSP16, literal(-11)))
        CFI (cfiCond13) V2 load(1, XDATA, add(CFA_XSP16, literal(-10)))
        CFI (cfiCond13) V3 load(1, XDATA, add(CFA_XSP16, literal(-9)))
        CFI (cfiCond13) V4 load(1, XDATA, add(CFA_XSP16, literal(-8)))
        CFI (cfiCond13) V5 load(1, XDATA, add(CFA_XSP16, literal(-7)))
        CFI (cfiCond13) R7 load(1, XDATA, add(CFA_XSP16, literal(-6)))
        CFI (cfiCond13) ?RET_LOW load(1, XDATA, add(CFA_XSP16, literal(-5)))
        CFI (cfiCond13) ?RET_HIGH load(1, XDATA, add(CFA_XSP16, literal(-4)))
        CFI (cfiCond13) ?BRET_EXT load(1, XDATA, add(CFA_XSP16, literal(-3)))
        CFI (cfiCond13) DPL0 load(1, XDATA, add(CFA_XSP16, literal(-2)))
        CFI (cfiCond13) DPH0 load(1, XDATA, add(CFA_XSP16, literal(-1)))
        CFI (cfiCond13) CFA_SP SP+0
        CFI (cfiCond13) CFA_XSP16 add(XSP16, 23)
        CFI Block cfiCond14 Using cfiCommon0
        CFI (cfiCond14) NoFunction
        CFI (cfiCond14) Conditional ??CrossCallReturnLabel_7, ??CrossCallReturnLabel_1
        CFI (cfiCond14) R6 load(1, XDATA, add(CFA_XSP16, literal(-14)))
        CFI (cfiCond14) VB load(1, XDATA, add(CFA_XSP16, literal(-13)))
        CFI (cfiCond14) V0 load(1, XDATA, add(CFA_XSP16, literal(-12)))
        CFI (cfiCond14) V1 load(1, XDATA, add(CFA_XSP16, literal(-11)))
        CFI (cfiCond14) V2 load(1, XDATA, add(CFA_XSP16, literal(-10)))
        CFI (cfiCond14) V3 load(1, XDATA, add(CFA_XSP16, literal(-9)))
        CFI (cfiCond14) V4 load(1, XDATA, add(CFA_XSP16, literal(-8)))
        CFI (cfiCond14) V5 load(1, XDATA, add(CFA_XSP16, literal(-7)))
        CFI (cfiCond14) R7 load(1, XDATA, add(CFA_XSP16, literal(-6)))
        CFI (cfiCond14) ?RET_LOW load(1, XDATA, add(CFA_XSP16, literal(-5)))
        CFI (cfiCond14) ?RET_HIGH load(1, XDATA, add(CFA_XSP16, literal(-4)))
        CFI (cfiCond14) ?BRET_EXT load(1, XDATA, add(CFA_XSP16, literal(-3)))
        CFI (cfiCond14) DPL0 load(1, XDATA, add(CFA_XSP16, literal(-2)))
        CFI (cfiCond14) DPH0 load(1, XDATA, add(CFA_XSP16, literal(-1)))
        CFI (cfiCond14) CFA_SP SP+0
        CFI (cfiCond14) CFA_XSP16 add(XSP16, 23)
        CFI Block cfiPicker15 Using cfiCommon1
        CFI (cfiPicker15) NoFunction
        CFI (cfiPicker15) Picker
        MOV     A,?V0 + 0
        ADD     A,#0x16
        MOV     DPL,A
        MOV     A,?V0 + 1
        ADDC    A,#0x0
        MOV     DPH,A
        MOVX    A,@DPTR
        RET
        CFI EndBlock cfiCond12
        CFI EndBlock cfiCond13
        CFI EndBlock cfiCond14
        CFI EndBlock cfiPicker15
//  289 
//  290 /*********************************************************************
//  291  * @fn      zclZigbeeReceiver_HandleKeys
//  292  * @brief   Handles all key events for this device.
//  293  * @param   shift - true if in shift/alt.
//  294  * @param   keys - bit field for key events.
//  295  *          Valid entries: HAL_KEY_SW_1(MCU-K1)                        
//  296  */
//  297 static void zclZigbeeReceiver_HandleKeys( byte shift, byte keys )
//  298 {
//  299   zAddrType_t dstAddr;
//  300   (void)shift; // Intentionally unreferenced parameter
//  301   
//  302 #if defined(Coor_receiver) || defined (Router_receiver)
//  303 
//  304   if ( keys & HAL_KEY_SW1 ) // Init EndDevice bind reequest, and use cluster list important to binding.
//  305   {
//  306     dstAddr.addrMode = afAddr16Bit;
//  307     dstAddr.addr.shortAddr = 0x0000;   // Coordinator makes the match
//  308     ZDP_EndDeviceBindReq( &dstAddr, NLME_GetShortAddr(), ZIGBEERECV_ENDPOINT, // ZIGBEERECV_ENDPOINT = 13 is coordinator
//  309                           ZCL_HA_PROFILE_ID, ZCLZIGBEERECV_BINDINGLIST, bindingInClusters, 0,
//  310                           NULL, // No Outgoing clusters to bind
//  311                           TRUE );
//  312   }
//  313   
//  314   if ( keys & HAL_KEY_SW2 ) 
//  315   {
//  316     
//  317   }
//  318   
//  319 #endif
//  320 }
//  321 
//  322 /*********************************************************************
//  323  * @fn      zclZigbeeReceiver_ProcessIdentifyTimeChange
//  324  * @brief   Called to process any change to the IdentifyTime attribute.
//  325  */

        RSEG BANKED_CODE:CODE:NOROOT(0)
//  326 static void zclZigbeeReceiver_ProcessIdentifyTimeChange( void )
zclZigbeeReceiver_ProcessIdentifyTimeChange:
        CFI Block cfiBlock16 Using cfiCommon0
        CFI Function zclZigbeeReceiver_ProcessIdentifyTimeChange
//  327 {
        FUNCALL zclZigbeeReceiver_ProcessIdentifyTimeChange, osal_start_timerEx
        LOCFRAME ISTACK, 2, STACK
        LOCFRAME PSTACK, 0, STACK
        LOCFRAME XSTACK, 0, STACK
        LOCFRAME IOVERLAY, 0, STATIC
        LOCFRAME DOVERLAY, 0, STATIC
        ARGFRAME ISTACK, 2, STACK
        ARGFRAME PSTACK, 0, STACK
        ARGFRAME XSTACK, 0, STACK
        ARGFRAME IOVERLAY, 0, STATIC
        ARGFRAME DOVERLAY, 0, STATIC
        FUNCALL zclZigbeeReceiver_ProcessIdentifyTimeChange, HalLedBlink
        LOCFRAME ISTACK, 2, STACK
        LOCFRAME PSTACK, 0, STACK
        LOCFRAME XSTACK, 0, STACK
        LOCFRAME IOVERLAY, 0, STATIC
        LOCFRAME DOVERLAY, 0, STATIC
        ARGFRAME ISTACK, 2, STACK
        ARGFRAME PSTACK, 0, STACK
        ARGFRAME XSTACK, 0, STACK
        ARGFRAME IOVERLAY, 0, STATIC
        ARGFRAME DOVERLAY, 0, STATIC
        FUNCALL zclZigbeeReceiver_ProcessIdentifyTimeChange, HalLedSet
        LOCFRAME ISTACK, 2, STACK
        LOCFRAME PSTACK, 0, STACK
        LOCFRAME XSTACK, 0, STACK
        LOCFRAME IOVERLAY, 0, STATIC
        LOCFRAME DOVERLAY, 0, STATIC
        ARGFRAME ISTACK, 2, STACK
        ARGFRAME PSTACK, 0, STACK
        ARGFRAME XSTACK, 0, STACK
        ARGFRAME IOVERLAY, 0, STATIC
        ARGFRAME DOVERLAY, 0, STATIC
        FUNCALL zclZigbeeReceiver_ProcessIdentifyTimeChange, HalLedSet
        LOCFRAME ISTACK, 2, STACK
        LOCFRAME PSTACK, 0, STACK
        LOCFRAME XSTACK, 0, STACK
        LOCFRAME IOVERLAY, 0, STATIC
        LOCFRAME DOVERLAY, 0, STATIC
        ARGFRAME ISTACK, 2, STACK
        ARGFRAME PSTACK, 0, STACK
        ARGFRAME XSTACK, 0, STACK
        ARGFRAME IOVERLAY, 0, STATIC
        ARGFRAME DOVERLAY, 0, STATIC
        FUNCALL zclZigbeeReceiver_ProcessIdentifyTimeChange, osal_stop_timerEx
        LOCFRAME ISTACK, 2, STACK
        LOCFRAME PSTACK, 0, STACK
        LOCFRAME XSTACK, 0, STACK
        LOCFRAME IOVERLAY, 0, STATIC
        LOCFRAME DOVERLAY, 0, STATIC
        ARGFRAME ISTACK, 2, STACK
        ARGFRAME PSTACK, 0, STACK
        ARGFRAME XSTACK, 0, STACK
        ARGFRAME IOVERLAY, 0, STATIC
        ARGFRAME DOVERLAY, 0, STATIC
        PUSH    DPL
        CFI DPL0 Frame(CFA_SP, 4)
        CFI CFA_SP SP+-4
        PUSH    DPH
        CFI DPH0 Frame(CFA_SP, 5)
        CFI CFA_SP SP+-5
        ; Saved register size: 2
        ; Auto size: 0
//  328   if ( zclZigbeeRecv_IdentifyTime > 0 )
        MOV     DPTR,#zclZigbeeRecv_IdentifyTime
        MOVX    A,@DPTR
        JNZ     ??zclZigbeeReceiver_ProcessIdentifyTimeChange_0
        INC     DPTR
        MOVX    A,@DPTR
??zclZigbeeReceiver_ProcessIdentifyTimeChange_0:
        JZ      ??zclZigbeeReceiver_ProcessIdentifyTimeChange_1
//  329   {
//  330     osal_start_timerEx( zclZigbeeReceiver_TaskID, SAMPLELIGHT_IDENTIFY_TIMEOUT_EVT, 1000 );
        ; Setup parameters for call to function osal_start_timerEx
        MOV     R4,#-0x18
        MOV     R5,#0x3
        MOV     R2,#0x1
        MOV     R3,#0x0
        MOV     DPTR,#zclZigbeeReceiver_TaskID
        MOVX    A,@DPTR
        MOV     R1,A
        LCALL   ??osal_start_timerEx?relay
//  331     HalLedBlink ( HAL_LED_2, 0xFF, HAL_LED_DEFAULT_DUTY_CYCLE, HAL_LED_DEFAULT_FLASH_TIME );
        ; Setup parameters for call to function HalLedBlink
        MOV     R4,#-0x18
        MOV     R5,#0x3
        MOV     R3,#0x5
        MOV     R2,#-0x1
        MOV     R1,#0x2
        LCALL   ??HalLedBlink?relay
        SJMP    ??zclZigbeeReceiver_ProcessIdentifyTimeChange_2
//  332   }
//  333   else
//  334     {
//  335       if ( zclZigbeeRecv_OnOff )
??zclZigbeeReceiver_ProcessIdentifyTimeChange_1:
        MOV     DPTR,#zclZigbeeRecv_OnOff
        MOVX    A,@DPTR
        JZ      ??zclZigbeeReceiver_ProcessIdentifyTimeChange_3
//  336       {
//  337         HalLedSet ( HAL_LED_1, HAL_LED_MODE_ON );
        ; Setup parameters for call to function HalLedSet
        MOV     R2,#0x1
        MOV     R1,#0x1
        LCALL   ??HalLedSet?relay
        SJMP    ??zclZigbeeReceiver_ProcessIdentifyTimeChange_2
//  338       }
//  339       else
//  340         {
//  341           HalLedSet ( HAL_LED_1, HAL_LED_MODE_OFF );
??zclZigbeeReceiver_ProcessIdentifyTimeChange_3:
        ; Setup parameters for call to function HalLedSet
        MOV     R2,#0x0
        MOV     R1,#0x1
        LCALL   ??HalLedSet?relay
//  342           osal_stop_timerEx( zclZigbeeReceiver_TaskID, SAMPLELIGHT_IDENTIFY_TIMEOUT_EVT );
        ; Setup parameters for call to function osal_stop_timerEx
        MOV     R2,#0x1
        MOV     R3,#0x0
        MOV     DPTR,#zclZigbeeReceiver_TaskID
        MOVX    A,@DPTR
        MOV     R1,A
        LCALL   ??osal_stop_timerEx?relay
        CFI EndBlock cfiBlock16
//  343         }
//  344     }
//  345 }
??zclZigbeeReceiver_ProcessIdentifyTimeChange_2:
        REQUIRE ?Subroutine4
        ; // Fall through to label ?Subroutine4

        RSEG BANKED_CODE:CODE:NOROOT(0)
?Subroutine4:
        CFI Block cfiBlock17 Using cfiCommon0
        CFI NoFunction
        CFI CFA_SP SP+-5
        CFI DPL0 Frame(CFA_SP, 4)
        CFI DPH0 Frame(CFA_SP, 5)
        POP     DPH
        CFI CFA_SP SP+-4
        CFI DPH0 SameValue
        POP     DPL
        CFI CFA_SP SP+-3
        CFI DPL0 SameValue
        LJMP    ?BRET
        CFI EndBlock cfiBlock17
//  346 
//  347 /*********************************************************************
//  348  * @fn      zclZigbeeReceiver_BasicResetCB
//  349  * @brief   Callback from the ZCL General Cluster Library
//  350  *          to set all the Basic Cluster attributes to default values.
//  351  */

        RSEG BANKED_CODE:CODE:NOROOT(0)
//  352 static void zclZigbeeReceiver_BasicResetCB( void )
zclZigbeeReceiver_BasicResetCB:
        CFI Block cfiBlock18 Using cfiCommon0
        CFI Function zclZigbeeReceiver_BasicResetCB
//  353 {
        ; Saved register size: 0
        ; Auto size: 0
//  354   // Reset all attributes to default values
//  355 }
        LJMP    ?BRET
        CFI EndBlock cfiBlock18
//  356 
//  357 /*********************************************************************
//  358  * @fn      zclZigbeeReceiver_IdentifyCB
//  359  * @brief   Callback from the ZCL General Cluster Library when
//  360  *          it received an Identity Command for this application.
//  361  * @param   srcAddr - source address and endpoint of the response message
//  362  *          identifyTime - the number of seconds to identify yourself
//  363  */

        RSEG BANKED_CODE:CODE:NOROOT(0)
//  364 static void zclZigbeeReceiver_IdentifyCB( zclIdentify_t *pCmd )
zclZigbeeReceiver_IdentifyCB:
        CFI Block cfiBlock19 Using cfiCommon0
        CFI Function zclZigbeeReceiver_IdentifyCB
//  365 {
        FUNCALL zclZigbeeReceiver_IdentifyCB, zclZigbeeReceiver_ProcessIdentifyTimeChange
        LOCFRAME ISTACK, 2, STACK
        LOCFRAME PSTACK, 0, STACK
        LOCFRAME XSTACK, 0, STACK
        LOCFRAME IOVERLAY, 0, STATIC
        LOCFRAME DOVERLAY, 0, STATIC
        ARGFRAME ISTACK, 2, STACK
        ARGFRAME PSTACK, 0, STACK
        ARGFRAME XSTACK, 0, STACK
        ARGFRAME IOVERLAY, 0, STATIC
        ARGFRAME DOVERLAY, 0, STATIC
        PUSH    DPL
        CFI DPL0 Frame(CFA_SP, 4)
        CFI CFA_SP SP+-4
        PUSH    DPH
        CFI DPH0 Frame(CFA_SP, 5)
        CFI CFA_SP SP+-5
        ; Saved register size: 2
        ; Auto size: 0
//  366   zclZigbeeRecv_IdentifyTime = pCmd->identifyTime;
        MOV     DPL,R2
        MOV     DPH,R3
        INC     DPTR
        INC     DPTR
        MOVX    A,@DPTR
        MOV     R0,A
        INC     DPTR
        MOVX    A,@DPTR
        MOV     R1,A
        MOV     DPTR,#zclZigbeeRecv_IdentifyTime
        MOV     A,R0
        MOVX    @DPTR,A
        INC     DPTR
        MOV     A,R1
        MOVX    @DPTR,A
//  367   zclZigbeeReceiver_ProcessIdentifyTimeChange();
        ; Setup parameters for call to function zclZigbeeReceiver_ProcessIdentifyTimeChange
        LCALL   ??zclZigbeeReceiver_ProcessIdentifyTimeChange?r
//  368 }
        SJMP    ?Subroutine4
        CFI EndBlock cfiBlock19
//  369 
//  370 /*********************************************************************
//  371  * @fn      zclZigbeeReceiver_IdentifyQueryRspCB
//  372  * @brief   Callback from the ZCL General Cluster Library when
//  373  *          it received an Identity Query Response Command for this application.
//  374  * @param   srcAddr - requestor's address
//  375  *          timeout - number of seconds to identify yourself (valid for query response)
//  376  */

        RSEG BANKED_CODE:CODE:NOROOT(0)
//  377 static void zclZigbeeReceiver_IdentifyQueryRspCB( zclIdentifyQueryRsp_t *pRsp )
zclZigbeeReceiver_IdentifyQueryRspCB:
        CFI Block cfiBlock20 Using cfiCommon0
        CFI Function zclZigbeeReceiver_IdentifyQueryRspCB
//  378 {
        ; Saved register size: 0
        ; Auto size: 0
//  379   (void)pRsp; // Query Response (with timeout value)
//  380 }
        LJMP    ?BRET
        CFI EndBlock cfiBlock20
//  381 
//  382 /*********************************************************************
//  383  * @fn      zclZigbeeReceiver_OnOffCB
//  384  * @brief   Callback from the ZCL General Cluster Library when
//  385  *          it received an On/Off Command for this application.
//  386  * @param   cmd - COMMAND_ON, COMMAND_OFF or COMMAND_TOGGLE
//  387  */

        RSEG BANKED_CODE:CODE:NOROOT(0)
//  388 static void zclZigbeeReceiver_OnOffCB( uint8 cmd )
zclZigbeeReceiver_OnOffCB:
        CFI Block cfiBlock21 Using cfiCommon0
        CFI Function zclZigbeeReceiver_OnOffCB
//  389 { 
        FUNCALL zclZigbeeReceiver_OnOffCB, HalLedSet
        LOCFRAME ISTACK, 2, STACK
        LOCFRAME PSTACK, 0, STACK
        LOCFRAME XSTACK, 0, STACK
        LOCFRAME IOVERLAY, 0, STATIC
        LOCFRAME DOVERLAY, 0, STATIC
        ARGFRAME ISTACK, 2, STACK
        ARGFRAME PSTACK, 0, STACK
        ARGFRAME XSTACK, 0, STACK
        ARGFRAME IOVERLAY, 0, STATIC
        ARGFRAME DOVERLAY, 0, STATIC
        FUNCALL zclZigbeeReceiver_OnOffCB, HalLedSet
        LOCFRAME ISTACK, 2, STACK
        LOCFRAME PSTACK, 0, STACK
        LOCFRAME XSTACK, 0, STACK
        LOCFRAME IOVERLAY, 0, STATIC
        LOCFRAME DOVERLAY, 0, STATIC
        ARGFRAME ISTACK, 2, STACK
        ARGFRAME PSTACK, 0, STACK
        ARGFRAME XSTACK, 0, STACK
        ARGFRAME IOVERLAY, 0, STATIC
        ARGFRAME DOVERLAY, 0, STATIC
        PUSH    DPL
        CFI DPL0 Frame(CFA_SP, 4)
        CFI CFA_SP SP+-4
        PUSH    DPH
        CFI DPH0 Frame(CFA_SP, 5)
        CFI CFA_SP SP+-5
        ; Saved register size: 2
        ; Auto size: 0
//  390   if ( cmd == COMMAND_ON ) // Turn on the light
        MOV     A,#0x1
        XRL     A,R1
        JNZ     ??zclZigbeeReceiver_OnOffCB_0
//  391     zclZigbeeRecv_OnOff = LIGHT_ON;
??zclZigbeeReceiver_OnOffCB_1:
        MOV     A,#0x1
??zclZigbeeReceiver_OnOffCB_2:
        MOV     DPTR,#zclZigbeeRecv_OnOff
        MOVX    @DPTR,A
//  392 
//  393   else if ( cmd == COMMAND_OFF ) // Turn off the light
//  394     zclZigbeeRecv_OnOff = LIGHT_OFF;
//  395 
//  396   else // Toggle the light
//  397   {
//  398     if ( zclZigbeeRecv_OnOff == LIGHT_OFF )
//  399           zclZigbeeRecv_OnOff = LIGHT_ON;
//  400     else
//  401           zclZigbeeRecv_OnOff = LIGHT_OFF;
//  402   }
//  403 
//  404   // In this sample app, we use LED4 to simulate the Light  
//  405   if ( zclZigbeeRecv_OnOff == LIGHT_ON )
//  406   {
//  407     HalLedSet( HAL_LED_2, HAL_LED_MODE_ON ); // setting the LED_1 on
        ; Setup parameters for call to function HalLedSet
        MOV     R2,A
        MOV     R1,#0x2
        LCALL   ??HalLedSet?relay
//  408   }
//  409   else
//  410     HalLedSet( HAL_LED_2, HAL_LED_MODE_OFF ); // setting the LED_1 off
//  411 }
        SJMP    ?Subroutine4
??zclZigbeeReceiver_OnOffCB_0:
        MOV     A,R1
        JNZ     ??zclZigbeeReceiver_OnOffCB_3
??zclZigbeeReceiver_OnOffCB_4:
        CLR     A
        SJMP    ??zclZigbeeReceiver_OnOffCB_2
??zclZigbeeReceiver_OnOffCB_3:
        MOV     DPTR,#zclZigbeeRecv_OnOff
        MOVX    A,@DPTR
        JNZ     ??zclZigbeeReceiver_OnOffCB_4
        SJMP    ??zclZigbeeReceiver_OnOffCB_1
        CFI EndBlock cfiBlock21
//  412 /****************************************************************************** 
//  413  * 
//  414  *  Functions for processing ZCL Foundation incoming Command/Response messages
//  415  *
//  416  *****************************************************************************/
//  417 
//  418 /*********************************************************************
//  419  * @fn      zclZigbeeReceiver_ProcessIncomingMsg
//  420  * @brief   Process ZCL Foundation incoming message
//  421  * @param   pInMsg - pointer to the received message
//  422  */
//  423 static void zclZigbeeReceiver_ProcessIncomingMsg( zclIncomingMsg_t *pInMsg)
//  424 {
//  425   switch ( pInMsg->zclHdr.commandID )
//  426   {
//  427 #ifdef ZCL_READ
//  428     case ZCL_CMD_READ_RSP:
//  429       zclZigbeeReceiver_ProcessInReadRspCmd( pInMsg );
//  430       break;
//  431 #endif
//  432       
//  433 #ifdef ZCL_WRITE    
//  434     case ZCL_CMD_WRITE_RSP:
//  435       zclZigbeeReceiver_ProcessInWriteRspCmd( pInMsg );
//  436       break;
//  437 #endif
//  438       
//  439 #ifdef ZCL_REPORT
//  440     case ZCL_CMD_CONFIG_REPORT: // See ZCL Test Applicaiton (zcl_testapp.c) for sample code on Attribute Reporting
//  441       //zclSampleLight_ProcessInConfigReportCmd( pInMsg );
//  442       break;
//  443     
//  444     case ZCL_CMD_CONFIG_REPORT_RSP:
//  445       //zclSampleLight_ProcessInConfigReportRspCmd( pInMsg );
//  446       break;
//  447     
//  448     case ZCL_CMD_READ_REPORT_CFG:
//  449       //zclSampleLight_ProcessInReadReportCfgCmd( pInMsg );
//  450       break;
//  451     
//  452     case ZCL_CMD_READ_REPORT_CFG_RSP:
//  453       //zclSampleLight_ProcessInReadReportCfgRspCmd( pInMsg );
//  454       break;
//  455     
//  456     case ZCL_CMD_REPORT:
//  457       //zclSampleLight_ProcessInReportCmd( pInMsg );
//  458       break;
//  459 #endif   
//  460       
//  461     case ZCL_CMD_DEFAULT_RSP:
//  462       zclZigbeeReceiver_ProcessInDefaultRspCmd( pInMsg );
//  463       break;
//  464       
//  465 #ifdef ZCL_DISCOVER     
//  466     case ZCL_CMD_DISCOVER_RSP:
//  467       zclZigbeeReceiver_ProcessInDiscRspCmd( pInMsg );
//  468       break;
//  469 #endif
//  470       
//  471     default:
//  472       break;
//  473   }
//  474   if ( pInMsg->attrCmd )
//  475     osal_mem_free( pInMsg->attrCmd );
//  476 }
//  477 
//  478 #ifdef ZCL_READ
//  479 /*********************************************************************
//  480  * @fn      zclZigbeeReceiver_ProcessInReadRspCmd
//  481  * @brief   Process the "Profile" Read Response Command
//  482  * @param   pInMsg - incoming message to process
//  483  */
//  484 static uint8 zclZigbeeReceiver_ProcessInReadRspCmd( zclIncomingMsg_t *pInMsg )
//  485 {
//  486   zclReadRspCmd_t *readRspCmd;
//  487   uint8 i;
//  488 
//  489   readRspCmd = (zclReadRspCmd_t *)pInMsg->attrCmd;
//  490   for (i = 0; i < readRspCmd->numAttr; i++)
//  491   {
//  492     // Notify the originator of the results of the original read attributes attempt and, 
//  493     // for each successfull request, the value of the requested attribute
//  494   }
//  495   return TRUE; 
//  496 }
//  497 #endif // ZCL_READ
//  498 
//  499 #ifdef ZCL_WRITE
//  500 /*********************************************************************
//  501  * @fn      zclZigbeeReceiver_ProcessInWriteRspCmd
//  502  * @brief   Process the "Profile" Write Response Command
//  503  * @param   pInMsg - incoming message to process
//  504  */
//  505 static uint8 zclZigbeeReceiver_ProcessInWriteRspCmd( zclIncomingMsg_t *pInMsg )
//  506 {
//  507   zclWriteRspCmd_t *writeRspCmd;
//  508   uint8 i;
//  509 
//  510   writeRspCmd = (zclWriteRspCmd_t *)pInMsg->attrCmd;
//  511   for (i = 0; i < writeRspCmd->numAttr; i++)
//  512   {
//  513     // Notify the device of the results of the its original write attributes command.
//  514   }
//  515   return TRUE; 
//  516 }
//  517 #endif // ZCL_WRITE
//  518 
//  519 /*********************************************************************
//  520  * @fn      zclZigbeeReceiver_ProcessInDefaultRspCmd
//  521  * @brief   Process the "Profile" Default Response Command
//  522  * @param   pInMsg - incoming message to process
//  523  */
//  524 static uint8 zclZigbeeReceiver_ProcessInDefaultRspCmd( zclIncomingMsg_t *pInMsg )
//  525 {
//  526   // zclDefaultRspCmd_t *defaultRspCmd = (zclDefaultRspCmd_t *)pInMsg->attrCmd; 
//  527   // Device is notified of the Default Response command.
//  528   (void)pInMsg;
//  529   return TRUE; 
//  530 }
//  531 
//  532 #ifdef ZCL_DISCOVER
//  533 /*********************************************************************
//  534  * @fn      zclZigbeeReceiver_ProcessInDiscRspCmd
//  535  * @brief   Process the "Profile" Discover Response Command
//  536  * @param   pInMsg - incoming message to process
//  537  */
//  538 static uint8 zclZigbeeReceiver_ProcessInDiscRspCmd( zclIncomingMsg_t *pInMsg )
//  539 {
//  540   zclDiscoverRspCmd_t *discoverRspCmd;
//  541   uint8 i;
//  542   
//  543   discoverRspCmd = (zclDiscoverRspCmd_t *)pInMsg->attrCmd;
//  544   for ( i = 0; i < discoverRspCmd->numAttr; i++ )
//  545   {
//  546     // Device is notified of the result of its attribute discovery command.
//  547   }
//  548   return TRUE;
//  549 }
//  550 #endif // ZCL_DISCOVER
//  551 
//  552 /****************************************************************************
//  553 ****************************************************************************/
//  554 
//  555 /*********************************************************************
//  556  * @fn      zclUARTMsg_CallBack
//  557  * @brief   Send data OTA.
//  558  * @param   port - UART port.
//  559  * @param   event - the UART port event flag.
//  560  */

        RSEG BANKED_CODE:CODE:NOROOT(0)
//  561 void zclUARTMsg_CallBack(uint8 port, uint8 event)
zclUARTMsg_CallBack:
        CFI Block cfiBlock22 Using cfiCommon0
        CFI Function zclUARTMsg_CallBack
//  562 {
        FUNCALL zclUARTMsg_CallBack, Hal_UART_RxBufLen
        LOCFRAME ISTACK, 0, STACK
        LOCFRAME PSTACK, 0, STACK
        LOCFRAME XSTACK, 10, STACK
        LOCFRAME IOVERLAY, 0, STATIC
        LOCFRAME DOVERLAY, 0, STATIC
        ARGFRAME ISTACK, 0, STACK
        ARGFRAME PSTACK, 0, STACK
        ARGFRAME XSTACK, 10, STACK
        ARGFRAME IOVERLAY, 0, STATIC
        ARGFRAME DOVERLAY, 0, STATIC
        FUNCALL zclUARTMsg_CallBack, Hal_UART_RxBufLen
        LOCFRAME ISTACK, 0, STACK
        LOCFRAME PSTACK, 0, STACK
        LOCFRAME XSTACK, 10, STACK
        LOCFRAME IOVERLAY, 0, STATIC
        LOCFRAME DOVERLAY, 0, STATIC
        ARGFRAME ISTACK, 0, STACK
        ARGFRAME PSTACK, 0, STACK
        ARGFRAME XSTACK, 10, STACK
        ARGFRAME IOVERLAY, 0, STATIC
        ARGFRAME DOVERLAY, 0, STATIC
        FUNCALL zclUARTMsg_CallBack, HalUARTRead
        LOCFRAME ISTACK, 0, STACK
        LOCFRAME PSTACK, 0, STACK
        LOCFRAME XSTACK, 10, STACK
        LOCFRAME IOVERLAY, 0, STATIC
        LOCFRAME DOVERLAY, 0, STATIC
        ARGFRAME ISTACK, 0, STACK
        ARGFRAME PSTACK, 0, STACK
        ARGFRAME XSTACK, 10, STACK
        ARGFRAME IOVERLAY, 0, STATIC
        ARGFRAME DOVERLAY, 0, STATIC
        FUNCALL zclUARTMsg_CallBack, osal_set_event
        LOCFRAME ISTACK, 0, STACK
        LOCFRAME PSTACK, 0, STACK
        LOCFRAME XSTACK, 10, STACK
        LOCFRAME IOVERLAY, 0, STATIC
        LOCFRAME DOVERLAY, 0, STATIC
        ARGFRAME ISTACK, 0, STACK
        ARGFRAME PSTACK, 0, STACK
        ARGFRAME XSTACK, 10, STACK
        ARGFRAME IOVERLAY, 0, STATIC
        ARGFRAME DOVERLAY, 0, STATIC
        MOV     A,#-0xa
        LCALL   ?BANKED_ENTER_XDATA
        CFI DPH0 load(1, XDATA, add(CFA_XSP16, literal(-1)))
        CFI DPL0 load(1, XDATA, add(CFA_XSP16, literal(-2)))
        CFI ?BRET_EXT load(1, XDATA, add(CFA_XSP16, literal(-3)))
        CFI ?RET_HIGH load(1, XDATA, add(CFA_XSP16, literal(-4)))
        CFI ?RET_LOW load(1, XDATA, add(CFA_XSP16, literal(-5)))
        CFI R7 load(1, XDATA, add(CFA_XSP16, literal(-6)))
        CFI V1 load(1, XDATA, add(CFA_XSP16, literal(-7)))
        CFI V0 load(1, XDATA, add(CFA_XSP16, literal(-8)))
        CFI VB load(1, XDATA, add(CFA_XSP16, literal(-9)))
        CFI R6 load(1, XDATA, add(CFA_XSP16, literal(-10)))
        CFI CFA_SP SP+0
        CFI CFA_XSP16 add(XSP16, 10)
        ; Saved register size: 10
        ; Auto size: 0
//  563   (void)port;
//  564   
//  565   if(Hal_UART_RxBufLen( MT_UART_DEFAULT_PORT) > 0 )
        ; Setup parameters for call to function Hal_UART_RxBufLen
        MOV     R1,#0x0
        LCALL   ??Hal_UART_RxBufLen?relay
        MOV     A,R2
        JNZ     ??zclUARTMsg_CallBack_0
        MOV     A,R3
??zclUARTMsg_CallBack_0:
        JZ      ??zclUARTMsg_CallBack_1
//  566   {
//  567       len = Hal_UART_RxBufLen( MT_UART_DEFAULT_PORT );
        ; Setup parameters for call to function Hal_UART_RxBufLen
        MOV     R1,#0x0
        LCALL   ??Hal_UART_RxBufLen?relay
        MOV     A,R2
        MOV     DPTR,#len
        MOVX    @DPTR,A
//  568       HalUARTRead( MT_UART_DEFAULT_PORT, TransmitApp_Msg, len );
        ; Setup parameters for call to function HalUARTRead
        MOV     R4,A
        MOV     R5,#0x0
        MOV     R2,#(TransmitApp_Msg & 0xff)
        MOV     R3,#((TransmitApp_Msg >> 8) & 0xff)
        MOV     R1,#0x0
        LCALL   ??HalUARTRead?relay
//  569       osal_set_event( zclZigbeeReceiver_TaskID, UART_MSG_EVT );
        ; Setup parameters for call to function osal_set_event
        MOV     R2,#0x2
        MOV     R3,#0x0
        MOV     DPTR,#zclZigbeeReceiver_TaskID
        MOVX    A,@DPTR
        MOV     R1,A
        LCALL   ??osal_set_event?relay
        CFI EndBlock cfiBlock22
//  570   }
//  571 }
??zclUARTMsg_CallBack_1:
        REQUIRE ?Subroutine5
        ; // Fall through to label ?Subroutine5

        RSEG BANKED_CODE:CODE:NOROOT(0)
?Subroutine5:
        CFI Block cfiBlock23 Using cfiCommon0
        CFI NoFunction
        CFI CFA_SP SP+0
        CFI CFA_XSP16 add(XSP16, 10)
        CFI VB load(1, XDATA, add(CFA_XSP16, literal(-9)))
        CFI DPL0 load(1, XDATA, add(CFA_XSP16, literal(-2)))
        CFI DPH0 load(1, XDATA, add(CFA_XSP16, literal(-1)))
        CFI R6 load(1, XDATA, add(CFA_XSP16, literal(-10)))
        CFI R7 load(1, XDATA, add(CFA_XSP16, literal(-6)))
        CFI V0 load(1, XDATA, add(CFA_XSP16, literal(-8)))
        CFI V1 load(1, XDATA, add(CFA_XSP16, literal(-7)))
        CFI ?BRET_EXT load(1, XDATA, add(CFA_XSP16, literal(-3)))
        CFI ?RET_HIGH load(1, XDATA, add(CFA_XSP16, literal(-4)))
        CFI ?RET_LOW load(1, XDATA, add(CFA_XSP16, literal(-5)))
        MOV     R7,#0x2
        LJMP    ?BANKED_LEAVE_XDATA
        CFI EndBlock cfiBlock23
//  572 
//  573 /*********************************************************************
//  574  * @fn      zclUartReceiver
//  575  * @brief   The coordinator receive command.
//  576  */

        RSEG BANKED_CODE:CODE:NOROOT(0)
//  577 void zclUartReceiver( void )
zclUartReceiver:
        CFI Block cfiBlock24 Using cfiCommon0
        CFI Function zclUartReceiver
//  578 { 
        FUNCALL zclUartReceiver, show
        LOCFRAME ISTACK, 0, STACK
        LOCFRAME PSTACK, 0, STACK
        LOCFRAME XSTACK, 10, STACK
        LOCFRAME IOVERLAY, 0, STATIC
        LOCFRAME DOVERLAY, 0, STATIC
        ARGFRAME ISTACK, 0, STACK
        ARGFRAME PSTACK, 0, STACK
        ARGFRAME XSTACK, 10, STACK
        ARGFRAME IOVERLAY, 0, STATIC
        ARGFRAME DOVERLAY, 0, STATIC
        FUNCALL zclUartReceiver, HalLcdWriteChar
        LOCFRAME ISTACK, 0, STACK
        LOCFRAME PSTACK, 0, STACK
        LOCFRAME XSTACK, 10, STACK
        LOCFRAME IOVERLAY, 0, STATIC
        LOCFRAME DOVERLAY, 0, STATIC
        ARGFRAME ISTACK, 0, STACK
        ARGFRAME PSTACK, 0, STACK
        ARGFRAME XSTACK, 10, STACK
        ARGFRAME IOVERLAY, 0, STATIC
        ARGFRAME DOVERLAY, 0, STATIC
        FUNCALL zclUartReceiver, zcl_SendCommand
        LOCFRAME ISTACK, 0, STACK
        LOCFRAME PSTACK, 0, STACK
        LOCFRAME XSTACK, 21, STACK
        LOCFRAME IOVERLAY, 0, STATIC
        LOCFRAME DOVERLAY, 0, STATIC
        ARGFRAME ISTACK, 0, STACK
        ARGFRAME PSTACK, 0, STACK
        ARGFRAME XSTACK, 21, STACK
        ARGFRAME IOVERLAY, 0, STATIC
        ARGFRAME DOVERLAY, 0, STATIC
        MOV     A,#-0xa
        LCALL   ?BANKED_ENTER_XDATA
        CFI DPH0 load(1, XDATA, add(CFA_XSP16, literal(-1)))
        CFI DPL0 load(1, XDATA, add(CFA_XSP16, literal(-2)))
        CFI ?BRET_EXT load(1, XDATA, add(CFA_XSP16, literal(-3)))
        CFI ?RET_HIGH load(1, XDATA, add(CFA_XSP16, literal(-4)))
        CFI ?RET_LOW load(1, XDATA, add(CFA_XSP16, literal(-5)))
        CFI R7 load(1, XDATA, add(CFA_XSP16, literal(-6)))
        CFI V1 load(1, XDATA, add(CFA_XSP16, literal(-7)))
        CFI V0 load(1, XDATA, add(CFA_XSP16, literal(-8)))
        CFI VB load(1, XDATA, add(CFA_XSP16, literal(-9)))
        CFI R6 load(1, XDATA, add(CFA_XSP16, literal(-10)))
        CFI CFA_SP SP+0
        CFI CFA_XSP16 add(XSP16, 10)
        ; Saved register size: 10
        ; Auto size: 0
//  579   show("zclUartReceiver");
        ; Setup parameters for call to function show
        MOV     R2,#(`?<Constant "zclUartReceiver">` & 0xff)
        MOV     R3,#((`?<Constant "zclUartReceiver">` >> 8) & 0xff)
        LCALL   ??show?relay
//  580   
//  581   for(uint8 length = 0; length < len; length++)
        MOV     R6,#0x0
        SJMP    ??zclUartReceiver_0
//  582   {
//  583     uart_recv[length] = TransmitApp_Msg[length];
??zclUartReceiver_1:
        MOV     DPL,R6
        MOV     R0,DPL
        MOV     A,R0
        ADD     A,#(TransmitApp_Msg & 0xff)
        MOV     DPL,A
        CLR     A
        ADDC    A,#((TransmitApp_Msg >> 8) & 0xff)
        MOV     DPH,A
        MOVX    A,@DPTR
        MOV     R3,A
        MOV     A,R0
        ADD     A,#(uart_recv & 0xff)
        MOV     DPL,A
        CLR     A
        ADDC    A,#((uart_recv >> 8) & 0xff)
        MOV     DPH,A
        MOV     A,R3
        MOVX    @DPTR,A
//  584   #if defined( LCD_SUPPORTED )
//  585     HalLcdWriteChar(HAL_LCD_LINE_4, length, uart_recv[length]);
        ; Setup parameters for call to function HalLcdWriteChar
        MOV     A,R6
        MOV     R2,A
        MOV     R1,#0x4
        LCALL   ??HalLcdWriteChar?relay
//  586   #endif
//  587   }
        INC     R6
??zclUartReceiver_0:
        MOV     DPTR,#len
        MOVX    A,@DPTR
        MOV     R2,A
        MOV     A,R6
        CLR     C
        SUBB    A,R2
        JC      ??zclUartReceiver_1
//  588   
//  589   // Set the End Device state
//  590   zclZigbeeRecv_DstAddr.endPoint = 12;
        MOV     A,#0xc
        MOV     DPTR,#(zclZigbeeRecv_DstAddr + 9)
        MOVX    @DPTR,A
//  591   zclZigbeeRecv_DstAddr.addr.shortAddr = 0xFFFF;
        MOV     DPTR,#zclZigbeeRecv_DstAddr
        MOV     A,#-0x1
        MOVX    @DPTR,A
        INC     DPTR
        MOVX    @DPTR,A
//  592   zclZigbeeRecv_DstAddr.addrMode = (afAddrMode_t)AddrBroadcast;
        MOV     A,#0xf
        MOV     DPTR,#(zclZigbeeRecv_DstAddr + 8)
        MOVX    @DPTR,A
//  593     
//  594   // Transmit the UART command to End Device
//  595   uint8 send = zcl_SendCommand( ZIGBEERECV_ENDPOINT, 
//  596                                 &zclZigbeeRecv_DstAddr,
//  597                                 ZCL_CLUSTER_ID_GEN_ON_OFF,
//  598                                 COMMAND_TOGGLE,
//  599                                 TRUE,
//  600                                 ZCL_FRAME_CLIENT_SERVER_DIR,
//  601                                 false,
//  602                                 0,
//  603                                 0,
//  604                                 10,
//  605                                 uart_recv );
        ; Setup parameters for call to function zcl_SendCommand
        MOV     ?V0 + 0,#(uart_recv & 0xff)
        MOV     ?V0 + 1,#((uart_recv >> 8) & 0xff)
        MOV     R0,#?V0 + 0
        LCALL   ?PUSH_XSTACK_I_TWO
        CFI CFA_XSP16 add(XSP16, 12)
        MOV     ?V0 + 0,#0xa
        MOV     ?V0 + 1,#0x0
        MOV     R0,#?V0 + 0
        LCALL   ?PUSH_XSTACK_I_TWO
        CFI CFA_XSP16 add(XSP16, 14)
        MOV     ?V0 + 0,#0x0
        MOV     R0,#?V0 + 0
        LCALL   ?PUSH_XSTACK_I_ONE
        CFI CFA_XSP16 add(XSP16, 15)
        MOV     R0,#?V0 + 0
        LCALL   ?PUSH_XSTACK_I_TWO
        CFI CFA_XSP16 add(XSP16, 17)
        MOV     R0,#?V0 + 0
        LCALL   ?PUSH_XSTACK_I_ONE
        CFI CFA_XSP16 add(XSP16, 18)
        MOV     R0,#?V0 + 0
        LCALL   ?PUSH_XSTACK_I_ONE
        CFI CFA_XSP16 add(XSP16, 19)
        MOV     ?V0 + 0,#0x1
        MOV     R0,#?V0 + 0
        LCALL   ?PUSH_XSTACK_I_ONE
        CFI CFA_XSP16 add(XSP16, 20)
        MOV     ?V0 + 0,#0x2
        MOV     R0,#?V0 + 0
        LCALL   ?PUSH_XSTACK_I_ONE
        CFI CFA_XSP16 add(XSP16, 21)
        MOV     R4,#0x6
        MOV     R5,#0x0
        MOV     R2,#(zclZigbeeRecv_DstAddr & 0xff)
        MOV     R3,#((zclZigbeeRecv_DstAddr >> 8) & 0xff)
        MOV     R1,#0xd
        LCALL   ??zcl_SendCommand?relay
        MOV     A,#0xb
        LCALL   ?DEALLOC_XSTACK8
        CFI CFA_XSP16 add(XSP16, 10)
//  606 }
        LJMP    ?Subroutine5 & 0xFFFF
        CFI EndBlock cfiBlock24

        RSEG XDATA_ID:CODE:NOROOT(0)
        DATA
`?<Initializer for bindingInClusters>`:
        DW 6, 8

        RSEG XDATA_ID:CODE:NOROOT(0)
        DATA
`?<Initializer for zigbeeReceiver_TestEp>`:
        DB 20
        DW zclZigbeeReceiver_TaskID, 0H
        DB 0

        RSEG XDATA_ID:CODE:NOROOT(0)
        DATA
`?<Initializer for zclZigbeeReceiver_CmdCallbac`:
        DW ??zclZigbeeReceiver_BasicResetCB?relay
        DW ??zclZigbeeReceiver_IdentifyCB?relay
        DW ??zclZigbeeReceiver_IdentifyQueryRspCB?relay
        DW ??zclZigbeeReceiver_OnOffCB?relay, 0H, 0H, 0H, 0H, 0H, 0H, 0H, 0H
        DW 0H, 0H
        DB 0, 0

        RSEG BANK_RELAYS:CODE:REORDER:NOROOT(0)
??ZSendMsgProcess?relay:
        LCALL   ?BDISPATCH
        DATA
        DC24    ZSendMsgProcess

        RSEG BANK_RELAYS:CODE:REORDER:NOROOT(0)
??zclZigbeeRecv_Init?relay:
        LCALL   ?BDISPATCH
        DATA
        DC24    zclZigbeeRecv_Init

        RSEG BANK_RELAYS:CODE:REORDER:NOROOT(0)
??zclZigbeeRecv_event_loop?relay:
        LCALL   ?BDISPATCH
        DATA
        DC24    zclZigbeeRecv_event_loop

        RSEG BANK_RELAYS:CODE:REORDER:NOROOT(0)
??zclZigbeeReceiver_ProcessIdentifyTimeChange?r:
        LCALL   ?BDISPATCH
        DATA
        DC24    zclZigbeeReceiver_ProcessIdentifyTimeChange

        RSEG BANK_RELAYS:CODE:REORDER:NOROOT(0)
??zclZigbeeReceiver_BasicResetCB?relay:
        LCALL   ?BDISPATCH
        DATA
        DC24    zclZigbeeReceiver_BasicResetCB

        RSEG BANK_RELAYS:CODE:REORDER:NOROOT(0)
??zclZigbeeReceiver_IdentifyCB?relay:
        LCALL   ?BDISPATCH
        DATA
        DC24    zclZigbeeReceiver_IdentifyCB

        RSEG BANK_RELAYS:CODE:REORDER:NOROOT(0)
??zclZigbeeReceiver_IdentifyQueryRspCB?relay:
        LCALL   ?BDISPATCH
        DATA
        DC24    zclZigbeeReceiver_IdentifyQueryRspCB

        RSEG BANK_RELAYS:CODE:REORDER:NOROOT(0)
??zclZigbeeReceiver_OnOffCB?relay:
        LCALL   ?BDISPATCH
        DATA
        DC24    zclZigbeeReceiver_OnOffCB

        RSEG BANK_RELAYS:CODE:REORDER:NOROOT(0)
??zclUARTMsg_CallBack?relay:
        LCALL   ?BDISPATCH
        DATA
        DC24    zclUARTMsg_CallBack

        RSEG BANK_RELAYS:CODE:REORDER:NOROOT(0)
??zclUartReceiver?relay:
        LCALL   ?BDISPATCH
        DATA
        DC24    zclUartReceiver

        RSEG XDATA_ROM_C:CONST:REORDER:NOROOT(0)
        DATA
`?<Constant "\\r\\n">`:
        DB "\015\012"

        RSEG XDATA_ROM_C:CONST:REORDER:NOROOT(0)
        DATA
`?<Constant "RECV_GROUP">`:
        DB "RECV_GROUP"

        RSEG XDATA_ROM_C:CONST:REORDER:NOROOT(0)
        DATA
`?<Constant "ZCL_INCOMING_MSG">`:
        DB "ZCL_INCOMING_MSG"

        RSEG XDATA_ROM_C:CONST:REORDER:NOROOT(0)
        DATA
`?<Constant "KEY_CHANGE">`:
        DB "KEY_CHANGE"

        RSEG XDATA_ROM_C:CONST:REORDER:NOROOT(0)
        DATA
`?<Constant "\\r 1 \\n">`:
        DB "\015 1 \012"

        RSEG XDATA_ROM_C:CONST:REORDER:NOROOT(0)
        DATA
`?<Constant "\\r 140 \\n">`:
        DB "\015 140 \012"

        RSEG XDATA_ROM_C:CONST:REORDER:NOROOT(0)
        DATA
`?<Constant "Hi">`:
        DB "Hi"

        RSEG XDATA_ROM_C:CONST:REORDER:NOROOT(0)
        DATA
`?<Constant "ZDO_MATCH_DESC_RSP_SENT">`:
        DB "ZDO_MATCH_DESC_RSP_SENT"

        RSEG XDATA_ROM_C:CONST:REORDER:NOROOT(0)
        DATA
`?<Constant "Chris:ZDO_MSG_SEND_EVT">`:
        DB "Chris:ZDO_MSG_SEND_EVT"

        RSEG XDATA_ROM_C:CONST:REORDER:NOROOT(0)
        DATA
`?<Constant "SAMPLELIGHT_IDENTIFY_...">`:
        DB "SAMPLELIGHT_IDENTIFY_TIMEOUT_EVT"

        RSEG XDATA_ROM_C:CONST:REORDER:NOROOT(0)
        DATA
`?<Constant "UART_MSG_EVT">`:
        DB "UART_MSG_EVT"

        RSEG XDATA_ROM_C:CONST:REORDER:NOROOT(0)
        DATA
`?<Constant "KEYPAD_MSG_EVT">`:
        DB "KEYPAD_MSG_EVT"

        RSEG XDATA_ROM_C:CONST:REORDER:NOROOT(0)
        DATA
`?<Constant "zclUartReceiver">`:
        DB "zclUartReceiver"

        END
// 
// 1 117 bytes in segment BANKED_CODE
//    60 bytes in segment BANK_RELAYS
//    40 bytes in segment XDATA_I
//    40 bytes in segment XDATA_ID
//   183 bytes in segment XDATA_ROM_C
//   340 bytes in segment XDATA_Z
// 
// 1 217 bytes of CODE  memory
//   183 bytes of CONST memory
//   380 bytes of XDATA memory
//
//Errors: none
//Warnings: 4
