///////////////////////////////////////////////////////////////////////////////
//                                                                            /
// IAR C/C++ Compiler V7.51A/W32 for 8051               04/Sep/2013  16:31:42 /
// Copyright 2004-2009 IAR Systems AB.                                        /
//                                                                            /
//    Core               =  plain                                             /
//    Code model         =  banked                                            /
//    Data model         =  large                                             /
//    Calling convention =  xdata reentrant                                   /
//    Constant location  =  data_rom                                          /
//    Dptr setup         =  1,16                                              /
//    Source file        =  D:\GitHub\z-stack\Sensor Network                  /
//                          Example\Projects\zstack\Sensor Network            /
//                          Application\ZIGBEE Coordinator &                  /
//                          Router\Source\zcl_zigbee receiver.c               /
//    Command line       =  -f "D:\GitHub\z-stack\Sensor Network              /
//                          Example\Projects\zstack\Sensor Network            /
//                          Application\ZIGBEE Coordinator &                  /
//                          Router\CC2530DB\..\..\..\Tools\CC2530DB\f8wCoord. /
//                          cfg" (-DCPU32MHZ -DROOT=__near_func               /
//                          -DMAC_CFG_APP_PENDING_QUEUE=TRUE                  /
//                          -DZDO_COORDINATOR -DRTR_NWK -DBLINK_LEDS) -f      /
//                          "D:\GitHub\z-stack\Sensor Network                 /
//                          Example\Projects\zstack\Sensor Network            /
//                          Application\ZIGBEE Coordinator &                  /
//                          Router\CC2530DB\..\..\..\Tools\CC2530DB\f8wConfig /
//                          .cfg" (-DSECURE=0 -DZG_SECURE_DYNAMIC=0           /
//                          -DREFLECTOR -DDEFAULT_CHANLIST=0x00000800         /
//                          -DZDAPP_CONFIG_PAN_ID=0xFFFF                      /
//                          -DNWK_START_DELAY=100 -DEXTENDED_JOINING_RANDOM_M /
//                          ASK=0x007F -DBEACON_REQUEST_DELAY=100             /
//                          -DBEACON_REQ_DELAY_MASK=0x00FF                    /
//                          -DROUTE_EXPIRY_TIME=30 -DAPSC_ACK_WAIT_DURATION_P /
//                          OLLED=3000 -DNWK_INDIRECT_MSG_TIMEOUT=7           /
//                          -DMAX_RREQ_ENTRIES=8 -DAPSC_MAX_FRAME_RETRIES=3   /
//                          -DNWK_MAX_DATA_RETRIES=2                          /
//                          -DMAX_POLL_FAILURE_RETRIES=2 -DMAX_BCAST=9        /
//                          -DAPS_MAX_GROUPS=16 -DMAX_RTG_ENTRIES=40          /
//                          -DNWK_MAX_BINDING_ENTRIES=4                       /
//                          -DMAX_BINDING_CLUSTER_IDS=4                       /
//                          "-DDEFAULT_KEY={0x01, 0x03, 0x05, 0x07, 0x09,     /
//                          0x0B, 0x0D, 0x0F, 0x00, 0x02, 0x04, 0x06, 0x08,   /
//                          0x0A, 0x0C, 0x0D}" -DMAC_MAX_FRAME_SIZE=116       /
//                          "-DCONST=const __code" -DGENERIC=__generic        /
//                          -DRFD_RCVC_ALWAYS_ON=TRUE -DPOLL_RATE=1000        /
//                          -DQUEUED_POLL_RATE=100 -DRESPONSE_POLL_RATE=100   /
//                          -DREJOIN_POLL_RATE=440) -f                        /
//                          "D:\GitHub\z-stack\Sensor Network                 /
//                          Example\Projects\zstack\Sensor Network            /
//                          Application\ZIGBEE Coordinator &                  /
//                          Router\CC2530DB\..\..\..\Tools\CC2530DB\f8wZCL.cf /
//                          g" (-DZCL_READ -DZCL_WRITE -DZCL_BASIC            /
//                          -DZCL_IDENTIFY -DZCL_ON_OFF -DZCL_KEY_ESTABLISH   /
//                          -DZCL_LOAD_CONTROL -DZCL_SIMPLE_METERING          /
//                          -DZCL_PRICING) -DZCL_MESSAGE                      /
//                          "D:\GitHub\z-stack\Sensor Network                 /
//                          Example\Projects\zstack\Sensor Network            /
//                          Application\ZIGBEE Coordinator &                  /
//                          Router\Source\zcl_zigbee receiver.c" -D CC2530    /
//                          -D ZTOOL_P1 -D MT_TASK -D MT_APP_FUNC -D          /
//                          MT_SYS_FUNC -D MT_ZDO_FUNC -D                     /
//                          LCD_SUPPORTED=DEBUG -D Coor_receiver -D           /
//                          xHAL_KEYPAD -D xPA2591 -lC                        /
//                          "D:\GitHub\z-stack\Sensor Network                 /
//                          Example\Projects\zstack\Sensor Network            /
//                          Application\ZIGBEE Coordinator &                  /
//                          Router\CC2530DB\Coordinator_KB_PA\List\" -lA      /
//                          "D:\GitHub\z-stack\Sensor Network                 /
//                          Example\Projects\zstack\Sensor Network            /
//                          Application\ZIGBEE Coordinator &                  /
//                          Router\CC2530DB\Coordinator_KB_PA\List\"          /
//                          --diag_suppress Pe001,Pa010 -o                    /
//                          "D:\GitHub\z-stack\Sensor Network                 /
//                          Example\Projects\zstack\Sensor Network            /
//                          Application\ZIGBEE Coordinator &                  /
//                          Router\CC2530DB\Coordinator_KB_PA\Obj\" -e        /
//                          --require_prototypes --debug --core=plain         /
//                          --dptr=16,1 --data_model=large                    /
//                          --code_model=banked --calling_convention=xdata_re /
//                          entrant --place_constants=data_rom                /
//                          --nr_virtual_regs 16 -I                           /
//                          "D:\GitHub\z-stack\Sensor Network                 /
//                          Example\Projects\zstack\Sensor Network            /
//                          Application\ZIGBEE Coordinator &                  /
//                          Router\CC2530DB\" -I "D:\GitHub\z-stack\Sensor    /
//                          Network Example\Projects\zstack\Sensor Network    /
//                          Application\ZIGBEE Coordinator &                  /
//                          Router\CC2530DB\..\SOURCE\" -I                    /
//                          "D:\GitHub\z-stack\Sensor Network                 /
//                          Example\Projects\zstack\Sensor Network            /
//                          Application\ZIGBEE Coordinator &                  /
//                          Router\CC2530DB\..\..\SOURCE\" -I                 /
//                          "D:\GitHub\z-stack\Sensor Network                 /
//                          Example\Projects\zstack\Sensor Network            /
//                          Application\ZIGBEE Coordinator &                  /
//                          Router\CC2530DB\..\..\..\ZMAIN\TI2530DB\" -I      /
//                          "D:\GitHub\z-stack\Sensor Network                 /
//                          Example\Projects\zstack\Sensor Network            /
//                          Application\ZIGBEE Coordinator &                  /
//                          Router\CC2530DB\..\..\..\..\..\COMPONENTS\MT\"    /
//                          -I "D:\GitHub\z-stack\Sensor Network              /
//                          Example\Projects\zstack\Sensor Network            /
//                          Application\ZIGBEE Coordinator &                  /
//                          Router\CC2530DB\..\..\..\..\..\COMPONENTS\HAL\INC /
//                          LUDE\" -I "D:\GitHub\z-stack\Sensor Network       /
//                          Example\Projects\zstack\Sensor Network            /
//                          Application\ZIGBEE Coordinator &                  /
//                          Router\CC2530DB\..\..\..\..\..\COMPONENTS\HAL\TAR /
//                          GET\CC2530KB\" -I "D:\GitHub\z-stack\Sensor       /
//                          Network Example\Projects\zstack\Sensor Network    /
//                          Application\ZIGBEE Coordinator &                  /
//                          Router\CC2530DB\..\..\..\..\..\COMPONENTS\OSAL\MC /
//                          U\CCSOC\" -I "D:\GitHub\z-stack\Sensor Network    /
//                          Example\Projects\zstack\Sensor Network            /
//                          Application\ZIGBEE Coordinator &                  /
//                          Router\CC2530DB\..\..\..\..\..\COMPONENTS\OSAL\IN /
//                          CLUDE\" -I "D:\GitHub\z-stack\Sensor Network      /
//                          Example\Projects\zstack\Sensor Network            /
//                          Application\ZIGBEE Coordinator &                  /
//                          Router\CC2530DB\..\..\..\..\..\COMPONENTS\STACK\A /
//                          F\" -I "D:\GitHub\z-stack\Sensor Network          /
//                          Example\Projects\zstack\Sensor Network            /
//                          Application\ZIGBEE Coordinator &                  /
//                          Router\CC2530DB\..\..\..\..\..\COMPONENTS\STACK\N /
//                          WK\" -I "D:\GitHub\z-stack\Sensor Network         /
//                          Example\Projects\zstack\Sensor Network            /
//                          Application\ZIGBEE Coordinator &                  /
//                          Router\CC2530DB\..\..\..\..\..\COMPONENTS\STACK\S /
//                          EC\" -I "D:\GitHub\z-stack\Sensor Network         /
//                          Example\Projects\zstack\Sensor Network            /
//                          Application\ZIGBEE Coordinator &                  /
//                          Router\CC2530DB\..\..\..\..\..\COMPONENTS\STACK\S /
//                          API\" -I "D:\GitHub\z-stack\Sensor Network        /
//                          Example\Projects\zstack\Sensor Network            /
//                          Application\ZIGBEE Coordinator &                  /
//                          Router\CC2530DB\..\..\..\..\..\COMPONENTS\STACK\S /
//                          YS\" -I "D:\GitHub\z-stack\Sensor Network         /
//                          Example\Projects\zstack\Sensor Network            /
//                          Application\ZIGBEE Coordinator &                  /
//                          Router\CC2530DB\..\..\..\..\..\COMPONENTS\STACK\Z /
//                          CL\" -I "D:\GitHub\z-stack\Sensor Network         /
//                          Example\Projects\zstack\Sensor Network            /
//                          Application\ZIGBEE Coordinator &                  /
//                          Router\CC2530DB\..\..\..\..\..\COMPONENTS\STACK\Z /
//                          DO\" -I "D:\GitHub\z-stack\Sensor Network         /
//                          Example\Projects\zstack\Sensor Network            /
//                          Application\ZIGBEE Coordinator &                  /
//                          Router\CC2530DB\..\..\..\..\..\COMPONENTS\ZMAC\F8 /
//                          W\" -I "D:\GitHub\z-stack\Sensor Network          /
//                          Example\Projects\zstack\Sensor Network            /
//                          Application\ZIGBEE Coordinator &                  /
//                          Router\CC2530DB\..\..\..\..\..\COMPONENTS\ZMAC\"  /
//                          -I "D:\GitHub\z-stack\Sensor Network              /
//                          Example\Projects\zstack\Sensor Network            /
//                          Application\ZIGBEE Coordinator &                  /
//                          Router\CC2530DB\..\..\..\..\..\COMPONENTS\SERVICE /
//                          S\SADDR\" -I "D:\GitHub\z-stack\Sensor Network    /
//                          Example\Projects\zstack\Sensor Network            /
//                          Application\ZIGBEE Coordinator &                  /
//                          Router\CC2530DB\..\..\..\..\..\COMPONENTS\SERVICE /
//                          S\SDATA\" -I "D:\GitHub\z-stack\Sensor Network    /
//                          Example\Projects\zstack\Sensor Network            /
//                          Application\ZIGBEE Coordinator &                  /
//                          Router\CC2530DB\..\..\..\..\..\COMPONENTS\MAC\INC /
//                          LUDE\" -I "D:\GitHub\z-stack\Sensor Network       /
//                          Example\Projects\zstack\Sensor Network            /
//                          Application\ZIGBEE Coordinator &                  /
//                          Router\CC2530DB\..\..\..\..\..\COMPONENTS\MAC\HIG /
//                          H_LEVEL\" -I "D:\GitHub\z-stack\Sensor Network    /
//                          Example\Projects\zstack\Sensor Network            /
//                          Application\ZIGBEE Coordinator &                  /
//                          Router\CC2530DB\..\..\..\..\..\COMPONENTS\MAC\LOW /
//                          _LEVEL\srf04\" -I "D:\GitHub\z-stack\Sensor       /
//                          Network Example\Projects\zstack\Sensor Network    /
//                          Application\ZIGBEE Coordinator &                  /
//                          Router\CC2530DB\..\..\..\..\..\COMPONENTS\MAC\LOW /
//                          _LEVEL\srf04\SINGLE_CHIP\" -I "C:\Program Files   /
//                          (x86)\IAR Systems\Embedded Workbench              /
//                          5.3\8051\INC\" -I "C:\Program Files (x86)\IAR     /
//                          Systems\Embedded Workbench 5.3\8051\INC\CLIB\"    /
//                          -Ohz                                              /
//    List file          =  D:\GitHub\z-stack\Sensor Network                  /
//                          Example\Projects\zstack\Sensor Network            /
//                          Application\ZIGBEE Coordinator &                  /
//                          Router\CC2530DB\Coordinator_KB_PA\List\zcl_zigbee /
//                           receiver.s51                                     /
//                                                                            /
//                                                                            /
///////////////////////////////////////////////////////////////////////////////

        NAME `zcl_zigbee receiver`

        RTMODEL "__calling_convention", "xdata_reentrant"
        RTMODEL "__code_model", "banked"
        RTMODEL "__core", "plain"
        RTMODEL "__data_model", "large"
        RTMODEL "__dptr_size", "16"
        RTMODEL "__extended_stack", "disabled"
        RTMODEL "__location_for_constants", "data"
        RTMODEL "__number_of_dptrs", "1"
        RTMODEL "__rt_version", "1"

        RSEG DOVERLAY:DATA:NOROOT(0)
        RSEG IOVERLAY:IDATA:NOROOT(0)
        RSEG ISTACK:IDATA:NOROOT(0)
        RSEG PSTACK:XDATA:NOROOT(0)
        RSEG XSTACK:XDATA:NOROOT(0)

        EXTERN ??ZSendMsgProcess?relay
        EXTERN ??zclUartReceiver?relay
        EXTERN ??zclZigbeeReceiver_ProcessIdentifyTimeChange?r
        EXTERN ?BANKED_ENTER_XDATA
        EXTERN ?BANKED_LEAVE_XDATA
        EXTERN ?BDISPATCH
        EXTERN ?BRET
        EXTERN ?DEALLOC_XSTACK8
        EXTERN ?PUSH_XSTACK_I_ONE
        EXTERN ?PUSH_XSTACK_I_THREE
        EXTERN ?PUSH_XSTACK_I_TWO
        EXTERN ?UC_SWITCH_SPARSE
        EXTERN ?US_SWITCH_SPARSE
        EXTERN ?V0
        EXTERN __INIT_XDATA_I
        EXTERN __INIT_XDATA_Z

        PUBLIC ??ZSendMsgProcess?relay
        FUNCTION ??ZSendMsgProcess?relay,0203H
        PUBLIC ??zclUARTMsg_CallBack?relay
        FUNCTION ??zclUARTMsg_CallBack?relay,0203H
        PUBLIC ??zclUartReceiver?relay
        FUNCTION ??zclUartReceiver?relay,0203H
        FUNCTION ??zclZigbeeReceiver_BasicResetCB?relay,0203H
        FUNCTION ??zclZigbeeReceiver_IdentifyCB?relay,0203H
        FUNCTION ??zclZigbeeReceiver_IdentifyQueryRspCB?relay,0203H
        FUNCTION ??zclZigbeeReceiver_OnOffCB?relay,0203H
        FUNCTION ??zclZigbeeReceiver_ProcessIdentifyTimeChange?r,0203H
        PUBLIC ??zclZigbeeRecv_Init?relay
        FUNCTION ??zclZigbeeRecv_Init?relay,0203H
        PUBLIC ??zclZigbeeRecv_event_loop?relay
        FUNCTION ??zclZigbeeRecv_event_loop?relay,0203H
        PUBLIC TransmitApp_Msg
        PUBLIC UartTransmit_Msg
        PUBLIC ZDO_MSG_SEND_ID
        PUBLIC ZSendMsgProcess
        FUNCTION ZSendMsgProcess,0a1203H
        ARGFRAME XSTACK, 12, STACK
        ARGFRAME IOVERLAY, 0, STATIC
        ARGFRAME DOVERLAY, 0, STATIC
        LOCFRAME ISTACK, 2, STACK
        LOCFRAME XSTACK, 14, STACK
        PUBLIC len
        PUBLIC send_msg_counter
        PUBLIC top
        PUBLIC uart_recv
        PUBLIC zclUARTMsg_CallBack
        FUNCTION zclUARTMsg_CallBack,021203H
        ARGFRAME XSTACK, 0, STACK
        LOCFRAME XSTACK, 10, STACK
        PUBLIC zclUartReceiver
        FUNCTION zclUartReceiver,021203H
        ARGFRAME XSTACK, 12, STACK
        ARGFRAME IOVERLAY, 0, STATIC
        ARGFRAME DOVERLAY, 0, STATIC
        LOCFRAME ISTACK, 1, STACK
        LOCFRAME XSTACK, 21, STACK
        FUNCTION zclZigbeeReceiver_BasicResetCB,0603H
        ARGFRAME XSTACK, 0, STACK
        FUNCTION zclZigbeeReceiver_IdentifyCB,021603H
        ARGFRAME XSTACK, 0, STACK
        LOCFRAME ISTACK, 2, STACK
        FUNCTION zclZigbeeReceiver_IdentifyQueryRspCB,0603H
        ARGFRAME XSTACK, 0, STACK
        FUNCTION zclZigbeeReceiver_OnOffCB,021603H
        ARGFRAME XSTACK, 0, STACK
        LOCFRAME ISTACK, 2, STACK
        FUNCTION zclZigbeeReceiver_ProcessIdentifyTimeChange,021203H
        ARGFRAME XSTACK, 12, STACK
        ARGFRAME IOVERLAY, 0, STATIC
        ARGFRAME DOVERLAY, 0, STATIC
        LOCFRAME ISTACK, 2, STACK
        PUBLIC zclZigbeeReceiver_TaskID
        PUBLIC zclZigbeeRecv_DstAddr
        PUBLIC zclZigbeeRecv_Group
        PUBLIC zclZigbeeRecv_Init
        FUNCTION zclZigbeeRecv_Init,021203H
        ARGFRAME XSTACK, 0, STACK
        LOCFRAME XSTACK, 14, STACK
        PUBLIC zclZigbeeRecv_event_loop
        FUNCTION zclZigbeeRecv_event_loop,0a1203H
        ARGFRAME XSTACK, 0, STACK
        LOCFRAME ISTACK, 1, STACK
        LOCFRAME XSTACK, 12, STACK
        
        CFI Names cfiNames0
        CFI StackFrame CFA_SP SP IDATA
        CFI StackFrame CFA_PSP16 PSP16 XDATA
        CFI StackFrame CFA_XSP16 XSP16 XDATA
        CFI StaticOverlayFrame CFA_IOVERLAY IOVERLAY
        CFI StaticOverlayFrame CFA_DOVERLAY DOVERLAY
        CFI Resource `PSW.CY`:1, `B.BR0`:1, `B.BR1`:1, `B.BR2`:1, `B.BR3`:1
        CFI Resource `B.BR4`:1, `B.BR5`:1, `B.BR6`:1, `B.BR7`:1, `VB.BR8`:1
        CFI Resource `VB.BR9`:1, `VB.BR10`:1, `VB.BR11`:1, `VB.BR12`:1
        CFI Resource `VB.BR13`:1, `VB.BR14`:1, `VB.BR15`:1, VB:8, B:8, A:8
        CFI Resource PSW:8, DPL0:8, DPH0:8, R0:8, R1:8, R2:8, R3:8, R4:8, R5:8
        CFI Resource R6:8, R7:8, V0:8, V1:8, V2:8, V3:8, V4:8, V5:8, V6:8, V7:8
        CFI Resource V8:8, V9:8, V10:8, V11:8, V12:8, V13:8, V14:8, V15:8, SP:8
        CFI Resource PSPH:8, PSPL:8, PSP16:16, XSPH:8, XSPL:8, XSP16:16
        CFI VirtualResource ?RET:24
        CFI Resource ?BRET_EXT:8
        CFI VirtualResource ?RET_HIGH:8, ?RET_LOW:8
        CFI ResourceParts PSP16 PSPH, PSPL
        CFI ResourceParts XSP16 XSPH, XSPL
        CFI ResourceParts ?RET ?BRET_EXT, ?RET_HIGH, ?RET_LOW
        CFI EndNames cfiNames0
        
        CFI Common cfiCommon0 Using cfiNames0
        CFI CodeAlign 1
        CFI DataAlign -1
        CFI ReturnAddress ?RET CODE
        CFI CFA_DOVERLAY Used
        CFI CFA_IOVERLAY Used
        CFI CFA_SP SP+-3
        CFI CFA_PSP16 PSP16+0
        CFI CFA_XSP16 XSP16+0
        CFI `PSW.CY` SameValue
        CFI `B.BR0` SameValue
        CFI `B.BR1` SameValue
        CFI `B.BR2` SameValue
        CFI `B.BR3` SameValue
        CFI `B.BR4` SameValue
        CFI `B.BR5` SameValue
        CFI `B.BR6` SameValue
        CFI `B.BR7` SameValue
        CFI `VB.BR8` SameValue
        CFI `VB.BR9` SameValue
        CFI `VB.BR10` SameValue
        CFI `VB.BR11` SameValue
        CFI `VB.BR12` SameValue
        CFI `VB.BR13` SameValue
        CFI `VB.BR14` SameValue
        CFI `VB.BR15` SameValue
        CFI VB SameValue
        CFI B Undefined
        CFI A Undefined
        CFI PSW SameValue
        CFI DPL0 SameValue
        CFI DPH0 SameValue
        CFI R0 Undefined
        CFI R1 Undefined
        CFI R2 Undefined
        CFI R3 Undefined
        CFI R4 Undefined
        CFI R5 Undefined
        CFI R6 SameValue
        CFI R7 SameValue
        CFI V0 SameValue
        CFI V1 SameValue
        CFI V2 SameValue
        CFI V3 SameValue
        CFI V4 SameValue
        CFI V5 SameValue
        CFI V6 SameValue
        CFI V7 SameValue
        CFI V8 SameValue
        CFI V9 SameValue
        CFI V10 SameValue
        CFI V11 SameValue
        CFI V12 SameValue
        CFI V13 SameValue
        CFI V14 SameValue
        CFI V15 SameValue
        CFI PSPH Undefined
        CFI PSPL Undefined
        CFI XSPH Undefined
        CFI XSPL Undefined
        CFI ?RET Concat
        CFI ?BRET_EXT Frame(CFA_SP, 3)
        CFI ?RET_HIGH Frame(CFA_SP, 2)
        CFI ?RET_LOW Frame(CFA_SP, 1)
        CFI EndCommon cfiCommon0
        
        
        CFI Common cfiCommon1 Using cfiNames0
        CFI CodeAlign 1
        CFI DataAlign -1
        CFI ReturnAddress ?RET CODE
        CFI CFA_DOVERLAY Used
        CFI CFA_IOVERLAY Used
        CFI CFA_SP SP+-2
        CFI CFA_PSP16 PSP16+0
        CFI CFA_XSP16 XSP16+0
        CFI `PSW.CY` SameValue
        CFI `B.BR0` SameValue
        CFI `B.BR1` SameValue
        CFI `B.BR2` SameValue
        CFI `B.BR3` SameValue
        CFI `B.BR4` SameValue
        CFI `B.BR5` SameValue
        CFI `B.BR6` SameValue
        CFI `B.BR7` SameValue
        CFI `VB.BR8` SameValue
        CFI `VB.BR9` SameValue
        CFI `VB.BR10` SameValue
        CFI `VB.BR11` SameValue
        CFI `VB.BR12` SameValue
        CFI `VB.BR13` SameValue
        CFI `VB.BR14` SameValue
        CFI `VB.BR15` SameValue
        CFI VB SameValue
        CFI B SameValue
        CFI A SameValue
        CFI PSW SameValue
        CFI DPL0 SameValue
        CFI DPH0 SameValue
        CFI R0 SameValue
        CFI R1 SameValue
        CFI R2 SameValue
        CFI R3 SameValue
        CFI R4 SameValue
        CFI R5 SameValue
        CFI R6 SameValue
        CFI R7 SameValue
        CFI V0 SameValue
        CFI V1 SameValue
        CFI V2 SameValue
        CFI V3 SameValue
        CFI V4 SameValue
        CFI V5 SameValue
        CFI V6 SameValue
        CFI V7 SameValue
        CFI V8 SameValue
        CFI V9 SameValue
        CFI V10 SameValue
        CFI V11 SameValue
        CFI V12 SameValue
        CFI V13 SameValue
        CFI V14 SameValue
        CFI V15 SameValue
        CFI PSPH Undefined
        CFI PSPL Undefined
        CFI XSPH Undefined
        CFI XSPL Undefined
        CFI ?RET Concat
        CFI ?BRET_EXT SameValue
        CFI ?RET_HIGH Frame(CFA_SP, 2)
        CFI ?RET_LOW Frame(CFA_SP, 1)
        CFI EndCommon cfiCommon1
        
HalUARTWrite        SYMBOL "HalUARTWrite"
osal_start_timerEx  SYMBOL "osal_start_timerEx"
zclZD_Init          SYMBOL "zclZD_Init"
zclGeneral_RegisterCmdCallbacks SYMBOL "zclGeneral_RegisterCmdCallbacks"
zcl_registerAttrList SYMBOL "zcl_registerAttrList"
zcl_registerForMsg  SYMBOL "zcl_registerForMsg"
RegisterForKeys     SYMBOL "RegisterForKeys"
osal_memcpy         SYMBOL "osal_memcpy"
aps_AddGroup        SYMBOL "aps_AddGroup"
afRegister          SYMBOL "afRegister"
osal_set_event      SYMBOL "osal_set_event"
osal_msg_deallocate SYMBOL "osal_msg_deallocate"
osal_msg_receive    SYMBOL "osal_msg_receive"
osal_mem_free       SYMBOL "osal_mem_free"
HalLedBlink         SYMBOL "HalLedBlink"
HalLedSet           SYMBOL "HalLedSet"
osal_stop_timerEx   SYMBOL "osal_stop_timerEx"
Hal_UART_RxBufLen   SYMBOL "Hal_UART_RxBufLen"
HalUARTRead         SYMBOL "HalUARTRead"
zcl_SendCommand     SYMBOL "zcl_SendCommand"
??HalLedBlink?relay SYMBOL "?relay", HalLedBlink
??HalLedSet?relay   SYMBOL "?relay", HalLedSet
??HalUARTRead?relay SYMBOL "?relay", HalUARTRead
??HalUARTWrite?relay SYMBOL "?relay", HalUARTWrite
??Hal_UART_RxBufLen?relay SYMBOL "?relay", Hal_UART_RxBufLen
??RegisterForKeys?relay SYMBOL "?relay", RegisterForKeys
??afRegister?relay  SYMBOL "?relay", afRegister
??aps_AddGroup?relay SYMBOL "?relay", aps_AddGroup
??osal_mem_free?relay SYMBOL "?relay", osal_mem_free
??osal_memcpy?relay SYMBOL "?relay", osal_memcpy
??osal_msg_deallocate?relay SYMBOL "?relay", osal_msg_deallocate
??osal_msg_receive?relay SYMBOL "?relay", osal_msg_receive
??osal_set_event?relay SYMBOL "?relay", osal_set_event
??osal_start_timerEx?relay SYMBOL "?relay", osal_start_timerEx
??osal_stop_timerEx?relay SYMBOL "?relay", osal_stop_timerEx
??zclGeneral_RegisterCmdCallbacks?relay SYMBOL "?relay", zclGeneral_RegisterCmdCallbacks
??zclZD_Init?relay  SYMBOL "?relay", zclZD_Init
??zcl_SendCommand?relay SYMBOL "?relay", zcl_SendCommand
??zcl_registerAttrList?relay SYMBOL "?relay", zcl_registerAttrList
??zcl_registerForMsg?relay SYMBOL "?relay", zcl_registerForMsg
ZSendMsgProcess     SYMBOL "ZSendMsgProcess"
??ZSendMsgProcess?relay SYMBOL "?relay", ZSendMsgProcess
zclUARTMsg_CallBack SYMBOL "zclUARTMsg_CallBack"
??zclUARTMsg_CallBack?relay SYMBOL "?relay", zclUARTMsg_CallBack
zclUartReceiver     SYMBOL "zclUartReceiver"
??zclUartReceiver?relay SYMBOL "?relay", zclUartReceiver
zclZigbeeRecv_Init  SYMBOL "zclZigbeeRecv_Init"
??zclZigbeeRecv_Init?relay SYMBOL "?relay", zclZigbeeRecv_Init
zclZigbeeRecv_event_loop SYMBOL "zclZigbeeRecv_event_loop"
??zclZigbeeRecv_event_loop?relay SYMBOL "?relay", zclZigbeeRecv_event_loop

        EXTERN HalUARTWrite
        FUNCTION HalUARTWrite,0202H
        ARGFRAME ISTACK, 0, STACK
        ARGFRAME PSTACK, 0, STACK
        ARGFRAME XSTACK, 14, STACK
        ARGFRAME IOVERLAY, 0, STATIC
        ARGFRAME DOVERLAY, 0, STATIC
        EXTERN osal_start_timerEx
        FUNCTION osal_start_timerEx,0202H
        ARGFRAME ISTACK, 2, STACK
        ARGFRAME PSTACK, 0, STACK
        ARGFRAME XSTACK, 14, STACK
        ARGFRAME IOVERLAY, 0, STATIC
        ARGFRAME DOVERLAY, 0, STATIC
        EXTERN zclZD_Init
        FUNCTION zclZD_Init,0202H
        ARGFRAME ISTACK, 0, STACK
        ARGFRAME PSTACK, 0, STACK
        ARGFRAME XSTACK, 11, STACK
        ARGFRAME IOVERLAY, 0, STATIC
        ARGFRAME DOVERLAY, 0, STATIC
        EXTERN zclGeneral_RegisterCmdCallbacks
        FUNCTION zclGeneral_RegisterCmdCallbacks,0202H
        ARGFRAME ISTACK, 0, STACK
        ARGFRAME PSTACK, 0, STACK
        ARGFRAME XSTACK, 11, STACK
        ARGFRAME IOVERLAY, 0, STATIC
        ARGFRAME DOVERLAY, 0, STATIC
        EXTERN zcl_registerAttrList
        FUNCTION zcl_registerAttrList,0202H
        ARGFRAME ISTACK, 0, STACK
        ARGFRAME PSTACK, 0, STACK
        ARGFRAME XSTACK, 11, STACK
        ARGFRAME IOVERLAY, 0, STATIC
        ARGFRAME DOVERLAY, 0, STATIC
        EXTERN zcl_registerForMsg
        FUNCTION zcl_registerForMsg,0202H
        ARGFRAME ISTACK, 0, STACK
        ARGFRAME PSTACK, 0, STACK
        ARGFRAME XSTACK, 11, STACK
        ARGFRAME IOVERLAY, 0, STATIC
        ARGFRAME DOVERLAY, 0, STATIC
        EXTERN RegisterForKeys
        FUNCTION RegisterForKeys,0202H
        ARGFRAME ISTACK, 0, STACK
        ARGFRAME PSTACK, 0, STACK
        ARGFRAME XSTACK, 11, STACK
        ARGFRAME IOVERLAY, 0, STATIC
        ARGFRAME DOVERLAY, 0, STATIC
        EXTERN osal_memcpy
        FUNCTION osal_memcpy,0202H
        ARGFRAME ISTACK, 0, STACK
        ARGFRAME PSTACK, 0, STACK
        ARGFRAME XSTACK, 14, STACK
        ARGFRAME IOVERLAY, 0, STATIC
        ARGFRAME DOVERLAY, 0, STATIC
        EXTERN aps_AddGroup
        FUNCTION aps_AddGroup,0202H
        ARGFRAME ISTACK, 0, STACK
        ARGFRAME PSTACK, 0, STACK
        ARGFRAME XSTACK, 11, STACK
        ARGFRAME IOVERLAY, 0, STATIC
        ARGFRAME DOVERLAY, 0, STATIC
        EXTERN afRegister
        FUNCTION afRegister,0202H
        ARGFRAME ISTACK, 0, STACK
        ARGFRAME PSTACK, 0, STACK
        ARGFRAME XSTACK, 11, STACK
        ARGFRAME IOVERLAY, 0, STATIC
        ARGFRAME DOVERLAY, 0, STATIC
        EXTERN osal_set_event
        FUNCTION osal_set_event,0202H
        ARGFRAME ISTACK, 0, STACK
        ARGFRAME PSTACK, 0, STACK
        ARGFRAME XSTACK, 11, STACK
        ARGFRAME IOVERLAY, 0, STATIC
        ARGFRAME DOVERLAY, 0, STATIC
        EXTERN osal_msg_deallocate
        FUNCTION osal_msg_deallocate,0202H
        ARGFRAME ISTACK, 0, STACK
        ARGFRAME PSTACK, 0, STACK
        ARGFRAME XSTACK, 12, STACK
        ARGFRAME IOVERLAY, 0, STATIC
        ARGFRAME DOVERLAY, 0, STATIC
        EXTERN osal_msg_receive
        FUNCTION osal_msg_receive,0202H
        ARGFRAME ISTACK, 0, STACK
        ARGFRAME PSTACK, 0, STACK
        ARGFRAME XSTACK, 12, STACK
        ARGFRAME IOVERLAY, 0, STATIC
        ARGFRAME DOVERLAY, 0, STATIC
        EXTERN osal_mem_free
        FUNCTION osal_mem_free,0202H
        ARGFRAME ISTACK, 0, STACK
        ARGFRAME PSTACK, 0, STACK
        ARGFRAME XSTACK, 12, STACK
        ARGFRAME IOVERLAY, 0, STATIC
        ARGFRAME DOVERLAY, 0, STATIC
        EXTERN HalLedBlink
        FUNCTION HalLedBlink,0202H
        ARGFRAME ISTACK, 2, STACK
        ARGFRAME PSTACK, 0, STACK
        ARGFRAME XSTACK, 0, STACK
        ARGFRAME IOVERLAY, 0, STATIC
        ARGFRAME DOVERLAY, 0, STATIC
        EXTERN HalLedSet
        FUNCTION HalLedSet,0202H
        ARGFRAME ISTACK, 2, STACK
        ARGFRAME PSTACK, 0, STACK
        ARGFRAME XSTACK, 0, STACK
        ARGFRAME IOVERLAY, 0, STATIC
        ARGFRAME DOVERLAY, 0, STATIC
        EXTERN osal_stop_timerEx
        FUNCTION osal_stop_timerEx,0202H
        ARGFRAME ISTACK, 2, STACK
        ARGFRAME PSTACK, 0, STACK
        ARGFRAME XSTACK, 0, STACK
        ARGFRAME IOVERLAY, 0, STATIC
        ARGFRAME DOVERLAY, 0, STATIC
        EXTERN Hal_UART_RxBufLen
        FUNCTION Hal_UART_RxBufLen,0202H
        ARGFRAME ISTACK, 0, STACK
        ARGFRAME PSTACK, 0, STACK
        ARGFRAME XSTACK, 10, STACK
        ARGFRAME IOVERLAY, 0, STATIC
        ARGFRAME DOVERLAY, 0, STATIC
        EXTERN HalUARTRead
        FUNCTION HalUARTRead,0202H
        ARGFRAME ISTACK, 0, STACK
        ARGFRAME PSTACK, 0, STACK
        ARGFRAME XSTACK, 10, STACK
        ARGFRAME IOVERLAY, 0, STATIC
        ARGFRAME DOVERLAY, 0, STATIC
        EXTERN zcl_SendCommand
        FUNCTION zcl_SendCommand,0202H
        ARGFRAME ISTACK, 0, STACK
        ARGFRAME PSTACK, 0, STACK
        ARGFRAME XSTACK, 21, STACK
        ARGFRAME IOVERLAY, 0, STATIC
        ARGFRAME DOVERLAY, 0, STATIC
        EXTERN ??HalLedBlink?relay
        FUNCTION ??HalLedBlink?relay,00H
        EXTERN ??HalLedSet?relay
        FUNCTION ??HalLedSet?relay,00H
        EXTERN ??HalUARTRead?relay
        FUNCTION ??HalUARTRead?relay,00H
        EXTERN ??HalUARTWrite?relay
        FUNCTION ??HalUARTWrite?relay,00H
        EXTERN ??Hal_UART_RxBufLen?relay
        FUNCTION ??Hal_UART_RxBufLen?relay,00H
        EXTERN ??RegisterForKeys?relay
        FUNCTION ??RegisterForKeys?relay,00H
        EXTERN ??afRegister?relay
        FUNCTION ??afRegister?relay,00H
        EXTERN ??aps_AddGroup?relay
        FUNCTION ??aps_AddGroup?relay,00H
        EXTERN ??osal_mem_free?relay
        FUNCTION ??osal_mem_free?relay,00H
        EXTERN ??osal_memcpy?relay
        FUNCTION ??osal_memcpy?relay,00H
        EXTERN ??osal_msg_deallocate?relay
        FUNCTION ??osal_msg_deallocate?relay,00H
        EXTERN ??osal_msg_receive?relay
        FUNCTION ??osal_msg_receive?relay,00H
        EXTERN ??osal_set_event?relay
        FUNCTION ??osal_set_event?relay,00H
        EXTERN ??osal_start_timerEx?relay
        FUNCTION ??osal_start_timerEx?relay,00H
        EXTERN ??osal_stop_timerEx?relay
        FUNCTION ??osal_stop_timerEx?relay,00H
        EXTERN ??zclGeneral_RegisterCmdCallbacks?relay
        FUNCTION ??zclGeneral_RegisterCmdCallbacks?relay,00H
        EXTERN ??zclZD_Init?relay
        FUNCTION ??zclZD_Init?relay,00H
        EXTERN ??zcl_SendCommand?relay
        FUNCTION ??zcl_SendCommand?relay,00H
        EXTERN ??zcl_registerAttrList?relay
        FUNCTION ??zcl_registerAttrList?relay,00H
        EXTERN ??zcl_registerForMsg?relay
        FUNCTION ??zcl_registerForMsg?relay,00H
        EXTERN global_data_length
        EXTERN global_entry
        EXTERN global_flag
        EXTERN global_recv_data
        EXTERN stack
        EXTERN zclZigbeeRecv_Attrs
        EXTERN zclZigbeeRecv_IdentifyTime
        EXTERN zclZigbeeRecv_OnOff
        EXTERN zclZigbeeRecv_SimpleDesc

// D:\GitHub\z-stack\Sensor Network Example\Projects\zstack\Sensor Network Application\ZIGBEE Coordinator & Router\Source\zcl_zigbee receiver.c
//    1 #include <stdio.h>
//    2 #include <string.h>
//    3 #include <stdlib.h>
//    4 #include "ZComDef.h"
//    5 #include "OSAL.h"
//    6 #include "AF.h"
//    7 #include "ZDApp.h"
//    8 
//    9 /* ZCL */
//   10 #include "zcl.h"
//   11 #include "zcl_general.h"
//   12 #include "zcl_ha.h"
//   13 #include "zcl_zigbee receiver.h"
//   14 
//   15 /* HAL */
//   16 #include "onboard.h"
//   17 #include "hal_lcd.h"
//   18 #include "hal_led.h"
//   19 #include "hal_timer.h"
//   20 #include "hal_uart.h"
//   21 #include "hal_key.h"
//   22 #include "hal_keypad.h"
//   23 
//   24 /* MAC_high-level */
//   25 #include "mac_high_level.h"
//   26 
//   27 /* MT */
//   28 #include "MT_UART.h"
//   29 #include "MT.h"
//   30 #include "ZComDef.h"
//   31 
//   32 #define TRANSMITAPP_MAX_DATA_LEN    102
//   33 

        RSEG XDATA_Z:XDATA:NOROOT(0)
//   34 uint8 send_msg_counter = 0;
send_msg_counter:
        DS 1
        REQUIRE __INIT_XDATA_Z

        RSEG XDATA_Z:XDATA:NOROOT(0)
//   35 byte zclZigbeeReceiver_TaskID; // The zigbee task_ID
zclZigbeeReceiver_TaskID:
        DS 1
        REQUIRE __INIT_XDATA_Z

        RSEG XDATA_Z:XDATA:NOROOT(0)
//   36 byte ZDO_MSG_SEND_ID; // The zigbee task_ID
ZDO_MSG_SEND_ID:
        DS 1
        REQUIRE __INIT_XDATA_Z
//   37 
//   38 // The UART transmit variable and array, the transmit data length

        RSEG XDATA_Z:XDATA:NOROOT(0)
//   39 uint8 len; 
len:
        DS 1
        REQUIRE __INIT_XDATA_Z
//   40 // Transmit message array

        RSEG XDATA_Z:XDATA:NOROOT(0)
//   41 byte TransmitApp_Msg[ TRANSMITAPP_MAX_DATA_LEN ]; 
TransmitApp_Msg:
        DS 102
        REQUIRE __INIT_XDATA_Z
//   42 // The coordinator send to device message array

        RSEG XDATA_Z:XDATA:NOROOT(0)
//   43 byte UartTransmit_Msg[ TRANSMITAPP_MAX_DATA_LEN ]; 
UartTransmit_Msg:
        DS 102
        REQUIRE __INIT_XDATA_Z
//   44 // Receive the UART command

        RSEG XDATA_Z:XDATA:NOROOT(0)
//   45 uint8 uart_recv[TRANSMITAPP_MAX_DATA_LEN]; 
uart_recv:
        DS 102
        REQUIRE __INIT_XDATA_Z
//   46 

        RSEG XDATA_Z:XDATA:NOROOT(0)
//   47 afAddrType_t zclZigbeeRecv_DstAddr;  // AF address type
zclZigbeeRecv_DstAddr:
        DS 12
        REQUIRE __INIT_XDATA_Z

        RSEG XDATA_Z:XDATA:NOROOT(0)
//   48 aps_Group_t zclZigbeeRecv_Group;
zclZigbeeRecv_Group:
        DS 18
        REQUIRE __INIT_XDATA_Z
//   49 
//   50 #define ZCLZIGBEERECV_BINDINGLIST       2
//   51 
//   52 static cId_t bindingInClusters[ZCLZIGBEERECV_BINDINGLIST] =
//   53 {
//   54   ZCL_CLUSTER_ID_GEN_ON_OFF,
//   55   ZCL_CLUSTER_ID_GEN_LEVEL_CONTROL
//   56 };
//   57 
//   58 // Test Endpoint to allow SYS_APP_MSGs

        RSEG XDATA_I:XDATA:NOROOT(0)
        DATA
//   59 static endPointDesc_t zigbeeReceiver_TestEp =
zigbeeReceiver_TestEp:
        DS 6
        REQUIRE `?<Initializer for zigbeeReceiver_TestEp>`
        REQUIRE __INIT_XDATA_I
//   60 {
//   61   20,                                 // Test endpoint
//   62   &zclZigbeeReceiver_TaskID,
//   63   (SimpleDescriptionFormat_t *)NULL,  // No Simple description for this test endpoint
//   64   (afNetworkLatencyReq_t)0            // No Network Latency req
//   65 };
//   66 
//   67 static void zclZigbeeReceiver_HandleKeys( byte shift, byte keys );
//   68 static void zclZigbeeReceiver_BasicResetCB( void );
//   69 static void zclZigbeeReceiver_IdentifyCB( zclIdentify_t *pCmd );
//   70 static void zclZigbeeReceiver_IdentifyQueryRspCB( zclIdentifyQueryRsp_t *pRsp );
//   71 static void zclZigbeeReceiver_OnOffCB( uint8 cmd );
//   72 static void zclZigbeeReceiver_ProcessIdentifyTimeChange( void );
//   73 
//   74 void zclUARTMsg_CallBack(uint8 port, uint8 event); // The UART Message callback
//   75 void zclUartReceiver( void ); // The coordinator receive command function
//   76 
//   77 // Functions to process ZCL Foundation incoming Command/Response messages 
//   78 static void zclZigbeeReceiver_ProcessIncomingMsg( zclIncomingMsg_t *msg );
//   79 #ifdef ZCL_READ
//   80   static uint8 zclZigbeeReceiver_ProcessInReadRspCmd( zclIncomingMsg_t *pInMsg );
//   81 #endif
//   82 #ifdef ZCL_WRITE
//   83   static uint8 zclZigbeeReceiver_ProcessInWriteRspCmd( zclIncomingMsg_t *pInMsg );
//   84 #endif
//   85   static uint8 zclZigbeeReceiver_ProcessInDefaultRspCmd( zclIncomingMsg_t *pInMsg );
//   86 #ifdef ZCL_DISCOVER
//   87   static uint8 zclZigbeeReceiver_ProcessInDiscRspCmd( zclIncomingMsg_t *pInMsg );
//   88 #endif
//   89 

        RSEG XDATA_I:XDATA:NOROOT(0)
        DATA
//   90 static zclGeneral_AppCallbacks_t zclZigbeeReceiver_CmdCallbacks =
zclZigbeeReceiver_CmdCallbacks:
        DS 30
        REQUIRE `?<Initializer for zclZigbeeReceiver_CmdCallbac`
        REQUIRE __INIT_XDATA_I
//   91 {
//   92   zclZigbeeReceiver_BasicResetCB,              // Basic Cluster Reset command
//   93   zclZigbeeReceiver_IdentifyCB,                // Identify command  
//   94   zclZigbeeReceiver_IdentifyQueryRspCB,        // Identify Query Response command
//   95   zclZigbeeReceiver_OnOffCB,                   // On/Off cluster command
//   96   NULL,                                        // Level Control Move to Level command
//   97   NULL,                                        // Level Control Move command
//   98   NULL,                                        // Level Control Step command
//   99   NULL,                                        // Group Response commands
//  100   NULL,                                        // Scene Store Request command
//  101   NULL,                                        // Scene Recall Request command
//  102   NULL,                                        // Scene Response command
//  103   NULL,                                        // Alarm (Response) command
//  104   NULL,                                        // RSSI Location commands
//  105   NULL,                                        // RSSI Location Response commands
//  106 };
//  107 

        RSEG XDATA_Z:XDATA:NOROOT(0)
//  108 int top = 0;
top:
        DS 2
        REQUIRE __INIT_XDATA_Z

        RSEG BANKED_CODE:CODE:NOROOT(0)
//  109 void ZSendMsgProcess(void)
ZSendMsgProcess:
        CFI Block cfiBlock0 Using cfiCommon0
        CFI Function ZSendMsgProcess
//  110 {
        FUNCALL ZSendMsgProcess, HalUARTWrite
        LOCFRAME ISTACK, 0, STACK
        LOCFRAME PSTACK, 0, STACK
        LOCFRAME XSTACK, 14, STACK
        LOCFRAME IOVERLAY, 0, STATIC
        LOCFRAME DOVERLAY, 0, STATIC
        ARGFRAME ISTACK, 0, STACK
        ARGFRAME PSTACK, 0, STACK
        ARGFRAME XSTACK, 14, STACK
        ARGFRAME IOVERLAY, 0, STATIC
        ARGFRAME DOVERLAY, 0, STATIC
        FUNCALL ZSendMsgProcess, HalUARTWrite
        LOCFRAME ISTACK, 0, STACK
        LOCFRAME PSTACK, 0, STACK
        LOCFRAME XSTACK, 14, STACK
        LOCFRAME IOVERLAY, 0, STATIC
        LOCFRAME DOVERLAY, 0, STATIC
        ARGFRAME ISTACK, 0, STACK
        ARGFRAME PSTACK, 0, STACK
        ARGFRAME XSTACK, 14, STACK
        ARGFRAME IOVERLAY, 0, STATIC
        ARGFRAME DOVERLAY, 0, STATIC
        FUNCALL ZSendMsgProcess, HalUARTWrite
        LOCFRAME ISTACK, 0, STACK
        LOCFRAME PSTACK, 0, STACK
        LOCFRAME XSTACK, 14, STACK
        LOCFRAME IOVERLAY, 0, STATIC
        LOCFRAME DOVERLAY, 0, STATIC
        ARGFRAME ISTACK, 0, STACK
        ARGFRAME PSTACK, 0, STACK
        ARGFRAME XSTACK, 14, STACK
        ARGFRAME IOVERLAY, 0, STATIC
        ARGFRAME DOVERLAY, 0, STATIC
        FUNCALL ZSendMsgProcess, HalUARTWrite
        LOCFRAME ISTACK, 0, STACK
        LOCFRAME PSTACK, 0, STACK
        LOCFRAME XSTACK, 14, STACK
        LOCFRAME IOVERLAY, 0, STATIC
        LOCFRAME DOVERLAY, 0, STATIC
        ARGFRAME ISTACK, 0, STACK
        ARGFRAME PSTACK, 0, STACK
        ARGFRAME XSTACK, 14, STACK
        ARGFRAME IOVERLAY, 0, STATIC
        ARGFRAME DOVERLAY, 0, STATIC
        FUNCALL ZSendMsgProcess, HalUARTWrite
        LOCFRAME ISTACK, 0, STACK
        LOCFRAME PSTACK, 0, STACK
        LOCFRAME XSTACK, 14, STACK
        LOCFRAME IOVERLAY, 0, STATIC
        LOCFRAME DOVERLAY, 0, STATIC
        ARGFRAME ISTACK, 0, STACK
        ARGFRAME PSTACK, 0, STACK
        ARGFRAME XSTACK, 14, STACK
        ARGFRAME IOVERLAY, 0, STATIC
        ARGFRAME DOVERLAY, 0, STATIC
        FUNCALL ZSendMsgProcess, HalUARTWrite
        LOCFRAME ISTACK, 0, STACK
        LOCFRAME PSTACK, 0, STACK
        LOCFRAME XSTACK, 14, STACK
        LOCFRAME IOVERLAY, 0, STATIC
        LOCFRAME DOVERLAY, 0, STATIC
        ARGFRAME ISTACK, 0, STACK
        ARGFRAME PSTACK, 0, STACK
        ARGFRAME XSTACK, 14, STACK
        ARGFRAME IOVERLAY, 0, STATIC
        ARGFRAME DOVERLAY, 0, STATIC
        FUNCALL ZSendMsgProcess, HalUARTWrite
        LOCFRAME ISTACK, 0, STACK
        LOCFRAME PSTACK, 0, STACK
        LOCFRAME XSTACK, 14, STACK
        LOCFRAME IOVERLAY, 0, STATIC
        LOCFRAME DOVERLAY, 0, STATIC
        ARGFRAME ISTACK, 0, STACK
        ARGFRAME PSTACK, 0, STACK
        ARGFRAME XSTACK, 14, STACK
        ARGFRAME IOVERLAY, 0, STATIC
        ARGFRAME DOVERLAY, 0, STATIC
        FUNCALL ZSendMsgProcess, HalUARTWrite
        LOCFRAME ISTACK, 0, STACK
        LOCFRAME PSTACK, 0, STACK
        LOCFRAME XSTACK, 14, STACK
        LOCFRAME IOVERLAY, 0, STATIC
        LOCFRAME DOVERLAY, 0, STATIC
        ARGFRAME ISTACK, 0, STACK
        ARGFRAME PSTACK, 0, STACK
        ARGFRAME XSTACK, 14, STACK
        ARGFRAME IOVERLAY, 0, STATIC
        ARGFRAME DOVERLAY, 0, STATIC
        FUNCALL ZSendMsgProcess, HalUARTWrite
        LOCFRAME ISTACK, 0, STACK
        LOCFRAME PSTACK, 0, STACK
        LOCFRAME XSTACK, 14, STACK
        LOCFRAME IOVERLAY, 0, STATIC
        LOCFRAME DOVERLAY, 0, STATIC
        ARGFRAME ISTACK, 0, STACK
        ARGFRAME PSTACK, 0, STACK
        ARGFRAME XSTACK, 14, STACK
        ARGFRAME IOVERLAY, 0, STATIC
        ARGFRAME DOVERLAY, 0, STATIC
        FUNCALL ZSendMsgProcess, HalUARTWrite
        LOCFRAME ISTACK, 0, STACK
        LOCFRAME PSTACK, 0, STACK
        LOCFRAME XSTACK, 14, STACK
        LOCFRAME IOVERLAY, 0, STATIC
        LOCFRAME DOVERLAY, 0, STATIC
        ARGFRAME ISTACK, 0, STACK
        ARGFRAME PSTACK, 0, STACK
        ARGFRAME XSTACK, 14, STACK
        ARGFRAME IOVERLAY, 0, STATIC
        ARGFRAME DOVERLAY, 0, STATIC
        FUNCALL ZSendMsgProcess, HalUARTWrite
        LOCFRAME ISTACK, 0, STACK
        LOCFRAME PSTACK, 0, STACK
        LOCFRAME XSTACK, 14, STACK
        LOCFRAME IOVERLAY, 0, STATIC
        LOCFRAME DOVERLAY, 0, STATIC
        ARGFRAME ISTACK, 0, STACK
        ARGFRAME PSTACK, 0, STACK
        ARGFRAME XSTACK, 14, STACK
        ARGFRAME IOVERLAY, 0, STATIC
        ARGFRAME DOVERLAY, 0, STATIC
        FUNCALL ZSendMsgProcess, HalUARTWrite
        LOCFRAME ISTACK, 0, STACK
        LOCFRAME PSTACK, 0, STACK
        LOCFRAME XSTACK, 14, STACK
        LOCFRAME IOVERLAY, 0, STATIC
        LOCFRAME DOVERLAY, 0, STATIC
        ARGFRAME ISTACK, 0, STACK
        ARGFRAME PSTACK, 0, STACK
        ARGFRAME XSTACK, 14, STACK
        ARGFRAME IOVERLAY, 0, STATIC
        ARGFRAME DOVERLAY, 0, STATIC
        FUNCALL ZSendMsgProcess, HalUARTWrite
        LOCFRAME ISTACK, 0, STACK
        LOCFRAME PSTACK, 0, STACK
        LOCFRAME XSTACK, 14, STACK
        LOCFRAME IOVERLAY, 0, STATIC
        LOCFRAME DOVERLAY, 0, STATIC
        ARGFRAME ISTACK, 0, STACK
        ARGFRAME PSTACK, 0, STACK
        ARGFRAME XSTACK, 14, STACK
        ARGFRAME IOVERLAY, 0, STATIC
        ARGFRAME DOVERLAY, 0, STATIC
        FUNCALL ZSendMsgProcess, HalUARTWrite
        LOCFRAME ISTACK, 0, STACK
        LOCFRAME PSTACK, 0, STACK
        LOCFRAME XSTACK, 14, STACK
        LOCFRAME IOVERLAY, 0, STATIC
        LOCFRAME DOVERLAY, 0, STATIC
        ARGFRAME ISTACK, 0, STACK
        ARGFRAME PSTACK, 0, STACK
        ARGFRAME XSTACK, 14, STACK
        ARGFRAME IOVERLAY, 0, STATIC
        ARGFRAME DOVERLAY, 0, STATIC
        FUNCALL ZSendMsgProcess, HalUARTWrite
        LOCFRAME ISTACK, 0, STACK
        LOCFRAME PSTACK, 0, STACK
        LOCFRAME XSTACK, 14, STACK
        LOCFRAME IOVERLAY, 0, STATIC
        LOCFRAME DOVERLAY, 0, STATIC
        ARGFRAME ISTACK, 0, STACK
        ARGFRAME PSTACK, 0, STACK
        ARGFRAME XSTACK, 14, STACK
        ARGFRAME IOVERLAY, 0, STATIC
        ARGFRAME DOVERLAY, 0, STATIC
        FUNCALL ZSendMsgProcess, HalUARTWrite
        LOCFRAME ISTACK, 0, STACK
        LOCFRAME PSTACK, 0, STACK
        LOCFRAME XSTACK, 14, STACK
        LOCFRAME IOVERLAY, 0, STATIC
        LOCFRAME DOVERLAY, 0, STATIC
        ARGFRAME ISTACK, 0, STACK
        ARGFRAME PSTACK, 0, STACK
        ARGFRAME XSTACK, 14, STACK
        ARGFRAME IOVERLAY, 0, STATIC
        ARGFRAME DOVERLAY, 0, STATIC
        FUNCALL ZSendMsgProcess, HalUARTWrite
        LOCFRAME ISTACK, 0, STACK
        LOCFRAME PSTACK, 0, STACK
        LOCFRAME XSTACK, 14, STACK
        LOCFRAME IOVERLAY, 0, STATIC
        LOCFRAME DOVERLAY, 0, STATIC
        ARGFRAME ISTACK, 0, STACK
        ARGFRAME PSTACK, 0, STACK
        ARGFRAME XSTACK, 14, STACK
        ARGFRAME IOVERLAY, 0, STATIC
        ARGFRAME DOVERLAY, 0, STATIC
        FUNCALL ZSendMsgProcess, HalUARTWrite
        LOCFRAME ISTACK, 0, STACK
        LOCFRAME PSTACK, 0, STACK
        LOCFRAME XSTACK, 14, STACK
        LOCFRAME IOVERLAY, 0, STATIC
        LOCFRAME DOVERLAY, 0, STATIC
        ARGFRAME ISTACK, 0, STACK
        ARGFRAME PSTACK, 0, STACK
        ARGFRAME XSTACK, 14, STACK
        ARGFRAME IOVERLAY, 0, STATIC
        ARGFRAME DOVERLAY, 0, STATIC
        FUNCALL ZSendMsgProcess, HalUARTWrite
        LOCFRAME ISTACK, 0, STACK
        LOCFRAME PSTACK, 0, STACK
        LOCFRAME XSTACK, 14, STACK
        LOCFRAME IOVERLAY, 0, STATIC
        LOCFRAME DOVERLAY, 0, STATIC
        ARGFRAME ISTACK, 0, STACK
        ARGFRAME PSTACK, 0, STACK
        ARGFRAME XSTACK, 14, STACK
        ARGFRAME IOVERLAY, 0, STATIC
        ARGFRAME DOVERLAY, 0, STATIC
        FUNCALL ZSendMsgProcess, HalUARTWrite
        LOCFRAME ISTACK, 0, STACK
        LOCFRAME PSTACK, 0, STACK
        LOCFRAME XSTACK, 14, STACK
        LOCFRAME IOVERLAY, 0, STATIC
        LOCFRAME DOVERLAY, 0, STATIC
        ARGFRAME ISTACK, 0, STACK
        ARGFRAME PSTACK, 0, STACK
        ARGFRAME XSTACK, 14, STACK
        ARGFRAME IOVERLAY, 0, STATIC
        ARGFRAME DOVERLAY, 0, STATIC
        FUNCALL ZSendMsgProcess, HalUARTWrite
        LOCFRAME ISTACK, 0, STACK
        LOCFRAME PSTACK, 0, STACK
        LOCFRAME XSTACK, 14, STACK
        LOCFRAME IOVERLAY, 0, STATIC
        LOCFRAME DOVERLAY, 0, STATIC
        ARGFRAME ISTACK, 0, STACK
        ARGFRAME PSTACK, 0, STACK
        ARGFRAME XSTACK, 14, STACK
        ARGFRAME IOVERLAY, 0, STATIC
        ARGFRAME DOVERLAY, 0, STATIC
        FUNCALL ZSendMsgProcess, HalUARTWrite
        LOCFRAME ISTACK, 0, STACK
        LOCFRAME PSTACK, 0, STACK
        LOCFRAME XSTACK, 14, STACK
        LOCFRAME IOVERLAY, 0, STATIC
        LOCFRAME DOVERLAY, 0, STATIC
        ARGFRAME ISTACK, 0, STACK
        ARGFRAME PSTACK, 0, STACK
        ARGFRAME XSTACK, 14, STACK
        ARGFRAME IOVERLAY, 0, STATIC
        ARGFRAME DOVERLAY, 0, STATIC
        FUNCALL ZSendMsgProcess, HalUARTWrite
        LOCFRAME ISTACK, 0, STACK
        LOCFRAME PSTACK, 0, STACK
        LOCFRAME XSTACK, 14, STACK
        LOCFRAME IOVERLAY, 0, STATIC
        LOCFRAME DOVERLAY, 0, STATIC
        ARGFRAME ISTACK, 0, STACK
        ARGFRAME PSTACK, 0, STACK
        ARGFRAME XSTACK, 14, STACK
        ARGFRAME IOVERLAY, 0, STATIC
        ARGFRAME DOVERLAY, 0, STATIC
        FUNCALL ZSendMsgProcess, HalUARTWrite
        LOCFRAME ISTACK, 0, STACK
        LOCFRAME PSTACK, 0, STACK
        LOCFRAME XSTACK, 14, STACK
        LOCFRAME IOVERLAY, 0, STATIC
        LOCFRAME DOVERLAY, 0, STATIC
        ARGFRAME ISTACK, 0, STACK
        ARGFRAME PSTACK, 0, STACK
        ARGFRAME XSTACK, 14, STACK
        ARGFRAME IOVERLAY, 0, STATIC
        ARGFRAME DOVERLAY, 0, STATIC
        FUNCALL ZSendMsgProcess, HalUARTWrite
        LOCFRAME ISTACK, 0, STACK
        LOCFRAME PSTACK, 0, STACK
        LOCFRAME XSTACK, 14, STACK
        LOCFRAME IOVERLAY, 0, STATIC
        LOCFRAME DOVERLAY, 0, STATIC
        ARGFRAME ISTACK, 0, STACK
        ARGFRAME PSTACK, 0, STACK
        ARGFRAME XSTACK, 14, STACK
        ARGFRAME IOVERLAY, 0, STATIC
        ARGFRAME DOVERLAY, 0, STATIC
        FUNCALL ZSendMsgProcess, HalUARTWrite
        LOCFRAME ISTACK, 0, STACK
        LOCFRAME PSTACK, 0, STACK
        LOCFRAME XSTACK, 14, STACK
        LOCFRAME IOVERLAY, 0, STATIC
        LOCFRAME DOVERLAY, 0, STATIC
        ARGFRAME ISTACK, 0, STACK
        ARGFRAME PSTACK, 0, STACK
        ARGFRAME XSTACK, 14, STACK
        ARGFRAME IOVERLAY, 0, STATIC
        ARGFRAME DOVERLAY, 0, STATIC
        FUNCALL ZSendMsgProcess, HalUARTWrite
        LOCFRAME ISTACK, 0, STACK
        LOCFRAME PSTACK, 0, STACK
        LOCFRAME XSTACK, 14, STACK
        LOCFRAME IOVERLAY, 0, STATIC
        LOCFRAME DOVERLAY, 0, STATIC
        ARGFRAME ISTACK, 0, STACK
        ARGFRAME PSTACK, 0, STACK
        ARGFRAME XSTACK, 14, STACK
        ARGFRAME IOVERLAY, 0, STATIC
        ARGFRAME DOVERLAY, 0, STATIC
        FUNCALL ZSendMsgProcess, HalUARTWrite
        LOCFRAME ISTACK, 0, STACK
        LOCFRAME PSTACK, 0, STACK
        LOCFRAME XSTACK, 14, STACK
        LOCFRAME IOVERLAY, 0, STATIC
        LOCFRAME DOVERLAY, 0, STATIC
        ARGFRAME ISTACK, 0, STACK
        ARGFRAME PSTACK, 0, STACK
        ARGFRAME XSTACK, 14, STACK
        ARGFRAME IOVERLAY, 0, STATIC
        ARGFRAME DOVERLAY, 0, STATIC
        FUNCALL ZSendMsgProcess, HalUARTWrite
        LOCFRAME ISTACK, 0, STACK
        LOCFRAME PSTACK, 0, STACK
        LOCFRAME XSTACK, 14, STACK
        LOCFRAME IOVERLAY, 0, STATIC
        LOCFRAME DOVERLAY, 0, STATIC
        ARGFRAME ISTACK, 0, STACK
        ARGFRAME PSTACK, 0, STACK
        ARGFRAME XSTACK, 14, STACK
        ARGFRAME IOVERLAY, 0, STATIC
        ARGFRAME DOVERLAY, 0, STATIC
        FUNCALL ZSendMsgProcess, HalUARTWrite
        LOCFRAME ISTACK, 0, STACK
        LOCFRAME PSTACK, 0, STACK
        LOCFRAME XSTACK, 14, STACK
        LOCFRAME IOVERLAY, 0, STATIC
        LOCFRAME DOVERLAY, 0, STATIC
        ARGFRAME ISTACK, 0, STACK
        ARGFRAME PSTACK, 0, STACK
        ARGFRAME XSTACK, 14, STACK
        ARGFRAME IOVERLAY, 0, STATIC
        ARGFRAME DOVERLAY, 0, STATIC
        FUNCALL ZSendMsgProcess, HalUARTWrite
        LOCFRAME ISTACK, 0, STACK
        LOCFRAME PSTACK, 0, STACK
        LOCFRAME XSTACK, 14, STACK
        LOCFRAME IOVERLAY, 0, STATIC
        LOCFRAME DOVERLAY, 0, STATIC
        ARGFRAME ISTACK, 0, STACK
        ARGFRAME PSTACK, 0, STACK
        ARGFRAME XSTACK, 14, STACK
        ARGFRAME IOVERLAY, 0, STATIC
        ARGFRAME DOVERLAY, 0, STATIC
        FUNCALL ZSendMsgProcess, HalUARTWrite
        LOCFRAME ISTACK, 0, STACK
        LOCFRAME PSTACK, 0, STACK
        LOCFRAME XSTACK, 14, STACK
        LOCFRAME IOVERLAY, 0, STATIC
        LOCFRAME DOVERLAY, 0, STATIC
        ARGFRAME ISTACK, 0, STACK
        ARGFRAME PSTACK, 0, STACK
        ARGFRAME XSTACK, 14, STACK
        ARGFRAME IOVERLAY, 0, STATIC
        ARGFRAME DOVERLAY, 0, STATIC
        FUNCALL ZSendMsgProcess, HalUARTWrite
        LOCFRAME ISTACK, 0, STACK
        LOCFRAME PSTACK, 0, STACK
        LOCFRAME XSTACK, 14, STACK
        LOCFRAME IOVERLAY, 0, STATIC
        LOCFRAME DOVERLAY, 0, STATIC
        ARGFRAME ISTACK, 0, STACK
        ARGFRAME PSTACK, 0, STACK
        ARGFRAME XSTACK, 14, STACK
        ARGFRAME IOVERLAY, 0, STATIC
        ARGFRAME DOVERLAY, 0, STATIC
        FUNCALL ZSendMsgProcess, HalUARTWrite
        LOCFRAME ISTACK, 0, STACK
        LOCFRAME PSTACK, 0, STACK
        LOCFRAME XSTACK, 14, STACK
        LOCFRAME IOVERLAY, 0, STATIC
        LOCFRAME DOVERLAY, 0, STATIC
        ARGFRAME ISTACK, 0, STACK
        ARGFRAME PSTACK, 0, STACK
        ARGFRAME XSTACK, 14, STACK
        ARGFRAME IOVERLAY, 0, STATIC
        ARGFRAME DOVERLAY, 0, STATIC
        FUNCALL ZSendMsgProcess, HalUARTWrite
        LOCFRAME ISTACK, 0, STACK
        LOCFRAME PSTACK, 0, STACK
        LOCFRAME XSTACK, 14, STACK
        LOCFRAME IOVERLAY, 0, STATIC
        LOCFRAME DOVERLAY, 0, STATIC
        ARGFRAME ISTACK, 0, STACK
        ARGFRAME PSTACK, 0, STACK
        ARGFRAME XSTACK, 14, STACK
        ARGFRAME IOVERLAY, 0, STATIC
        ARGFRAME DOVERLAY, 0, STATIC
        FUNCALL ZSendMsgProcess, HalUARTWrite
        LOCFRAME ISTACK, 0, STACK
        LOCFRAME PSTACK, 0, STACK
        LOCFRAME XSTACK, 14, STACK
        LOCFRAME IOVERLAY, 0, STATIC
        LOCFRAME DOVERLAY, 0, STATIC
        ARGFRAME ISTACK, 0, STACK
        ARGFRAME PSTACK, 0, STACK
        ARGFRAME XSTACK, 14, STACK
        ARGFRAME IOVERLAY, 0, STATIC
        ARGFRAME DOVERLAY, 0, STATIC
        FUNCALL ZSendMsgProcess, HalUARTWrite
        LOCFRAME ISTACK, 0, STACK
        LOCFRAME PSTACK, 0, STACK
        LOCFRAME XSTACK, 14, STACK
        LOCFRAME IOVERLAY, 0, STATIC
        LOCFRAME DOVERLAY, 0, STATIC
        ARGFRAME ISTACK, 0, STACK
        ARGFRAME PSTACK, 0, STACK
        ARGFRAME XSTACK, 14, STACK
        ARGFRAME IOVERLAY, 0, STATIC
        ARGFRAME DOVERLAY, 0, STATIC
        FUNCALL ZSendMsgProcess, HalUARTWrite
        LOCFRAME ISTACK, 0, STACK
        LOCFRAME PSTACK, 0, STACK
        LOCFRAME XSTACK, 14, STACK
        LOCFRAME IOVERLAY, 0, STATIC
        LOCFRAME DOVERLAY, 0, STATIC
        ARGFRAME ISTACK, 0, STACK
        ARGFRAME PSTACK, 0, STACK
        ARGFRAME XSTACK, 14, STACK
        ARGFRAME IOVERLAY, 0, STATIC
        ARGFRAME DOVERLAY, 0, STATIC
        FUNCALL ZSendMsgProcess, HalUARTWrite
        LOCFRAME ISTACK, 0, STACK
        LOCFRAME PSTACK, 0, STACK
        LOCFRAME XSTACK, 14, STACK
        LOCFRAME IOVERLAY, 0, STATIC
        LOCFRAME DOVERLAY, 0, STATIC
        ARGFRAME ISTACK, 0, STACK
        ARGFRAME PSTACK, 0, STACK
        ARGFRAME XSTACK, 14, STACK
        ARGFRAME IOVERLAY, 0, STATIC
        ARGFRAME DOVERLAY, 0, STATIC
        FUNCALL ZSendMsgProcess, HalUARTWrite
        LOCFRAME ISTACK, 0, STACK
        LOCFRAME PSTACK, 0, STACK
        LOCFRAME XSTACK, 14, STACK
        LOCFRAME IOVERLAY, 0, STATIC
        LOCFRAME DOVERLAY, 0, STATIC
        ARGFRAME ISTACK, 0, STACK
        ARGFRAME PSTACK, 0, STACK
        ARGFRAME XSTACK, 14, STACK
        ARGFRAME IOVERLAY, 0, STATIC
        ARGFRAME DOVERLAY, 0, STATIC
        FUNCALL ZSendMsgProcess, HalUARTWrite
        LOCFRAME ISTACK, 0, STACK
        LOCFRAME PSTACK, 0, STACK
        LOCFRAME XSTACK, 14, STACK
        LOCFRAME IOVERLAY, 0, STATIC
        LOCFRAME DOVERLAY, 0, STATIC
        ARGFRAME ISTACK, 0, STACK
        ARGFRAME PSTACK, 0, STACK
        ARGFRAME XSTACK, 14, STACK
        ARGFRAME IOVERLAY, 0, STATIC
        ARGFRAME DOVERLAY, 0, STATIC
        FUNCALL ZSendMsgProcess, HalUARTWrite
        LOCFRAME ISTACK, 0, STACK
        LOCFRAME PSTACK, 0, STACK
        LOCFRAME XSTACK, 14, STACK
        LOCFRAME IOVERLAY, 0, STATIC
        LOCFRAME DOVERLAY, 0, STATIC
        ARGFRAME ISTACK, 0, STACK
        ARGFRAME PSTACK, 0, STACK
        ARGFRAME XSTACK, 14, STACK
        ARGFRAME IOVERLAY, 0, STATIC
        ARGFRAME DOVERLAY, 0, STATIC
        FUNCALL ZSendMsgProcess, HalUARTWrite
        LOCFRAME ISTACK, 0, STACK
        LOCFRAME PSTACK, 0, STACK
        LOCFRAME XSTACK, 14, STACK
        LOCFRAME IOVERLAY, 0, STATIC
        LOCFRAME DOVERLAY, 0, STATIC
        ARGFRAME ISTACK, 0, STACK
        ARGFRAME PSTACK, 0, STACK
        ARGFRAME XSTACK, 14, STACK
        ARGFRAME IOVERLAY, 0, STATIC
        ARGFRAME DOVERLAY, 0, STATIC
        FUNCALL ZSendMsgProcess, HalUARTWrite
        LOCFRAME ISTACK, 0, STACK
        LOCFRAME PSTACK, 0, STACK
        LOCFRAME XSTACK, 14, STACK
        LOCFRAME IOVERLAY, 0, STATIC
        LOCFRAME DOVERLAY, 0, STATIC
        ARGFRAME ISTACK, 0, STACK
        ARGFRAME PSTACK, 0, STACK
        ARGFRAME XSTACK, 14, STACK
        ARGFRAME IOVERLAY, 0, STATIC
        ARGFRAME DOVERLAY, 0, STATIC
        FUNCALL ZSendMsgProcess, HalUARTWrite
        LOCFRAME ISTACK, 0, STACK
        LOCFRAME PSTACK, 0, STACK
        LOCFRAME XSTACK, 14, STACK
        LOCFRAME IOVERLAY, 0, STATIC
        LOCFRAME DOVERLAY, 0, STATIC
        ARGFRAME ISTACK, 0, STACK
        ARGFRAME PSTACK, 0, STACK
        ARGFRAME XSTACK, 14, STACK
        ARGFRAME IOVERLAY, 0, STATIC
        ARGFRAME DOVERLAY, 0, STATIC
        FUNCALL ZSendMsgProcess, HalUARTWrite
        LOCFRAME ISTACK, 0, STACK
        LOCFRAME PSTACK, 0, STACK
        LOCFRAME XSTACK, 14, STACK
        LOCFRAME IOVERLAY, 0, STATIC
        LOCFRAME DOVERLAY, 0, STATIC
        ARGFRAME ISTACK, 0, STACK
        ARGFRAME PSTACK, 0, STACK
        ARGFRAME XSTACK, 14, STACK
        ARGFRAME IOVERLAY, 0, STATIC
        ARGFRAME DOVERLAY, 0, STATIC
        FUNCALL ZSendMsgProcess, HalUARTWrite
        LOCFRAME ISTACK, 0, STACK
        LOCFRAME PSTACK, 0, STACK
        LOCFRAME XSTACK, 14, STACK
        LOCFRAME IOVERLAY, 0, STATIC
        LOCFRAME DOVERLAY, 0, STATIC
        ARGFRAME ISTACK, 0, STACK
        ARGFRAME PSTACK, 0, STACK
        ARGFRAME XSTACK, 14, STACK
        ARGFRAME IOVERLAY, 0, STATIC
        ARGFRAME DOVERLAY, 0, STATIC
        FUNCALL ZSendMsgProcess, HalUARTWrite
        LOCFRAME ISTACK, 0, STACK
        LOCFRAME PSTACK, 0, STACK
        LOCFRAME XSTACK, 14, STACK
        LOCFRAME IOVERLAY, 0, STATIC
        LOCFRAME DOVERLAY, 0, STATIC
        ARGFRAME ISTACK, 0, STACK
        ARGFRAME PSTACK, 0, STACK
        ARGFRAME XSTACK, 14, STACK
        ARGFRAME IOVERLAY, 0, STATIC
        ARGFRAME DOVERLAY, 0, STATIC
        FUNCALL ZSendMsgProcess, HalUARTWrite
        LOCFRAME ISTACK, 0, STACK
        LOCFRAME PSTACK, 0, STACK
        LOCFRAME XSTACK, 14, STACK
        LOCFRAME IOVERLAY, 0, STATIC
        LOCFRAME DOVERLAY, 0, STATIC
        ARGFRAME ISTACK, 0, STACK
        ARGFRAME PSTACK, 0, STACK
        ARGFRAME XSTACK, 14, STACK
        ARGFRAME IOVERLAY, 0, STATIC
        ARGFRAME DOVERLAY, 0, STATIC
        FUNCALL ZSendMsgProcess, HalUARTWrite
        LOCFRAME ISTACK, 0, STACK
        LOCFRAME PSTACK, 0, STACK
        LOCFRAME XSTACK, 14, STACK
        LOCFRAME IOVERLAY, 0, STATIC
        LOCFRAME DOVERLAY, 0, STATIC
        ARGFRAME ISTACK, 0, STACK
        ARGFRAME PSTACK, 0, STACK
        ARGFRAME XSTACK, 14, STACK
        ARGFRAME IOVERLAY, 0, STATIC
        ARGFRAME DOVERLAY, 0, STATIC
        FUNCALL ZSendMsgProcess, HalUARTWrite
        LOCFRAME ISTACK, 0, STACK
        LOCFRAME PSTACK, 0, STACK
        LOCFRAME XSTACK, 14, STACK
        LOCFRAME IOVERLAY, 0, STATIC
        LOCFRAME DOVERLAY, 0, STATIC
        ARGFRAME ISTACK, 0, STACK
        ARGFRAME PSTACK, 0, STACK
        ARGFRAME XSTACK, 14, STACK
        ARGFRAME IOVERLAY, 0, STATIC
        ARGFRAME DOVERLAY, 0, STATIC
        FUNCALL ZSendMsgProcess, HalUARTWrite
        LOCFRAME ISTACK, 0, STACK
        LOCFRAME PSTACK, 0, STACK
        LOCFRAME XSTACK, 14, STACK
        LOCFRAME IOVERLAY, 0, STATIC
        LOCFRAME DOVERLAY, 0, STATIC
        ARGFRAME ISTACK, 0, STACK
        ARGFRAME PSTACK, 0, STACK
        ARGFRAME XSTACK, 14, STACK
        ARGFRAME IOVERLAY, 0, STATIC
        ARGFRAME DOVERLAY, 0, STATIC
        FUNCALL ZSendMsgProcess, HalUARTWrite
        LOCFRAME ISTACK, 0, STACK
        LOCFRAME PSTACK, 0, STACK
        LOCFRAME XSTACK, 14, STACK
        LOCFRAME IOVERLAY, 0, STATIC
        LOCFRAME DOVERLAY, 0, STATIC
        ARGFRAME ISTACK, 0, STACK
        ARGFRAME PSTACK, 0, STACK
        ARGFRAME XSTACK, 14, STACK
        ARGFRAME IOVERLAY, 0, STATIC
        ARGFRAME DOVERLAY, 0, STATIC
        FUNCALL ZSendMsgProcess, HalUARTWrite
        LOCFRAME ISTACK, 0, STACK
        LOCFRAME PSTACK, 0, STACK
        LOCFRAME XSTACK, 14, STACK
        LOCFRAME IOVERLAY, 0, STATIC
        LOCFRAME DOVERLAY, 0, STATIC
        ARGFRAME ISTACK, 0, STACK
        ARGFRAME PSTACK, 0, STACK
        ARGFRAME XSTACK, 14, STACK
        ARGFRAME IOVERLAY, 0, STATIC
        ARGFRAME DOVERLAY, 0, STATIC
        FUNCALL ZSendMsgProcess, osal_start_timerEx
        LOCFRAME ISTACK, 0, STACK
        LOCFRAME PSTACK, 0, STACK
        LOCFRAME XSTACK, 14, STACK
        LOCFRAME IOVERLAY, 0, STATIC
        LOCFRAME DOVERLAY, 0, STATIC
        ARGFRAME ISTACK, 0, STACK
        ARGFRAME PSTACK, 0, STACK
        ARGFRAME XSTACK, 14, STACK
        ARGFRAME IOVERLAY, 0, STATIC
        ARGFRAME DOVERLAY, 0, STATIC
        MOV     A,#-0xe
        LCALL   ?BANKED_ENTER_XDATA
        CFI DPH0 load(1, XDATA, add(CFA_XSP16, literal(-1)))
        CFI DPL0 load(1, XDATA, add(CFA_XSP16, literal(-2)))
        CFI ?BRET_EXT load(1, XDATA, add(CFA_XSP16, literal(-3)))
        CFI ?RET_HIGH load(1, XDATA, add(CFA_XSP16, literal(-4)))
        CFI ?RET_LOW load(1, XDATA, add(CFA_XSP16, literal(-5)))
        CFI R7 load(1, XDATA, add(CFA_XSP16, literal(-6)))
        CFI V5 load(1, XDATA, add(CFA_XSP16, literal(-7)))
        CFI V4 load(1, XDATA, add(CFA_XSP16, literal(-8)))
        CFI V3 load(1, XDATA, add(CFA_XSP16, literal(-9)))
        CFI V2 load(1, XDATA, add(CFA_XSP16, literal(-10)))
        CFI V1 load(1, XDATA, add(CFA_XSP16, literal(-11)))
        CFI V0 load(1, XDATA, add(CFA_XSP16, literal(-12)))
        CFI VB load(1, XDATA, add(CFA_XSP16, literal(-13)))
        CFI R6 load(1, XDATA, add(CFA_XSP16, literal(-14)))
        CFI CFA_SP SP+0
        CFI CFA_XSP16 add(XSP16, 14)
        ; Saved register size: 14
        ; Auto size: 0
//  111     //for(int flag_count=0;flag_count<9;flag_count++)
//  112       //global_flag[flag_count]=1;
//  113     switch(top)
        MOV     DPTR,#top
        MOVX    A,@DPTR
        MOV     ?V0 + 4,A
        INC     DPTR
        MOVX    A,@DPTR
        JZ      $+5
        LJMP    ??ZSendMsgProcess_0 & 0xFFFF
        MOV     A,?V0 + 4
        LCALL   ?UC_SWITCH_SPARSE
`?<Jumptable for ZSendMsgProcess>_0`:
        DATA
        DB        0
        DB        4
        DB        0
        DW        ??ZSendMsgProcess_1
        DB        2
        DW        ??ZSendMsgProcess_2
        DB        4
        DW        ??ZSendMsgProcess_3
        DB        6
        DW        ??ZSendMsgProcess_4
        DW        ??ZSendMsgProcess_0
        CODE
//  114     {
//  115     case 0:
//  116       if(stack <= top++ || global_flag[0]==0)
??ZSendMsgProcess_1:
        LCALL   ?Subroutine0 & 0xFFFF
??CrossCallReturnLabel_0:
        JNC     ??ZSendMsgProcess_5
        MOV     DPTR,#global_flag
        MOVX    A,@DPTR
        JNZ     ??ZSendMsgProcess_6
        INC     DPTR
        MOVX    A,@DPTR
??ZSendMsgProcess_6:
        JZ      ??ZSendMsgProcess_5
//  117         //break;
//  118         ;
//  119       else
//  120       {
//  121       HalUARTWrite(MT_UART_DEFAULT_PORT, "3", 1);//Cmd Type
        ; Setup parameters for call to function HalUARTWrite
        LCALL   ?Subroutine3 & 0xFFFF
//  122       HalUARTWrite(MT_UART_DEFAULT_PORT, ",", 1);//Comma   
//  123       HalUARTWrite(MT_UART_DEFAULT_PORT, global_entry[0], 4);//Device ID
??CrossCallReturnLabel_20:
        MOV     R2,#(global_entry & 0xff)
        MOV     R3,#((global_entry >> 8) & 0xff)
        LCALL   ?Subroutine4 & 0xFFFF
//  124       HalUARTWrite(MT_UART_DEFAULT_PORT, ",", 1);//Comma
//  125       HalUARTWrite(MT_UART_DEFAULT_PORT, global_recv_data[0], global_data_length[0]);//Device Data
??CrossCallReturnLabel_29:
        ; Setup parameters for call to function HalUARTWrite
        MOV     DPTR,#global_data_length
        LCALL   ?Subroutine1 & 0xFFFF
??CrossCallReturnLabel_8:
        MOV     R2,#(global_recv_data & 0xff)
        MOV     R3,#((global_recv_data >> 8) & 0xff)
        LCALL   ?Subroutine5 & 0xFFFF
//  126       HalUARTWrite(MT_UART_DEFAULT_PORT, "$\r\n", 3);//$\n
//  127       global_flag[0]=0;
??CrossCallReturnLabel_42:
        MOV     DPTR,#global_flag
        CLR     A
        MOVX    @DPTR,A
        INC     DPTR
        MOVX    @DPTR,A
//  128       }
//  129       //break;      
//  130     //case 1:
//  131       if(stack <= top++ || global_flag[1]==0)
??ZSendMsgProcess_5:
        LCALL   ?Subroutine0 & 0xFFFF
??CrossCallReturnLabel_1:
        JC      $+5
        LJMP    ??ZSendMsgProcess_0 & 0xFFFF
        MOV     DPTR,#(global_flag + 2)
        MOVX    A,@DPTR
        JNZ     ??ZSendMsgProcess_7
        INC     DPTR
        MOVX    A,@DPTR
??ZSendMsgProcess_7:
        JNZ     $+5
        LJMP    ??ZSendMsgProcess_0 & 0xFFFF
//  132         break;
//  133       HalUARTWrite(MT_UART_DEFAULT_PORT, "3", 1);//Cmd Type
        ; Setup parameters for call to function HalUARTWrite
        LCALL   ?Subroutine3 & 0xFFFF
//  134       HalUARTWrite(MT_UART_DEFAULT_PORT, ",", 1);//Comma   
//  135       HalUARTWrite(MT_UART_DEFAULT_PORT, global_entry[1], 4);//Device ID
??CrossCallReturnLabel_21:
        MOV     R2,#((global_entry + 4) & 0xff)
        MOV     R3,#(((global_entry + 4) >> 8) & 0xff)
        LCALL   ?Subroutine4 & 0xFFFF
//  136       HalUARTWrite(MT_UART_DEFAULT_PORT, ",", 1);//Comma
//  137       HalUARTWrite(MT_UART_DEFAULT_PORT, global_recv_data[1], global_data_length[1]);//Device Data
??CrossCallReturnLabel_30:
        ; Setup parameters for call to function HalUARTWrite
        MOV     DPTR,#(global_data_length + 1)
        LCALL   ?Subroutine1 & 0xFFFF
??CrossCallReturnLabel_9:
        MOV     R2,#((global_recv_data + 30) & 0xff)
        MOV     R3,#(((global_recv_data + 30) >> 8) & 0xff)
        LCALL   ?Subroutine5 & 0xFFFF
//  138       HalUARTWrite(MT_UART_DEFAULT_PORT, "$\r\n", 3);//$\n
//  139       global_flag[1]=0;
??CrossCallReturnLabel_43:
        MOV     DPTR,#(global_flag + 2)
??ZSendMsgProcess_8:
        CLR     A
        LJMP    ??ZSendMsgProcess_9 & 0xFFFF
//  140       break;
//  141     case 2:
//  142       if(stack <= top++ || global_flag[2]==0)
??ZSendMsgProcess_2:
        LCALL   ?Subroutine0 & 0xFFFF
??CrossCallReturnLabel_2:
        JNC     ??ZSendMsgProcess_10
        MOV     DPTR,#(global_flag + 4)
        MOVX    A,@DPTR
        JNZ     ??ZSendMsgProcess_11
        INC     DPTR
        MOVX    A,@DPTR
??ZSendMsgProcess_11:
        JZ      ??ZSendMsgProcess_10
//  143         //break;
//  144         ;
//  145       else
//  146       {
//  147       HalUARTWrite(MT_UART_DEFAULT_PORT, "3", 1);//Cmd Type
        ; Setup parameters for call to function HalUARTWrite
        LCALL   ?Subroutine3 & 0xFFFF
//  148       HalUARTWrite(MT_UART_DEFAULT_PORT, ",", 1);//Comma   
//  149       HalUARTWrite(MT_UART_DEFAULT_PORT, global_entry[2], 4);//Device ID
??CrossCallReturnLabel_22:
        MOV     R2,#((global_entry + 8) & 0xff)
        MOV     R3,#(((global_entry + 8) >> 8) & 0xff)
        LCALL   ?Subroutine4 & 0xFFFF
//  150       HalUARTWrite(MT_UART_DEFAULT_PORT, ",", 1);//Comma
//  151       HalUARTWrite(MT_UART_DEFAULT_PORT, global_recv_data[2], global_data_length[2]);//Device Data
??CrossCallReturnLabel_31:
        ; Setup parameters for call to function HalUARTWrite
        MOV     DPTR,#(global_data_length + 2)
        LCALL   ?Subroutine1 & 0xFFFF
??CrossCallReturnLabel_10:
        MOV     R2,#((global_recv_data + 60) & 0xff)
        MOV     R3,#(((global_recv_data + 60) >> 8) & 0xff)
        LCALL   ?Subroutine5 & 0xFFFF
//  152       HalUARTWrite(MT_UART_DEFAULT_PORT, "$\r\n", 3);//$\n
//  153       global_flag[2]=0;
??CrossCallReturnLabel_44:
        MOV     DPTR,#(global_flag + 4)
        CLR     A
        MOVX    @DPTR,A
        INC     DPTR
        MOVX    @DPTR,A
//  154       }
//  155       //break;
//  156     //case 3:    
//  157       if(stack <= top++ || global_flag[3]==0)
??ZSendMsgProcess_10:
        LCALL   ?Subroutine0 & 0xFFFF
??CrossCallReturnLabel_3:
        JC      $+5
        LJMP    ??ZSendMsgProcess_0 & 0xFFFF
        MOV     DPTR,#(global_flag + 6)
        MOVX    A,@DPTR
        JNZ     ??ZSendMsgProcess_12
        INC     DPTR
        MOVX    A,@DPTR
??ZSendMsgProcess_12:
        JNZ     $+5
        LJMP    ??ZSendMsgProcess_0 & 0xFFFF
//  158         break;
//  159       HalUARTWrite(MT_UART_DEFAULT_PORT, "3", 1);//Cmd Type
        ; Setup parameters for call to function HalUARTWrite
        LCALL   ?Subroutine3 & 0xFFFF
//  160       HalUARTWrite(MT_UART_DEFAULT_PORT, ",", 1);//Comma   
//  161       HalUARTWrite(MT_UART_DEFAULT_PORT, global_entry[3], 4);//Device ID
??CrossCallReturnLabel_23:
        MOV     R2,#((global_entry + 12) & 0xff)
        MOV     R3,#(((global_entry + 12) >> 8) & 0xff)
        LCALL   ?Subroutine4 & 0xFFFF
//  162       HalUARTWrite(MT_UART_DEFAULT_PORT, ",", 1);//Comma
//  163       HalUARTWrite(MT_UART_DEFAULT_PORT, global_recv_data[3], global_data_length[3]);//Device Data
??CrossCallReturnLabel_32:
        ; Setup parameters for call to function HalUARTWrite
        MOV     DPTR,#(global_data_length + 3)
        LCALL   ?Subroutine1 & 0xFFFF
??CrossCallReturnLabel_11:
        MOV     R2,#((global_recv_data + 90) & 0xff)
        MOV     R3,#(((global_recv_data + 90) >> 8) & 0xff)
        LCALL   ?Subroutine5 & 0xFFFF
//  164       HalUARTWrite(MT_UART_DEFAULT_PORT, "$\r\n", 3);//$\n
//  165       global_flag[3]=0;
??CrossCallReturnLabel_45:
        MOV     DPTR,#(global_flag + 6)
        SJMP    ??ZSendMsgProcess_8
//  166       break;
//  167     case 4:    
//  168       if(stack <= top++ || global_flag[4]==0)
??ZSendMsgProcess_3:
        LCALL   ?Subroutine0 & 0xFFFF
??CrossCallReturnLabel_4:
        JNC     ??ZSendMsgProcess_13
        MOV     DPTR,#(global_flag + 8)
        MOVX    A,@DPTR
        JNZ     ??ZSendMsgProcess_14
        INC     DPTR
        MOVX    A,@DPTR
??ZSendMsgProcess_14:
        JZ      ??ZSendMsgProcess_13
//  169         //break;
//  170         ;
//  171       else
//  172       {
//  173       HalUARTWrite(MT_UART_DEFAULT_PORT, "3", 1);//Cmd Type
        ; Setup parameters for call to function HalUARTWrite
        LCALL   ?Subroutine3 & 0xFFFF
//  174       HalUARTWrite(MT_UART_DEFAULT_PORT, ",", 1);//Comma   
//  175       HalUARTWrite(MT_UART_DEFAULT_PORT, global_entry[4], 4);//Device ID
??CrossCallReturnLabel_24:
        MOV     R2,#((global_entry + 16) & 0xff)
        MOV     R3,#(((global_entry + 16) >> 8) & 0xff)
        LCALL   ?Subroutine4 & 0xFFFF
//  176       HalUARTWrite(MT_UART_DEFAULT_PORT, ",", 1);//Comma
//  177       HalUARTWrite(MT_UART_DEFAULT_PORT, global_recv_data[4], global_data_length[4]);//Device Data
??CrossCallReturnLabel_33:
        ; Setup parameters for call to function HalUARTWrite
        MOV     DPTR,#(global_data_length + 4)
        LCALL   ?Subroutine1 & 0xFFFF
??CrossCallReturnLabel_12:
        MOV     R2,#((global_recv_data + 120) & 0xff)
        MOV     R3,#(((global_recv_data + 120) >> 8) & 0xff)
        LCALL   ?Subroutine5 & 0xFFFF
//  178       HalUARTWrite(MT_UART_DEFAULT_PORT, "$\r\n", 3);//$\n
//  179       global_flag[4]=0;
??CrossCallReturnLabel_46:
        MOV     DPTR,#(global_flag + 8)
        CLR     A
        MOVX    @DPTR,A
        INC     DPTR
        MOVX    @DPTR,A
//  180       }
//  181       //break;
//  182     //case 5:  
//  183       if(stack <= top++ || global_flag[5]==0)
??ZSendMsgProcess_13:
        LCALL   ?Subroutine0 & 0xFFFF
??CrossCallReturnLabel_5:
        JC      $+5
        LJMP    ??ZSendMsgProcess_0 & 0xFFFF
        MOV     DPTR,#(global_flag + 10)
        MOVX    A,@DPTR
        JNZ     ??ZSendMsgProcess_15
        INC     DPTR
        MOVX    A,@DPTR
??ZSendMsgProcess_15:
        JNZ     $+5
        LJMP    ??ZSendMsgProcess_0 & 0xFFFF
//  184         break;
//  185       HalUARTWrite(MT_UART_DEFAULT_PORT, "3", 1);//Cmd Type
        ; Setup parameters for call to function HalUARTWrite
        LCALL   ?Subroutine3 & 0xFFFF
//  186       HalUARTWrite(MT_UART_DEFAULT_PORT, ",", 1);//Comma   
//  187       HalUARTWrite(MT_UART_DEFAULT_PORT, global_entry[5], 4);//Device ID
??CrossCallReturnLabel_25:
        MOV     R2,#((global_entry + 20) & 0xff)
        MOV     R3,#(((global_entry + 20) >> 8) & 0xff)
        LCALL   ?Subroutine4 & 0xFFFF
//  188       HalUARTWrite(MT_UART_DEFAULT_PORT, ",", 1);//Comma
//  189       HalUARTWrite(MT_UART_DEFAULT_PORT, global_recv_data[5], global_data_length[5]);//Device Data
??CrossCallReturnLabel_34:
        ; Setup parameters for call to function HalUARTWrite
        MOV     DPTR,#(global_data_length + 5)
        LCALL   ?Subroutine1 & 0xFFFF
??CrossCallReturnLabel_13:
        MOV     R2,#((global_recv_data + 150) & 0xff)
        MOV     R3,#(((global_recv_data + 150) >> 8) & 0xff)
        LCALL   ?Subroutine5 & 0xFFFF
//  190       HalUARTWrite(MT_UART_DEFAULT_PORT, "$\r\n", 3);//$\n
//  191       global_flag[5]=0;
??CrossCallReturnLabel_47:
        MOV     DPTR,#(global_flag + 10)
        LJMP    ??ZSendMsgProcess_8 & 0xFFFF
//  192       break;
//  193     case 6:    
//  194       if(stack <= top++ || global_flag[6]==0)
??ZSendMsgProcess_4:
        LCALL   ?Subroutine0 & 0xFFFF
??CrossCallReturnLabel_6:
        JNC     ??ZSendMsgProcess_16
        MOV     DPTR,#(global_flag + 12)
        MOVX    A,@DPTR
        JNZ     ??ZSendMsgProcess_17
        INC     DPTR
        MOVX    A,@DPTR
??ZSendMsgProcess_17:
        JZ      ??ZSendMsgProcess_16
//  195         //break;
//  196         ;
//  197       else
//  198       {
//  199       HalUARTWrite(MT_UART_DEFAULT_PORT, "3", 1);//Cmd Type
        ; Setup parameters for call to function HalUARTWrite
        LCALL   ?Subroutine3 & 0xFFFF
//  200       HalUARTWrite(MT_UART_DEFAULT_PORT, ",", 1);//Comma   
//  201       HalUARTWrite(MT_UART_DEFAULT_PORT, global_entry[6], 4);//Device ID
??CrossCallReturnLabel_26:
        MOV     R2,#((global_entry + 24) & 0xff)
        MOV     R3,#(((global_entry + 24) >> 8) & 0xff)
        LCALL   ?Subroutine4 & 0xFFFF
//  202       HalUARTWrite(MT_UART_DEFAULT_PORT, ",", 1);//Comma
//  203       HalUARTWrite(MT_UART_DEFAULT_PORT, global_recv_data[6], global_data_length[6]);//Device Data
??CrossCallReturnLabel_35:
        ; Setup parameters for call to function HalUARTWrite
        MOV     DPTR,#(global_data_length + 6)
        LCALL   ?Subroutine1 & 0xFFFF
??CrossCallReturnLabel_14:
        MOV     R2,#((global_recv_data + 180) & 0xff)
        MOV     R3,#(((global_recv_data + 180) >> 8) & 0xff)
        LCALL   ?Subroutine5 & 0xFFFF
//  204       HalUARTWrite(MT_UART_DEFAULT_PORT, "$\r\n", 3);//$\n
//  205       global_flag[6]=0;
??CrossCallReturnLabel_48:
        MOV     DPTR,#(global_flag + 12)
        CLR     A
        MOVX    @DPTR,A
        INC     DPTR
        MOVX    @DPTR,A
//  206       }
//  207       //break;
//  208     //case 7:  
//  209       if(stack <= top++ || global_flag[7]==0)
??ZSendMsgProcess_16:
        LCALL   ?Subroutine0 & 0xFFFF
??CrossCallReturnLabel_7:
        JNC     ??ZSendMsgProcess_18
        MOV     DPTR,#(global_flag + 14)
        MOVX    A,@DPTR
        JNZ     ??ZSendMsgProcess_19
        INC     DPTR
        MOVX    A,@DPTR
??ZSendMsgProcess_19:
        JZ      ??ZSendMsgProcess_18
//  210         //break;
//  211         ;
//  212       else
//  213       {
//  214       HalUARTWrite(MT_UART_DEFAULT_PORT, "3", 1);//Cmd Type
        ; Setup parameters for call to function HalUARTWrite
        LCALL   ?Subroutine3 & 0xFFFF
//  215       HalUARTWrite(MT_UART_DEFAULT_PORT, ",", 1);//Comma   
//  216       HalUARTWrite(MT_UART_DEFAULT_PORT, global_entry[7], 4);//Device ID
??CrossCallReturnLabel_27:
        MOV     R2,#((global_entry + 28) & 0xff)
        MOV     R3,#(((global_entry + 28) >> 8) & 0xff)
        LCALL   ?Subroutine4 & 0xFFFF
//  217       HalUARTWrite(MT_UART_DEFAULT_PORT, ",", 1);//Comma
//  218       HalUARTWrite(MT_UART_DEFAULT_PORT, global_recv_data[7], global_data_length[7]);//Device Data
??CrossCallReturnLabel_36:
        ; Setup parameters for call to function HalUARTWrite
        MOV     DPTR,#(global_data_length + 7)
        LCALL   ?Subroutine1 & 0xFFFF
??CrossCallReturnLabel_15:
        MOV     R2,#((global_recv_data + 210) & 0xff)
        MOV     R3,#(((global_recv_data + 210) >> 8) & 0xff)
        LCALL   ?Subroutine5 & 0xFFFF
//  219       HalUARTWrite(MT_UART_DEFAULT_PORT, "$\r\n", 3);//$\n 
//  220       global_flag[7]=0;
??CrossCallReturnLabel_49:
        MOV     DPTR,#(global_flag + 14)
        CLR     A
        MOVX    @DPTR,A
        INC     DPTR
        MOVX    @DPTR,A
//  221       }
//  222       //break;
//  223     //case 8:      
//  224       if(stack <= top || global_flag[8]==0)
??ZSendMsgProcess_18:
        LCALL   ?Subroutine6 & 0xFFFF
??CrossCallReturnLabel_53:
        MOV     DPH,#((top >> 8) & 0xff)
        MOV     DPL,#(top & 0xff)
        CLR     C
        MOVX    A,@DPTR
        SUBB    A,R0
        INC     DPTR
        MOVX    A,@DPTR
        SUBB    A,R1
        MOV     C,0xD0 /* PSW */.2
        XRL     A,PSW
        RLC     A
        JNC     ??ZSendMsgProcess_20
        MOV     DPTR,#(global_flag + 16)
        MOVX    A,@DPTR
        JNZ     ??ZSendMsgProcess_21
        INC     DPTR
        MOVX    A,@DPTR
??ZSendMsgProcess_21:
        JNZ     ??ZSendMsgProcess_22
//  225       {
//  226         top=0;
??ZSendMsgProcess_20:
        MOV     DPTR,#top
        LJMP    ??ZSendMsgProcess_8 & 0xFFFF
//  227         break;
//  228       }
//  229       HalUARTWrite(MT_UART_DEFAULT_PORT, "3", 1);//Cmd Type
??ZSendMsgProcess_22:
        ; Setup parameters for call to function HalUARTWrite
        LCALL   ?Subroutine3 & 0xFFFF
//  230       HalUARTWrite(MT_UART_DEFAULT_PORT, ",", 1);//Comma   
//  231       HalUARTWrite(MT_UART_DEFAULT_PORT, global_entry[8], 4);//Device ID
??CrossCallReturnLabel_28:
        MOV     R2,#((global_entry + 32) & 0xff)
        MOV     R3,#(((global_entry + 32) >> 8) & 0xff)
        LCALL   ?Subroutine4 & 0xFFFF
//  232       HalUARTWrite(MT_UART_DEFAULT_PORT, ",", 1);//Comma
//  233       HalUARTWrite(MT_UART_DEFAULT_PORT, global_recv_data[8], global_data_length[8]);//Device Data
??CrossCallReturnLabel_37:
        ; Setup parameters for call to function HalUARTWrite
        MOV     DPTR,#(global_data_length + 8)
        LCALL   ?Subroutine1 & 0xFFFF
??CrossCallReturnLabel_16:
        MOV     R2,#((global_recv_data + 240) & 0xff)
        MOV     R3,#(((global_recv_data + 240) >> 8) & 0xff)
        LCALL   ?Subroutine5 & 0xFFFF
//  234       HalUARTWrite(MT_UART_DEFAULT_PORT, "$\r\n", 3);//$\n
//  235       global_flag[8]=0;
??CrossCallReturnLabel_50:
        MOV     DPTR,#(global_flag + 16)
        CLR     A
        MOVX    @DPTR,A
        INC     DPTR
        MOVX    @DPTR,A
//  236       top=0;
        MOV     DPTR,#top
??ZSendMsgProcess_9:
        MOVX    @DPTR,A
        INC     DPTR
        MOVX    @DPTR,A
//  237       break;
//  238     default:
//  239       break;
//  240     }
//  241 
//  242     osal_start_timerEx( zclZigbeeReceiver_TaskID, ZDO_MSG_SEND_EVT, 1500 );        
??ZSendMsgProcess_0:
        ; Setup parameters for call to function osal_start_timerEx
        MOV     R4,#-0x24
        MOV     R5,#0x5
        MOV     R2,#0x0
        MOV     R3,#0x8
        MOV     DPTR,#zclZigbeeReceiver_TaskID
        MOVX    A,@DPTR
        MOV     R1,A
        LCALL   ??osal_start_timerEx?relay
//  243 }
        MOV     R7,#0x6
        LJMP    ?BANKED_LEAVE_XDATA
        CFI EndBlock cfiBlock0

        RSEG BANKED_CODE:CODE:NOROOT(0)
?Subroutine6:
        CFI Block cfiCond1 Using cfiCommon0
        CFI NoFunction
        CFI Conditional ??CrossCallReturnLabel_53
        CFI R6 load(1, XDATA, add(CFA_XSP16, literal(-14)))
        CFI VB load(1, XDATA, add(CFA_XSP16, literal(-13)))
        CFI V0 load(1, XDATA, add(CFA_XSP16, literal(-12)))
        CFI V1 load(1, XDATA, add(CFA_XSP16, literal(-11)))
        CFI V2 load(1, XDATA, add(CFA_XSP16, literal(-10)))
        CFI V3 load(1, XDATA, add(CFA_XSP16, literal(-9)))
        CFI V4 load(1, XDATA, add(CFA_XSP16, literal(-8)))
        CFI V5 load(1, XDATA, add(CFA_XSP16, literal(-7)))
        CFI R7 load(1, XDATA, add(CFA_XSP16, literal(-6)))
        CFI ?RET_LOW load(1, XDATA, add(CFA_XSP16, literal(-5)))
        CFI ?RET_HIGH load(1, XDATA, add(CFA_XSP16, literal(-4)))
        CFI ?BRET_EXT load(1, XDATA, add(CFA_XSP16, literal(-3)))
        CFI DPL0 load(1, XDATA, add(CFA_XSP16, literal(-2)))
        CFI DPH0 load(1, XDATA, add(CFA_XSP16, literal(-1)))
        CFI CFA_SP SP+0
        CFI CFA_XSP16 add(XSP16, 14)
        CFI Block cfiCond2 Using cfiCommon0
        CFI (cfiCond2) NoFunction
        CFI (cfiCond2) Conditional ??CrossCallReturnLabel_54, ??CrossCallReturnLabel_0
        CFI (cfiCond2) R6 load(1, XDATA, add(CFA_XSP16, literal(-14)))
        CFI (cfiCond2) VB load(1, XDATA, add(CFA_XSP16, literal(-13)))
        CFI (cfiCond2) V0 load(1, XDATA, add(CFA_XSP16, literal(-12)))
        CFI (cfiCond2) V1 load(1, XDATA, add(CFA_XSP16, literal(-11)))
        CFI (cfiCond2) V2 load(1, XDATA, add(CFA_XSP16, literal(-10)))
        CFI (cfiCond2) V3 load(1, XDATA, add(CFA_XSP16, literal(-9)))
        CFI (cfiCond2) V4 load(1, XDATA, add(CFA_XSP16, literal(-8)))
        CFI (cfiCond2) V5 load(1, XDATA, add(CFA_XSP16, literal(-7)))
        CFI (cfiCond2) R7 load(1, XDATA, add(CFA_XSP16, literal(-6)))
        CFI (cfiCond2) ?RET_LOW load(1, XDATA, add(CFA_XSP16, literal(-5)))
        CFI (cfiCond2) ?RET_HIGH load(1, XDATA, add(CFA_XSP16, literal(-4)))
        CFI (cfiCond2) ?BRET_EXT load(1, XDATA, add(CFA_XSP16, literal(-3)))
        CFI (cfiCond2) DPL0 load(1, XDATA, add(CFA_XSP16, literal(-2)))
        CFI (cfiCond2) DPH0 load(1, XDATA, add(CFA_XSP16, literal(-1)))
        CFI (cfiCond2) CFA_SP SP+0
        CFI (cfiCond2) CFA_XSP16 add(XSP16, 14)
        CFI Block cfiCond3 Using cfiCommon0
        CFI (cfiCond3) NoFunction
        CFI (cfiCond3) Conditional ??CrossCallReturnLabel_54, ??CrossCallReturnLabel_1
        CFI (cfiCond3) R6 load(1, XDATA, add(CFA_XSP16, literal(-14)))
        CFI (cfiCond3) VB load(1, XDATA, add(CFA_XSP16, literal(-13)))
        CFI (cfiCond3) V0 load(1, XDATA, add(CFA_XSP16, literal(-12)))
        CFI (cfiCond3) V1 load(1, XDATA, add(CFA_XSP16, literal(-11)))
        CFI (cfiCond3) V2 load(1, XDATA, add(CFA_XSP16, literal(-10)))
        CFI (cfiCond3) V3 load(1, XDATA, add(CFA_XSP16, literal(-9)))
        CFI (cfiCond3) V4 load(1, XDATA, add(CFA_XSP16, literal(-8)))
        CFI (cfiCond3) V5 load(1, XDATA, add(CFA_XSP16, literal(-7)))
        CFI (cfiCond3) R7 load(1, XDATA, add(CFA_XSP16, literal(-6)))
        CFI (cfiCond3) ?RET_LOW load(1, XDATA, add(CFA_XSP16, literal(-5)))
        CFI (cfiCond3) ?RET_HIGH load(1, XDATA, add(CFA_XSP16, literal(-4)))
        CFI (cfiCond3) ?BRET_EXT load(1, XDATA, add(CFA_XSP16, literal(-3)))
        CFI (cfiCond3) DPL0 load(1, XDATA, add(CFA_XSP16, literal(-2)))
        CFI (cfiCond3) DPH0 load(1, XDATA, add(CFA_XSP16, literal(-1)))
        CFI (cfiCond3) CFA_SP SP+0
        CFI (cfiCond3) CFA_XSP16 add(XSP16, 14)
        CFI Block cfiCond4 Using cfiCommon0
        CFI (cfiCond4) NoFunction
        CFI (cfiCond4) Conditional ??CrossCallReturnLabel_54, ??CrossCallReturnLabel_2
        CFI (cfiCond4) R6 load(1, XDATA, add(CFA_XSP16, literal(-14)))
        CFI (cfiCond4) VB load(1, XDATA, add(CFA_XSP16, literal(-13)))
        CFI (cfiCond4) V0 load(1, XDATA, add(CFA_XSP16, literal(-12)))
        CFI (cfiCond4) V1 load(1, XDATA, add(CFA_XSP16, literal(-11)))
        CFI (cfiCond4) V2 load(1, XDATA, add(CFA_XSP16, literal(-10)))
        CFI (cfiCond4) V3 load(1, XDATA, add(CFA_XSP16, literal(-9)))
        CFI (cfiCond4) V4 load(1, XDATA, add(CFA_XSP16, literal(-8)))
        CFI (cfiCond4) V5 load(1, XDATA, add(CFA_XSP16, literal(-7)))
        CFI (cfiCond4) R7 load(1, XDATA, add(CFA_XSP16, literal(-6)))
        CFI (cfiCond4) ?RET_LOW load(1, XDATA, add(CFA_XSP16, literal(-5)))
        CFI (cfiCond4) ?RET_HIGH load(1, XDATA, add(CFA_XSP16, literal(-4)))
        CFI (cfiCond4) ?BRET_EXT load(1, XDATA, add(CFA_XSP16, literal(-3)))
        CFI (cfiCond4) DPL0 load(1, XDATA, add(CFA_XSP16, literal(-2)))
        CFI (cfiCond4) DPH0 load(1, XDATA, add(CFA_XSP16, literal(-1)))
        CFI (cfiCond4) CFA_SP SP+0
        CFI (cfiCond4) CFA_XSP16 add(XSP16, 14)
        CFI Block cfiCond5 Using cfiCommon0
        CFI (cfiCond5) NoFunction
        CFI (cfiCond5) Conditional ??CrossCallReturnLabel_54, ??CrossCallReturnLabel_3
        CFI (cfiCond5) R6 load(1, XDATA, add(CFA_XSP16, literal(-14)))
        CFI (cfiCond5) VB load(1, XDATA, add(CFA_XSP16, literal(-13)))
        CFI (cfiCond5) V0 load(1, XDATA, add(CFA_XSP16, literal(-12)))
        CFI (cfiCond5) V1 load(1, XDATA, add(CFA_XSP16, literal(-11)))
        CFI (cfiCond5) V2 load(1, XDATA, add(CFA_XSP16, literal(-10)))
        CFI (cfiCond5) V3 load(1, XDATA, add(CFA_XSP16, literal(-9)))
        CFI (cfiCond5) V4 load(1, XDATA, add(CFA_XSP16, literal(-8)))
        CFI (cfiCond5) V5 load(1, XDATA, add(CFA_XSP16, literal(-7)))
        CFI (cfiCond5) R7 load(1, XDATA, add(CFA_XSP16, literal(-6)))
        CFI (cfiCond5) ?RET_LOW load(1, XDATA, add(CFA_XSP16, literal(-5)))
        CFI (cfiCond5) ?RET_HIGH load(1, XDATA, add(CFA_XSP16, literal(-4)))
        CFI (cfiCond5) ?BRET_EXT load(1, XDATA, add(CFA_XSP16, literal(-3)))
        CFI (cfiCond5) DPL0 load(1, XDATA, add(CFA_XSP16, literal(-2)))
        CFI (cfiCond5) DPH0 load(1, XDATA, add(CFA_XSP16, literal(-1)))
        CFI (cfiCond5) CFA_SP SP+0
        CFI (cfiCond5) CFA_XSP16 add(XSP16, 14)
        CFI Block cfiCond6 Using cfiCommon0
        CFI (cfiCond6) NoFunction
        CFI (cfiCond6) Conditional ??CrossCallReturnLabel_54, ??CrossCallReturnLabel_4
        CFI (cfiCond6) R6 load(1, XDATA, add(CFA_XSP16, literal(-14)))
        CFI (cfiCond6) VB load(1, XDATA, add(CFA_XSP16, literal(-13)))
        CFI (cfiCond6) V0 load(1, XDATA, add(CFA_XSP16, literal(-12)))
        CFI (cfiCond6) V1 load(1, XDATA, add(CFA_XSP16, literal(-11)))
        CFI (cfiCond6) V2 load(1, XDATA, add(CFA_XSP16, literal(-10)))
        CFI (cfiCond6) V3 load(1, XDATA, add(CFA_XSP16, literal(-9)))
        CFI (cfiCond6) V4 load(1, XDATA, add(CFA_XSP16, literal(-8)))
        CFI (cfiCond6) V5 load(1, XDATA, add(CFA_XSP16, literal(-7)))
        CFI (cfiCond6) R7 load(1, XDATA, add(CFA_XSP16, literal(-6)))
        CFI (cfiCond6) ?RET_LOW load(1, XDATA, add(CFA_XSP16, literal(-5)))
        CFI (cfiCond6) ?RET_HIGH load(1, XDATA, add(CFA_XSP16, literal(-4)))
        CFI (cfiCond6) ?BRET_EXT load(1, XDATA, add(CFA_XSP16, literal(-3)))
        CFI (cfiCond6) DPL0 load(1, XDATA, add(CFA_XSP16, literal(-2)))
        CFI (cfiCond6) DPH0 load(1, XDATA, add(CFA_XSP16, literal(-1)))
        CFI (cfiCond6) CFA_SP SP+0
        CFI (cfiCond6) CFA_XSP16 add(XSP16, 14)
        CFI Block cfiCond7 Using cfiCommon0
        CFI (cfiCond7) NoFunction
        CFI (cfiCond7) Conditional ??CrossCallReturnLabel_54, ??CrossCallReturnLabel_5
        CFI (cfiCond7) R6 load(1, XDATA, add(CFA_XSP16, literal(-14)))
        CFI (cfiCond7) VB load(1, XDATA, add(CFA_XSP16, literal(-13)))
        CFI (cfiCond7) V0 load(1, XDATA, add(CFA_XSP16, literal(-12)))
        CFI (cfiCond7) V1 load(1, XDATA, add(CFA_XSP16, literal(-11)))
        CFI (cfiCond7) V2 load(1, XDATA, add(CFA_XSP16, literal(-10)))
        CFI (cfiCond7) V3 load(1, XDATA, add(CFA_XSP16, literal(-9)))
        CFI (cfiCond7) V4 load(1, XDATA, add(CFA_XSP16, literal(-8)))
        CFI (cfiCond7) V5 load(1, XDATA, add(CFA_XSP16, literal(-7)))
        CFI (cfiCond7) R7 load(1, XDATA, add(CFA_XSP16, literal(-6)))
        CFI (cfiCond7) ?RET_LOW load(1, XDATA, add(CFA_XSP16, literal(-5)))
        CFI (cfiCond7) ?RET_HIGH load(1, XDATA, add(CFA_XSP16, literal(-4)))
        CFI (cfiCond7) ?BRET_EXT load(1, XDATA, add(CFA_XSP16, literal(-3)))
        CFI (cfiCond7) DPL0 load(1, XDATA, add(CFA_XSP16, literal(-2)))
        CFI (cfiCond7) DPH0 load(1, XDATA, add(CFA_XSP16, literal(-1)))
        CFI (cfiCond7) CFA_SP SP+0
        CFI (cfiCond7) CFA_XSP16 add(XSP16, 14)
        CFI Block cfiCond8 Using cfiCommon0
        CFI (cfiCond8) NoFunction
        CFI (cfiCond8) Conditional ??CrossCallReturnLabel_54, ??CrossCallReturnLabel_6
        CFI (cfiCond8) R6 load(1, XDATA, add(CFA_XSP16, literal(-14)))
        CFI (cfiCond8) VB load(1, XDATA, add(CFA_XSP16, literal(-13)))
        CFI (cfiCond8) V0 load(1, XDATA, add(CFA_XSP16, literal(-12)))
        CFI (cfiCond8) V1 load(1, XDATA, add(CFA_XSP16, literal(-11)))
        CFI (cfiCond8) V2 load(1, XDATA, add(CFA_XSP16, literal(-10)))
        CFI (cfiCond8) V3 load(1, XDATA, add(CFA_XSP16, literal(-9)))
        CFI (cfiCond8) V4 load(1, XDATA, add(CFA_XSP16, literal(-8)))
        CFI (cfiCond8) V5 load(1, XDATA, add(CFA_XSP16, literal(-7)))
        CFI (cfiCond8) R7 load(1, XDATA, add(CFA_XSP16, literal(-6)))
        CFI (cfiCond8) ?RET_LOW load(1, XDATA, add(CFA_XSP16, literal(-5)))
        CFI (cfiCond8) ?RET_HIGH load(1, XDATA, add(CFA_XSP16, literal(-4)))
        CFI (cfiCond8) ?BRET_EXT load(1, XDATA, add(CFA_XSP16, literal(-3)))
        CFI (cfiCond8) DPL0 load(1, XDATA, add(CFA_XSP16, literal(-2)))
        CFI (cfiCond8) DPH0 load(1, XDATA, add(CFA_XSP16, literal(-1)))
        CFI (cfiCond8) CFA_SP SP+0
        CFI (cfiCond8) CFA_XSP16 add(XSP16, 14)
        CFI Block cfiCond9 Using cfiCommon0
        CFI (cfiCond9) NoFunction
        CFI (cfiCond9) Conditional ??CrossCallReturnLabel_54, ??CrossCallReturnLabel_7
        CFI (cfiCond9) R6 load(1, XDATA, add(CFA_XSP16, literal(-14)))
        CFI (cfiCond9) VB load(1, XDATA, add(CFA_XSP16, literal(-13)))
        CFI (cfiCond9) V0 load(1, XDATA, add(CFA_XSP16, literal(-12)))
        CFI (cfiCond9) V1 load(1, XDATA, add(CFA_XSP16, literal(-11)))
        CFI (cfiCond9) V2 load(1, XDATA, add(CFA_XSP16, literal(-10)))
        CFI (cfiCond9) V3 load(1, XDATA, add(CFA_XSP16, literal(-9)))
        CFI (cfiCond9) V4 load(1, XDATA, add(CFA_XSP16, literal(-8)))
        CFI (cfiCond9) V5 load(1, XDATA, add(CFA_XSP16, literal(-7)))
        CFI (cfiCond9) R7 load(1, XDATA, add(CFA_XSP16, literal(-6)))
        CFI (cfiCond9) ?RET_LOW load(1, XDATA, add(CFA_XSP16, literal(-5)))
        CFI (cfiCond9) ?RET_HIGH load(1, XDATA, add(CFA_XSP16, literal(-4)))
        CFI (cfiCond9) ?BRET_EXT load(1, XDATA, add(CFA_XSP16, literal(-3)))
        CFI (cfiCond9) DPL0 load(1, XDATA, add(CFA_XSP16, literal(-2)))
        CFI (cfiCond9) DPH0 load(1, XDATA, add(CFA_XSP16, literal(-1)))
        CFI (cfiCond9) CFA_SP SP+0
        CFI (cfiCond9) CFA_XSP16 add(XSP16, 14)
        CFI Block cfiPicker10 Using cfiCommon1
        CFI (cfiPicker10) NoFunction
        CFI (cfiPicker10) Picker
        MOV     DPTR,#stack
        CFI EndBlock cfiCond1
        CFI EndBlock cfiCond2
        CFI EndBlock cfiCond3
        CFI EndBlock cfiCond4
        CFI EndBlock cfiCond5
        CFI EndBlock cfiCond6
        CFI EndBlock cfiCond7
        CFI EndBlock cfiCond8
        CFI EndBlock cfiCond9
        CFI EndBlock cfiPicker10
        REQUIRE ??Subroutine12_0
        ; // Fall through to label ??Subroutine12_0

        RSEG BANKED_CODE:CODE:NOROOT(0)
??Subroutine12_0:
        CFI Block cfiCond11 Using cfiCommon0
        CFI NoFunction
        CFI Conditional ??CrossCallReturnLabel_52, ??CrossCallReturnLabel_18
        CFI R6 load(1, XDATA, add(CFA_XSP16, literal(-12)))
        CFI VB load(1, XDATA, add(CFA_XSP16, literal(-11)))
        CFI V0 load(1, XDATA, add(CFA_XSP16, literal(-10)))
        CFI V1 load(1, XDATA, add(CFA_XSP16, literal(-9)))
        CFI V2 load(1, XDATA, add(CFA_XSP16, literal(-8)))
        CFI V3 load(1, XDATA, add(CFA_XSP16, literal(-7)))
        CFI R7 load(1, XDATA, add(CFA_XSP16, literal(-6)))
        CFI ?RET_LOW load(1, XDATA, add(CFA_XSP16, literal(-5)))
        CFI ?RET_HIGH load(1, XDATA, add(CFA_XSP16, literal(-4)))
        CFI ?BRET_EXT load(1, XDATA, add(CFA_XSP16, literal(-3)))
        CFI DPL0 load(1, XDATA, add(CFA_XSP16, literal(-2)))
        CFI DPH0 load(1, XDATA, add(CFA_XSP16, literal(-1)))
        CFI CFA_SP SP+0
        CFI CFA_XSP16 add(XSP16, 12)
        CFI Block cfiCond12 Using cfiCommon0
        CFI (cfiCond12) NoFunction
        CFI (cfiCond12) Conditional ??CrossCallReturnLabel_52, ??CrossCallReturnLabel_19
        CFI (cfiCond12) R6 load(1, XDATA, add(CFA_XSP16, literal(-12)))
        CFI (cfiCond12) VB load(1, XDATA, add(CFA_XSP16, literal(-11)))
        CFI (cfiCond12) V0 load(1, XDATA, add(CFA_XSP16, literal(-10)))
        CFI (cfiCond12) V1 load(1, XDATA, add(CFA_XSP16, literal(-9)))
        CFI (cfiCond12) V2 load(1, XDATA, add(CFA_XSP16, literal(-8)))
        CFI (cfiCond12) V3 load(1, XDATA, add(CFA_XSP16, literal(-7)))
        CFI (cfiCond12) R7 load(1, XDATA, add(CFA_XSP16, literal(-6)))
        CFI (cfiCond12) ?RET_LOW load(1, XDATA, add(CFA_XSP16, literal(-5)))
        CFI (cfiCond12) ?RET_HIGH load(1, XDATA, add(CFA_XSP16, literal(-4)))
        CFI (cfiCond12) ?BRET_EXT load(1, XDATA, add(CFA_XSP16, literal(-3)))
        CFI (cfiCond12) DPL0 load(1, XDATA, add(CFA_XSP16, literal(-2)))
        CFI (cfiCond12) DPH0 load(1, XDATA, add(CFA_XSP16, literal(-1)))
        CFI (cfiCond12) CFA_SP SP+0
        CFI (cfiCond12) CFA_XSP16 add(XSP16, 12)
        CFI Block cfiCond13 Using cfiCommon0
        CFI (cfiCond13) NoFunction
        CFI (cfiCond13) Conditional ??CrossCallReturnLabel_51
        CFI (cfiCond13) DPL0 Frame(CFA_SP, 4)
        CFI (cfiCond13) DPH0 Frame(CFA_SP, 5)
        CFI (cfiCond13) CFA_SP SP+-5
        CFI Block cfiCond14 Using cfiCommon0
        CFI (cfiCond14) NoFunction
        CFI (cfiCond14) Conditional ??CrossCallReturnLabel_53
        CFI (cfiCond14) R6 load(1, XDATA, add(CFA_XSP16, literal(-14)))
        CFI (cfiCond14) VB load(1, XDATA, add(CFA_XSP16, literal(-13)))
        CFI (cfiCond14) V0 load(1, XDATA, add(CFA_XSP16, literal(-12)))
        CFI (cfiCond14) V1 load(1, XDATA, add(CFA_XSP16, literal(-11)))
        CFI (cfiCond14) V2 load(1, XDATA, add(CFA_XSP16, literal(-10)))
        CFI (cfiCond14) V3 load(1, XDATA, add(CFA_XSP16, literal(-9)))
        CFI (cfiCond14) V4 load(1, XDATA, add(CFA_XSP16, literal(-8)))
        CFI (cfiCond14) V5 load(1, XDATA, add(CFA_XSP16, literal(-7)))
        CFI (cfiCond14) R7 load(1, XDATA, add(CFA_XSP16, literal(-6)))
        CFI (cfiCond14) ?RET_LOW load(1, XDATA, add(CFA_XSP16, literal(-5)))
        CFI (cfiCond14) ?RET_HIGH load(1, XDATA, add(CFA_XSP16, literal(-4)))
        CFI (cfiCond14) ?BRET_EXT load(1, XDATA, add(CFA_XSP16, literal(-3)))
        CFI (cfiCond14) DPL0 load(1, XDATA, add(CFA_XSP16, literal(-2)))
        CFI (cfiCond14) DPH0 load(1, XDATA, add(CFA_XSP16, literal(-1)))
        CFI (cfiCond14) CFA_SP SP+0
        CFI (cfiCond14) CFA_XSP16 add(XSP16, 14)
        CFI Block cfiCond15 Using cfiCommon0
        CFI (cfiCond15) NoFunction
        CFI (cfiCond15) Conditional ??CrossCallReturnLabel_54, ??CrossCallReturnLabel_0
        CFI (cfiCond15) R6 load(1, XDATA, add(CFA_XSP16, literal(-14)))
        CFI (cfiCond15) VB load(1, XDATA, add(CFA_XSP16, literal(-13)))
        CFI (cfiCond15) V0 load(1, XDATA, add(CFA_XSP16, literal(-12)))
        CFI (cfiCond15) V1 load(1, XDATA, add(CFA_XSP16, literal(-11)))
        CFI (cfiCond15) V2 load(1, XDATA, add(CFA_XSP16, literal(-10)))
        CFI (cfiCond15) V3 load(1, XDATA, add(CFA_XSP16, literal(-9)))
        CFI (cfiCond15) V4 load(1, XDATA, add(CFA_XSP16, literal(-8)))
        CFI (cfiCond15) V5 load(1, XDATA, add(CFA_XSP16, literal(-7)))
        CFI (cfiCond15) R7 load(1, XDATA, add(CFA_XSP16, literal(-6)))
        CFI (cfiCond15) ?RET_LOW load(1, XDATA, add(CFA_XSP16, literal(-5)))
        CFI (cfiCond15) ?RET_HIGH load(1, XDATA, add(CFA_XSP16, literal(-4)))
        CFI (cfiCond15) ?BRET_EXT load(1, XDATA, add(CFA_XSP16, literal(-3)))
        CFI (cfiCond15) DPL0 load(1, XDATA, add(CFA_XSP16, literal(-2)))
        CFI (cfiCond15) DPH0 load(1, XDATA, add(CFA_XSP16, literal(-1)))
        CFI (cfiCond15) CFA_SP SP+0
        CFI (cfiCond15) CFA_XSP16 add(XSP16, 14)
        CFI Block cfiCond16 Using cfiCommon0
        CFI (cfiCond16) NoFunction
        CFI (cfiCond16) Conditional ??CrossCallReturnLabel_54, ??CrossCallReturnLabel_1
        CFI (cfiCond16) R6 load(1, XDATA, add(CFA_XSP16, literal(-14)))
        CFI (cfiCond16) VB load(1, XDATA, add(CFA_XSP16, literal(-13)))
        CFI (cfiCond16) V0 load(1, XDATA, add(CFA_XSP16, literal(-12)))
        CFI (cfiCond16) V1 load(1, XDATA, add(CFA_XSP16, literal(-11)))
        CFI (cfiCond16) V2 load(1, XDATA, add(CFA_XSP16, literal(-10)))
        CFI (cfiCond16) V3 load(1, XDATA, add(CFA_XSP16, literal(-9)))
        CFI (cfiCond16) V4 load(1, XDATA, add(CFA_XSP16, literal(-8)))
        CFI (cfiCond16) V5 load(1, XDATA, add(CFA_XSP16, literal(-7)))
        CFI (cfiCond16) R7 load(1, XDATA, add(CFA_XSP16, literal(-6)))
        CFI (cfiCond16) ?RET_LOW load(1, XDATA, add(CFA_XSP16, literal(-5)))
        CFI (cfiCond16) ?RET_HIGH load(1, XDATA, add(CFA_XSP16, literal(-4)))
        CFI (cfiCond16) ?BRET_EXT load(1, XDATA, add(CFA_XSP16, literal(-3)))
        CFI (cfiCond16) DPL0 load(1, XDATA, add(CFA_XSP16, literal(-2)))
        CFI (cfiCond16) DPH0 load(1, XDATA, add(CFA_XSP16, literal(-1)))
        CFI (cfiCond16) CFA_SP SP+0
        CFI (cfiCond16) CFA_XSP16 add(XSP16, 14)
        CFI Block cfiCond17 Using cfiCommon0
        CFI (cfiCond17) NoFunction
        CFI (cfiCond17) Conditional ??CrossCallReturnLabel_54, ??CrossCallReturnLabel_2
        CFI (cfiCond17) R6 load(1, XDATA, add(CFA_XSP16, literal(-14)))
        CFI (cfiCond17) VB load(1, XDATA, add(CFA_XSP16, literal(-13)))
        CFI (cfiCond17) V0 load(1, XDATA, add(CFA_XSP16, literal(-12)))
        CFI (cfiCond17) V1 load(1, XDATA, add(CFA_XSP16, literal(-11)))
        CFI (cfiCond17) V2 load(1, XDATA, add(CFA_XSP16, literal(-10)))
        CFI (cfiCond17) V3 load(1, XDATA, add(CFA_XSP16, literal(-9)))
        CFI (cfiCond17) V4 load(1, XDATA, add(CFA_XSP16, literal(-8)))
        CFI (cfiCond17) V5 load(1, XDATA, add(CFA_XSP16, literal(-7)))
        CFI (cfiCond17) R7 load(1, XDATA, add(CFA_XSP16, literal(-6)))
        CFI (cfiCond17) ?RET_LOW load(1, XDATA, add(CFA_XSP16, literal(-5)))
        CFI (cfiCond17) ?RET_HIGH load(1, XDATA, add(CFA_XSP16, literal(-4)))
        CFI (cfiCond17) ?BRET_EXT load(1, XDATA, add(CFA_XSP16, literal(-3)))
        CFI (cfiCond17) DPL0 load(1, XDATA, add(CFA_XSP16, literal(-2)))
        CFI (cfiCond17) DPH0 load(1, XDATA, add(CFA_XSP16, literal(-1)))
        CFI (cfiCond17) CFA_SP SP+0
        CFI (cfiCond17) CFA_XSP16 add(XSP16, 14)
        CFI Block cfiCond18 Using cfiCommon0
        CFI (cfiCond18) NoFunction
        CFI (cfiCond18) Conditional ??CrossCallReturnLabel_54, ??CrossCallReturnLabel_3
        CFI (cfiCond18) R6 load(1, XDATA, add(CFA_XSP16, literal(-14)))
        CFI (cfiCond18) VB load(1, XDATA, add(CFA_XSP16, literal(-13)))
        CFI (cfiCond18) V0 load(1, XDATA, add(CFA_XSP16, literal(-12)))
        CFI (cfiCond18) V1 load(1, XDATA, add(CFA_XSP16, literal(-11)))
        CFI (cfiCond18) V2 load(1, XDATA, add(CFA_XSP16, literal(-10)))
        CFI (cfiCond18) V3 load(1, XDATA, add(CFA_XSP16, literal(-9)))
        CFI (cfiCond18) V4 load(1, XDATA, add(CFA_XSP16, literal(-8)))
        CFI (cfiCond18) V5 load(1, XDATA, add(CFA_XSP16, literal(-7)))
        CFI (cfiCond18) R7 load(1, XDATA, add(CFA_XSP16, literal(-6)))
        CFI (cfiCond18) ?RET_LOW load(1, XDATA, add(CFA_XSP16, literal(-5)))
        CFI (cfiCond18) ?RET_HIGH load(1, XDATA, add(CFA_XSP16, literal(-4)))
        CFI (cfiCond18) ?BRET_EXT load(1, XDATA, add(CFA_XSP16, literal(-3)))
        CFI (cfiCond18) DPL0 load(1, XDATA, add(CFA_XSP16, literal(-2)))
        CFI (cfiCond18) DPH0 load(1, XDATA, add(CFA_XSP16, literal(-1)))
        CFI (cfiCond18) CFA_SP SP+0
        CFI (cfiCond18) CFA_XSP16 add(XSP16, 14)
        CFI Block cfiCond19 Using cfiCommon0
        CFI (cfiCond19) NoFunction
        CFI (cfiCond19) Conditional ??CrossCallReturnLabel_54, ??CrossCallReturnLabel_4
        CFI (cfiCond19) R6 load(1, XDATA, add(CFA_XSP16, literal(-14)))
        CFI (cfiCond19) VB load(1, XDATA, add(CFA_XSP16, literal(-13)))
        CFI (cfiCond19) V0 load(1, XDATA, add(CFA_XSP16, literal(-12)))
        CFI (cfiCond19) V1 load(1, XDATA, add(CFA_XSP16, literal(-11)))
        CFI (cfiCond19) V2 load(1, XDATA, add(CFA_XSP16, literal(-10)))
        CFI (cfiCond19) V3 load(1, XDATA, add(CFA_XSP16, literal(-9)))
        CFI (cfiCond19) V4 load(1, XDATA, add(CFA_XSP16, literal(-8)))
        CFI (cfiCond19) V5 load(1, XDATA, add(CFA_XSP16, literal(-7)))
        CFI (cfiCond19) R7 load(1, XDATA, add(CFA_XSP16, literal(-6)))
        CFI (cfiCond19) ?RET_LOW load(1, XDATA, add(CFA_XSP16, literal(-5)))
        CFI (cfiCond19) ?RET_HIGH load(1, XDATA, add(CFA_XSP16, literal(-4)))
        CFI (cfiCond19) ?BRET_EXT load(1, XDATA, add(CFA_XSP16, literal(-3)))
        CFI (cfiCond19) DPL0 load(1, XDATA, add(CFA_XSP16, literal(-2)))
        CFI (cfiCond19) DPH0 load(1, XDATA, add(CFA_XSP16, literal(-1)))
        CFI (cfiCond19) CFA_SP SP+0
        CFI (cfiCond19) CFA_XSP16 add(XSP16, 14)
        CFI Block cfiCond20 Using cfiCommon0
        CFI (cfiCond20) NoFunction
        CFI (cfiCond20) Conditional ??CrossCallReturnLabel_54, ??CrossCallReturnLabel_5
        CFI (cfiCond20) R6 load(1, XDATA, add(CFA_XSP16, literal(-14)))
        CFI (cfiCond20) VB load(1, XDATA, add(CFA_XSP16, literal(-13)))
        CFI (cfiCond20) V0 load(1, XDATA, add(CFA_XSP16, literal(-12)))
        CFI (cfiCond20) V1 load(1, XDATA, add(CFA_XSP16, literal(-11)))
        CFI (cfiCond20) V2 load(1, XDATA, add(CFA_XSP16, literal(-10)))
        CFI (cfiCond20) V3 load(1, XDATA, add(CFA_XSP16, literal(-9)))
        CFI (cfiCond20) V4 load(1, XDATA, add(CFA_XSP16, literal(-8)))
        CFI (cfiCond20) V5 load(1, XDATA, add(CFA_XSP16, literal(-7)))
        CFI (cfiCond20) R7 load(1, XDATA, add(CFA_XSP16, literal(-6)))
        CFI (cfiCond20) ?RET_LOW load(1, XDATA, add(CFA_XSP16, literal(-5)))
        CFI (cfiCond20) ?RET_HIGH load(1, XDATA, add(CFA_XSP16, literal(-4)))
        CFI (cfiCond20) ?BRET_EXT load(1, XDATA, add(CFA_XSP16, literal(-3)))
        CFI (cfiCond20) DPL0 load(1, XDATA, add(CFA_XSP16, literal(-2)))
        CFI (cfiCond20) DPH0 load(1, XDATA, add(CFA_XSP16, literal(-1)))
        CFI (cfiCond20) CFA_SP SP+0
        CFI (cfiCond20) CFA_XSP16 add(XSP16, 14)
        CFI Block cfiCond21 Using cfiCommon0
        CFI (cfiCond21) NoFunction
        CFI (cfiCond21) Conditional ??CrossCallReturnLabel_54, ??CrossCallReturnLabel_6
        CFI (cfiCond21) R6 load(1, XDATA, add(CFA_XSP16, literal(-14)))
        CFI (cfiCond21) VB load(1, XDATA, add(CFA_XSP16, literal(-13)))
        CFI (cfiCond21) V0 load(1, XDATA, add(CFA_XSP16, literal(-12)))
        CFI (cfiCond21) V1 load(1, XDATA, add(CFA_XSP16, literal(-11)))
        CFI (cfiCond21) V2 load(1, XDATA, add(CFA_XSP16, literal(-10)))
        CFI (cfiCond21) V3 load(1, XDATA, add(CFA_XSP16, literal(-9)))
        CFI (cfiCond21) V4 load(1, XDATA, add(CFA_XSP16, literal(-8)))
        CFI (cfiCond21) V5 load(1, XDATA, add(CFA_XSP16, literal(-7)))
        CFI (cfiCond21) R7 load(1, XDATA, add(CFA_XSP16, literal(-6)))
        CFI (cfiCond21) ?RET_LOW load(1, XDATA, add(CFA_XSP16, literal(-5)))
        CFI (cfiCond21) ?RET_HIGH load(1, XDATA, add(CFA_XSP16, literal(-4)))
        CFI (cfiCond21) ?BRET_EXT load(1, XDATA, add(CFA_XSP16, literal(-3)))
        CFI (cfiCond21) DPL0 load(1, XDATA, add(CFA_XSP16, literal(-2)))
        CFI (cfiCond21) DPH0 load(1, XDATA, add(CFA_XSP16, literal(-1)))
        CFI (cfiCond21) CFA_SP SP+0
        CFI (cfiCond21) CFA_XSP16 add(XSP16, 14)
        CFI Block cfiCond22 Using cfiCommon0
        CFI (cfiCond22) NoFunction
        CFI (cfiCond22) Conditional ??CrossCallReturnLabel_54, ??CrossCallReturnLabel_7
        CFI (cfiCond22) R6 load(1, XDATA, add(CFA_XSP16, literal(-14)))
        CFI (cfiCond22) VB load(1, XDATA, add(CFA_XSP16, literal(-13)))
        CFI (cfiCond22) V0 load(1, XDATA, add(CFA_XSP16, literal(-12)))
        CFI (cfiCond22) V1 load(1, XDATA, add(CFA_XSP16, literal(-11)))
        CFI (cfiCond22) V2 load(1, XDATA, add(CFA_XSP16, literal(-10)))
        CFI (cfiCond22) V3 load(1, XDATA, add(CFA_XSP16, literal(-9)))
        CFI (cfiCond22) V4 load(1, XDATA, add(CFA_XSP16, literal(-8)))
        CFI (cfiCond22) V5 load(1, XDATA, add(CFA_XSP16, literal(-7)))
        CFI (cfiCond22) R7 load(1, XDATA, add(CFA_XSP16, literal(-6)))
        CFI (cfiCond22) ?RET_LOW load(1, XDATA, add(CFA_XSP16, literal(-5)))
        CFI (cfiCond22) ?RET_HIGH load(1, XDATA, add(CFA_XSP16, literal(-4)))
        CFI (cfiCond22) ?BRET_EXT load(1, XDATA, add(CFA_XSP16, literal(-3)))
        CFI (cfiCond22) DPL0 load(1, XDATA, add(CFA_XSP16, literal(-2)))
        CFI (cfiCond22) DPH0 load(1, XDATA, add(CFA_XSP16, literal(-1)))
        CFI (cfiCond22) CFA_SP SP+0
        CFI (cfiCond22) CFA_XSP16 add(XSP16, 14)
        CFI Block cfiPicker23 Using cfiCommon1
        CFI (cfiPicker23) NoFunction
        CFI (cfiPicker23) Picker
        MOVX    A,@DPTR
        MOV     R0,A
        INC     DPTR
        MOVX    A,@DPTR
        MOV     R1,A
        RET
        CFI EndBlock cfiCond11
        CFI EndBlock cfiCond12
        CFI EndBlock cfiCond13
        CFI EndBlock cfiCond14
        CFI EndBlock cfiCond15
        CFI EndBlock cfiCond16
        CFI EndBlock cfiCond17
        CFI EndBlock cfiCond18
        CFI EndBlock cfiCond19
        CFI EndBlock cfiCond20
        CFI EndBlock cfiCond21
        CFI EndBlock cfiCond22
        CFI EndBlock cfiPicker23

        RSEG BANKED_CODE:CODE:NOROOT(0)
?Subroutine5:
        CFI Block cfiCond24 Using cfiCommon0
        CFI NoFunction
        CFI Conditional ??CrossCallReturnLabel_42
        CFI R6 load(1, XDATA, add(CFA_XSP16, literal(-14)))
        CFI VB load(1, XDATA, add(CFA_XSP16, literal(-13)))
        CFI V0 load(1, XDATA, add(CFA_XSP16, literal(-12)))
        CFI V1 load(1, XDATA, add(CFA_XSP16, literal(-11)))
        CFI V2 load(1, XDATA, add(CFA_XSP16, literal(-10)))
        CFI V3 load(1, XDATA, add(CFA_XSP16, literal(-9)))
        CFI V4 load(1, XDATA, add(CFA_XSP16, literal(-8)))
        CFI V5 load(1, XDATA, add(CFA_XSP16, literal(-7)))
        CFI R7 load(1, XDATA, add(CFA_XSP16, literal(-6)))
        CFI ?RET_LOW load(1, XDATA, add(CFA_XSP16, literal(-5)))
        CFI ?RET_HIGH load(1, XDATA, add(CFA_XSP16, literal(-4)))
        CFI ?BRET_EXT load(1, XDATA, add(CFA_XSP16, literal(-3)))
        CFI DPL0 load(1, XDATA, add(CFA_XSP16, literal(-2)))
        CFI DPH0 load(1, XDATA, add(CFA_XSP16, literal(-1)))
        CFI CFA_SP SP+0
        CFI CFA_XSP16 add(XSP16, 14)
        CFI Block cfiCond25 Using cfiCommon0
        CFI (cfiCond25) NoFunction
        CFI (cfiCond25) Conditional ??CrossCallReturnLabel_43
        CFI (cfiCond25) R6 load(1, XDATA, add(CFA_XSP16, literal(-14)))
        CFI (cfiCond25) VB load(1, XDATA, add(CFA_XSP16, literal(-13)))
        CFI (cfiCond25) V0 load(1, XDATA, add(CFA_XSP16, literal(-12)))
        CFI (cfiCond25) V1 load(1, XDATA, add(CFA_XSP16, literal(-11)))
        CFI (cfiCond25) V2 load(1, XDATA, add(CFA_XSP16, literal(-10)))
        CFI (cfiCond25) V3 load(1, XDATA, add(CFA_XSP16, literal(-9)))
        CFI (cfiCond25) V4 load(1, XDATA, add(CFA_XSP16, literal(-8)))
        CFI (cfiCond25) V5 load(1, XDATA, add(CFA_XSP16, literal(-7)))
        CFI (cfiCond25) R7 load(1, XDATA, add(CFA_XSP16, literal(-6)))
        CFI (cfiCond25) ?RET_LOW load(1, XDATA, add(CFA_XSP16, literal(-5)))
        CFI (cfiCond25) ?RET_HIGH load(1, XDATA, add(CFA_XSP16, literal(-4)))
        CFI (cfiCond25) ?BRET_EXT load(1, XDATA, add(CFA_XSP16, literal(-3)))
        CFI (cfiCond25) DPL0 load(1, XDATA, add(CFA_XSP16, literal(-2)))
        CFI (cfiCond25) DPH0 load(1, XDATA, add(CFA_XSP16, literal(-1)))
        CFI (cfiCond25) CFA_SP SP+0
        CFI (cfiCond25) CFA_XSP16 add(XSP16, 14)
        CFI Block cfiCond26 Using cfiCommon0
        CFI (cfiCond26) NoFunction
        CFI (cfiCond26) Conditional ??CrossCallReturnLabel_44
        CFI (cfiCond26) R6 load(1, XDATA, add(CFA_XSP16, literal(-14)))
        CFI (cfiCond26) VB load(1, XDATA, add(CFA_XSP16, literal(-13)))
        CFI (cfiCond26) V0 load(1, XDATA, add(CFA_XSP16, literal(-12)))
        CFI (cfiCond26) V1 load(1, XDATA, add(CFA_XSP16, literal(-11)))
        CFI (cfiCond26) V2 load(1, XDATA, add(CFA_XSP16, literal(-10)))
        CFI (cfiCond26) V3 load(1, XDATA, add(CFA_XSP16, literal(-9)))
        CFI (cfiCond26) V4 load(1, XDATA, add(CFA_XSP16, literal(-8)))
        CFI (cfiCond26) V5 load(1, XDATA, add(CFA_XSP16, literal(-7)))
        CFI (cfiCond26) R7 load(1, XDATA, add(CFA_XSP16, literal(-6)))
        CFI (cfiCond26) ?RET_LOW load(1, XDATA, add(CFA_XSP16, literal(-5)))
        CFI (cfiCond26) ?RET_HIGH load(1, XDATA, add(CFA_XSP16, literal(-4)))
        CFI (cfiCond26) ?BRET_EXT load(1, XDATA, add(CFA_XSP16, literal(-3)))
        CFI (cfiCond26) DPL0 load(1, XDATA, add(CFA_XSP16, literal(-2)))
        CFI (cfiCond26) DPH0 load(1, XDATA, add(CFA_XSP16, literal(-1)))
        CFI (cfiCond26) CFA_SP SP+0
        CFI (cfiCond26) CFA_XSP16 add(XSP16, 14)
        CFI Block cfiCond27 Using cfiCommon0
        CFI (cfiCond27) NoFunction
        CFI (cfiCond27) Conditional ??CrossCallReturnLabel_45
        CFI (cfiCond27) R6 load(1, XDATA, add(CFA_XSP16, literal(-14)))
        CFI (cfiCond27) VB load(1, XDATA, add(CFA_XSP16, literal(-13)))
        CFI (cfiCond27) V0 load(1, XDATA, add(CFA_XSP16, literal(-12)))
        CFI (cfiCond27) V1 load(1, XDATA, add(CFA_XSP16, literal(-11)))
        CFI (cfiCond27) V2 load(1, XDATA, add(CFA_XSP16, literal(-10)))
        CFI (cfiCond27) V3 load(1, XDATA, add(CFA_XSP16, literal(-9)))
        CFI (cfiCond27) V4 load(1, XDATA, add(CFA_XSP16, literal(-8)))
        CFI (cfiCond27) V5 load(1, XDATA, add(CFA_XSP16, literal(-7)))
        CFI (cfiCond27) R7 load(1, XDATA, add(CFA_XSP16, literal(-6)))
        CFI (cfiCond27) ?RET_LOW load(1, XDATA, add(CFA_XSP16, literal(-5)))
        CFI (cfiCond27) ?RET_HIGH load(1, XDATA, add(CFA_XSP16, literal(-4)))
        CFI (cfiCond27) ?BRET_EXT load(1, XDATA, add(CFA_XSP16, literal(-3)))
        CFI (cfiCond27) DPL0 load(1, XDATA, add(CFA_XSP16, literal(-2)))
        CFI (cfiCond27) DPH0 load(1, XDATA, add(CFA_XSP16, literal(-1)))
        CFI (cfiCond27) CFA_SP SP+0
        CFI (cfiCond27) CFA_XSP16 add(XSP16, 14)
        CFI Block cfiCond28 Using cfiCommon0
        CFI (cfiCond28) NoFunction
        CFI (cfiCond28) Conditional ??CrossCallReturnLabel_46
        CFI (cfiCond28) R6 load(1, XDATA, add(CFA_XSP16, literal(-14)))
        CFI (cfiCond28) VB load(1, XDATA, add(CFA_XSP16, literal(-13)))
        CFI (cfiCond28) V0 load(1, XDATA, add(CFA_XSP16, literal(-12)))
        CFI (cfiCond28) V1 load(1, XDATA, add(CFA_XSP16, literal(-11)))
        CFI (cfiCond28) V2 load(1, XDATA, add(CFA_XSP16, literal(-10)))
        CFI (cfiCond28) V3 load(1, XDATA, add(CFA_XSP16, literal(-9)))
        CFI (cfiCond28) V4 load(1, XDATA, add(CFA_XSP16, literal(-8)))
        CFI (cfiCond28) V5 load(1, XDATA, add(CFA_XSP16, literal(-7)))
        CFI (cfiCond28) R7 load(1, XDATA, add(CFA_XSP16, literal(-6)))
        CFI (cfiCond28) ?RET_LOW load(1, XDATA, add(CFA_XSP16, literal(-5)))
        CFI (cfiCond28) ?RET_HIGH load(1, XDATA, add(CFA_XSP16, literal(-4)))
        CFI (cfiCond28) ?BRET_EXT load(1, XDATA, add(CFA_XSP16, literal(-3)))
        CFI (cfiCond28) DPL0 load(1, XDATA, add(CFA_XSP16, literal(-2)))
        CFI (cfiCond28) DPH0 load(1, XDATA, add(CFA_XSP16, literal(-1)))
        CFI (cfiCond28) CFA_SP SP+0
        CFI (cfiCond28) CFA_XSP16 add(XSP16, 14)
        CFI Block cfiCond29 Using cfiCommon0
        CFI (cfiCond29) NoFunction
        CFI (cfiCond29) Conditional ??CrossCallReturnLabel_47
        CFI (cfiCond29) R6 load(1, XDATA, add(CFA_XSP16, literal(-14)))
        CFI (cfiCond29) VB load(1, XDATA, add(CFA_XSP16, literal(-13)))
        CFI (cfiCond29) V0 load(1, XDATA, add(CFA_XSP16, literal(-12)))
        CFI (cfiCond29) V1 load(1, XDATA, add(CFA_XSP16, literal(-11)))
        CFI (cfiCond29) V2 load(1, XDATA, add(CFA_XSP16, literal(-10)))
        CFI (cfiCond29) V3 load(1, XDATA, add(CFA_XSP16, literal(-9)))
        CFI (cfiCond29) V4 load(1, XDATA, add(CFA_XSP16, literal(-8)))
        CFI (cfiCond29) V5 load(1, XDATA, add(CFA_XSP16, literal(-7)))
        CFI (cfiCond29) R7 load(1, XDATA, add(CFA_XSP16, literal(-6)))
        CFI (cfiCond29) ?RET_LOW load(1, XDATA, add(CFA_XSP16, literal(-5)))
        CFI (cfiCond29) ?RET_HIGH load(1, XDATA, add(CFA_XSP16, literal(-4)))
        CFI (cfiCond29) ?BRET_EXT load(1, XDATA, add(CFA_XSP16, literal(-3)))
        CFI (cfiCond29) DPL0 load(1, XDATA, add(CFA_XSP16, literal(-2)))
        CFI (cfiCond29) DPH0 load(1, XDATA, add(CFA_XSP16, literal(-1)))
        CFI (cfiCond29) CFA_SP SP+0
        CFI (cfiCond29) CFA_XSP16 add(XSP16, 14)
        CFI Block cfiCond30 Using cfiCommon0
        CFI (cfiCond30) NoFunction
        CFI (cfiCond30) Conditional ??CrossCallReturnLabel_48
        CFI (cfiCond30) R6 load(1, XDATA, add(CFA_XSP16, literal(-14)))
        CFI (cfiCond30) VB load(1, XDATA, add(CFA_XSP16, literal(-13)))
        CFI (cfiCond30) V0 load(1, XDATA, add(CFA_XSP16, literal(-12)))
        CFI (cfiCond30) V1 load(1, XDATA, add(CFA_XSP16, literal(-11)))
        CFI (cfiCond30) V2 load(1, XDATA, add(CFA_XSP16, literal(-10)))
        CFI (cfiCond30) V3 load(1, XDATA, add(CFA_XSP16, literal(-9)))
        CFI (cfiCond30) V4 load(1, XDATA, add(CFA_XSP16, literal(-8)))
        CFI (cfiCond30) V5 load(1, XDATA, add(CFA_XSP16, literal(-7)))
        CFI (cfiCond30) R7 load(1, XDATA, add(CFA_XSP16, literal(-6)))
        CFI (cfiCond30) ?RET_LOW load(1, XDATA, add(CFA_XSP16, literal(-5)))
        CFI (cfiCond30) ?RET_HIGH load(1, XDATA, add(CFA_XSP16, literal(-4)))
        CFI (cfiCond30) ?BRET_EXT load(1, XDATA, add(CFA_XSP16, literal(-3)))
        CFI (cfiCond30) DPL0 load(1, XDATA, add(CFA_XSP16, literal(-2)))
        CFI (cfiCond30) DPH0 load(1, XDATA, add(CFA_XSP16, literal(-1)))
        CFI (cfiCond30) CFA_SP SP+0
        CFI (cfiCond30) CFA_XSP16 add(XSP16, 14)
        CFI Block cfiCond31 Using cfiCommon0
        CFI (cfiCond31) NoFunction
        CFI (cfiCond31) Conditional ??CrossCallReturnLabel_49
        CFI (cfiCond31) R6 load(1, XDATA, add(CFA_XSP16, literal(-14)))
        CFI (cfiCond31) VB load(1, XDATA, add(CFA_XSP16, literal(-13)))
        CFI (cfiCond31) V0 load(1, XDATA, add(CFA_XSP16, literal(-12)))
        CFI (cfiCond31) V1 load(1, XDATA, add(CFA_XSP16, literal(-11)))
        CFI (cfiCond31) V2 load(1, XDATA, add(CFA_XSP16, literal(-10)))
        CFI (cfiCond31) V3 load(1, XDATA, add(CFA_XSP16, literal(-9)))
        CFI (cfiCond31) V4 load(1, XDATA, add(CFA_XSP16, literal(-8)))
        CFI (cfiCond31) V5 load(1, XDATA, add(CFA_XSP16, literal(-7)))
        CFI (cfiCond31) R7 load(1, XDATA, add(CFA_XSP16, literal(-6)))
        CFI (cfiCond31) ?RET_LOW load(1, XDATA, add(CFA_XSP16, literal(-5)))
        CFI (cfiCond31) ?RET_HIGH load(1, XDATA, add(CFA_XSP16, literal(-4)))
        CFI (cfiCond31) ?BRET_EXT load(1, XDATA, add(CFA_XSP16, literal(-3)))
        CFI (cfiCond31) DPL0 load(1, XDATA, add(CFA_XSP16, literal(-2)))
        CFI (cfiCond31) DPH0 load(1, XDATA, add(CFA_XSP16, literal(-1)))
        CFI (cfiCond31) CFA_SP SP+0
        CFI (cfiCond31) CFA_XSP16 add(XSP16, 14)
        CFI Block cfiCond32 Using cfiCommon0
        CFI (cfiCond32) NoFunction
        CFI (cfiCond32) Conditional ??CrossCallReturnLabel_50
        CFI (cfiCond32) R6 load(1, XDATA, add(CFA_XSP16, literal(-14)))
        CFI (cfiCond32) VB load(1, XDATA, add(CFA_XSP16, literal(-13)))
        CFI (cfiCond32) V0 load(1, XDATA, add(CFA_XSP16, literal(-12)))
        CFI (cfiCond32) V1 load(1, XDATA, add(CFA_XSP16, literal(-11)))
        CFI (cfiCond32) V2 load(1, XDATA, add(CFA_XSP16, literal(-10)))
        CFI (cfiCond32) V3 load(1, XDATA, add(CFA_XSP16, literal(-9)))
        CFI (cfiCond32) V4 load(1, XDATA, add(CFA_XSP16, literal(-8)))
        CFI (cfiCond32) V5 load(1, XDATA, add(CFA_XSP16, literal(-7)))
        CFI (cfiCond32) R7 load(1, XDATA, add(CFA_XSP16, literal(-6)))
        CFI (cfiCond32) ?RET_LOW load(1, XDATA, add(CFA_XSP16, literal(-5)))
        CFI (cfiCond32) ?RET_HIGH load(1, XDATA, add(CFA_XSP16, literal(-4)))
        CFI (cfiCond32) ?BRET_EXT load(1, XDATA, add(CFA_XSP16, literal(-3)))
        CFI (cfiCond32) DPL0 load(1, XDATA, add(CFA_XSP16, literal(-2)))
        CFI (cfiCond32) DPH0 load(1, XDATA, add(CFA_XSP16, literal(-1)))
        CFI (cfiCond32) CFA_SP SP+0
        CFI (cfiCond32) CFA_XSP16 add(XSP16, 14)
        CFI Block cfiPicker33 Using cfiCommon1
        CFI (cfiPicker33) NoFunction
        CFI (cfiPicker33) Picker
        MOV     R1,#0x0
        LCALL   ??HalUARTWrite?relay
        ; Setup parameters for call to function HalUARTWrite
        ; Setup parameters for call to function HalUARTWrite
        ; Setup parameters for call to function HalUARTWrite
        ; Setup parameters for call to function HalUARTWrite
        ; Setup parameters for call to function HalUARTWrite
        ; Setup parameters for call to function HalUARTWrite
        ; Setup parameters for call to function HalUARTWrite
        ; Setup parameters for call to function HalUARTWrite
        ; Setup parameters for call to function HalUARTWrite
        MOV     R4,#0x3
        MOV     R5,#0x0
        MOV     R2,#(`?<Constant "$\\r\\n">` & 0xff)
        MOV     R3,#((`?<Constant "$\\r\\n">` >> 8) & 0xff)
        CFI EndBlock cfiCond24
        CFI EndBlock cfiCond25
        CFI EndBlock cfiCond26
        CFI EndBlock cfiCond27
        CFI EndBlock cfiCond28
        CFI EndBlock cfiCond29
        CFI EndBlock cfiCond30
        CFI EndBlock cfiCond31
        CFI EndBlock cfiCond32
        CFI EndBlock cfiPicker33
        REQUIRE ?Subroutine9
        ; // Fall through to label ?Subroutine9

        RSEG BANKED_CODE:CODE:NOROOT(0)
?Subroutine9:
        CFI Block cfiCond34 Using cfiCommon0
        CFI NoFunction
        CFI Conditional ??CrossCallReturnLabel_42
        CFI R6 load(1, XDATA, add(CFA_XSP16, literal(-14)))
        CFI VB load(1, XDATA, add(CFA_XSP16, literal(-13)))
        CFI V0 load(1, XDATA, add(CFA_XSP16, literal(-12)))
        CFI V1 load(1, XDATA, add(CFA_XSP16, literal(-11)))
        CFI V2 load(1, XDATA, add(CFA_XSP16, literal(-10)))
        CFI V3 load(1, XDATA, add(CFA_XSP16, literal(-9)))
        CFI V4 load(1, XDATA, add(CFA_XSP16, literal(-8)))
        CFI V5 load(1, XDATA, add(CFA_XSP16, literal(-7)))
        CFI R7 load(1, XDATA, add(CFA_XSP16, literal(-6)))
        CFI ?RET_LOW load(1, XDATA, add(CFA_XSP16, literal(-5)))
        CFI ?RET_HIGH load(1, XDATA, add(CFA_XSP16, literal(-4)))
        CFI ?BRET_EXT load(1, XDATA, add(CFA_XSP16, literal(-3)))
        CFI DPL0 load(1, XDATA, add(CFA_XSP16, literal(-2)))
        CFI DPH0 load(1, XDATA, add(CFA_XSP16, literal(-1)))
        CFI CFA_SP SP+0
        CFI CFA_XSP16 add(XSP16, 14)
        CFI Block cfiCond35 Using cfiCommon0
        CFI (cfiCond35) NoFunction
        CFI (cfiCond35) Conditional ??CrossCallReturnLabel_43
        CFI (cfiCond35) R6 load(1, XDATA, add(CFA_XSP16, literal(-14)))
        CFI (cfiCond35) VB load(1, XDATA, add(CFA_XSP16, literal(-13)))
        CFI (cfiCond35) V0 load(1, XDATA, add(CFA_XSP16, literal(-12)))
        CFI (cfiCond35) V1 load(1, XDATA, add(CFA_XSP16, literal(-11)))
        CFI (cfiCond35) V2 load(1, XDATA, add(CFA_XSP16, literal(-10)))
        CFI (cfiCond35) V3 load(1, XDATA, add(CFA_XSP16, literal(-9)))
        CFI (cfiCond35) V4 load(1, XDATA, add(CFA_XSP16, literal(-8)))
        CFI (cfiCond35) V5 load(1, XDATA, add(CFA_XSP16, literal(-7)))
        CFI (cfiCond35) R7 load(1, XDATA, add(CFA_XSP16, literal(-6)))
        CFI (cfiCond35) ?RET_LOW load(1, XDATA, add(CFA_XSP16, literal(-5)))
        CFI (cfiCond35) ?RET_HIGH load(1, XDATA, add(CFA_XSP16, literal(-4)))
        CFI (cfiCond35) ?BRET_EXT load(1, XDATA, add(CFA_XSP16, literal(-3)))
        CFI (cfiCond35) DPL0 load(1, XDATA, add(CFA_XSP16, literal(-2)))
        CFI (cfiCond35) DPH0 load(1, XDATA, add(CFA_XSP16, literal(-1)))
        CFI (cfiCond35) CFA_SP SP+0
        CFI (cfiCond35) CFA_XSP16 add(XSP16, 14)
        CFI Block cfiCond36 Using cfiCommon0
        CFI (cfiCond36) NoFunction
        CFI (cfiCond36) Conditional ??CrossCallReturnLabel_44
        CFI (cfiCond36) R6 load(1, XDATA, add(CFA_XSP16, literal(-14)))
        CFI (cfiCond36) VB load(1, XDATA, add(CFA_XSP16, literal(-13)))
        CFI (cfiCond36) V0 load(1, XDATA, add(CFA_XSP16, literal(-12)))
        CFI (cfiCond36) V1 load(1, XDATA, add(CFA_XSP16, literal(-11)))
        CFI (cfiCond36) V2 load(1, XDATA, add(CFA_XSP16, literal(-10)))
        CFI (cfiCond36) V3 load(1, XDATA, add(CFA_XSP16, literal(-9)))
        CFI (cfiCond36) V4 load(1, XDATA, add(CFA_XSP16, literal(-8)))
        CFI (cfiCond36) V5 load(1, XDATA, add(CFA_XSP16, literal(-7)))
        CFI (cfiCond36) R7 load(1, XDATA, add(CFA_XSP16, literal(-6)))
        CFI (cfiCond36) ?RET_LOW load(1, XDATA, add(CFA_XSP16, literal(-5)))
        CFI (cfiCond36) ?RET_HIGH load(1, XDATA, add(CFA_XSP16, literal(-4)))
        CFI (cfiCond36) ?BRET_EXT load(1, XDATA, add(CFA_XSP16, literal(-3)))
        CFI (cfiCond36) DPL0 load(1, XDATA, add(CFA_XSP16, literal(-2)))
        CFI (cfiCond36) DPH0 load(1, XDATA, add(CFA_XSP16, literal(-1)))
        CFI (cfiCond36) CFA_SP SP+0
        CFI (cfiCond36) CFA_XSP16 add(XSP16, 14)
        CFI Block cfiCond37 Using cfiCommon0
        CFI (cfiCond37) NoFunction
        CFI (cfiCond37) Conditional ??CrossCallReturnLabel_45
        CFI (cfiCond37) R6 load(1, XDATA, add(CFA_XSP16, literal(-14)))
        CFI (cfiCond37) VB load(1, XDATA, add(CFA_XSP16, literal(-13)))
        CFI (cfiCond37) V0 load(1, XDATA, add(CFA_XSP16, literal(-12)))
        CFI (cfiCond37) V1 load(1, XDATA, add(CFA_XSP16, literal(-11)))
        CFI (cfiCond37) V2 load(1, XDATA, add(CFA_XSP16, literal(-10)))
        CFI (cfiCond37) V3 load(1, XDATA, add(CFA_XSP16, literal(-9)))
        CFI (cfiCond37) V4 load(1, XDATA, add(CFA_XSP16, literal(-8)))
        CFI (cfiCond37) V5 load(1, XDATA, add(CFA_XSP16, literal(-7)))
        CFI (cfiCond37) R7 load(1, XDATA, add(CFA_XSP16, literal(-6)))
        CFI (cfiCond37) ?RET_LOW load(1, XDATA, add(CFA_XSP16, literal(-5)))
        CFI (cfiCond37) ?RET_HIGH load(1, XDATA, add(CFA_XSP16, literal(-4)))
        CFI (cfiCond37) ?BRET_EXT load(1, XDATA, add(CFA_XSP16, literal(-3)))
        CFI (cfiCond37) DPL0 load(1, XDATA, add(CFA_XSP16, literal(-2)))
        CFI (cfiCond37) DPH0 load(1, XDATA, add(CFA_XSP16, literal(-1)))
        CFI (cfiCond37) CFA_SP SP+0
        CFI (cfiCond37) CFA_XSP16 add(XSP16, 14)
        CFI Block cfiCond38 Using cfiCommon0
        CFI (cfiCond38) NoFunction
        CFI (cfiCond38) Conditional ??CrossCallReturnLabel_46
        CFI (cfiCond38) R6 load(1, XDATA, add(CFA_XSP16, literal(-14)))
        CFI (cfiCond38) VB load(1, XDATA, add(CFA_XSP16, literal(-13)))
        CFI (cfiCond38) V0 load(1, XDATA, add(CFA_XSP16, literal(-12)))
        CFI (cfiCond38) V1 load(1, XDATA, add(CFA_XSP16, literal(-11)))
        CFI (cfiCond38) V2 load(1, XDATA, add(CFA_XSP16, literal(-10)))
        CFI (cfiCond38) V3 load(1, XDATA, add(CFA_XSP16, literal(-9)))
        CFI (cfiCond38) V4 load(1, XDATA, add(CFA_XSP16, literal(-8)))
        CFI (cfiCond38) V5 load(1, XDATA, add(CFA_XSP16, literal(-7)))
        CFI (cfiCond38) R7 load(1, XDATA, add(CFA_XSP16, literal(-6)))
        CFI (cfiCond38) ?RET_LOW load(1, XDATA, add(CFA_XSP16, literal(-5)))
        CFI (cfiCond38) ?RET_HIGH load(1, XDATA, add(CFA_XSP16, literal(-4)))
        CFI (cfiCond38) ?BRET_EXT load(1, XDATA, add(CFA_XSP16, literal(-3)))
        CFI (cfiCond38) DPL0 load(1, XDATA, add(CFA_XSP16, literal(-2)))
        CFI (cfiCond38) DPH0 load(1, XDATA, add(CFA_XSP16, literal(-1)))
        CFI (cfiCond38) CFA_SP SP+0
        CFI (cfiCond38) CFA_XSP16 add(XSP16, 14)
        CFI Block cfiCond39 Using cfiCommon0
        CFI (cfiCond39) NoFunction
        CFI (cfiCond39) Conditional ??CrossCallReturnLabel_47
        CFI (cfiCond39) R6 load(1, XDATA, add(CFA_XSP16, literal(-14)))
        CFI (cfiCond39) VB load(1, XDATA, add(CFA_XSP16, literal(-13)))
        CFI (cfiCond39) V0 load(1, XDATA, add(CFA_XSP16, literal(-12)))
        CFI (cfiCond39) V1 load(1, XDATA, add(CFA_XSP16, literal(-11)))
        CFI (cfiCond39) V2 load(1, XDATA, add(CFA_XSP16, literal(-10)))
        CFI (cfiCond39) V3 load(1, XDATA, add(CFA_XSP16, literal(-9)))
        CFI (cfiCond39) V4 load(1, XDATA, add(CFA_XSP16, literal(-8)))
        CFI (cfiCond39) V5 load(1, XDATA, add(CFA_XSP16, literal(-7)))
        CFI (cfiCond39) R7 load(1, XDATA, add(CFA_XSP16, literal(-6)))
        CFI (cfiCond39) ?RET_LOW load(1, XDATA, add(CFA_XSP16, literal(-5)))
        CFI (cfiCond39) ?RET_HIGH load(1, XDATA, add(CFA_XSP16, literal(-4)))
        CFI (cfiCond39) ?BRET_EXT load(1, XDATA, add(CFA_XSP16, literal(-3)))
        CFI (cfiCond39) DPL0 load(1, XDATA, add(CFA_XSP16, literal(-2)))
        CFI (cfiCond39) DPH0 load(1, XDATA, add(CFA_XSP16, literal(-1)))
        CFI (cfiCond39) CFA_SP SP+0
        CFI (cfiCond39) CFA_XSP16 add(XSP16, 14)
        CFI Block cfiCond40 Using cfiCommon0
        CFI (cfiCond40) NoFunction
        CFI (cfiCond40) Conditional ??CrossCallReturnLabel_48
        CFI (cfiCond40) R6 load(1, XDATA, add(CFA_XSP16, literal(-14)))
        CFI (cfiCond40) VB load(1, XDATA, add(CFA_XSP16, literal(-13)))
        CFI (cfiCond40) V0 load(1, XDATA, add(CFA_XSP16, literal(-12)))
        CFI (cfiCond40) V1 load(1, XDATA, add(CFA_XSP16, literal(-11)))
        CFI (cfiCond40) V2 load(1, XDATA, add(CFA_XSP16, literal(-10)))
        CFI (cfiCond40) V3 load(1, XDATA, add(CFA_XSP16, literal(-9)))
        CFI (cfiCond40) V4 load(1, XDATA, add(CFA_XSP16, literal(-8)))
        CFI (cfiCond40) V5 load(1, XDATA, add(CFA_XSP16, literal(-7)))
        CFI (cfiCond40) R7 load(1, XDATA, add(CFA_XSP16, literal(-6)))
        CFI (cfiCond40) ?RET_LOW load(1, XDATA, add(CFA_XSP16, literal(-5)))
        CFI (cfiCond40) ?RET_HIGH load(1, XDATA, add(CFA_XSP16, literal(-4)))
        CFI (cfiCond40) ?BRET_EXT load(1, XDATA, add(CFA_XSP16, literal(-3)))
        CFI (cfiCond40) DPL0 load(1, XDATA, add(CFA_XSP16, literal(-2)))
        CFI (cfiCond40) DPH0 load(1, XDATA, add(CFA_XSP16, literal(-1)))
        CFI (cfiCond40) CFA_SP SP+0
        CFI (cfiCond40) CFA_XSP16 add(XSP16, 14)
        CFI Block cfiCond41 Using cfiCommon0
        CFI (cfiCond41) NoFunction
        CFI (cfiCond41) Conditional ??CrossCallReturnLabel_49
        CFI (cfiCond41) R6 load(1, XDATA, add(CFA_XSP16, literal(-14)))
        CFI (cfiCond41) VB load(1, XDATA, add(CFA_XSP16, literal(-13)))
        CFI (cfiCond41) V0 load(1, XDATA, add(CFA_XSP16, literal(-12)))
        CFI (cfiCond41) V1 load(1, XDATA, add(CFA_XSP16, literal(-11)))
        CFI (cfiCond41) V2 load(1, XDATA, add(CFA_XSP16, literal(-10)))
        CFI (cfiCond41) V3 load(1, XDATA, add(CFA_XSP16, literal(-9)))
        CFI (cfiCond41) V4 load(1, XDATA, add(CFA_XSP16, literal(-8)))
        CFI (cfiCond41) V5 load(1, XDATA, add(CFA_XSP16, literal(-7)))
        CFI (cfiCond41) R7 load(1, XDATA, add(CFA_XSP16, literal(-6)))
        CFI (cfiCond41) ?RET_LOW load(1, XDATA, add(CFA_XSP16, literal(-5)))
        CFI (cfiCond41) ?RET_HIGH load(1, XDATA, add(CFA_XSP16, literal(-4)))
        CFI (cfiCond41) ?BRET_EXT load(1, XDATA, add(CFA_XSP16, literal(-3)))
        CFI (cfiCond41) DPL0 load(1, XDATA, add(CFA_XSP16, literal(-2)))
        CFI (cfiCond41) DPH0 load(1, XDATA, add(CFA_XSP16, literal(-1)))
        CFI (cfiCond41) CFA_SP SP+0
        CFI (cfiCond41) CFA_XSP16 add(XSP16, 14)
        CFI Block cfiCond42 Using cfiCommon0
        CFI (cfiCond42) NoFunction
        CFI (cfiCond42) Conditional ??CrossCallReturnLabel_50
        CFI (cfiCond42) R6 load(1, XDATA, add(CFA_XSP16, literal(-14)))
        CFI (cfiCond42) VB load(1, XDATA, add(CFA_XSP16, literal(-13)))
        CFI (cfiCond42) V0 load(1, XDATA, add(CFA_XSP16, literal(-12)))
        CFI (cfiCond42) V1 load(1, XDATA, add(CFA_XSP16, literal(-11)))
        CFI (cfiCond42) V2 load(1, XDATA, add(CFA_XSP16, literal(-10)))
        CFI (cfiCond42) V3 load(1, XDATA, add(CFA_XSP16, literal(-9)))
        CFI (cfiCond42) V4 load(1, XDATA, add(CFA_XSP16, literal(-8)))
        CFI (cfiCond42) V5 load(1, XDATA, add(CFA_XSP16, literal(-7)))
        CFI (cfiCond42) R7 load(1, XDATA, add(CFA_XSP16, literal(-6)))
        CFI (cfiCond42) ?RET_LOW load(1, XDATA, add(CFA_XSP16, literal(-5)))
        CFI (cfiCond42) ?RET_HIGH load(1, XDATA, add(CFA_XSP16, literal(-4)))
        CFI (cfiCond42) ?BRET_EXT load(1, XDATA, add(CFA_XSP16, literal(-3)))
        CFI (cfiCond42) DPL0 load(1, XDATA, add(CFA_XSP16, literal(-2)))
        CFI (cfiCond42) DPH0 load(1, XDATA, add(CFA_XSP16, literal(-1)))
        CFI (cfiCond42) CFA_SP SP+0
        CFI (cfiCond42) CFA_XSP16 add(XSP16, 14)
        CFI Block cfiCond43 Using cfiCommon0
        CFI (cfiCond43) NoFunction
        CFI (cfiCond43) Conditional ??CrossCallReturnLabel_40, ??CrossCallReturnLabel_29
        CFI (cfiCond43) R6 load(1, XDATA, add(CFA_XSP16, literal(-14)))
        CFI (cfiCond43) VB load(1, XDATA, add(CFA_XSP16, literal(-13)))
        CFI (cfiCond43) V0 load(1, XDATA, add(CFA_XSP16, literal(-12)))
        CFI (cfiCond43) V1 load(1, XDATA, add(CFA_XSP16, literal(-11)))
        CFI (cfiCond43) V2 load(1, XDATA, add(CFA_XSP16, literal(-10)))
        CFI (cfiCond43) V3 load(1, XDATA, add(CFA_XSP16, literal(-9)))
        CFI (cfiCond43) V4 load(1, XDATA, add(CFA_XSP16, literal(-8)))
        CFI (cfiCond43) V5 load(1, XDATA, add(CFA_XSP16, literal(-7)))
        CFI (cfiCond43) R7 load(1, XDATA, add(CFA_XSP16, literal(-6)))
        CFI (cfiCond43) ?RET_LOW load(1, XDATA, add(CFA_XSP16, literal(-5)))
        CFI (cfiCond43) ?RET_HIGH load(1, XDATA, add(CFA_XSP16, literal(-4)))
        CFI (cfiCond43) ?BRET_EXT load(1, XDATA, add(CFA_XSP16, literal(-3)))
        CFI (cfiCond43) DPL0 load(1, XDATA, add(CFA_XSP16, literal(-2)))
        CFI (cfiCond43) DPH0 load(1, XDATA, add(CFA_XSP16, literal(-1)))
        CFI (cfiCond43) CFA_SP SP+0
        CFI (cfiCond43) CFA_XSP16 add(XSP16, 14)
        CFI Block cfiCond44 Using cfiCommon0
        CFI (cfiCond44) NoFunction
        CFI (cfiCond44) Conditional ??CrossCallReturnLabel_40, ??CrossCallReturnLabel_30
        CFI (cfiCond44) R6 load(1, XDATA, add(CFA_XSP16, literal(-14)))
        CFI (cfiCond44) VB load(1, XDATA, add(CFA_XSP16, literal(-13)))
        CFI (cfiCond44) V0 load(1, XDATA, add(CFA_XSP16, literal(-12)))
        CFI (cfiCond44) V1 load(1, XDATA, add(CFA_XSP16, literal(-11)))
        CFI (cfiCond44) V2 load(1, XDATA, add(CFA_XSP16, literal(-10)))
        CFI (cfiCond44) V3 load(1, XDATA, add(CFA_XSP16, literal(-9)))
        CFI (cfiCond44) V4 load(1, XDATA, add(CFA_XSP16, literal(-8)))
        CFI (cfiCond44) V5 load(1, XDATA, add(CFA_XSP16, literal(-7)))
        CFI (cfiCond44) R7 load(1, XDATA, add(CFA_XSP16, literal(-6)))
        CFI (cfiCond44) ?RET_LOW load(1, XDATA, add(CFA_XSP16, literal(-5)))
        CFI (cfiCond44) ?RET_HIGH load(1, XDATA, add(CFA_XSP16, literal(-4)))
        CFI (cfiCond44) ?BRET_EXT load(1, XDATA, add(CFA_XSP16, literal(-3)))
        CFI (cfiCond44) DPL0 load(1, XDATA, add(CFA_XSP16, literal(-2)))
        CFI (cfiCond44) DPH0 load(1, XDATA, add(CFA_XSP16, literal(-1)))
        CFI (cfiCond44) CFA_SP SP+0
        CFI (cfiCond44) CFA_XSP16 add(XSP16, 14)
        CFI Block cfiCond45 Using cfiCommon0
        CFI (cfiCond45) NoFunction
        CFI (cfiCond45) Conditional ??CrossCallReturnLabel_40, ??CrossCallReturnLabel_31
        CFI (cfiCond45) R6 load(1, XDATA, add(CFA_XSP16, literal(-14)))
        CFI (cfiCond45) VB load(1, XDATA, add(CFA_XSP16, literal(-13)))
        CFI (cfiCond45) V0 load(1, XDATA, add(CFA_XSP16, literal(-12)))
        CFI (cfiCond45) V1 load(1, XDATA, add(CFA_XSP16, literal(-11)))
        CFI (cfiCond45) V2 load(1, XDATA, add(CFA_XSP16, literal(-10)))
        CFI (cfiCond45) V3 load(1, XDATA, add(CFA_XSP16, literal(-9)))
        CFI (cfiCond45) V4 load(1, XDATA, add(CFA_XSP16, literal(-8)))
        CFI (cfiCond45) V5 load(1, XDATA, add(CFA_XSP16, literal(-7)))
        CFI (cfiCond45) R7 load(1, XDATA, add(CFA_XSP16, literal(-6)))
        CFI (cfiCond45) ?RET_LOW load(1, XDATA, add(CFA_XSP16, literal(-5)))
        CFI (cfiCond45) ?RET_HIGH load(1, XDATA, add(CFA_XSP16, literal(-4)))
        CFI (cfiCond45) ?BRET_EXT load(1, XDATA, add(CFA_XSP16, literal(-3)))
        CFI (cfiCond45) DPL0 load(1, XDATA, add(CFA_XSP16, literal(-2)))
        CFI (cfiCond45) DPH0 load(1, XDATA, add(CFA_XSP16, literal(-1)))
        CFI (cfiCond45) CFA_SP SP+0
        CFI (cfiCond45) CFA_XSP16 add(XSP16, 14)
        CFI Block cfiCond46 Using cfiCommon0
        CFI (cfiCond46) NoFunction
        CFI (cfiCond46) Conditional ??CrossCallReturnLabel_40, ??CrossCallReturnLabel_32
        CFI (cfiCond46) R6 load(1, XDATA, add(CFA_XSP16, literal(-14)))
        CFI (cfiCond46) VB load(1, XDATA, add(CFA_XSP16, literal(-13)))
        CFI (cfiCond46) V0 load(1, XDATA, add(CFA_XSP16, literal(-12)))
        CFI (cfiCond46) V1 load(1, XDATA, add(CFA_XSP16, literal(-11)))
        CFI (cfiCond46) V2 load(1, XDATA, add(CFA_XSP16, literal(-10)))
        CFI (cfiCond46) V3 load(1, XDATA, add(CFA_XSP16, literal(-9)))
        CFI (cfiCond46) V4 load(1, XDATA, add(CFA_XSP16, literal(-8)))
        CFI (cfiCond46) V5 load(1, XDATA, add(CFA_XSP16, literal(-7)))
        CFI (cfiCond46) R7 load(1, XDATA, add(CFA_XSP16, literal(-6)))
        CFI (cfiCond46) ?RET_LOW load(1, XDATA, add(CFA_XSP16, literal(-5)))
        CFI (cfiCond46) ?RET_HIGH load(1, XDATA, add(CFA_XSP16, literal(-4)))
        CFI (cfiCond46) ?BRET_EXT load(1, XDATA, add(CFA_XSP16, literal(-3)))
        CFI (cfiCond46) DPL0 load(1, XDATA, add(CFA_XSP16, literal(-2)))
        CFI (cfiCond46) DPH0 load(1, XDATA, add(CFA_XSP16, literal(-1)))
        CFI (cfiCond46) CFA_SP SP+0
        CFI (cfiCond46) CFA_XSP16 add(XSP16, 14)
        CFI Block cfiCond47 Using cfiCommon0
        CFI (cfiCond47) NoFunction
        CFI (cfiCond47) Conditional ??CrossCallReturnLabel_40, ??CrossCallReturnLabel_33
        CFI (cfiCond47) R6 load(1, XDATA, add(CFA_XSP16, literal(-14)))
        CFI (cfiCond47) VB load(1, XDATA, add(CFA_XSP16, literal(-13)))
        CFI (cfiCond47) V0 load(1, XDATA, add(CFA_XSP16, literal(-12)))
        CFI (cfiCond47) V1 load(1, XDATA, add(CFA_XSP16, literal(-11)))
        CFI (cfiCond47) V2 load(1, XDATA, add(CFA_XSP16, literal(-10)))
        CFI (cfiCond47) V3 load(1, XDATA, add(CFA_XSP16, literal(-9)))
        CFI (cfiCond47) V4 load(1, XDATA, add(CFA_XSP16, literal(-8)))
        CFI (cfiCond47) V5 load(1, XDATA, add(CFA_XSP16, literal(-7)))
        CFI (cfiCond47) R7 load(1, XDATA, add(CFA_XSP16, literal(-6)))
        CFI (cfiCond47) ?RET_LOW load(1, XDATA, add(CFA_XSP16, literal(-5)))
        CFI (cfiCond47) ?RET_HIGH load(1, XDATA, add(CFA_XSP16, literal(-4)))
        CFI (cfiCond47) ?BRET_EXT load(1, XDATA, add(CFA_XSP16, literal(-3)))
        CFI (cfiCond47) DPL0 load(1, XDATA, add(CFA_XSP16, literal(-2)))
        CFI (cfiCond47) DPH0 load(1, XDATA, add(CFA_XSP16, literal(-1)))
        CFI (cfiCond47) CFA_SP SP+0
        CFI (cfiCond47) CFA_XSP16 add(XSP16, 14)
        CFI Block cfiCond48 Using cfiCommon0
        CFI (cfiCond48) NoFunction
        CFI (cfiCond48) Conditional ??CrossCallReturnLabel_40, ??CrossCallReturnLabel_34
        CFI (cfiCond48) R6 load(1, XDATA, add(CFA_XSP16, literal(-14)))
        CFI (cfiCond48) VB load(1, XDATA, add(CFA_XSP16, literal(-13)))
        CFI (cfiCond48) V0 load(1, XDATA, add(CFA_XSP16, literal(-12)))
        CFI (cfiCond48) V1 load(1, XDATA, add(CFA_XSP16, literal(-11)))
        CFI (cfiCond48) V2 load(1, XDATA, add(CFA_XSP16, literal(-10)))
        CFI (cfiCond48) V3 load(1, XDATA, add(CFA_XSP16, literal(-9)))
        CFI (cfiCond48) V4 load(1, XDATA, add(CFA_XSP16, literal(-8)))
        CFI (cfiCond48) V5 load(1, XDATA, add(CFA_XSP16, literal(-7)))
        CFI (cfiCond48) R7 load(1, XDATA, add(CFA_XSP16, literal(-6)))
        CFI (cfiCond48) ?RET_LOW load(1, XDATA, add(CFA_XSP16, literal(-5)))
        CFI (cfiCond48) ?RET_HIGH load(1, XDATA, add(CFA_XSP16, literal(-4)))
        CFI (cfiCond48) ?BRET_EXT load(1, XDATA, add(CFA_XSP16, literal(-3)))
        CFI (cfiCond48) DPL0 load(1, XDATA, add(CFA_XSP16, literal(-2)))
        CFI (cfiCond48) DPH0 load(1, XDATA, add(CFA_XSP16, literal(-1)))
        CFI (cfiCond48) CFA_SP SP+0
        CFI (cfiCond48) CFA_XSP16 add(XSP16, 14)
        CFI Block cfiCond49 Using cfiCommon0
        CFI (cfiCond49) NoFunction
        CFI (cfiCond49) Conditional ??CrossCallReturnLabel_40, ??CrossCallReturnLabel_35
        CFI (cfiCond49) R6 load(1, XDATA, add(CFA_XSP16, literal(-14)))
        CFI (cfiCond49) VB load(1, XDATA, add(CFA_XSP16, literal(-13)))
        CFI (cfiCond49) V0 load(1, XDATA, add(CFA_XSP16, literal(-12)))
        CFI (cfiCond49) V1 load(1, XDATA, add(CFA_XSP16, literal(-11)))
        CFI (cfiCond49) V2 load(1, XDATA, add(CFA_XSP16, literal(-10)))
        CFI (cfiCond49) V3 load(1, XDATA, add(CFA_XSP16, literal(-9)))
        CFI (cfiCond49) V4 load(1, XDATA, add(CFA_XSP16, literal(-8)))
        CFI (cfiCond49) V5 load(1, XDATA, add(CFA_XSP16, literal(-7)))
        CFI (cfiCond49) R7 load(1, XDATA, add(CFA_XSP16, literal(-6)))
        CFI (cfiCond49) ?RET_LOW load(1, XDATA, add(CFA_XSP16, literal(-5)))
        CFI (cfiCond49) ?RET_HIGH load(1, XDATA, add(CFA_XSP16, literal(-4)))
        CFI (cfiCond49) ?BRET_EXT load(1, XDATA, add(CFA_XSP16, literal(-3)))
        CFI (cfiCond49) DPL0 load(1, XDATA, add(CFA_XSP16, literal(-2)))
        CFI (cfiCond49) DPH0 load(1, XDATA, add(CFA_XSP16, literal(-1)))
        CFI (cfiCond49) CFA_SP SP+0
        CFI (cfiCond49) CFA_XSP16 add(XSP16, 14)
        CFI Block cfiCond50 Using cfiCommon0
        CFI (cfiCond50) NoFunction
        CFI (cfiCond50) Conditional ??CrossCallReturnLabel_40, ??CrossCallReturnLabel_36
        CFI (cfiCond50) R6 load(1, XDATA, add(CFA_XSP16, literal(-14)))
        CFI (cfiCond50) VB load(1, XDATA, add(CFA_XSP16, literal(-13)))
        CFI (cfiCond50) V0 load(1, XDATA, add(CFA_XSP16, literal(-12)))
        CFI (cfiCond50) V1 load(1, XDATA, add(CFA_XSP16, literal(-11)))
        CFI (cfiCond50) V2 load(1, XDATA, add(CFA_XSP16, literal(-10)))
        CFI (cfiCond50) V3 load(1, XDATA, add(CFA_XSP16, literal(-9)))
        CFI (cfiCond50) V4 load(1, XDATA, add(CFA_XSP16, literal(-8)))
        CFI (cfiCond50) V5 load(1, XDATA, add(CFA_XSP16, literal(-7)))
        CFI (cfiCond50) R7 load(1, XDATA, add(CFA_XSP16, literal(-6)))
        CFI (cfiCond50) ?RET_LOW load(1, XDATA, add(CFA_XSP16, literal(-5)))
        CFI (cfiCond50) ?RET_HIGH load(1, XDATA, add(CFA_XSP16, literal(-4)))
        CFI (cfiCond50) ?BRET_EXT load(1, XDATA, add(CFA_XSP16, literal(-3)))
        CFI (cfiCond50) DPL0 load(1, XDATA, add(CFA_XSP16, literal(-2)))
        CFI (cfiCond50) DPH0 load(1, XDATA, add(CFA_XSP16, literal(-1)))
        CFI (cfiCond50) CFA_SP SP+0
        CFI (cfiCond50) CFA_XSP16 add(XSP16, 14)
        CFI Block cfiCond51 Using cfiCommon0
        CFI (cfiCond51) NoFunction
        CFI (cfiCond51) Conditional ??CrossCallReturnLabel_40, ??CrossCallReturnLabel_37
        CFI (cfiCond51) R6 load(1, XDATA, add(CFA_XSP16, literal(-14)))
        CFI (cfiCond51) VB load(1, XDATA, add(CFA_XSP16, literal(-13)))
        CFI (cfiCond51) V0 load(1, XDATA, add(CFA_XSP16, literal(-12)))
        CFI (cfiCond51) V1 load(1, XDATA, add(CFA_XSP16, literal(-11)))
        CFI (cfiCond51) V2 load(1, XDATA, add(CFA_XSP16, literal(-10)))
        CFI (cfiCond51) V3 load(1, XDATA, add(CFA_XSP16, literal(-9)))
        CFI (cfiCond51) V4 load(1, XDATA, add(CFA_XSP16, literal(-8)))
        CFI (cfiCond51) V5 load(1, XDATA, add(CFA_XSP16, literal(-7)))
        CFI (cfiCond51) R7 load(1, XDATA, add(CFA_XSP16, literal(-6)))
        CFI (cfiCond51) ?RET_LOW load(1, XDATA, add(CFA_XSP16, literal(-5)))
        CFI (cfiCond51) ?RET_HIGH load(1, XDATA, add(CFA_XSP16, literal(-4)))
        CFI (cfiCond51) ?BRET_EXT load(1, XDATA, add(CFA_XSP16, literal(-3)))
        CFI (cfiCond51) DPL0 load(1, XDATA, add(CFA_XSP16, literal(-2)))
        CFI (cfiCond51) DPH0 load(1, XDATA, add(CFA_XSP16, literal(-1)))
        CFI (cfiCond51) CFA_SP SP+0
        CFI (cfiCond51) CFA_XSP16 add(XSP16, 14)
        CFI Block cfiCond52 Using cfiCommon0
        CFI (cfiCond52) NoFunction
        CFI (cfiCond52) Conditional ??CrossCallReturnLabel_41, ??CrossCallReturnLabel_20
        CFI (cfiCond52) R6 load(1, XDATA, add(CFA_XSP16, literal(-14)))
        CFI (cfiCond52) VB load(1, XDATA, add(CFA_XSP16, literal(-13)))
        CFI (cfiCond52) V0 load(1, XDATA, add(CFA_XSP16, literal(-12)))
        CFI (cfiCond52) V1 load(1, XDATA, add(CFA_XSP16, literal(-11)))
        CFI (cfiCond52) V2 load(1, XDATA, add(CFA_XSP16, literal(-10)))
        CFI (cfiCond52) V3 load(1, XDATA, add(CFA_XSP16, literal(-9)))
        CFI (cfiCond52) V4 load(1, XDATA, add(CFA_XSP16, literal(-8)))
        CFI (cfiCond52) V5 load(1, XDATA, add(CFA_XSP16, literal(-7)))
        CFI (cfiCond52) R7 load(1, XDATA, add(CFA_XSP16, literal(-6)))
        CFI (cfiCond52) ?RET_LOW load(1, XDATA, add(CFA_XSP16, literal(-5)))
        CFI (cfiCond52) ?RET_HIGH load(1, XDATA, add(CFA_XSP16, literal(-4)))
        CFI (cfiCond52) ?BRET_EXT load(1, XDATA, add(CFA_XSP16, literal(-3)))
        CFI (cfiCond52) DPL0 load(1, XDATA, add(CFA_XSP16, literal(-2)))
        CFI (cfiCond52) DPH0 load(1, XDATA, add(CFA_XSP16, literal(-1)))
        CFI (cfiCond52) CFA_SP SP+0
        CFI (cfiCond52) CFA_XSP16 add(XSP16, 14)
        CFI Block cfiCond53 Using cfiCommon0
        CFI (cfiCond53) NoFunction
        CFI (cfiCond53) Conditional ??CrossCallReturnLabel_41, ??CrossCallReturnLabel_21
        CFI (cfiCond53) R6 load(1, XDATA, add(CFA_XSP16, literal(-14)))
        CFI (cfiCond53) VB load(1, XDATA, add(CFA_XSP16, literal(-13)))
        CFI (cfiCond53) V0 load(1, XDATA, add(CFA_XSP16, literal(-12)))
        CFI (cfiCond53) V1 load(1, XDATA, add(CFA_XSP16, literal(-11)))
        CFI (cfiCond53) V2 load(1, XDATA, add(CFA_XSP16, literal(-10)))
        CFI (cfiCond53) V3 load(1, XDATA, add(CFA_XSP16, literal(-9)))
        CFI (cfiCond53) V4 load(1, XDATA, add(CFA_XSP16, literal(-8)))
        CFI (cfiCond53) V5 load(1, XDATA, add(CFA_XSP16, literal(-7)))
        CFI (cfiCond53) R7 load(1, XDATA, add(CFA_XSP16, literal(-6)))
        CFI (cfiCond53) ?RET_LOW load(1, XDATA, add(CFA_XSP16, literal(-5)))
        CFI (cfiCond53) ?RET_HIGH load(1, XDATA, add(CFA_XSP16, literal(-4)))
        CFI (cfiCond53) ?BRET_EXT load(1, XDATA, add(CFA_XSP16, literal(-3)))
        CFI (cfiCond53) DPL0 load(1, XDATA, add(CFA_XSP16, literal(-2)))
        CFI (cfiCond53) DPH0 load(1, XDATA, add(CFA_XSP16, literal(-1)))
        CFI (cfiCond53) CFA_SP SP+0
        CFI (cfiCond53) CFA_XSP16 add(XSP16, 14)
        CFI Block cfiCond54 Using cfiCommon0
        CFI (cfiCond54) NoFunction
        CFI (cfiCond54) Conditional ??CrossCallReturnLabel_41, ??CrossCallReturnLabel_22
        CFI (cfiCond54) R6 load(1, XDATA, add(CFA_XSP16, literal(-14)))
        CFI (cfiCond54) VB load(1, XDATA, add(CFA_XSP16, literal(-13)))
        CFI (cfiCond54) V0 load(1, XDATA, add(CFA_XSP16, literal(-12)))
        CFI (cfiCond54) V1 load(1, XDATA, add(CFA_XSP16, literal(-11)))
        CFI (cfiCond54) V2 load(1, XDATA, add(CFA_XSP16, literal(-10)))
        CFI (cfiCond54) V3 load(1, XDATA, add(CFA_XSP16, literal(-9)))
        CFI (cfiCond54) V4 load(1, XDATA, add(CFA_XSP16, literal(-8)))
        CFI (cfiCond54) V5 load(1, XDATA, add(CFA_XSP16, literal(-7)))
        CFI (cfiCond54) R7 load(1, XDATA, add(CFA_XSP16, literal(-6)))
        CFI (cfiCond54) ?RET_LOW load(1, XDATA, add(CFA_XSP16, literal(-5)))
        CFI (cfiCond54) ?RET_HIGH load(1, XDATA, add(CFA_XSP16, literal(-4)))
        CFI (cfiCond54) ?BRET_EXT load(1, XDATA, add(CFA_XSP16, literal(-3)))
        CFI (cfiCond54) DPL0 load(1, XDATA, add(CFA_XSP16, literal(-2)))
        CFI (cfiCond54) DPH0 load(1, XDATA, add(CFA_XSP16, literal(-1)))
        CFI (cfiCond54) CFA_SP SP+0
        CFI (cfiCond54) CFA_XSP16 add(XSP16, 14)
        CFI Block cfiCond55 Using cfiCommon0
        CFI (cfiCond55) NoFunction
        CFI (cfiCond55) Conditional ??CrossCallReturnLabel_41, ??CrossCallReturnLabel_23
        CFI (cfiCond55) R6 load(1, XDATA, add(CFA_XSP16, literal(-14)))
        CFI (cfiCond55) VB load(1, XDATA, add(CFA_XSP16, literal(-13)))
        CFI (cfiCond55) V0 load(1, XDATA, add(CFA_XSP16, literal(-12)))
        CFI (cfiCond55) V1 load(1, XDATA, add(CFA_XSP16, literal(-11)))
        CFI (cfiCond55) V2 load(1, XDATA, add(CFA_XSP16, literal(-10)))
        CFI (cfiCond55) V3 load(1, XDATA, add(CFA_XSP16, literal(-9)))
        CFI (cfiCond55) V4 load(1, XDATA, add(CFA_XSP16, literal(-8)))
        CFI (cfiCond55) V5 load(1, XDATA, add(CFA_XSP16, literal(-7)))
        CFI (cfiCond55) R7 load(1, XDATA, add(CFA_XSP16, literal(-6)))
        CFI (cfiCond55) ?RET_LOW load(1, XDATA, add(CFA_XSP16, literal(-5)))
        CFI (cfiCond55) ?RET_HIGH load(1, XDATA, add(CFA_XSP16, literal(-4)))
        CFI (cfiCond55) ?BRET_EXT load(1, XDATA, add(CFA_XSP16, literal(-3)))
        CFI (cfiCond55) DPL0 load(1, XDATA, add(CFA_XSP16, literal(-2)))
        CFI (cfiCond55) DPH0 load(1, XDATA, add(CFA_XSP16, literal(-1)))
        CFI (cfiCond55) CFA_SP SP+0
        CFI (cfiCond55) CFA_XSP16 add(XSP16, 14)
        CFI Block cfiCond56 Using cfiCommon0
        CFI (cfiCond56) NoFunction
        CFI (cfiCond56) Conditional ??CrossCallReturnLabel_41, ??CrossCallReturnLabel_24
        CFI (cfiCond56) R6 load(1, XDATA, add(CFA_XSP16, literal(-14)))
        CFI (cfiCond56) VB load(1, XDATA, add(CFA_XSP16, literal(-13)))
        CFI (cfiCond56) V0 load(1, XDATA, add(CFA_XSP16, literal(-12)))
        CFI (cfiCond56) V1 load(1, XDATA, add(CFA_XSP16, literal(-11)))
        CFI (cfiCond56) V2 load(1, XDATA, add(CFA_XSP16, literal(-10)))
        CFI (cfiCond56) V3 load(1, XDATA, add(CFA_XSP16, literal(-9)))
        CFI (cfiCond56) V4 load(1, XDATA, add(CFA_XSP16, literal(-8)))
        CFI (cfiCond56) V5 load(1, XDATA, add(CFA_XSP16, literal(-7)))
        CFI (cfiCond56) R7 load(1, XDATA, add(CFA_XSP16, literal(-6)))
        CFI (cfiCond56) ?RET_LOW load(1, XDATA, add(CFA_XSP16, literal(-5)))
        CFI (cfiCond56) ?RET_HIGH load(1, XDATA, add(CFA_XSP16, literal(-4)))
        CFI (cfiCond56) ?BRET_EXT load(1, XDATA, add(CFA_XSP16, literal(-3)))
        CFI (cfiCond56) DPL0 load(1, XDATA, add(CFA_XSP16, literal(-2)))
        CFI (cfiCond56) DPH0 load(1, XDATA, add(CFA_XSP16, literal(-1)))
        CFI (cfiCond56) CFA_SP SP+0
        CFI (cfiCond56) CFA_XSP16 add(XSP16, 14)
        CFI Block cfiCond57 Using cfiCommon0
        CFI (cfiCond57) NoFunction
        CFI (cfiCond57) Conditional ??CrossCallReturnLabel_41, ??CrossCallReturnLabel_25
        CFI (cfiCond57) R6 load(1, XDATA, add(CFA_XSP16, literal(-14)))
        CFI (cfiCond57) VB load(1, XDATA, add(CFA_XSP16, literal(-13)))
        CFI (cfiCond57) V0 load(1, XDATA, add(CFA_XSP16, literal(-12)))
        CFI (cfiCond57) V1 load(1, XDATA, add(CFA_XSP16, literal(-11)))
        CFI (cfiCond57) V2 load(1, XDATA, add(CFA_XSP16, literal(-10)))
        CFI (cfiCond57) V3 load(1, XDATA, add(CFA_XSP16, literal(-9)))
        CFI (cfiCond57) V4 load(1, XDATA, add(CFA_XSP16, literal(-8)))
        CFI (cfiCond57) V5 load(1, XDATA, add(CFA_XSP16, literal(-7)))
        CFI (cfiCond57) R7 load(1, XDATA, add(CFA_XSP16, literal(-6)))
        CFI (cfiCond57) ?RET_LOW load(1, XDATA, add(CFA_XSP16, literal(-5)))
        CFI (cfiCond57) ?RET_HIGH load(1, XDATA, add(CFA_XSP16, literal(-4)))
        CFI (cfiCond57) ?BRET_EXT load(1, XDATA, add(CFA_XSP16, literal(-3)))
        CFI (cfiCond57) DPL0 load(1, XDATA, add(CFA_XSP16, literal(-2)))
        CFI (cfiCond57) DPH0 load(1, XDATA, add(CFA_XSP16, literal(-1)))
        CFI (cfiCond57) CFA_SP SP+0
        CFI (cfiCond57) CFA_XSP16 add(XSP16, 14)
        CFI Block cfiCond58 Using cfiCommon0
        CFI (cfiCond58) NoFunction
        CFI (cfiCond58) Conditional ??CrossCallReturnLabel_41, ??CrossCallReturnLabel_26
        CFI (cfiCond58) R6 load(1, XDATA, add(CFA_XSP16, literal(-14)))
        CFI (cfiCond58) VB load(1, XDATA, add(CFA_XSP16, literal(-13)))
        CFI (cfiCond58) V0 load(1, XDATA, add(CFA_XSP16, literal(-12)))
        CFI (cfiCond58) V1 load(1, XDATA, add(CFA_XSP16, literal(-11)))
        CFI (cfiCond58) V2 load(1, XDATA, add(CFA_XSP16, literal(-10)))
        CFI (cfiCond58) V3 load(1, XDATA, add(CFA_XSP16, literal(-9)))
        CFI (cfiCond58) V4 load(1, XDATA, add(CFA_XSP16, literal(-8)))
        CFI (cfiCond58) V5 load(1, XDATA, add(CFA_XSP16, literal(-7)))
        CFI (cfiCond58) R7 load(1, XDATA, add(CFA_XSP16, literal(-6)))
        CFI (cfiCond58) ?RET_LOW load(1, XDATA, add(CFA_XSP16, literal(-5)))
        CFI (cfiCond58) ?RET_HIGH load(1, XDATA, add(CFA_XSP16, literal(-4)))
        CFI (cfiCond58) ?BRET_EXT load(1, XDATA, add(CFA_XSP16, literal(-3)))
        CFI (cfiCond58) DPL0 load(1, XDATA, add(CFA_XSP16, literal(-2)))
        CFI (cfiCond58) DPH0 load(1, XDATA, add(CFA_XSP16, literal(-1)))
        CFI (cfiCond58) CFA_SP SP+0
        CFI (cfiCond58) CFA_XSP16 add(XSP16, 14)
        CFI Block cfiCond59 Using cfiCommon0
        CFI (cfiCond59) NoFunction
        CFI (cfiCond59) Conditional ??CrossCallReturnLabel_41, ??CrossCallReturnLabel_27
        CFI (cfiCond59) R6 load(1, XDATA, add(CFA_XSP16, literal(-14)))
        CFI (cfiCond59) VB load(1, XDATA, add(CFA_XSP16, literal(-13)))
        CFI (cfiCond59) V0 load(1, XDATA, add(CFA_XSP16, literal(-12)))
        CFI (cfiCond59) V1 load(1, XDATA, add(CFA_XSP16, literal(-11)))
        CFI (cfiCond59) V2 load(1, XDATA, add(CFA_XSP16, literal(-10)))
        CFI (cfiCond59) V3 load(1, XDATA, add(CFA_XSP16, literal(-9)))
        CFI (cfiCond59) V4 load(1, XDATA, add(CFA_XSP16, literal(-8)))
        CFI (cfiCond59) V5 load(1, XDATA, add(CFA_XSP16, literal(-7)))
        CFI (cfiCond59) R7 load(1, XDATA, add(CFA_XSP16, literal(-6)))
        CFI (cfiCond59) ?RET_LOW load(1, XDATA, add(CFA_XSP16, literal(-5)))
        CFI (cfiCond59) ?RET_HIGH load(1, XDATA, add(CFA_XSP16, literal(-4)))
        CFI (cfiCond59) ?BRET_EXT load(1, XDATA, add(CFA_XSP16, literal(-3)))
        CFI (cfiCond59) DPL0 load(1, XDATA, add(CFA_XSP16, literal(-2)))
        CFI (cfiCond59) DPH0 load(1, XDATA, add(CFA_XSP16, literal(-1)))
        CFI (cfiCond59) CFA_SP SP+0
        CFI (cfiCond59) CFA_XSP16 add(XSP16, 14)
        CFI Block cfiCond60 Using cfiCommon0
        CFI (cfiCond60) NoFunction
        CFI (cfiCond60) Conditional ??CrossCallReturnLabel_41, ??CrossCallReturnLabel_28
        CFI (cfiCond60) R6 load(1, XDATA, add(CFA_XSP16, literal(-14)))
        CFI (cfiCond60) VB load(1, XDATA, add(CFA_XSP16, literal(-13)))
        CFI (cfiCond60) V0 load(1, XDATA, add(CFA_XSP16, literal(-12)))
        CFI (cfiCond60) V1 load(1, XDATA, add(CFA_XSP16, literal(-11)))
        CFI (cfiCond60) V2 load(1, XDATA, add(CFA_XSP16, literal(-10)))
        CFI (cfiCond60) V3 load(1, XDATA, add(CFA_XSP16, literal(-9)))
        CFI (cfiCond60) V4 load(1, XDATA, add(CFA_XSP16, literal(-8)))
        CFI (cfiCond60) V5 load(1, XDATA, add(CFA_XSP16, literal(-7)))
        CFI (cfiCond60) R7 load(1, XDATA, add(CFA_XSP16, literal(-6)))
        CFI (cfiCond60) ?RET_LOW load(1, XDATA, add(CFA_XSP16, literal(-5)))
        CFI (cfiCond60) ?RET_HIGH load(1, XDATA, add(CFA_XSP16, literal(-4)))
        CFI (cfiCond60) ?BRET_EXT load(1, XDATA, add(CFA_XSP16, literal(-3)))
        CFI (cfiCond60) DPL0 load(1, XDATA, add(CFA_XSP16, literal(-2)))
        CFI (cfiCond60) DPH0 load(1, XDATA, add(CFA_XSP16, literal(-1)))
        CFI (cfiCond60) CFA_SP SP+0
        CFI (cfiCond60) CFA_XSP16 add(XSP16, 14)
        CFI Block cfiPicker61 Using cfiCommon1
        CFI (cfiPicker61) NoFunction
        CFI (cfiPicker61) Picker
        MOV     R1,#0x0
        LCALL   ??HalUARTWrite?relay
        RET
        CFI EndBlock cfiCond34
        CFI EndBlock cfiCond35
        CFI EndBlock cfiCond36
        CFI EndBlock cfiCond37
        CFI EndBlock cfiCond38
        CFI EndBlock cfiCond39
        CFI EndBlock cfiCond40
        CFI EndBlock cfiCond41
        CFI EndBlock cfiCond42
        CFI EndBlock cfiCond43
        CFI EndBlock cfiCond44
        CFI EndBlock cfiCond45
        CFI EndBlock cfiCond46
        CFI EndBlock cfiCond47
        CFI EndBlock cfiCond48
        CFI EndBlock cfiCond49
        CFI EndBlock cfiCond50
        CFI EndBlock cfiCond51
        CFI EndBlock cfiCond52
        CFI EndBlock cfiCond53
        CFI EndBlock cfiCond54
        CFI EndBlock cfiCond55
        CFI EndBlock cfiCond56
        CFI EndBlock cfiCond57
        CFI EndBlock cfiCond58
        CFI EndBlock cfiCond59
        CFI EndBlock cfiCond60
        CFI EndBlock cfiPicker61

        RSEG BANKED_CODE:CODE:NOROOT(0)
?Subroutine4:
        CFI Block cfiCond62 Using cfiCommon0
        CFI NoFunction
        CFI Conditional ??CrossCallReturnLabel_29
        CFI R6 load(1, XDATA, add(CFA_XSP16, literal(-14)))
        CFI VB load(1, XDATA, add(CFA_XSP16, literal(-13)))
        CFI V0 load(1, XDATA, add(CFA_XSP16, literal(-12)))
        CFI V1 load(1, XDATA, add(CFA_XSP16, literal(-11)))
        CFI V2 load(1, XDATA, add(CFA_XSP16, literal(-10)))
        CFI V3 load(1, XDATA, add(CFA_XSP16, literal(-9)))
        CFI V4 load(1, XDATA, add(CFA_XSP16, literal(-8)))
        CFI V5 load(1, XDATA, add(CFA_XSP16, literal(-7)))
        CFI R7 load(1, XDATA, add(CFA_XSP16, literal(-6)))
        CFI ?RET_LOW load(1, XDATA, add(CFA_XSP16, literal(-5)))
        CFI ?RET_HIGH load(1, XDATA, add(CFA_XSP16, literal(-4)))
        CFI ?BRET_EXT load(1, XDATA, add(CFA_XSP16, literal(-3)))
        CFI DPL0 load(1, XDATA, add(CFA_XSP16, literal(-2)))
        CFI DPH0 load(1, XDATA, add(CFA_XSP16, literal(-1)))
        CFI CFA_SP SP+0
        CFI CFA_XSP16 add(XSP16, 14)
        CFI Block cfiCond63 Using cfiCommon0
        CFI (cfiCond63) NoFunction
        CFI (cfiCond63) Conditional ??CrossCallReturnLabel_30
        CFI (cfiCond63) R6 load(1, XDATA, add(CFA_XSP16, literal(-14)))
        CFI (cfiCond63) VB load(1, XDATA, add(CFA_XSP16, literal(-13)))
        CFI (cfiCond63) V0 load(1, XDATA, add(CFA_XSP16, literal(-12)))
        CFI (cfiCond63) V1 load(1, XDATA, add(CFA_XSP16, literal(-11)))
        CFI (cfiCond63) V2 load(1, XDATA, add(CFA_XSP16, literal(-10)))
        CFI (cfiCond63) V3 load(1, XDATA, add(CFA_XSP16, literal(-9)))
        CFI (cfiCond63) V4 load(1, XDATA, add(CFA_XSP16, literal(-8)))
        CFI (cfiCond63) V5 load(1, XDATA, add(CFA_XSP16, literal(-7)))
        CFI (cfiCond63) R7 load(1, XDATA, add(CFA_XSP16, literal(-6)))
        CFI (cfiCond63) ?RET_LOW load(1, XDATA, add(CFA_XSP16, literal(-5)))
        CFI (cfiCond63) ?RET_HIGH load(1, XDATA, add(CFA_XSP16, literal(-4)))
        CFI (cfiCond63) ?BRET_EXT load(1, XDATA, add(CFA_XSP16, literal(-3)))
        CFI (cfiCond63) DPL0 load(1, XDATA, add(CFA_XSP16, literal(-2)))
        CFI (cfiCond63) DPH0 load(1, XDATA, add(CFA_XSP16, literal(-1)))
        CFI (cfiCond63) CFA_SP SP+0
        CFI (cfiCond63) CFA_XSP16 add(XSP16, 14)
        CFI Block cfiCond64 Using cfiCommon0
        CFI (cfiCond64) NoFunction
        CFI (cfiCond64) Conditional ??CrossCallReturnLabel_31
        CFI (cfiCond64) R6 load(1, XDATA, add(CFA_XSP16, literal(-14)))
        CFI (cfiCond64) VB load(1, XDATA, add(CFA_XSP16, literal(-13)))
        CFI (cfiCond64) V0 load(1, XDATA, add(CFA_XSP16, literal(-12)))
        CFI (cfiCond64) V1 load(1, XDATA, add(CFA_XSP16, literal(-11)))
        CFI (cfiCond64) V2 load(1, XDATA, add(CFA_XSP16, literal(-10)))
        CFI (cfiCond64) V3 load(1, XDATA, add(CFA_XSP16, literal(-9)))
        CFI (cfiCond64) V4 load(1, XDATA, add(CFA_XSP16, literal(-8)))
        CFI (cfiCond64) V5 load(1, XDATA, add(CFA_XSP16, literal(-7)))
        CFI (cfiCond64) R7 load(1, XDATA, add(CFA_XSP16, literal(-6)))
        CFI (cfiCond64) ?RET_LOW load(1, XDATA, add(CFA_XSP16, literal(-5)))
        CFI (cfiCond64) ?RET_HIGH load(1, XDATA, add(CFA_XSP16, literal(-4)))
        CFI (cfiCond64) ?BRET_EXT load(1, XDATA, add(CFA_XSP16, literal(-3)))
        CFI (cfiCond64) DPL0 load(1, XDATA, add(CFA_XSP16, literal(-2)))
        CFI (cfiCond64) DPH0 load(1, XDATA, add(CFA_XSP16, literal(-1)))
        CFI (cfiCond64) CFA_SP SP+0
        CFI (cfiCond64) CFA_XSP16 add(XSP16, 14)
        CFI Block cfiCond65 Using cfiCommon0
        CFI (cfiCond65) NoFunction
        CFI (cfiCond65) Conditional ??CrossCallReturnLabel_32
        CFI (cfiCond65) R6 load(1, XDATA, add(CFA_XSP16, literal(-14)))
        CFI (cfiCond65) VB load(1, XDATA, add(CFA_XSP16, literal(-13)))
        CFI (cfiCond65) V0 load(1, XDATA, add(CFA_XSP16, literal(-12)))
        CFI (cfiCond65) V1 load(1, XDATA, add(CFA_XSP16, literal(-11)))
        CFI (cfiCond65) V2 load(1, XDATA, add(CFA_XSP16, literal(-10)))
        CFI (cfiCond65) V3 load(1, XDATA, add(CFA_XSP16, literal(-9)))
        CFI (cfiCond65) V4 load(1, XDATA, add(CFA_XSP16, literal(-8)))
        CFI (cfiCond65) V5 load(1, XDATA, add(CFA_XSP16, literal(-7)))
        CFI (cfiCond65) R7 load(1, XDATA, add(CFA_XSP16, literal(-6)))
        CFI (cfiCond65) ?RET_LOW load(1, XDATA, add(CFA_XSP16, literal(-5)))
        CFI (cfiCond65) ?RET_HIGH load(1, XDATA, add(CFA_XSP16, literal(-4)))
        CFI (cfiCond65) ?BRET_EXT load(1, XDATA, add(CFA_XSP16, literal(-3)))
        CFI (cfiCond65) DPL0 load(1, XDATA, add(CFA_XSP16, literal(-2)))
        CFI (cfiCond65) DPH0 load(1, XDATA, add(CFA_XSP16, literal(-1)))
        CFI (cfiCond65) CFA_SP SP+0
        CFI (cfiCond65) CFA_XSP16 add(XSP16, 14)
        CFI Block cfiCond66 Using cfiCommon0
        CFI (cfiCond66) NoFunction
        CFI (cfiCond66) Conditional ??CrossCallReturnLabel_33
        CFI (cfiCond66) R6 load(1, XDATA, add(CFA_XSP16, literal(-14)))
        CFI (cfiCond66) VB load(1, XDATA, add(CFA_XSP16, literal(-13)))
        CFI (cfiCond66) V0 load(1, XDATA, add(CFA_XSP16, literal(-12)))
        CFI (cfiCond66) V1 load(1, XDATA, add(CFA_XSP16, literal(-11)))
        CFI (cfiCond66) V2 load(1, XDATA, add(CFA_XSP16, literal(-10)))
        CFI (cfiCond66) V3 load(1, XDATA, add(CFA_XSP16, literal(-9)))
        CFI (cfiCond66) V4 load(1, XDATA, add(CFA_XSP16, literal(-8)))
        CFI (cfiCond66) V5 load(1, XDATA, add(CFA_XSP16, literal(-7)))
        CFI (cfiCond66) R7 load(1, XDATA, add(CFA_XSP16, literal(-6)))
        CFI (cfiCond66) ?RET_LOW load(1, XDATA, add(CFA_XSP16, literal(-5)))
        CFI (cfiCond66) ?RET_HIGH load(1, XDATA, add(CFA_XSP16, literal(-4)))
        CFI (cfiCond66) ?BRET_EXT load(1, XDATA, add(CFA_XSP16, literal(-3)))
        CFI (cfiCond66) DPL0 load(1, XDATA, add(CFA_XSP16, literal(-2)))
        CFI (cfiCond66) DPH0 load(1, XDATA, add(CFA_XSP16, literal(-1)))
        CFI (cfiCond66) CFA_SP SP+0
        CFI (cfiCond66) CFA_XSP16 add(XSP16, 14)
        CFI Block cfiCond67 Using cfiCommon0
        CFI (cfiCond67) NoFunction
        CFI (cfiCond67) Conditional ??CrossCallReturnLabel_34
        CFI (cfiCond67) R6 load(1, XDATA, add(CFA_XSP16, literal(-14)))
        CFI (cfiCond67) VB load(1, XDATA, add(CFA_XSP16, literal(-13)))
        CFI (cfiCond67) V0 load(1, XDATA, add(CFA_XSP16, literal(-12)))
        CFI (cfiCond67) V1 load(1, XDATA, add(CFA_XSP16, literal(-11)))
        CFI (cfiCond67) V2 load(1, XDATA, add(CFA_XSP16, literal(-10)))
        CFI (cfiCond67) V3 load(1, XDATA, add(CFA_XSP16, literal(-9)))
        CFI (cfiCond67) V4 load(1, XDATA, add(CFA_XSP16, literal(-8)))
        CFI (cfiCond67) V5 load(1, XDATA, add(CFA_XSP16, literal(-7)))
        CFI (cfiCond67) R7 load(1, XDATA, add(CFA_XSP16, literal(-6)))
        CFI (cfiCond67) ?RET_LOW load(1, XDATA, add(CFA_XSP16, literal(-5)))
        CFI (cfiCond67) ?RET_HIGH load(1, XDATA, add(CFA_XSP16, literal(-4)))
        CFI (cfiCond67) ?BRET_EXT load(1, XDATA, add(CFA_XSP16, literal(-3)))
        CFI (cfiCond67) DPL0 load(1, XDATA, add(CFA_XSP16, literal(-2)))
        CFI (cfiCond67) DPH0 load(1, XDATA, add(CFA_XSP16, literal(-1)))
        CFI (cfiCond67) CFA_SP SP+0
        CFI (cfiCond67) CFA_XSP16 add(XSP16, 14)
        CFI Block cfiCond68 Using cfiCommon0
        CFI (cfiCond68) NoFunction
        CFI (cfiCond68) Conditional ??CrossCallReturnLabel_35
        CFI (cfiCond68) R6 load(1, XDATA, add(CFA_XSP16, literal(-14)))
        CFI (cfiCond68) VB load(1, XDATA, add(CFA_XSP16, literal(-13)))
        CFI (cfiCond68) V0 load(1, XDATA, add(CFA_XSP16, literal(-12)))
        CFI (cfiCond68) V1 load(1, XDATA, add(CFA_XSP16, literal(-11)))
        CFI (cfiCond68) V2 load(1, XDATA, add(CFA_XSP16, literal(-10)))
        CFI (cfiCond68) V3 load(1, XDATA, add(CFA_XSP16, literal(-9)))
        CFI (cfiCond68) V4 load(1, XDATA, add(CFA_XSP16, literal(-8)))
        CFI (cfiCond68) V5 load(1, XDATA, add(CFA_XSP16, literal(-7)))
        CFI (cfiCond68) R7 load(1, XDATA, add(CFA_XSP16, literal(-6)))
        CFI (cfiCond68) ?RET_LOW load(1, XDATA, add(CFA_XSP16, literal(-5)))
        CFI (cfiCond68) ?RET_HIGH load(1, XDATA, add(CFA_XSP16, literal(-4)))
        CFI (cfiCond68) ?BRET_EXT load(1, XDATA, add(CFA_XSP16, literal(-3)))
        CFI (cfiCond68) DPL0 load(1, XDATA, add(CFA_XSP16, literal(-2)))
        CFI (cfiCond68) DPH0 load(1, XDATA, add(CFA_XSP16, literal(-1)))
        CFI (cfiCond68) CFA_SP SP+0
        CFI (cfiCond68) CFA_XSP16 add(XSP16, 14)
        CFI Block cfiCond69 Using cfiCommon0
        CFI (cfiCond69) NoFunction
        CFI (cfiCond69) Conditional ??CrossCallReturnLabel_36
        CFI (cfiCond69) R6 load(1, XDATA, add(CFA_XSP16, literal(-14)))
        CFI (cfiCond69) VB load(1, XDATA, add(CFA_XSP16, literal(-13)))
        CFI (cfiCond69) V0 load(1, XDATA, add(CFA_XSP16, literal(-12)))
        CFI (cfiCond69) V1 load(1, XDATA, add(CFA_XSP16, literal(-11)))
        CFI (cfiCond69) V2 load(1, XDATA, add(CFA_XSP16, literal(-10)))
        CFI (cfiCond69) V3 load(1, XDATA, add(CFA_XSP16, literal(-9)))
        CFI (cfiCond69) V4 load(1, XDATA, add(CFA_XSP16, literal(-8)))
        CFI (cfiCond69) V5 load(1, XDATA, add(CFA_XSP16, literal(-7)))
        CFI (cfiCond69) R7 load(1, XDATA, add(CFA_XSP16, literal(-6)))
        CFI (cfiCond69) ?RET_LOW load(1, XDATA, add(CFA_XSP16, literal(-5)))
        CFI (cfiCond69) ?RET_HIGH load(1, XDATA, add(CFA_XSP16, literal(-4)))
        CFI (cfiCond69) ?BRET_EXT load(1, XDATA, add(CFA_XSP16, literal(-3)))
        CFI (cfiCond69) DPL0 load(1, XDATA, add(CFA_XSP16, literal(-2)))
        CFI (cfiCond69) DPH0 load(1, XDATA, add(CFA_XSP16, literal(-1)))
        CFI (cfiCond69) CFA_SP SP+0
        CFI (cfiCond69) CFA_XSP16 add(XSP16, 14)
        CFI Block cfiCond70 Using cfiCommon0
        CFI (cfiCond70) NoFunction
        CFI (cfiCond70) Conditional ??CrossCallReturnLabel_37
        CFI (cfiCond70) R6 load(1, XDATA, add(CFA_XSP16, literal(-14)))
        CFI (cfiCond70) VB load(1, XDATA, add(CFA_XSP16, literal(-13)))
        CFI (cfiCond70) V0 load(1, XDATA, add(CFA_XSP16, literal(-12)))
        CFI (cfiCond70) V1 load(1, XDATA, add(CFA_XSP16, literal(-11)))
        CFI (cfiCond70) V2 load(1, XDATA, add(CFA_XSP16, literal(-10)))
        CFI (cfiCond70) V3 load(1, XDATA, add(CFA_XSP16, literal(-9)))
        CFI (cfiCond70) V4 load(1, XDATA, add(CFA_XSP16, literal(-8)))
        CFI (cfiCond70) V5 load(1, XDATA, add(CFA_XSP16, literal(-7)))
        CFI (cfiCond70) R7 load(1, XDATA, add(CFA_XSP16, literal(-6)))
        CFI (cfiCond70) ?RET_LOW load(1, XDATA, add(CFA_XSP16, literal(-5)))
        CFI (cfiCond70) ?RET_HIGH load(1, XDATA, add(CFA_XSP16, literal(-4)))
        CFI (cfiCond70) ?BRET_EXT load(1, XDATA, add(CFA_XSP16, literal(-3)))
        CFI (cfiCond70) DPL0 load(1, XDATA, add(CFA_XSP16, literal(-2)))
        CFI (cfiCond70) DPH0 load(1, XDATA, add(CFA_XSP16, literal(-1)))
        CFI (cfiCond70) CFA_SP SP+0
        CFI (cfiCond70) CFA_XSP16 add(XSP16, 14)
        CFI Block cfiPicker71 Using cfiCommon1
        CFI (cfiPicker71) NoFunction
        CFI (cfiPicker71) Picker
        LCALL   ?Subroutine7 & 0xFFFF
??CrossCallReturnLabel_40:
        RET
        CFI EndBlock cfiCond62
        CFI EndBlock cfiCond63
        CFI EndBlock cfiCond64
        CFI EndBlock cfiCond65
        CFI EndBlock cfiCond66
        CFI EndBlock cfiCond67
        CFI EndBlock cfiCond68
        CFI EndBlock cfiCond69
        CFI EndBlock cfiCond70
        CFI EndBlock cfiPicker71

        RSEG BANKED_CODE:CODE:NOROOT(0)
?Subroutine7:
        CFI Block cfiCond72 Using cfiCommon0
        CFI NoFunction
        CFI Conditional ??CrossCallReturnLabel_40, ??CrossCallReturnLabel_29
        CFI R6 load(1, XDATA, add(CFA_XSP16, literal(-14)))
        CFI VB load(1, XDATA, add(CFA_XSP16, literal(-13)))
        CFI V0 load(1, XDATA, add(CFA_XSP16, literal(-12)))
        CFI V1 load(1, XDATA, add(CFA_XSP16, literal(-11)))
        CFI V2 load(1, XDATA, add(CFA_XSP16, literal(-10)))
        CFI V3 load(1, XDATA, add(CFA_XSP16, literal(-9)))
        CFI V4 load(1, XDATA, add(CFA_XSP16, literal(-8)))
        CFI V5 load(1, XDATA, add(CFA_XSP16, literal(-7)))
        CFI R7 load(1, XDATA, add(CFA_XSP16, literal(-6)))
        CFI ?RET_LOW load(1, XDATA, add(CFA_XSP16, literal(-5)))
        CFI ?RET_HIGH load(1, XDATA, add(CFA_XSP16, literal(-4)))
        CFI ?BRET_EXT load(1, XDATA, add(CFA_XSP16, literal(-3)))
        CFI DPL0 load(1, XDATA, add(CFA_XSP16, literal(-2)))
        CFI DPH0 load(1, XDATA, add(CFA_XSP16, literal(-1)))
        CFI CFA_SP SP+0
        CFI CFA_XSP16 add(XSP16, 14)
        CFI Block cfiCond73 Using cfiCommon0
        CFI (cfiCond73) NoFunction
        CFI (cfiCond73) Conditional ??CrossCallReturnLabel_40, ??CrossCallReturnLabel_30
        CFI (cfiCond73) R6 load(1, XDATA, add(CFA_XSP16, literal(-14)))
        CFI (cfiCond73) VB load(1, XDATA, add(CFA_XSP16, literal(-13)))
        CFI (cfiCond73) V0 load(1, XDATA, add(CFA_XSP16, literal(-12)))
        CFI (cfiCond73) V1 load(1, XDATA, add(CFA_XSP16, literal(-11)))
        CFI (cfiCond73) V2 load(1, XDATA, add(CFA_XSP16, literal(-10)))
        CFI (cfiCond73) V3 load(1, XDATA, add(CFA_XSP16, literal(-9)))
        CFI (cfiCond73) V4 load(1, XDATA, add(CFA_XSP16, literal(-8)))
        CFI (cfiCond73) V5 load(1, XDATA, add(CFA_XSP16, literal(-7)))
        CFI (cfiCond73) R7 load(1, XDATA, add(CFA_XSP16, literal(-6)))
        CFI (cfiCond73) ?RET_LOW load(1, XDATA, add(CFA_XSP16, literal(-5)))
        CFI (cfiCond73) ?RET_HIGH load(1, XDATA, add(CFA_XSP16, literal(-4)))
        CFI (cfiCond73) ?BRET_EXT load(1, XDATA, add(CFA_XSP16, literal(-3)))
        CFI (cfiCond73) DPL0 load(1, XDATA, add(CFA_XSP16, literal(-2)))
        CFI (cfiCond73) DPH0 load(1, XDATA, add(CFA_XSP16, literal(-1)))
        CFI (cfiCond73) CFA_SP SP+0
        CFI (cfiCond73) CFA_XSP16 add(XSP16, 14)
        CFI Block cfiCond74 Using cfiCommon0
        CFI (cfiCond74) NoFunction
        CFI (cfiCond74) Conditional ??CrossCallReturnLabel_40, ??CrossCallReturnLabel_31
        CFI (cfiCond74) R6 load(1, XDATA, add(CFA_XSP16, literal(-14)))
        CFI (cfiCond74) VB load(1, XDATA, add(CFA_XSP16, literal(-13)))
        CFI (cfiCond74) V0 load(1, XDATA, add(CFA_XSP16, literal(-12)))
        CFI (cfiCond74) V1 load(1, XDATA, add(CFA_XSP16, literal(-11)))
        CFI (cfiCond74) V2 load(1, XDATA, add(CFA_XSP16, literal(-10)))
        CFI (cfiCond74) V3 load(1, XDATA, add(CFA_XSP16, literal(-9)))
        CFI (cfiCond74) V4 load(1, XDATA, add(CFA_XSP16, literal(-8)))
        CFI (cfiCond74) V5 load(1, XDATA, add(CFA_XSP16, literal(-7)))
        CFI (cfiCond74) R7 load(1, XDATA, add(CFA_XSP16, literal(-6)))
        CFI (cfiCond74) ?RET_LOW load(1, XDATA, add(CFA_XSP16, literal(-5)))
        CFI (cfiCond74) ?RET_HIGH load(1, XDATA, add(CFA_XSP16, literal(-4)))
        CFI (cfiCond74) ?BRET_EXT load(1, XDATA, add(CFA_XSP16, literal(-3)))
        CFI (cfiCond74) DPL0 load(1, XDATA, add(CFA_XSP16, literal(-2)))
        CFI (cfiCond74) DPH0 load(1, XDATA, add(CFA_XSP16, literal(-1)))
        CFI (cfiCond74) CFA_SP SP+0
        CFI (cfiCond74) CFA_XSP16 add(XSP16, 14)
        CFI Block cfiCond75 Using cfiCommon0
        CFI (cfiCond75) NoFunction
        CFI (cfiCond75) Conditional ??CrossCallReturnLabel_40, ??CrossCallReturnLabel_32
        CFI (cfiCond75) R6 load(1, XDATA, add(CFA_XSP16, literal(-14)))
        CFI (cfiCond75) VB load(1, XDATA, add(CFA_XSP16, literal(-13)))
        CFI (cfiCond75) V0 load(1, XDATA, add(CFA_XSP16, literal(-12)))
        CFI (cfiCond75) V1 load(1, XDATA, add(CFA_XSP16, literal(-11)))
        CFI (cfiCond75) V2 load(1, XDATA, add(CFA_XSP16, literal(-10)))
        CFI (cfiCond75) V3 load(1, XDATA, add(CFA_XSP16, literal(-9)))
        CFI (cfiCond75) V4 load(1, XDATA, add(CFA_XSP16, literal(-8)))
        CFI (cfiCond75) V5 load(1, XDATA, add(CFA_XSP16, literal(-7)))
        CFI (cfiCond75) R7 load(1, XDATA, add(CFA_XSP16, literal(-6)))
        CFI (cfiCond75) ?RET_LOW load(1, XDATA, add(CFA_XSP16, literal(-5)))
        CFI (cfiCond75) ?RET_HIGH load(1, XDATA, add(CFA_XSP16, literal(-4)))
        CFI (cfiCond75) ?BRET_EXT load(1, XDATA, add(CFA_XSP16, literal(-3)))
        CFI (cfiCond75) DPL0 load(1, XDATA, add(CFA_XSP16, literal(-2)))
        CFI (cfiCond75) DPH0 load(1, XDATA, add(CFA_XSP16, literal(-1)))
        CFI (cfiCond75) CFA_SP SP+0
        CFI (cfiCond75) CFA_XSP16 add(XSP16, 14)
        CFI Block cfiCond76 Using cfiCommon0
        CFI (cfiCond76) NoFunction
        CFI (cfiCond76) Conditional ??CrossCallReturnLabel_40, ??CrossCallReturnLabel_33
        CFI (cfiCond76) R6 load(1, XDATA, add(CFA_XSP16, literal(-14)))
        CFI (cfiCond76) VB load(1, XDATA, add(CFA_XSP16, literal(-13)))
        CFI (cfiCond76) V0 load(1, XDATA, add(CFA_XSP16, literal(-12)))
        CFI (cfiCond76) V1 load(1, XDATA, add(CFA_XSP16, literal(-11)))
        CFI (cfiCond76) V2 load(1, XDATA, add(CFA_XSP16, literal(-10)))
        CFI (cfiCond76) V3 load(1, XDATA, add(CFA_XSP16, literal(-9)))
        CFI (cfiCond76) V4 load(1, XDATA, add(CFA_XSP16, literal(-8)))
        CFI (cfiCond76) V5 load(1, XDATA, add(CFA_XSP16, literal(-7)))
        CFI (cfiCond76) R7 load(1, XDATA, add(CFA_XSP16, literal(-6)))
        CFI (cfiCond76) ?RET_LOW load(1, XDATA, add(CFA_XSP16, literal(-5)))
        CFI (cfiCond76) ?RET_HIGH load(1, XDATA, add(CFA_XSP16, literal(-4)))
        CFI (cfiCond76) ?BRET_EXT load(1, XDATA, add(CFA_XSP16, literal(-3)))
        CFI (cfiCond76) DPL0 load(1, XDATA, add(CFA_XSP16, literal(-2)))
        CFI (cfiCond76) DPH0 load(1, XDATA, add(CFA_XSP16, literal(-1)))
        CFI (cfiCond76) CFA_SP SP+0
        CFI (cfiCond76) CFA_XSP16 add(XSP16, 14)
        CFI Block cfiCond77 Using cfiCommon0
        CFI (cfiCond77) NoFunction
        CFI (cfiCond77) Conditional ??CrossCallReturnLabel_40, ??CrossCallReturnLabel_34
        CFI (cfiCond77) R6 load(1, XDATA, add(CFA_XSP16, literal(-14)))
        CFI (cfiCond77) VB load(1, XDATA, add(CFA_XSP16, literal(-13)))
        CFI (cfiCond77) V0 load(1, XDATA, add(CFA_XSP16, literal(-12)))
        CFI (cfiCond77) V1 load(1, XDATA, add(CFA_XSP16, literal(-11)))
        CFI (cfiCond77) V2 load(1, XDATA, add(CFA_XSP16, literal(-10)))
        CFI (cfiCond77) V3 load(1, XDATA, add(CFA_XSP16, literal(-9)))
        CFI (cfiCond77) V4 load(1, XDATA, add(CFA_XSP16, literal(-8)))
        CFI (cfiCond77) V5 load(1, XDATA, add(CFA_XSP16, literal(-7)))
        CFI (cfiCond77) R7 load(1, XDATA, add(CFA_XSP16, literal(-6)))
        CFI (cfiCond77) ?RET_LOW load(1, XDATA, add(CFA_XSP16, literal(-5)))
        CFI (cfiCond77) ?RET_HIGH load(1, XDATA, add(CFA_XSP16, literal(-4)))
        CFI (cfiCond77) ?BRET_EXT load(1, XDATA, add(CFA_XSP16, literal(-3)))
        CFI (cfiCond77) DPL0 load(1, XDATA, add(CFA_XSP16, literal(-2)))
        CFI (cfiCond77) DPH0 load(1, XDATA, add(CFA_XSP16, literal(-1)))
        CFI (cfiCond77) CFA_SP SP+0
        CFI (cfiCond77) CFA_XSP16 add(XSP16, 14)
        CFI Block cfiCond78 Using cfiCommon0
        CFI (cfiCond78) NoFunction
        CFI (cfiCond78) Conditional ??CrossCallReturnLabel_40, ??CrossCallReturnLabel_35
        CFI (cfiCond78) R6 load(1, XDATA, add(CFA_XSP16, literal(-14)))
        CFI (cfiCond78) VB load(1, XDATA, add(CFA_XSP16, literal(-13)))
        CFI (cfiCond78) V0 load(1, XDATA, add(CFA_XSP16, literal(-12)))
        CFI (cfiCond78) V1 load(1, XDATA, add(CFA_XSP16, literal(-11)))
        CFI (cfiCond78) V2 load(1, XDATA, add(CFA_XSP16, literal(-10)))
        CFI (cfiCond78) V3 load(1, XDATA, add(CFA_XSP16, literal(-9)))
        CFI (cfiCond78) V4 load(1, XDATA, add(CFA_XSP16, literal(-8)))
        CFI (cfiCond78) V5 load(1, XDATA, add(CFA_XSP16, literal(-7)))
        CFI (cfiCond78) R7 load(1, XDATA, add(CFA_XSP16, literal(-6)))
        CFI (cfiCond78) ?RET_LOW load(1, XDATA, add(CFA_XSP16, literal(-5)))
        CFI (cfiCond78) ?RET_HIGH load(1, XDATA, add(CFA_XSP16, literal(-4)))
        CFI (cfiCond78) ?BRET_EXT load(1, XDATA, add(CFA_XSP16, literal(-3)))
        CFI (cfiCond78) DPL0 load(1, XDATA, add(CFA_XSP16, literal(-2)))
        CFI (cfiCond78) DPH0 load(1, XDATA, add(CFA_XSP16, literal(-1)))
        CFI (cfiCond78) CFA_SP SP+0
        CFI (cfiCond78) CFA_XSP16 add(XSP16, 14)
        CFI Block cfiCond79 Using cfiCommon0
        CFI (cfiCond79) NoFunction
        CFI (cfiCond79) Conditional ??CrossCallReturnLabel_40, ??CrossCallReturnLabel_36
        CFI (cfiCond79) R6 load(1, XDATA, add(CFA_XSP16, literal(-14)))
        CFI (cfiCond79) VB load(1, XDATA, add(CFA_XSP16, literal(-13)))
        CFI (cfiCond79) V0 load(1, XDATA, add(CFA_XSP16, literal(-12)))
        CFI (cfiCond79) V1 load(1, XDATA, add(CFA_XSP16, literal(-11)))
        CFI (cfiCond79) V2 load(1, XDATA, add(CFA_XSP16, literal(-10)))
        CFI (cfiCond79) V3 load(1, XDATA, add(CFA_XSP16, literal(-9)))
        CFI (cfiCond79) V4 load(1, XDATA, add(CFA_XSP16, literal(-8)))
        CFI (cfiCond79) V5 load(1, XDATA, add(CFA_XSP16, literal(-7)))
        CFI (cfiCond79) R7 load(1, XDATA, add(CFA_XSP16, literal(-6)))
        CFI (cfiCond79) ?RET_LOW load(1, XDATA, add(CFA_XSP16, literal(-5)))
        CFI (cfiCond79) ?RET_HIGH load(1, XDATA, add(CFA_XSP16, literal(-4)))
        CFI (cfiCond79) ?BRET_EXT load(1, XDATA, add(CFA_XSP16, literal(-3)))
        CFI (cfiCond79) DPL0 load(1, XDATA, add(CFA_XSP16, literal(-2)))
        CFI (cfiCond79) DPH0 load(1, XDATA, add(CFA_XSP16, literal(-1)))
        CFI (cfiCond79) CFA_SP SP+0
        CFI (cfiCond79) CFA_XSP16 add(XSP16, 14)
        CFI Block cfiCond80 Using cfiCommon0
        CFI (cfiCond80) NoFunction
        CFI (cfiCond80) Conditional ??CrossCallReturnLabel_40, ??CrossCallReturnLabel_37
        CFI (cfiCond80) R6 load(1, XDATA, add(CFA_XSP16, literal(-14)))
        CFI (cfiCond80) VB load(1, XDATA, add(CFA_XSP16, literal(-13)))
        CFI (cfiCond80) V0 load(1, XDATA, add(CFA_XSP16, literal(-12)))
        CFI (cfiCond80) V1 load(1, XDATA, add(CFA_XSP16, literal(-11)))
        CFI (cfiCond80) V2 load(1, XDATA, add(CFA_XSP16, literal(-10)))
        CFI (cfiCond80) V3 load(1, XDATA, add(CFA_XSP16, literal(-9)))
        CFI (cfiCond80) V4 load(1, XDATA, add(CFA_XSP16, literal(-8)))
        CFI (cfiCond80) V5 load(1, XDATA, add(CFA_XSP16, literal(-7)))
        CFI (cfiCond80) R7 load(1, XDATA, add(CFA_XSP16, literal(-6)))
        CFI (cfiCond80) ?RET_LOW load(1, XDATA, add(CFA_XSP16, literal(-5)))
        CFI (cfiCond80) ?RET_HIGH load(1, XDATA, add(CFA_XSP16, literal(-4)))
        CFI (cfiCond80) ?BRET_EXT load(1, XDATA, add(CFA_XSP16, literal(-3)))
        CFI (cfiCond80) DPL0 load(1, XDATA, add(CFA_XSP16, literal(-2)))
        CFI (cfiCond80) DPH0 load(1, XDATA, add(CFA_XSP16, literal(-1)))
        CFI (cfiCond80) CFA_SP SP+0
        CFI (cfiCond80) CFA_XSP16 add(XSP16, 14)
        CFI Block cfiCond81 Using cfiCommon0
        CFI (cfiCond81) NoFunction
        CFI (cfiCond81) Conditional ??CrossCallReturnLabel_41, ??CrossCallReturnLabel_20
        CFI (cfiCond81) R6 load(1, XDATA, add(CFA_XSP16, literal(-14)))
        CFI (cfiCond81) VB load(1, XDATA, add(CFA_XSP16, literal(-13)))
        CFI (cfiCond81) V0 load(1, XDATA, add(CFA_XSP16, literal(-12)))
        CFI (cfiCond81) V1 load(1, XDATA, add(CFA_XSP16, literal(-11)))
        CFI (cfiCond81) V2 load(1, XDATA, add(CFA_XSP16, literal(-10)))
        CFI (cfiCond81) V3 load(1, XDATA, add(CFA_XSP16, literal(-9)))
        CFI (cfiCond81) V4 load(1, XDATA, add(CFA_XSP16, literal(-8)))
        CFI (cfiCond81) V5 load(1, XDATA, add(CFA_XSP16, literal(-7)))
        CFI (cfiCond81) R7 load(1, XDATA, add(CFA_XSP16, literal(-6)))
        CFI (cfiCond81) ?RET_LOW load(1, XDATA, add(CFA_XSP16, literal(-5)))
        CFI (cfiCond81) ?RET_HIGH load(1, XDATA, add(CFA_XSP16, literal(-4)))
        CFI (cfiCond81) ?BRET_EXT load(1, XDATA, add(CFA_XSP16, literal(-3)))
        CFI (cfiCond81) DPL0 load(1, XDATA, add(CFA_XSP16, literal(-2)))
        CFI (cfiCond81) DPH0 load(1, XDATA, add(CFA_XSP16, literal(-1)))
        CFI (cfiCond81) CFA_SP SP+0
        CFI (cfiCond81) CFA_XSP16 add(XSP16, 14)
        CFI Block cfiCond82 Using cfiCommon0
        CFI (cfiCond82) NoFunction
        CFI (cfiCond82) Conditional ??CrossCallReturnLabel_41, ??CrossCallReturnLabel_21
        CFI (cfiCond82) R6 load(1, XDATA, add(CFA_XSP16, literal(-14)))
        CFI (cfiCond82) VB load(1, XDATA, add(CFA_XSP16, literal(-13)))
        CFI (cfiCond82) V0 load(1, XDATA, add(CFA_XSP16, literal(-12)))
        CFI (cfiCond82) V1 load(1, XDATA, add(CFA_XSP16, literal(-11)))
        CFI (cfiCond82) V2 load(1, XDATA, add(CFA_XSP16, literal(-10)))
        CFI (cfiCond82) V3 load(1, XDATA, add(CFA_XSP16, literal(-9)))
        CFI (cfiCond82) V4 load(1, XDATA, add(CFA_XSP16, literal(-8)))
        CFI (cfiCond82) V5 load(1, XDATA, add(CFA_XSP16, literal(-7)))
        CFI (cfiCond82) R7 load(1, XDATA, add(CFA_XSP16, literal(-6)))
        CFI (cfiCond82) ?RET_LOW load(1, XDATA, add(CFA_XSP16, literal(-5)))
        CFI (cfiCond82) ?RET_HIGH load(1, XDATA, add(CFA_XSP16, literal(-4)))
        CFI (cfiCond82) ?BRET_EXT load(1, XDATA, add(CFA_XSP16, literal(-3)))
        CFI (cfiCond82) DPL0 load(1, XDATA, add(CFA_XSP16, literal(-2)))
        CFI (cfiCond82) DPH0 load(1, XDATA, add(CFA_XSP16, literal(-1)))
        CFI (cfiCond82) CFA_SP SP+0
        CFI (cfiCond82) CFA_XSP16 add(XSP16, 14)
        CFI Block cfiCond83 Using cfiCommon0
        CFI (cfiCond83) NoFunction
        CFI (cfiCond83) Conditional ??CrossCallReturnLabel_41, ??CrossCallReturnLabel_22
        CFI (cfiCond83) R6 load(1, XDATA, add(CFA_XSP16, literal(-14)))
        CFI (cfiCond83) VB load(1, XDATA, add(CFA_XSP16, literal(-13)))
        CFI (cfiCond83) V0 load(1, XDATA, add(CFA_XSP16, literal(-12)))
        CFI (cfiCond83) V1 load(1, XDATA, add(CFA_XSP16, literal(-11)))
        CFI (cfiCond83) V2 load(1, XDATA, add(CFA_XSP16, literal(-10)))
        CFI (cfiCond83) V3 load(1, XDATA, add(CFA_XSP16, literal(-9)))
        CFI (cfiCond83) V4 load(1, XDATA, add(CFA_XSP16, literal(-8)))
        CFI (cfiCond83) V5 load(1, XDATA, add(CFA_XSP16, literal(-7)))
        CFI (cfiCond83) R7 load(1, XDATA, add(CFA_XSP16, literal(-6)))
        CFI (cfiCond83) ?RET_LOW load(1, XDATA, add(CFA_XSP16, literal(-5)))
        CFI (cfiCond83) ?RET_HIGH load(1, XDATA, add(CFA_XSP16, literal(-4)))
        CFI (cfiCond83) ?BRET_EXT load(1, XDATA, add(CFA_XSP16, literal(-3)))
        CFI (cfiCond83) DPL0 load(1, XDATA, add(CFA_XSP16, literal(-2)))
        CFI (cfiCond83) DPH0 load(1, XDATA, add(CFA_XSP16, literal(-1)))
        CFI (cfiCond83) CFA_SP SP+0
        CFI (cfiCond83) CFA_XSP16 add(XSP16, 14)
        CFI Block cfiCond84 Using cfiCommon0
        CFI (cfiCond84) NoFunction
        CFI (cfiCond84) Conditional ??CrossCallReturnLabel_41, ??CrossCallReturnLabel_23
        CFI (cfiCond84) R6 load(1, XDATA, add(CFA_XSP16, literal(-14)))
        CFI (cfiCond84) VB load(1, XDATA, add(CFA_XSP16, literal(-13)))
        CFI (cfiCond84) V0 load(1, XDATA, add(CFA_XSP16, literal(-12)))
        CFI (cfiCond84) V1 load(1, XDATA, add(CFA_XSP16, literal(-11)))
        CFI (cfiCond84) V2 load(1, XDATA, add(CFA_XSP16, literal(-10)))
        CFI (cfiCond84) V3 load(1, XDATA, add(CFA_XSP16, literal(-9)))
        CFI (cfiCond84) V4 load(1, XDATA, add(CFA_XSP16, literal(-8)))
        CFI (cfiCond84) V5 load(1, XDATA, add(CFA_XSP16, literal(-7)))
        CFI (cfiCond84) R7 load(1, XDATA, add(CFA_XSP16, literal(-6)))
        CFI (cfiCond84) ?RET_LOW load(1, XDATA, add(CFA_XSP16, literal(-5)))
        CFI (cfiCond84) ?RET_HIGH load(1, XDATA, add(CFA_XSP16, literal(-4)))
        CFI (cfiCond84) ?BRET_EXT load(1, XDATA, add(CFA_XSP16, literal(-3)))
        CFI (cfiCond84) DPL0 load(1, XDATA, add(CFA_XSP16, literal(-2)))
        CFI (cfiCond84) DPH0 load(1, XDATA, add(CFA_XSP16, literal(-1)))
        CFI (cfiCond84) CFA_SP SP+0
        CFI (cfiCond84) CFA_XSP16 add(XSP16, 14)
        CFI Block cfiCond85 Using cfiCommon0
        CFI (cfiCond85) NoFunction
        CFI (cfiCond85) Conditional ??CrossCallReturnLabel_41, ??CrossCallReturnLabel_24
        CFI (cfiCond85) R6 load(1, XDATA, add(CFA_XSP16, literal(-14)))
        CFI (cfiCond85) VB load(1, XDATA, add(CFA_XSP16, literal(-13)))
        CFI (cfiCond85) V0 load(1, XDATA, add(CFA_XSP16, literal(-12)))
        CFI (cfiCond85) V1 load(1, XDATA, add(CFA_XSP16, literal(-11)))
        CFI (cfiCond85) V2 load(1, XDATA, add(CFA_XSP16, literal(-10)))
        CFI (cfiCond85) V3 load(1, XDATA, add(CFA_XSP16, literal(-9)))
        CFI (cfiCond85) V4 load(1, XDATA, add(CFA_XSP16, literal(-8)))
        CFI (cfiCond85) V5 load(1, XDATA, add(CFA_XSP16, literal(-7)))
        CFI (cfiCond85) R7 load(1, XDATA, add(CFA_XSP16, literal(-6)))
        CFI (cfiCond85) ?RET_LOW load(1, XDATA, add(CFA_XSP16, literal(-5)))
        CFI (cfiCond85) ?RET_HIGH load(1, XDATA, add(CFA_XSP16, literal(-4)))
        CFI (cfiCond85) ?BRET_EXT load(1, XDATA, add(CFA_XSP16, literal(-3)))
        CFI (cfiCond85) DPL0 load(1, XDATA, add(CFA_XSP16, literal(-2)))
        CFI (cfiCond85) DPH0 load(1, XDATA, add(CFA_XSP16, literal(-1)))
        CFI (cfiCond85) CFA_SP SP+0
        CFI (cfiCond85) CFA_XSP16 add(XSP16, 14)
        CFI Block cfiCond86 Using cfiCommon0
        CFI (cfiCond86) NoFunction
        CFI (cfiCond86) Conditional ??CrossCallReturnLabel_41, ??CrossCallReturnLabel_25
        CFI (cfiCond86) R6 load(1, XDATA, add(CFA_XSP16, literal(-14)))
        CFI (cfiCond86) VB load(1, XDATA, add(CFA_XSP16, literal(-13)))
        CFI (cfiCond86) V0 load(1, XDATA, add(CFA_XSP16, literal(-12)))
        CFI (cfiCond86) V1 load(1, XDATA, add(CFA_XSP16, literal(-11)))
        CFI (cfiCond86) V2 load(1, XDATA, add(CFA_XSP16, literal(-10)))
        CFI (cfiCond86) V3 load(1, XDATA, add(CFA_XSP16, literal(-9)))
        CFI (cfiCond86) V4 load(1, XDATA, add(CFA_XSP16, literal(-8)))
        CFI (cfiCond86) V5 load(1, XDATA, add(CFA_XSP16, literal(-7)))
        CFI (cfiCond86) R7 load(1, XDATA, add(CFA_XSP16, literal(-6)))
        CFI (cfiCond86) ?RET_LOW load(1, XDATA, add(CFA_XSP16, literal(-5)))
        CFI (cfiCond86) ?RET_HIGH load(1, XDATA, add(CFA_XSP16, literal(-4)))
        CFI (cfiCond86) ?BRET_EXT load(1, XDATA, add(CFA_XSP16, literal(-3)))
        CFI (cfiCond86) DPL0 load(1, XDATA, add(CFA_XSP16, literal(-2)))
        CFI (cfiCond86) DPH0 load(1, XDATA, add(CFA_XSP16, literal(-1)))
        CFI (cfiCond86) CFA_SP SP+0
        CFI (cfiCond86) CFA_XSP16 add(XSP16, 14)
        CFI Block cfiCond87 Using cfiCommon0
        CFI (cfiCond87) NoFunction
        CFI (cfiCond87) Conditional ??CrossCallReturnLabel_41, ??CrossCallReturnLabel_26
        CFI (cfiCond87) R6 load(1, XDATA, add(CFA_XSP16, literal(-14)))
        CFI (cfiCond87) VB load(1, XDATA, add(CFA_XSP16, literal(-13)))
        CFI (cfiCond87) V0 load(1, XDATA, add(CFA_XSP16, literal(-12)))
        CFI (cfiCond87) V1 load(1, XDATA, add(CFA_XSP16, literal(-11)))
        CFI (cfiCond87) V2 load(1, XDATA, add(CFA_XSP16, literal(-10)))
        CFI (cfiCond87) V3 load(1, XDATA, add(CFA_XSP16, literal(-9)))
        CFI (cfiCond87) V4 load(1, XDATA, add(CFA_XSP16, literal(-8)))
        CFI (cfiCond87) V5 load(1, XDATA, add(CFA_XSP16, literal(-7)))
        CFI (cfiCond87) R7 load(1, XDATA, add(CFA_XSP16, literal(-6)))
        CFI (cfiCond87) ?RET_LOW load(1, XDATA, add(CFA_XSP16, literal(-5)))
        CFI (cfiCond87) ?RET_HIGH load(1, XDATA, add(CFA_XSP16, literal(-4)))
        CFI (cfiCond87) ?BRET_EXT load(1, XDATA, add(CFA_XSP16, literal(-3)))
        CFI (cfiCond87) DPL0 load(1, XDATA, add(CFA_XSP16, literal(-2)))
        CFI (cfiCond87) DPH0 load(1, XDATA, add(CFA_XSP16, literal(-1)))
        CFI (cfiCond87) CFA_SP SP+0
        CFI (cfiCond87) CFA_XSP16 add(XSP16, 14)
        CFI Block cfiCond88 Using cfiCommon0
        CFI (cfiCond88) NoFunction
        CFI (cfiCond88) Conditional ??CrossCallReturnLabel_41, ??CrossCallReturnLabel_27
        CFI (cfiCond88) R6 load(1, XDATA, add(CFA_XSP16, literal(-14)))
        CFI (cfiCond88) VB load(1, XDATA, add(CFA_XSP16, literal(-13)))
        CFI (cfiCond88) V0 load(1, XDATA, add(CFA_XSP16, literal(-12)))
        CFI (cfiCond88) V1 load(1, XDATA, add(CFA_XSP16, literal(-11)))
        CFI (cfiCond88) V2 load(1, XDATA, add(CFA_XSP16, literal(-10)))
        CFI (cfiCond88) V3 load(1, XDATA, add(CFA_XSP16, literal(-9)))
        CFI (cfiCond88) V4 load(1, XDATA, add(CFA_XSP16, literal(-8)))
        CFI (cfiCond88) V5 load(1, XDATA, add(CFA_XSP16, literal(-7)))
        CFI (cfiCond88) R7 load(1, XDATA, add(CFA_XSP16, literal(-6)))
        CFI (cfiCond88) ?RET_LOW load(1, XDATA, add(CFA_XSP16, literal(-5)))
        CFI (cfiCond88) ?RET_HIGH load(1, XDATA, add(CFA_XSP16, literal(-4)))
        CFI (cfiCond88) ?BRET_EXT load(1, XDATA, add(CFA_XSP16, literal(-3)))
        CFI (cfiCond88) DPL0 load(1, XDATA, add(CFA_XSP16, literal(-2)))
        CFI (cfiCond88) DPH0 load(1, XDATA, add(CFA_XSP16, literal(-1)))
        CFI (cfiCond88) CFA_SP SP+0
        CFI (cfiCond88) CFA_XSP16 add(XSP16, 14)
        CFI Block cfiCond89 Using cfiCommon0
        CFI (cfiCond89) NoFunction
        CFI (cfiCond89) Conditional ??CrossCallReturnLabel_41, ??CrossCallReturnLabel_28
        CFI (cfiCond89) R6 load(1, XDATA, add(CFA_XSP16, literal(-14)))
        CFI (cfiCond89) VB load(1, XDATA, add(CFA_XSP16, literal(-13)))
        CFI (cfiCond89) V0 load(1, XDATA, add(CFA_XSP16, literal(-12)))
        CFI (cfiCond89) V1 load(1, XDATA, add(CFA_XSP16, literal(-11)))
        CFI (cfiCond89) V2 load(1, XDATA, add(CFA_XSP16, literal(-10)))
        CFI (cfiCond89) V3 load(1, XDATA, add(CFA_XSP16, literal(-9)))
        CFI (cfiCond89) V4 load(1, XDATA, add(CFA_XSP16, literal(-8)))
        CFI (cfiCond89) V5 load(1, XDATA, add(CFA_XSP16, literal(-7)))
        CFI (cfiCond89) R7 load(1, XDATA, add(CFA_XSP16, literal(-6)))
        CFI (cfiCond89) ?RET_LOW load(1, XDATA, add(CFA_XSP16, literal(-5)))
        CFI (cfiCond89) ?RET_HIGH load(1, XDATA, add(CFA_XSP16, literal(-4)))
        CFI (cfiCond89) ?BRET_EXT load(1, XDATA, add(CFA_XSP16, literal(-3)))
        CFI (cfiCond89) DPL0 load(1, XDATA, add(CFA_XSP16, literal(-2)))
        CFI (cfiCond89) DPH0 load(1, XDATA, add(CFA_XSP16, literal(-1)))
        CFI (cfiCond89) CFA_SP SP+0
        CFI (cfiCond89) CFA_XSP16 add(XSP16, 14)
        CFI Block cfiPicker90 Using cfiCommon1
        CFI (cfiPicker90) NoFunction
        CFI (cfiPicker90) Picker
        MOV     R1,#0x0
        LCALL   ??HalUARTWrite?relay
        ; Setup parameters for call to function HalUARTWrite
        ; Setup parameters for call to function HalUARTWrite
        ; Setup parameters for call to function HalUARTWrite
        ; Setup parameters for call to function HalUARTWrite
        ; Setup parameters for call to function HalUARTWrite
        ; Setup parameters for call to function HalUARTWrite
        ; Setup parameters for call to function HalUARTWrite
        ; Setup parameters for call to function HalUARTWrite
        ; Setup parameters for call to function HalUARTWrite
        ; Setup parameters for call to function HalUARTWrite
        ; Setup parameters for call to function HalUARTWrite
        ; Setup parameters for call to function HalUARTWrite
        ; Setup parameters for call to function HalUARTWrite
        ; Setup parameters for call to function HalUARTWrite
        ; Setup parameters for call to function HalUARTWrite
        ; Setup parameters for call to function HalUARTWrite
        ; Setup parameters for call to function HalUARTWrite
        ; Setup parameters for call to function HalUARTWrite
        MOV     R4,#0x1
        MOV     R5,#0x0
        MOV     R2,#(`?<Constant ",">` & 0xff)
        MOV     R3,#((`?<Constant ",">` >> 8) & 0xff)
        SJMP    ?Subroutine9
        CFI EndBlock cfiCond72
        CFI EndBlock cfiCond73
        CFI EndBlock cfiCond74
        CFI EndBlock cfiCond75
        CFI EndBlock cfiCond76
        CFI EndBlock cfiCond77
        CFI EndBlock cfiCond78
        CFI EndBlock cfiCond79
        CFI EndBlock cfiCond80
        CFI EndBlock cfiCond81
        CFI EndBlock cfiCond82
        CFI EndBlock cfiCond83
        CFI EndBlock cfiCond84
        CFI EndBlock cfiCond85
        CFI EndBlock cfiCond86
        CFI EndBlock cfiCond87
        CFI EndBlock cfiCond88
        CFI EndBlock cfiCond89
        CFI EndBlock cfiPicker90

        RSEG BANKED_CODE:CODE:NOROOT(0)
?Subroutine3:
        CFI Block cfiCond91 Using cfiCommon0
        CFI NoFunction
        CFI Conditional ??CrossCallReturnLabel_20
        CFI R6 load(1, XDATA, add(CFA_XSP16, literal(-14)))
        CFI VB load(1, XDATA, add(CFA_XSP16, literal(-13)))
        CFI V0 load(1, XDATA, add(CFA_XSP16, literal(-12)))
        CFI V1 load(1, XDATA, add(CFA_XSP16, literal(-11)))
        CFI V2 load(1, XDATA, add(CFA_XSP16, literal(-10)))
        CFI V3 load(1, XDATA, add(CFA_XSP16, literal(-9)))
        CFI V4 load(1, XDATA, add(CFA_XSP16, literal(-8)))
        CFI V5 load(1, XDATA, add(CFA_XSP16, literal(-7)))
        CFI R7 load(1, XDATA, add(CFA_XSP16, literal(-6)))
        CFI ?RET_LOW load(1, XDATA, add(CFA_XSP16, literal(-5)))
        CFI ?RET_HIGH load(1, XDATA, add(CFA_XSP16, literal(-4)))
        CFI ?BRET_EXT load(1, XDATA, add(CFA_XSP16, literal(-3)))
        CFI DPL0 load(1, XDATA, add(CFA_XSP16, literal(-2)))
        CFI DPH0 load(1, XDATA, add(CFA_XSP16, literal(-1)))
        CFI CFA_SP SP+0
        CFI CFA_XSP16 add(XSP16, 14)
        CFI Block cfiCond92 Using cfiCommon0
        CFI (cfiCond92) NoFunction
        CFI (cfiCond92) Conditional ??CrossCallReturnLabel_21
        CFI (cfiCond92) R6 load(1, XDATA, add(CFA_XSP16, literal(-14)))
        CFI (cfiCond92) VB load(1, XDATA, add(CFA_XSP16, literal(-13)))
        CFI (cfiCond92) V0 load(1, XDATA, add(CFA_XSP16, literal(-12)))
        CFI (cfiCond92) V1 load(1, XDATA, add(CFA_XSP16, literal(-11)))
        CFI (cfiCond92) V2 load(1, XDATA, add(CFA_XSP16, literal(-10)))
        CFI (cfiCond92) V3 load(1, XDATA, add(CFA_XSP16, literal(-9)))
        CFI (cfiCond92) V4 load(1, XDATA, add(CFA_XSP16, literal(-8)))
        CFI (cfiCond92) V5 load(1, XDATA, add(CFA_XSP16, literal(-7)))
        CFI (cfiCond92) R7 load(1, XDATA, add(CFA_XSP16, literal(-6)))
        CFI (cfiCond92) ?RET_LOW load(1, XDATA, add(CFA_XSP16, literal(-5)))
        CFI (cfiCond92) ?RET_HIGH load(1, XDATA, add(CFA_XSP16, literal(-4)))
        CFI (cfiCond92) ?BRET_EXT load(1, XDATA, add(CFA_XSP16, literal(-3)))
        CFI (cfiCond92) DPL0 load(1, XDATA, add(CFA_XSP16, literal(-2)))
        CFI (cfiCond92) DPH0 load(1, XDATA, add(CFA_XSP16, literal(-1)))
        CFI (cfiCond92) CFA_SP SP+0
        CFI (cfiCond92) CFA_XSP16 add(XSP16, 14)
        CFI Block cfiCond93 Using cfiCommon0
        CFI (cfiCond93) NoFunction
        CFI (cfiCond93) Conditional ??CrossCallReturnLabel_22
        CFI (cfiCond93) R6 load(1, XDATA, add(CFA_XSP16, literal(-14)))
        CFI (cfiCond93) VB load(1, XDATA, add(CFA_XSP16, literal(-13)))
        CFI (cfiCond93) V0 load(1, XDATA, add(CFA_XSP16, literal(-12)))
        CFI (cfiCond93) V1 load(1, XDATA, add(CFA_XSP16, literal(-11)))
        CFI (cfiCond93) V2 load(1, XDATA, add(CFA_XSP16, literal(-10)))
        CFI (cfiCond93) V3 load(1, XDATA, add(CFA_XSP16, literal(-9)))
        CFI (cfiCond93) V4 load(1, XDATA, add(CFA_XSP16, literal(-8)))
        CFI (cfiCond93) V5 load(1, XDATA, add(CFA_XSP16, literal(-7)))
        CFI (cfiCond93) R7 load(1, XDATA, add(CFA_XSP16, literal(-6)))
        CFI (cfiCond93) ?RET_LOW load(1, XDATA, add(CFA_XSP16, literal(-5)))
        CFI (cfiCond93) ?RET_HIGH load(1, XDATA, add(CFA_XSP16, literal(-4)))
        CFI (cfiCond93) ?BRET_EXT load(1, XDATA, add(CFA_XSP16, literal(-3)))
        CFI (cfiCond93) DPL0 load(1, XDATA, add(CFA_XSP16, literal(-2)))
        CFI (cfiCond93) DPH0 load(1, XDATA, add(CFA_XSP16, literal(-1)))
        CFI (cfiCond93) CFA_SP SP+0
        CFI (cfiCond93) CFA_XSP16 add(XSP16, 14)
        CFI Block cfiCond94 Using cfiCommon0
        CFI (cfiCond94) NoFunction
        CFI (cfiCond94) Conditional ??CrossCallReturnLabel_23
        CFI (cfiCond94) R6 load(1, XDATA, add(CFA_XSP16, literal(-14)))
        CFI (cfiCond94) VB load(1, XDATA, add(CFA_XSP16, literal(-13)))
        CFI (cfiCond94) V0 load(1, XDATA, add(CFA_XSP16, literal(-12)))
        CFI (cfiCond94) V1 load(1, XDATA, add(CFA_XSP16, literal(-11)))
        CFI (cfiCond94) V2 load(1, XDATA, add(CFA_XSP16, literal(-10)))
        CFI (cfiCond94) V3 load(1, XDATA, add(CFA_XSP16, literal(-9)))
        CFI (cfiCond94) V4 load(1, XDATA, add(CFA_XSP16, literal(-8)))
        CFI (cfiCond94) V5 load(1, XDATA, add(CFA_XSP16, literal(-7)))
        CFI (cfiCond94) R7 load(1, XDATA, add(CFA_XSP16, literal(-6)))
        CFI (cfiCond94) ?RET_LOW load(1, XDATA, add(CFA_XSP16, literal(-5)))
        CFI (cfiCond94) ?RET_HIGH load(1, XDATA, add(CFA_XSP16, literal(-4)))
        CFI (cfiCond94) ?BRET_EXT load(1, XDATA, add(CFA_XSP16, literal(-3)))
        CFI (cfiCond94) DPL0 load(1, XDATA, add(CFA_XSP16, literal(-2)))
        CFI (cfiCond94) DPH0 load(1, XDATA, add(CFA_XSP16, literal(-1)))
        CFI (cfiCond94) CFA_SP SP+0
        CFI (cfiCond94) CFA_XSP16 add(XSP16, 14)
        CFI Block cfiCond95 Using cfiCommon0
        CFI (cfiCond95) NoFunction
        CFI (cfiCond95) Conditional ??CrossCallReturnLabel_24
        CFI (cfiCond95) R6 load(1, XDATA, add(CFA_XSP16, literal(-14)))
        CFI (cfiCond95) VB load(1, XDATA, add(CFA_XSP16, literal(-13)))
        CFI (cfiCond95) V0 load(1, XDATA, add(CFA_XSP16, literal(-12)))
        CFI (cfiCond95) V1 load(1, XDATA, add(CFA_XSP16, literal(-11)))
        CFI (cfiCond95) V2 load(1, XDATA, add(CFA_XSP16, literal(-10)))
        CFI (cfiCond95) V3 load(1, XDATA, add(CFA_XSP16, literal(-9)))
        CFI (cfiCond95) V4 load(1, XDATA, add(CFA_XSP16, literal(-8)))
        CFI (cfiCond95) V5 load(1, XDATA, add(CFA_XSP16, literal(-7)))
        CFI (cfiCond95) R7 load(1, XDATA, add(CFA_XSP16, literal(-6)))
        CFI (cfiCond95) ?RET_LOW load(1, XDATA, add(CFA_XSP16, literal(-5)))
        CFI (cfiCond95) ?RET_HIGH load(1, XDATA, add(CFA_XSP16, literal(-4)))
        CFI (cfiCond95) ?BRET_EXT load(1, XDATA, add(CFA_XSP16, literal(-3)))
        CFI (cfiCond95) DPL0 load(1, XDATA, add(CFA_XSP16, literal(-2)))
        CFI (cfiCond95) DPH0 load(1, XDATA, add(CFA_XSP16, literal(-1)))
        CFI (cfiCond95) CFA_SP SP+0
        CFI (cfiCond95) CFA_XSP16 add(XSP16, 14)
        CFI Block cfiCond96 Using cfiCommon0
        CFI (cfiCond96) NoFunction
        CFI (cfiCond96) Conditional ??CrossCallReturnLabel_25
        CFI (cfiCond96) R6 load(1, XDATA, add(CFA_XSP16, literal(-14)))
        CFI (cfiCond96) VB load(1, XDATA, add(CFA_XSP16, literal(-13)))
        CFI (cfiCond96) V0 load(1, XDATA, add(CFA_XSP16, literal(-12)))
        CFI (cfiCond96) V1 load(1, XDATA, add(CFA_XSP16, literal(-11)))
        CFI (cfiCond96) V2 load(1, XDATA, add(CFA_XSP16, literal(-10)))
        CFI (cfiCond96) V3 load(1, XDATA, add(CFA_XSP16, literal(-9)))
        CFI (cfiCond96) V4 load(1, XDATA, add(CFA_XSP16, literal(-8)))
        CFI (cfiCond96) V5 load(1, XDATA, add(CFA_XSP16, literal(-7)))
        CFI (cfiCond96) R7 load(1, XDATA, add(CFA_XSP16, literal(-6)))
        CFI (cfiCond96) ?RET_LOW load(1, XDATA, add(CFA_XSP16, literal(-5)))
        CFI (cfiCond96) ?RET_HIGH load(1, XDATA, add(CFA_XSP16, literal(-4)))
        CFI (cfiCond96) ?BRET_EXT load(1, XDATA, add(CFA_XSP16, literal(-3)))
        CFI (cfiCond96) DPL0 load(1, XDATA, add(CFA_XSP16, literal(-2)))
        CFI (cfiCond96) DPH0 load(1, XDATA, add(CFA_XSP16, literal(-1)))
        CFI (cfiCond96) CFA_SP SP+0
        CFI (cfiCond96) CFA_XSP16 add(XSP16, 14)
        CFI Block cfiCond97 Using cfiCommon0
        CFI (cfiCond97) NoFunction
        CFI (cfiCond97) Conditional ??CrossCallReturnLabel_26
        CFI (cfiCond97) R6 load(1, XDATA, add(CFA_XSP16, literal(-14)))
        CFI (cfiCond97) VB load(1, XDATA, add(CFA_XSP16, literal(-13)))
        CFI (cfiCond97) V0 load(1, XDATA, add(CFA_XSP16, literal(-12)))
        CFI (cfiCond97) V1 load(1, XDATA, add(CFA_XSP16, literal(-11)))
        CFI (cfiCond97) V2 load(1, XDATA, add(CFA_XSP16, literal(-10)))
        CFI (cfiCond97) V3 load(1, XDATA, add(CFA_XSP16, literal(-9)))
        CFI (cfiCond97) V4 load(1, XDATA, add(CFA_XSP16, literal(-8)))
        CFI (cfiCond97) V5 load(1, XDATA, add(CFA_XSP16, literal(-7)))
        CFI (cfiCond97) R7 load(1, XDATA, add(CFA_XSP16, literal(-6)))
        CFI (cfiCond97) ?RET_LOW load(1, XDATA, add(CFA_XSP16, literal(-5)))
        CFI (cfiCond97) ?RET_HIGH load(1, XDATA, add(CFA_XSP16, literal(-4)))
        CFI (cfiCond97) ?BRET_EXT load(1, XDATA, add(CFA_XSP16, literal(-3)))
        CFI (cfiCond97) DPL0 load(1, XDATA, add(CFA_XSP16, literal(-2)))
        CFI (cfiCond97) DPH0 load(1, XDATA, add(CFA_XSP16, literal(-1)))
        CFI (cfiCond97) CFA_SP SP+0
        CFI (cfiCond97) CFA_XSP16 add(XSP16, 14)
        CFI Block cfiCond98 Using cfiCommon0
        CFI (cfiCond98) NoFunction
        CFI (cfiCond98) Conditional ??CrossCallReturnLabel_27
        CFI (cfiCond98) R6 load(1, XDATA, add(CFA_XSP16, literal(-14)))
        CFI (cfiCond98) VB load(1, XDATA, add(CFA_XSP16, literal(-13)))
        CFI (cfiCond98) V0 load(1, XDATA, add(CFA_XSP16, literal(-12)))
        CFI (cfiCond98) V1 load(1, XDATA, add(CFA_XSP16, literal(-11)))
        CFI (cfiCond98) V2 load(1, XDATA, add(CFA_XSP16, literal(-10)))
        CFI (cfiCond98) V3 load(1, XDATA, add(CFA_XSP16, literal(-9)))
        CFI (cfiCond98) V4 load(1, XDATA, add(CFA_XSP16, literal(-8)))
        CFI (cfiCond98) V5 load(1, XDATA, add(CFA_XSP16, literal(-7)))
        CFI (cfiCond98) R7 load(1, XDATA, add(CFA_XSP16, literal(-6)))
        CFI (cfiCond98) ?RET_LOW load(1, XDATA, add(CFA_XSP16, literal(-5)))
        CFI (cfiCond98) ?RET_HIGH load(1, XDATA, add(CFA_XSP16, literal(-4)))
        CFI (cfiCond98) ?BRET_EXT load(1, XDATA, add(CFA_XSP16, literal(-3)))
        CFI (cfiCond98) DPL0 load(1, XDATA, add(CFA_XSP16, literal(-2)))
        CFI (cfiCond98) DPH0 load(1, XDATA, add(CFA_XSP16, literal(-1)))
        CFI (cfiCond98) CFA_SP SP+0
        CFI (cfiCond98) CFA_XSP16 add(XSP16, 14)
        CFI Block cfiCond99 Using cfiCommon0
        CFI (cfiCond99) NoFunction
        CFI (cfiCond99) Conditional ??CrossCallReturnLabel_28
        CFI (cfiCond99) R6 load(1, XDATA, add(CFA_XSP16, literal(-14)))
        CFI (cfiCond99) VB load(1, XDATA, add(CFA_XSP16, literal(-13)))
        CFI (cfiCond99) V0 load(1, XDATA, add(CFA_XSP16, literal(-12)))
        CFI (cfiCond99) V1 load(1, XDATA, add(CFA_XSP16, literal(-11)))
        CFI (cfiCond99) V2 load(1, XDATA, add(CFA_XSP16, literal(-10)))
        CFI (cfiCond99) V3 load(1, XDATA, add(CFA_XSP16, literal(-9)))
        CFI (cfiCond99) V4 load(1, XDATA, add(CFA_XSP16, literal(-8)))
        CFI (cfiCond99) V5 load(1, XDATA, add(CFA_XSP16, literal(-7)))
        CFI (cfiCond99) R7 load(1, XDATA, add(CFA_XSP16, literal(-6)))
        CFI (cfiCond99) ?RET_LOW load(1, XDATA, add(CFA_XSP16, literal(-5)))
        CFI (cfiCond99) ?RET_HIGH load(1, XDATA, add(CFA_XSP16, literal(-4)))
        CFI (cfiCond99) ?BRET_EXT load(1, XDATA, add(CFA_XSP16, literal(-3)))
        CFI (cfiCond99) DPL0 load(1, XDATA, add(CFA_XSP16, literal(-2)))
        CFI (cfiCond99) DPH0 load(1, XDATA, add(CFA_XSP16, literal(-1)))
        CFI (cfiCond99) CFA_SP SP+0
        CFI (cfiCond99) CFA_XSP16 add(XSP16, 14)
        CFI Block cfiPicker100 Using cfiCommon1
        CFI (cfiPicker100) NoFunction
        CFI (cfiPicker100) Picker
        MOV     R4,#0x1
        MOV     R5,#0x0
        MOV     R2,#(`?<Constant "3">` & 0xff)
        MOV     R3,#((`?<Constant "3">` >> 8) & 0xff)
        LCALL   ?Subroutine7 & 0xFFFF
??CrossCallReturnLabel_41:
        ; Setup parameters for call to function HalUARTWrite
        ; Setup parameters for call to function HalUARTWrite
        ; Setup parameters for call to function HalUARTWrite
        ; Setup parameters for call to function HalUARTWrite
        ; Setup parameters for call to function HalUARTWrite
        ; Setup parameters for call to function HalUARTWrite
        ; Setup parameters for call to function HalUARTWrite
        ; Setup parameters for call to function HalUARTWrite
        ; Setup parameters for call to function HalUARTWrite
        MOV     R4,#0x4
        MOV     R5,#0x0
        RET
        CFI EndBlock cfiCond91
        CFI EndBlock cfiCond92
        CFI EndBlock cfiCond93
        CFI EndBlock cfiCond94
        CFI EndBlock cfiCond95
        CFI EndBlock cfiCond96
        CFI EndBlock cfiCond97
        CFI EndBlock cfiCond98
        CFI EndBlock cfiCond99
        CFI EndBlock cfiPicker100

        RSEG BANKED_CODE:CODE:NOROOT(0)
?Subroutine0:
        CFI Block cfiCond101 Using cfiCommon0
        CFI NoFunction
        CFI Conditional ??CrossCallReturnLabel_0
        CFI R6 load(1, XDATA, add(CFA_XSP16, literal(-14)))
        CFI VB load(1, XDATA, add(CFA_XSP16, literal(-13)))
        CFI V0 load(1, XDATA, add(CFA_XSP16, literal(-12)))
        CFI V1 load(1, XDATA, add(CFA_XSP16, literal(-11)))
        CFI V2 load(1, XDATA, add(CFA_XSP16, literal(-10)))
        CFI V3 load(1, XDATA, add(CFA_XSP16, literal(-9)))
        CFI V4 load(1, XDATA, add(CFA_XSP16, literal(-8)))
        CFI V5 load(1, XDATA, add(CFA_XSP16, literal(-7)))
        CFI R7 load(1, XDATA, add(CFA_XSP16, literal(-6)))
        CFI ?RET_LOW load(1, XDATA, add(CFA_XSP16, literal(-5)))
        CFI ?RET_HIGH load(1, XDATA, add(CFA_XSP16, literal(-4)))
        CFI ?BRET_EXT load(1, XDATA, add(CFA_XSP16, literal(-3)))
        CFI DPL0 load(1, XDATA, add(CFA_XSP16, literal(-2)))
        CFI DPH0 load(1, XDATA, add(CFA_XSP16, literal(-1)))
        CFI CFA_SP SP+0
        CFI CFA_XSP16 add(XSP16, 14)
        CFI Block cfiCond102 Using cfiCommon0
        CFI (cfiCond102) NoFunction
        CFI (cfiCond102) Conditional ??CrossCallReturnLabel_1
        CFI (cfiCond102) R6 load(1, XDATA, add(CFA_XSP16, literal(-14)))
        CFI (cfiCond102) VB load(1, XDATA, add(CFA_XSP16, literal(-13)))
        CFI (cfiCond102) V0 load(1, XDATA, add(CFA_XSP16, literal(-12)))
        CFI (cfiCond102) V1 load(1, XDATA, add(CFA_XSP16, literal(-11)))
        CFI (cfiCond102) V2 load(1, XDATA, add(CFA_XSP16, literal(-10)))
        CFI (cfiCond102) V3 load(1, XDATA, add(CFA_XSP16, literal(-9)))
        CFI (cfiCond102) V4 load(1, XDATA, add(CFA_XSP16, literal(-8)))
        CFI (cfiCond102) V5 load(1, XDATA, add(CFA_XSP16, literal(-7)))
        CFI (cfiCond102) R7 load(1, XDATA, add(CFA_XSP16, literal(-6)))
        CFI (cfiCond102) ?RET_LOW load(1, XDATA, add(CFA_XSP16, literal(-5)))
        CFI (cfiCond102) ?RET_HIGH load(1, XDATA, add(CFA_XSP16, literal(-4)))
        CFI (cfiCond102) ?BRET_EXT load(1, XDATA, add(CFA_XSP16, literal(-3)))
        CFI (cfiCond102) DPL0 load(1, XDATA, add(CFA_XSP16, literal(-2)))
        CFI (cfiCond102) DPH0 load(1, XDATA, add(CFA_XSP16, literal(-1)))
        CFI (cfiCond102) CFA_SP SP+0
        CFI (cfiCond102) CFA_XSP16 add(XSP16, 14)
        CFI Block cfiCond103 Using cfiCommon0
        CFI (cfiCond103) NoFunction
        CFI (cfiCond103) Conditional ??CrossCallReturnLabel_2
        CFI (cfiCond103) R6 load(1, XDATA, add(CFA_XSP16, literal(-14)))
        CFI (cfiCond103) VB load(1, XDATA, add(CFA_XSP16, literal(-13)))
        CFI (cfiCond103) V0 load(1, XDATA, add(CFA_XSP16, literal(-12)))
        CFI (cfiCond103) V1 load(1, XDATA, add(CFA_XSP16, literal(-11)))
        CFI (cfiCond103) V2 load(1, XDATA, add(CFA_XSP16, literal(-10)))
        CFI (cfiCond103) V3 load(1, XDATA, add(CFA_XSP16, literal(-9)))
        CFI (cfiCond103) V4 load(1, XDATA, add(CFA_XSP16, literal(-8)))
        CFI (cfiCond103) V5 load(1, XDATA, add(CFA_XSP16, literal(-7)))
        CFI (cfiCond103) R7 load(1, XDATA, add(CFA_XSP16, literal(-6)))
        CFI (cfiCond103) ?RET_LOW load(1, XDATA, add(CFA_XSP16, literal(-5)))
        CFI (cfiCond103) ?RET_HIGH load(1, XDATA, add(CFA_XSP16, literal(-4)))
        CFI (cfiCond103) ?BRET_EXT load(1, XDATA, add(CFA_XSP16, literal(-3)))
        CFI (cfiCond103) DPL0 load(1, XDATA, add(CFA_XSP16, literal(-2)))
        CFI (cfiCond103) DPH0 load(1, XDATA, add(CFA_XSP16, literal(-1)))
        CFI (cfiCond103) CFA_SP SP+0
        CFI (cfiCond103) CFA_XSP16 add(XSP16, 14)
        CFI Block cfiCond104 Using cfiCommon0
        CFI (cfiCond104) NoFunction
        CFI (cfiCond104) Conditional ??CrossCallReturnLabel_3
        CFI (cfiCond104) R6 load(1, XDATA, add(CFA_XSP16, literal(-14)))
        CFI (cfiCond104) VB load(1, XDATA, add(CFA_XSP16, literal(-13)))
        CFI (cfiCond104) V0 load(1, XDATA, add(CFA_XSP16, literal(-12)))
        CFI (cfiCond104) V1 load(1, XDATA, add(CFA_XSP16, literal(-11)))
        CFI (cfiCond104) V2 load(1, XDATA, add(CFA_XSP16, literal(-10)))
        CFI (cfiCond104) V3 load(1, XDATA, add(CFA_XSP16, literal(-9)))
        CFI (cfiCond104) V4 load(1, XDATA, add(CFA_XSP16, literal(-8)))
        CFI (cfiCond104) V5 load(1, XDATA, add(CFA_XSP16, literal(-7)))
        CFI (cfiCond104) R7 load(1, XDATA, add(CFA_XSP16, literal(-6)))
        CFI (cfiCond104) ?RET_LOW load(1, XDATA, add(CFA_XSP16, literal(-5)))
        CFI (cfiCond104) ?RET_HIGH load(1, XDATA, add(CFA_XSP16, literal(-4)))
        CFI (cfiCond104) ?BRET_EXT load(1, XDATA, add(CFA_XSP16, literal(-3)))
        CFI (cfiCond104) DPL0 load(1, XDATA, add(CFA_XSP16, literal(-2)))
        CFI (cfiCond104) DPH0 load(1, XDATA, add(CFA_XSP16, literal(-1)))
        CFI (cfiCond104) CFA_SP SP+0
        CFI (cfiCond104) CFA_XSP16 add(XSP16, 14)
        CFI Block cfiCond105 Using cfiCommon0
        CFI (cfiCond105) NoFunction
        CFI (cfiCond105) Conditional ??CrossCallReturnLabel_4
        CFI (cfiCond105) R6 load(1, XDATA, add(CFA_XSP16, literal(-14)))
        CFI (cfiCond105) VB load(1, XDATA, add(CFA_XSP16, literal(-13)))
        CFI (cfiCond105) V0 load(1, XDATA, add(CFA_XSP16, literal(-12)))
        CFI (cfiCond105) V1 load(1, XDATA, add(CFA_XSP16, literal(-11)))
        CFI (cfiCond105) V2 load(1, XDATA, add(CFA_XSP16, literal(-10)))
        CFI (cfiCond105) V3 load(1, XDATA, add(CFA_XSP16, literal(-9)))
        CFI (cfiCond105) V4 load(1, XDATA, add(CFA_XSP16, literal(-8)))
        CFI (cfiCond105) V5 load(1, XDATA, add(CFA_XSP16, literal(-7)))
        CFI (cfiCond105) R7 load(1, XDATA, add(CFA_XSP16, literal(-6)))
        CFI (cfiCond105) ?RET_LOW load(1, XDATA, add(CFA_XSP16, literal(-5)))
        CFI (cfiCond105) ?RET_HIGH load(1, XDATA, add(CFA_XSP16, literal(-4)))
        CFI (cfiCond105) ?BRET_EXT load(1, XDATA, add(CFA_XSP16, literal(-3)))
        CFI (cfiCond105) DPL0 load(1, XDATA, add(CFA_XSP16, literal(-2)))
        CFI (cfiCond105) DPH0 load(1, XDATA, add(CFA_XSP16, literal(-1)))
        CFI (cfiCond105) CFA_SP SP+0
        CFI (cfiCond105) CFA_XSP16 add(XSP16, 14)
        CFI Block cfiCond106 Using cfiCommon0
        CFI (cfiCond106) NoFunction
        CFI (cfiCond106) Conditional ??CrossCallReturnLabel_5
        CFI (cfiCond106) R6 load(1, XDATA, add(CFA_XSP16, literal(-14)))
        CFI (cfiCond106) VB load(1, XDATA, add(CFA_XSP16, literal(-13)))
        CFI (cfiCond106) V0 load(1, XDATA, add(CFA_XSP16, literal(-12)))
        CFI (cfiCond106) V1 load(1, XDATA, add(CFA_XSP16, literal(-11)))
        CFI (cfiCond106) V2 load(1, XDATA, add(CFA_XSP16, literal(-10)))
        CFI (cfiCond106) V3 load(1, XDATA, add(CFA_XSP16, literal(-9)))
        CFI (cfiCond106) V4 load(1, XDATA, add(CFA_XSP16, literal(-8)))
        CFI (cfiCond106) V5 load(1, XDATA, add(CFA_XSP16, literal(-7)))
        CFI (cfiCond106) R7 load(1, XDATA, add(CFA_XSP16, literal(-6)))
        CFI (cfiCond106) ?RET_LOW load(1, XDATA, add(CFA_XSP16, literal(-5)))
        CFI (cfiCond106) ?RET_HIGH load(1, XDATA, add(CFA_XSP16, literal(-4)))
        CFI (cfiCond106) ?BRET_EXT load(1, XDATA, add(CFA_XSP16, literal(-3)))
        CFI (cfiCond106) DPL0 load(1, XDATA, add(CFA_XSP16, literal(-2)))
        CFI (cfiCond106) DPH0 load(1, XDATA, add(CFA_XSP16, literal(-1)))
        CFI (cfiCond106) CFA_SP SP+0
        CFI (cfiCond106) CFA_XSP16 add(XSP16, 14)
        CFI Block cfiCond107 Using cfiCommon0
        CFI (cfiCond107) NoFunction
        CFI (cfiCond107) Conditional ??CrossCallReturnLabel_6
        CFI (cfiCond107) R6 load(1, XDATA, add(CFA_XSP16, literal(-14)))
        CFI (cfiCond107) VB load(1, XDATA, add(CFA_XSP16, literal(-13)))
        CFI (cfiCond107) V0 load(1, XDATA, add(CFA_XSP16, literal(-12)))
        CFI (cfiCond107) V1 load(1, XDATA, add(CFA_XSP16, literal(-11)))
        CFI (cfiCond107) V2 load(1, XDATA, add(CFA_XSP16, literal(-10)))
        CFI (cfiCond107) V3 load(1, XDATA, add(CFA_XSP16, literal(-9)))
        CFI (cfiCond107) V4 load(1, XDATA, add(CFA_XSP16, literal(-8)))
        CFI (cfiCond107) V5 load(1, XDATA, add(CFA_XSP16, literal(-7)))
        CFI (cfiCond107) R7 load(1, XDATA, add(CFA_XSP16, literal(-6)))
        CFI (cfiCond107) ?RET_LOW load(1, XDATA, add(CFA_XSP16, literal(-5)))
        CFI (cfiCond107) ?RET_HIGH load(1, XDATA, add(CFA_XSP16, literal(-4)))
        CFI (cfiCond107) ?BRET_EXT load(1, XDATA, add(CFA_XSP16, literal(-3)))
        CFI (cfiCond107) DPL0 load(1, XDATA, add(CFA_XSP16, literal(-2)))
        CFI (cfiCond107) DPH0 load(1, XDATA, add(CFA_XSP16, literal(-1)))
        CFI (cfiCond107) CFA_SP SP+0
        CFI (cfiCond107) CFA_XSP16 add(XSP16, 14)
        CFI Block cfiCond108 Using cfiCommon0
        CFI (cfiCond108) NoFunction
        CFI (cfiCond108) Conditional ??CrossCallReturnLabel_7
        CFI (cfiCond108) R6 load(1, XDATA, add(CFA_XSP16, literal(-14)))
        CFI (cfiCond108) VB load(1, XDATA, add(CFA_XSP16, literal(-13)))
        CFI (cfiCond108) V0 load(1, XDATA, add(CFA_XSP16, literal(-12)))
        CFI (cfiCond108) V1 load(1, XDATA, add(CFA_XSP16, literal(-11)))
        CFI (cfiCond108) V2 load(1, XDATA, add(CFA_XSP16, literal(-10)))
        CFI (cfiCond108) V3 load(1, XDATA, add(CFA_XSP16, literal(-9)))
        CFI (cfiCond108) V4 load(1, XDATA, add(CFA_XSP16, literal(-8)))
        CFI (cfiCond108) V5 load(1, XDATA, add(CFA_XSP16, literal(-7)))
        CFI (cfiCond108) R7 load(1, XDATA, add(CFA_XSP16, literal(-6)))
        CFI (cfiCond108) ?RET_LOW load(1, XDATA, add(CFA_XSP16, literal(-5)))
        CFI (cfiCond108) ?RET_HIGH load(1, XDATA, add(CFA_XSP16, literal(-4)))
        CFI (cfiCond108) ?BRET_EXT load(1, XDATA, add(CFA_XSP16, literal(-3)))
        CFI (cfiCond108) DPL0 load(1, XDATA, add(CFA_XSP16, literal(-2)))
        CFI (cfiCond108) DPH0 load(1, XDATA, add(CFA_XSP16, literal(-1)))
        CFI (cfiCond108) CFA_SP SP+0
        CFI (cfiCond108) CFA_XSP16 add(XSP16, 14)
        CFI Block cfiPicker109 Using cfiCommon1
        CFI (cfiPicker109) NoFunction
        CFI (cfiPicker109) Picker
        MOV     DPTR,#top
        MOVX    A,@DPTR
        MOV     R2,A
        INC     DPTR
        MOVX    A,@DPTR
        MOV     R3,A
        MOV     A,#0x1
        ADD     A,R2
        MOV     R0,A
        CLR     A
        ADDC    A,R3
        MOV     R1,A
        MOV     DPTR,#top
        MOV     A,R0
        MOVX    @DPTR,A
        INC     DPTR
        MOV     A,R1
        MOVX    @DPTR,A
        LCALL   ?Subroutine6 & 0xFFFF
??CrossCallReturnLabel_54:
        CLR     C
        MOV     A,R2
        SUBB    A,R0
        MOV     A,R3
        SUBB    A,R1
        MOV     C,0xD0 /* PSW */.2
        XRL     A,PSW
        RLC     A
        RET
        CFI EndBlock cfiCond101
        CFI EndBlock cfiCond102
        CFI EndBlock cfiCond103
        CFI EndBlock cfiCond104
        CFI EndBlock cfiCond105
        CFI EndBlock cfiCond106
        CFI EndBlock cfiCond107
        CFI EndBlock cfiCond108
        CFI EndBlock cfiPicker109
//  244 

        RSEG BANKED_CODE:CODE:NOROOT(0)
//  245 void zclZigbeeRecv_Init( byte task_id )
zclZigbeeRecv_Init:
        CFI Block cfiBlock110 Using cfiCommon0
        CFI Function zclZigbeeRecv_Init
//  246 {
        FUNCALL zclZigbeeRecv_Init, zclZD_Init
        LOCFRAME ISTACK, 0, STACK
        LOCFRAME PSTACK, 0, STACK
        LOCFRAME XSTACK, 11, STACK
        LOCFRAME IOVERLAY, 0, STATIC
        LOCFRAME DOVERLAY, 0, STATIC
        ARGFRAME ISTACK, 0, STACK
        ARGFRAME PSTACK, 0, STACK
        ARGFRAME XSTACK, 11, STACK
        ARGFRAME IOVERLAY, 0, STATIC
        ARGFRAME DOVERLAY, 0, STATIC
        FUNCALL zclZigbeeRecv_Init, zclGeneral_RegisterCmdCallbacks
        LOCFRAME ISTACK, 0, STACK
        LOCFRAME PSTACK, 0, STACK
        LOCFRAME XSTACK, 11, STACK
        LOCFRAME IOVERLAY, 0, STATIC
        LOCFRAME DOVERLAY, 0, STATIC
        ARGFRAME ISTACK, 0, STACK
        ARGFRAME PSTACK, 0, STACK
        ARGFRAME XSTACK, 11, STACK
        ARGFRAME IOVERLAY, 0, STATIC
        ARGFRAME DOVERLAY, 0, STATIC
        FUNCALL zclZigbeeRecv_Init, zcl_registerAttrList
        LOCFRAME ISTACK, 0, STACK
        LOCFRAME PSTACK, 0, STACK
        LOCFRAME XSTACK, 11, STACK
        LOCFRAME IOVERLAY, 0, STATIC
        LOCFRAME DOVERLAY, 0, STATIC
        ARGFRAME ISTACK, 0, STACK
        ARGFRAME PSTACK, 0, STACK
        ARGFRAME XSTACK, 11, STACK
        ARGFRAME IOVERLAY, 0, STATIC
        ARGFRAME DOVERLAY, 0, STATIC
        FUNCALL zclZigbeeRecv_Init, zcl_registerForMsg
        LOCFRAME ISTACK, 0, STACK
        LOCFRAME PSTACK, 0, STACK
        LOCFRAME XSTACK, 11, STACK
        LOCFRAME IOVERLAY, 0, STATIC
        LOCFRAME DOVERLAY, 0, STATIC
        ARGFRAME ISTACK, 0, STACK
        ARGFRAME PSTACK, 0, STACK
        ARGFRAME XSTACK, 11, STACK
        ARGFRAME IOVERLAY, 0, STATIC
        ARGFRAME DOVERLAY, 0, STATIC
        FUNCALL zclZigbeeRecv_Init, RegisterForKeys
        LOCFRAME ISTACK, 0, STACK
        LOCFRAME PSTACK, 0, STACK
        LOCFRAME XSTACK, 11, STACK
        LOCFRAME IOVERLAY, 0, STATIC
        LOCFRAME DOVERLAY, 0, STATIC
        ARGFRAME ISTACK, 0, STACK
        ARGFRAME PSTACK, 0, STACK
        ARGFRAME XSTACK, 11, STACK
        ARGFRAME IOVERLAY, 0, STATIC
        ARGFRAME DOVERLAY, 0, STATIC
        FUNCALL zclZigbeeRecv_Init, osal_memcpy
        LOCFRAME ISTACK, 0, STACK
        LOCFRAME PSTACK, 0, STACK
        LOCFRAME XSTACK, 14, STACK
        LOCFRAME IOVERLAY, 0, STATIC
        LOCFRAME DOVERLAY, 0, STATIC
        ARGFRAME ISTACK, 0, STACK
        ARGFRAME PSTACK, 0, STACK
        ARGFRAME XSTACK, 14, STACK
        ARGFRAME IOVERLAY, 0, STATIC
        ARGFRAME DOVERLAY, 0, STATIC
        FUNCALL zclZigbeeRecv_Init, aps_AddGroup
        LOCFRAME ISTACK, 0, STACK
        LOCFRAME PSTACK, 0, STACK
        LOCFRAME XSTACK, 11, STACK
        LOCFRAME IOVERLAY, 0, STATIC
        LOCFRAME DOVERLAY, 0, STATIC
        ARGFRAME ISTACK, 0, STACK
        ARGFRAME PSTACK, 0, STACK
        ARGFRAME XSTACK, 11, STACK
        ARGFRAME IOVERLAY, 0, STATIC
        ARGFRAME DOVERLAY, 0, STATIC
        FUNCALL zclZigbeeRecv_Init, afRegister
        LOCFRAME ISTACK, 0, STACK
        LOCFRAME PSTACK, 0, STACK
        LOCFRAME XSTACK, 11, STACK
        LOCFRAME IOVERLAY, 0, STATIC
        LOCFRAME DOVERLAY, 0, STATIC
        ARGFRAME ISTACK, 0, STACK
        ARGFRAME PSTACK, 0, STACK
        ARGFRAME XSTACK, 11, STACK
        ARGFRAME IOVERLAY, 0, STATIC
        ARGFRAME DOVERLAY, 0, STATIC
        FUNCALL zclZigbeeRecv_Init, osal_set_event
        LOCFRAME ISTACK, 0, STACK
        LOCFRAME PSTACK, 0, STACK
        LOCFRAME XSTACK, 11, STACK
        LOCFRAME IOVERLAY, 0, STATIC
        LOCFRAME DOVERLAY, 0, STATIC
        ARGFRAME ISTACK, 0, STACK
        ARGFRAME PSTACK, 0, STACK
        ARGFRAME XSTACK, 11, STACK
        ARGFRAME IOVERLAY, 0, STATIC
        ARGFRAME DOVERLAY, 0, STATIC
        MOV     A,#-0xb
        LCALL   ?BANKED_ENTER_XDATA
        CFI DPH0 load(1, XDATA, add(CFA_XSP16, literal(-1)))
        CFI DPL0 load(1, XDATA, add(CFA_XSP16, literal(-2)))
        CFI ?BRET_EXT load(1, XDATA, add(CFA_XSP16, literal(-3)))
        CFI ?RET_HIGH load(1, XDATA, add(CFA_XSP16, literal(-4)))
        CFI ?RET_LOW load(1, XDATA, add(CFA_XSP16, literal(-5)))
        CFI R7 load(1, XDATA, add(CFA_XSP16, literal(-6)))
        CFI V2 load(1, XDATA, add(CFA_XSP16, literal(-7)))
        CFI V1 load(1, XDATA, add(CFA_XSP16, literal(-8)))
        CFI V0 load(1, XDATA, add(CFA_XSP16, literal(-9)))
        CFI VB load(1, XDATA, add(CFA_XSP16, literal(-10)))
        CFI R6 load(1, XDATA, add(CFA_XSP16, literal(-11)))
        CFI CFA_SP SP+0
        CFI CFA_XSP16 add(XSP16, 11)
        ; Saved register size: 11
        ; Auto size: 0
//  247   zclZigbeeReceiver_TaskID = task_id;
        MOV     A,R1
        MOV     DPTR,#zclZigbeeReceiver_TaskID
        MOVX    @DPTR,A
//  248   
//  249   // Setup for the flash command's destination address ( Group )
//  250   zclZigbeeRecv_DstAddr.addrMode = (afAddrMode_t)afAddrGroup;  // transmit mode - Group address
        MOV     A,#0x1
        MOV     DPTR,#(zclZigbeeRecv_DstAddr + 8)
        MOVX    @DPTR,A
//  251   zclZigbeeRecv_DstAddr.endPoint = ZIGBEERECV_ENDPOINT;        // end-point number:20
        MOV     A,#0xd
        MOV     DPTR,#(zclZigbeeRecv_DstAddr + 9)
        MOVX    @DPTR,A
//  252   zclZigbeeRecv_DstAddr.addr.shortAddr = RECV_GROUP;           // Group short address
        MOV     DPTR,#zclZigbeeRecv_DstAddr
        MOV     A,#0x10
        MOVX    @DPTR,A
        INC     DPTR
        MOV     A,#0x20
        MOVX    @DPTR,A
//  253   
//  254   // This App is part of the Zigbee Device Profile
//  255   zclZD_Init( &zclZigbeeRecv_SimpleDesc ); 
        ; Setup parameters for call to function zclZD_Init
        MOV     R2,#(zclZigbeeRecv_SimpleDesc & 0xff)
        MOV     R3,#((zclZigbeeRecv_SimpleDesc >> 8) & 0xff)
        LCALL   ??zclZD_Init?relay
//  256   
//  257   // Register the ZCL General Cluster Library callback functions
//  258   zclGeneral_RegisterCmdCallbacks( ZIGBEERECV_ENDPOINT, &zclZigbeeReceiver_CmdCallbacks ); 
        ; Setup parameters for call to function zclGeneral_RegisterCmdCallbacks
        MOV     R2,#(zclZigbeeReceiver_CmdCallbacks & 0xff)
        MOV     R3,#((zclZigbeeReceiver_CmdCallbacks >> 8) & 0xff)
        MOV     R1,#0xd
        LCALL   ??zclGeneral_RegisterCmdCallbacks?relay
//  259   
//  260   // Register the application's attribute list
//  261   zcl_registerAttrList( ZIGBEERECV_ENDPOINT, ZIGBEERECV_MAX_ATTRIBUTES, zclZigbeeRecv_Attrs ); 
        ; Setup parameters for call to function zcl_registerAttrList
        MOV     R4,#(zclZigbeeRecv_Attrs & 0xff)
        MOV     R5,#((zclZigbeeRecv_Attrs >> 8) & 0xff)
        MOV     R2,#0xc
        MOV     R1,#0xd
        LCALL   ??zcl_registerAttrList?relay
//  262   
//  263   // Register the Application to receive the unprocessed Foundation command/response messages
//  264   zcl_registerForMsg( zclZigbeeReceiver_TaskID ); 
        ; Setup parameters for call to function zcl_registerForMsg
        MOV     DPTR,#zclZigbeeReceiver_TaskID
        MOVX    A,@DPTR
        MOV     R1,A
        LCALL   ??zcl_registerForMsg?relay
//  265   
//  266   // Register for all key events - This app will handle all key events
//  267   RegisterForKeys( zclZigbeeReceiver_TaskID ); 
        ; Setup parameters for call to function RegisterForKeys
        MOV     DPTR,#zclZigbeeReceiver_TaskID
        MOVX    A,@DPTR
        MOV     R1,A
        LCALL   ??RegisterForKeys?relay
//  268   
//  269   // By default, all devices start out in Group 1 ( register grouop )
//  270   zclZigbeeRecv_Group.ID = RECV_GROUP;
        MOV     DPTR,#zclZigbeeRecv_Group
        MOV     A,#0x10
        MOVX    @DPTR,A
        INC     DPTR
        MOV     A,#0x20
        MOVX    @DPTR,A
//  271   osal_memcpy( zclZigbeeRecv_Group.name, "RECV_GROUP", 8  );
        ; Setup parameters for call to function osal_memcpy
        MOV     ?V0 + 0,#(`?<Constant "RECV_GROUP">` & 0xff)
        MOV     ?V0 + 1,#((`?<Constant "RECV_GROUP">` >> 8) & 0xff)
        MOV     ?V0 + 2,#0x0
        MOV     R0,#?V0 + 0
        LCALL   ?PUSH_XSTACK_I_THREE
        CFI CFA_XSP16 add(XSP16, 14)
        MOV     R4,#0x8
        MOV     R5,#0x0
        MOV     R2,#((zclZigbeeRecv_Group + 2) & 0xff)
        MOV     R3,#(((zclZigbeeRecv_Group + 2) >> 8) & 0xff)
        LCALL   ??osal_memcpy?relay
        MOV     A,#0x3
        LCALL   ?DEALLOC_XSTACK8
        CFI CFA_XSP16 add(XSP16, 11)
//  272   aps_AddGroup( ZIGBEERECV_ENDPOINT, &zclZigbeeRecv_Group ); 
        ; Setup parameters for call to function aps_AddGroup
        MOV     R2,#(zclZigbeeRecv_Group & 0xff)
        MOV     R3,#((zclZigbeeRecv_Group >> 8) & 0xff)
        MOV     R1,#0xd
        LCALL   ??aps_AddGroup?relay
//  273   
//  274   // Register for a test endpoint
//  275   afRegister( &zigbeeReceiver_TestEp ); 
        ; Setup parameters for call to function afRegister
        MOV     R2,#(zigbeeReceiver_TestEp & 0xff)
        MOV     R3,#((zigbeeReceiver_TestEp >> 8) & 0xff)
        LCALL   ??afRegister?relay
//  276  
//  277   // Set osal event for zclZigbeeReceiver_TaskID, chris
//  278   osal_set_event( zclZigbeeReceiver_TaskID, NWK_RETRY_DELAY);  
        ; Setup parameters for call to function osal_set_event
        MOV     R2,#-0x18
        MOV     R3,#0x3
        MOV     DPTR,#zclZigbeeReceiver_TaskID
        MOVX    A,@DPTR
        MOV     R1,A
        LCALL   ??osal_set_event?relay
//  279 }
        MOV     R7,#0x3
        LJMP    ?BANKED_LEAVE_XDATA
        CFI EndBlock cfiBlock110
//  280 

        RSEG BANKED_CODE:CODE:NOROOT(0)
//  281 uint16 zclZigbeeRecv_event_loop( uint8 task_id, uint16 events )
zclZigbeeRecv_event_loop:
        CFI Block cfiBlock111 Using cfiCommon0
        CFI Function zclZigbeeRecv_event_loop
//  282 {   
        FUNCALL zclZigbeeRecv_event_loop, ZSendMsgProcess
        LOCFRAME ISTACK, 0, STACK
        LOCFRAME PSTACK, 0, STACK
        LOCFRAME XSTACK, 12, STACK
        LOCFRAME IOVERLAY, 0, STATIC
        LOCFRAME DOVERLAY, 0, STATIC
        ARGFRAME ISTACK, 0, STACK
        ARGFRAME PSTACK, 0, STACK
        ARGFRAME XSTACK, 12, STACK
        ARGFRAME IOVERLAY, 0, STATIC
        ARGFRAME DOVERLAY, 0, STATIC
        FUNCALL zclZigbeeRecv_event_loop, ZSendMsgProcess
        LOCFRAME ISTACK, 0, STACK
        LOCFRAME PSTACK, 0, STACK
        LOCFRAME XSTACK, 12, STACK
        LOCFRAME IOVERLAY, 0, STATIC
        LOCFRAME DOVERLAY, 0, STATIC
        ARGFRAME ISTACK, 0, STACK
        ARGFRAME PSTACK, 0, STACK
        ARGFRAME XSTACK, 12, STACK
        ARGFRAME IOVERLAY, 0, STATIC
        ARGFRAME DOVERLAY, 0, STATIC
        FUNCALL zclZigbeeRecv_event_loop, osal_msg_deallocate
        LOCFRAME ISTACK, 0, STACK
        LOCFRAME PSTACK, 0, STACK
        LOCFRAME XSTACK, 12, STACK
        LOCFRAME IOVERLAY, 0, STATIC
        LOCFRAME DOVERLAY, 0, STATIC
        ARGFRAME ISTACK, 0, STACK
        ARGFRAME PSTACK, 0, STACK
        ARGFRAME XSTACK, 12, STACK
        ARGFRAME IOVERLAY, 0, STATIC
        ARGFRAME DOVERLAY, 0, STATIC
        FUNCALL zclZigbeeRecv_event_loop, osal_msg_receive
        LOCFRAME ISTACK, 0, STACK
        LOCFRAME PSTACK, 0, STACK
        LOCFRAME XSTACK, 12, STACK
        LOCFRAME IOVERLAY, 0, STATIC
        LOCFRAME DOVERLAY, 0, STATIC
        ARGFRAME ISTACK, 0, STACK
        ARGFRAME PSTACK, 0, STACK
        ARGFRAME XSTACK, 12, STACK
        ARGFRAME IOVERLAY, 0, STATIC
        ARGFRAME DOVERLAY, 0, STATIC
        FUNCALL zclZigbeeRecv_event_loop, osal_mem_free
        LOCFRAME ISTACK, 0, STACK
        LOCFRAME PSTACK, 0, STACK
        LOCFRAME XSTACK, 12, STACK
        LOCFRAME IOVERLAY, 0, STATIC
        LOCFRAME DOVERLAY, 0, STATIC
        ARGFRAME ISTACK, 0, STACK
        ARGFRAME PSTACK, 0, STACK
        ARGFRAME XSTACK, 12, STACK
        ARGFRAME IOVERLAY, 0, STATIC
        ARGFRAME DOVERLAY, 0, STATIC
        FUNCALL zclZigbeeRecv_event_loop, zclZigbeeReceiver_ProcessIdentifyTimeChange
        LOCFRAME ISTACK, 0, STACK
        LOCFRAME PSTACK, 0, STACK
        LOCFRAME XSTACK, 12, STACK
        LOCFRAME IOVERLAY, 0, STATIC
        LOCFRAME DOVERLAY, 0, STATIC
        ARGFRAME ISTACK, 0, STACK
        ARGFRAME PSTACK, 0, STACK
        ARGFRAME XSTACK, 12, STACK
        ARGFRAME IOVERLAY, 0, STATIC
        ARGFRAME DOVERLAY, 0, STATIC
        FUNCALL zclZigbeeRecv_event_loop, zclUartReceiver
        LOCFRAME ISTACK, 0, STACK
        LOCFRAME PSTACK, 0, STACK
        LOCFRAME XSTACK, 12, STACK
        LOCFRAME IOVERLAY, 0, STATIC
        LOCFRAME DOVERLAY, 0, STATIC
        ARGFRAME ISTACK, 0, STACK
        ARGFRAME PSTACK, 0, STACK
        ARGFRAME XSTACK, 12, STACK
        ARGFRAME IOVERLAY, 0, STATIC
        ARGFRAME DOVERLAY, 0, STATIC
        MOV     A,#-0xc
        LCALL   ?BANKED_ENTER_XDATA
        CFI DPH0 load(1, XDATA, add(CFA_XSP16, literal(-1)))
        CFI DPL0 load(1, XDATA, add(CFA_XSP16, literal(-2)))
        CFI ?BRET_EXT load(1, XDATA, add(CFA_XSP16, literal(-3)))
        CFI ?RET_HIGH load(1, XDATA, add(CFA_XSP16, literal(-4)))
        CFI ?RET_LOW load(1, XDATA, add(CFA_XSP16, literal(-5)))
        CFI R7 load(1, XDATA, add(CFA_XSP16, literal(-6)))
        CFI V3 load(1, XDATA, add(CFA_XSP16, literal(-7)))
        CFI V2 load(1, XDATA, add(CFA_XSP16, literal(-8)))
        CFI V1 load(1, XDATA, add(CFA_XSP16, literal(-9)))
        CFI V0 load(1, XDATA, add(CFA_XSP16, literal(-10)))
        CFI VB load(1, XDATA, add(CFA_XSP16, literal(-11)))
        CFI R6 load(1, XDATA, add(CFA_XSP16, literal(-12)))
        CFI CFA_SP SP+0
        CFI CFA_XSP16 add(XSP16, 12)
        ; Saved register size: 12
        ; Auto size: 0
        MOV     ?V0 + 0,R2
        MOV     ?V0 + 1,R3
//  283     afIncomingMSGPacket_t *MSGpkt;
//  284     (void)task_id;  // Intentionally unreferenced parameter
//  285   
//  286     if ( events & SYS_EVENT_MSG ) // SYSTEM Message event
        MOV     A,#-0x80
        ANL     A,?V0 + 1
        MOV     R1,A
        CLR     A
        JNZ     ??zclZigbeeRecv_event_loop_0
        MOV     A,R1
??zclZigbeeRecv_event_loop_0:
        JNZ     ??zclZigbeeRecv_event_loop_1
//  287     {
//  288       while ( (MSGpkt = (afIncomingMSGPacket_t *)osal_msg_receive( zclZigbeeReceiver_TaskID )) )
//  289       {   
//  290         switch ( MSGpkt->hdr.event )
//  291         {       
//  292         case ZCL_INCOMING_MSG: //0x34 : Incoming ZCL foundation message
//  293             // Incoming ZCL Foundation command/response messages
//  294             zclZigbeeReceiver_ProcessIncomingMsg( (zclIncomingMsg_t *)MSGpkt ); 
//  295             break;          
//  296         case AF_DATA_CONFIRM_CMD:   
//  297             break;         
//  298         case ZDO_STATE_CHANGE:       
//  299             ZSendMsgProcess();            
//  300             break;                 
//  301         default:
//  302             break;
//  303         }
//  304         osal_msg_deallocate( (uint8 *)MSGpkt ); // Release the memory
//  305       }
//  306       return (events ^ SYS_EVENT_MSG); // return unprocessed events
//  307     }
//  308   
//  309     // The user define application events
//  310     switch ( events )
        MOV     R0,#?V0 + 0
        LCALL   ?US_SWITCH_SPARSE
`?<Jumptable for zclZigbeeRecv_event_loop>_0`:
        DATA
        DW        0
        DW        3
        DW        1
        DW        ??zclZigbeeRecv_event_loop_2
        DW        2
        DW        ??zclZigbeeRecv_event_loop_3
        DW        2048
        DW        ??zclZigbeeRecv_event_loop_4
        DW        ??zclZigbeeRecv_event_loop_5
        CODE
//  311     {
//  312       case ZDO_MSG_SEND_EVT:
//  313             ZSendMsgProcess();                
??zclZigbeeRecv_event_loop_4:
        ; Setup parameters for call to function ZSendMsgProcess
        LCALL   ??ZSendMsgProcess?relay
        LJMP    ??zclZigbeeRecv_event_loop_5 & 0xFFFF
??zclZigbeeRecv_event_loop_6:
        ; Setup parameters for call to function ZSendMsgProcess
        LCALL   ??ZSendMsgProcess?relay
??zclZigbeeRecv_event_loop_7:
        ; Setup parameters for call to function osal_msg_deallocate
        MOV     A,R6
        MOV     R2,A
        MOV     A,R7
        MOV     R3,A
        LCALL   ??osal_msg_deallocate?relay
??zclZigbeeRecv_event_loop_1:
        ; Setup parameters for call to function osal_msg_receive
        MOV     DPTR,#zclZigbeeReceiver_TaskID
        MOVX    A,@DPTR
        MOV     R1,A
        LCALL   ??osal_msg_receive?relay
        MOV     ?V0 + 2,R2
        MOV     ?V0 + 3,R3
        MOV     R6,?V0 + 2
        MOV     R7,?V0 + 3
        MOV     A,R6
        JNZ     ??zclZigbeeRecv_event_loop_8
        MOV     A,R7
??zclZigbeeRecv_event_loop_8:
        JZ      ??zclZigbeeRecv_event_loop_9
        MOV     DPL,R6
        MOV     DPH,R7
        MOVX    A,@DPTR
        LCALL   ?UC_SWITCH_SPARSE
`?<Jumptable for zclZigbeeRecv_event_loop>_1`:
        DATA
        DB        0
        DB        2
        DB        52
        DW        ??zclZigbeeRecv_event_loop_10
        DB        209
        DW        ??zclZigbeeRecv_event_loop_6
        DW        ??zclZigbeeRecv_event_loop_7
        CODE
??zclZigbeeRecv_event_loop_10:
        MOV     DPL,R6
        MOV     DPH,R7
        INC     DPTR
        INC     DPTR
        INC     DPTR
        INC     DPTR
        INC     DPTR
        INC     DPTR
        INC     DPTR
        MOVX    A,@DPTR
        LCALL   ?UC_SWITCH_SPARSE
`?<Jumptable for zclZigbeeRecv_event_loop>_2`:
        DATA
        DB        0
        DB        2
        DB        1
        DW        ??zclZigbeeRecv_event_loop_11
        DB        4
        DW        ??zclZigbeeRecv_event_loop_12
        DW        ??zclZigbeeRecv_event_loop_13
        CODE
??zclZigbeeRecv_event_loop_11:
        LCALL   ?Subroutine2 & 0xFFFF
??CrossCallReturnLabel_18:
        MOVX    A,@DPTR
        MOV     R2,A
        MOV     A,R3
        CLR     C
        SUBB    A,R2
        JNC     ??zclZigbeeRecv_event_loop_13
        INC     R3
        SJMP    ??CrossCallReturnLabel_18
??zclZigbeeRecv_event_loop_12:
        LCALL   ?Subroutine2 & 0xFFFF
??CrossCallReturnLabel_19:
        SJMP    ??zclZigbeeRecv_event_loop_14
??zclZigbeeRecv_event_loop_15:
        INC     R3
??zclZigbeeRecv_event_loop_14:
        MOVX    A,@DPTR
        MOV     R2,A
        MOV     A,R3
        CLR     C
        SUBB    A,R2
        JC      ??zclZigbeeRecv_event_loop_15
??zclZigbeeRecv_event_loop_13:
        LCALL   ?Subroutine8 & 0xFFFF
??CrossCallReturnLabel_38:
        MOVX    A,@DPTR
        MOV     R2,A
        INC     DPTR
        MOVX    A,@DPTR
        MOV     R3,A
        MOV     A,R2
        JNZ     ??zclZigbeeRecv_event_loop_16
        MOV     A,R3
??zclZigbeeRecv_event_loop_16:
        JZ      ??zclZigbeeRecv_event_loop_7
        ; Setup parameters for call to function osal_mem_free
        LCALL   ??osal_mem_free?relay
        SJMP    ??zclZigbeeRecv_event_loop_7
??zclZigbeeRecv_event_loop_9:
        MOV     R2,?V0 + 0
        MOV     A,#-0x80
        XRL     A,?V0 + 1
        MOV     R3,A
        SJMP    ??zclZigbeeRecv_event_loop_17
//  314             break;
//  315       case SAMPLELIGHT_IDENTIFY_TIMEOUT_EVT: // ZIGBEE Receiver identify timeout event
//  316         if ( zclZigbeeRecv_IdentifyTime > 0 )
??zclZigbeeRecv_event_loop_2:
        MOV     DPTR,#zclZigbeeRecv_IdentifyTime
        MOVX    A,@DPTR
        JNZ     ??zclZigbeeRecv_event_loop_18
        INC     DPTR
        MOVX    A,@DPTR
??zclZigbeeRecv_event_loop_18:
        JZ      ??zclZigbeeRecv_event_loop_19
//  317              zclZigbeeRecv_IdentifyTime--;
        MOV     DPTR,#zclZigbeeRecv_IdentifyTime
        MOVX    A,@DPTR
        ADD     A,#-0x1
        MOVX    @DPTR,A
        INC     DPTR
        MOVX    A,@DPTR
        ADDC    A,#-0x1
        MOVX    @DPTR,A
//  318              zclZigbeeReceiver_ProcessIdentifyTimeChange();
??zclZigbeeRecv_event_loop_19:
        ; Setup parameters for call to function zclZigbeeReceiver_ProcessIdentifyTimeChange
        LCALL   ??zclZigbeeReceiver_ProcessIdentifyTimeChange?r
        SJMP    ??zclZigbeeRecv_event_loop_5
//  319         break;   
//  320       case UART_MSG_EVT: // The UART Message event
//  321         //Chris Msg incoming
//  322         zclUartReceiver();
??zclZigbeeRecv_event_loop_3:
        ; Setup parameters for call to function zclUartReceiver
        LCALL   ??zclUartReceiver?relay
//  323         break;
//  324     }    
//  325     return 0; // Discard unknown events
??zclZigbeeRecv_event_loop_5:
        MOV     R2,#0x0
        MOV     R3,#0x0
??zclZigbeeRecv_event_loop_17:
        MOV     R7,#0x4
        LJMP    ?BANKED_LEAVE_XDATA
        CFI EndBlock cfiBlock111
//  326 }

        RSEG BANKED_CODE:CODE:NOROOT(0)
?Subroutine2:
        CFI Block cfiCond112 Using cfiCommon0
        CFI NoFunction
        CFI Conditional ??CrossCallReturnLabel_18
        CFI R6 load(1, XDATA, add(CFA_XSP16, literal(-12)))
        CFI VB load(1, XDATA, add(CFA_XSP16, literal(-11)))
        CFI V0 load(1, XDATA, add(CFA_XSP16, literal(-10)))
        CFI V1 load(1, XDATA, add(CFA_XSP16, literal(-9)))
        CFI V2 load(1, XDATA, add(CFA_XSP16, literal(-8)))
        CFI V3 load(1, XDATA, add(CFA_XSP16, literal(-7)))
        CFI R7 load(1, XDATA, add(CFA_XSP16, literal(-6)))
        CFI ?RET_LOW load(1, XDATA, add(CFA_XSP16, literal(-5)))
        CFI ?RET_HIGH load(1, XDATA, add(CFA_XSP16, literal(-4)))
        CFI ?BRET_EXT load(1, XDATA, add(CFA_XSP16, literal(-3)))
        CFI DPL0 load(1, XDATA, add(CFA_XSP16, literal(-2)))
        CFI DPH0 load(1, XDATA, add(CFA_XSP16, literal(-1)))
        CFI CFA_SP SP+0
        CFI CFA_XSP16 add(XSP16, 12)
        CFI Block cfiCond113 Using cfiCommon0
        CFI (cfiCond113) NoFunction
        CFI (cfiCond113) Conditional ??CrossCallReturnLabel_19
        CFI (cfiCond113) R6 load(1, XDATA, add(CFA_XSP16, literal(-12)))
        CFI (cfiCond113) VB load(1, XDATA, add(CFA_XSP16, literal(-11)))
        CFI (cfiCond113) V0 load(1, XDATA, add(CFA_XSP16, literal(-10)))
        CFI (cfiCond113) V1 load(1, XDATA, add(CFA_XSP16, literal(-9)))
        CFI (cfiCond113) V2 load(1, XDATA, add(CFA_XSP16, literal(-8)))
        CFI (cfiCond113) V3 load(1, XDATA, add(CFA_XSP16, literal(-7)))
        CFI (cfiCond113) R7 load(1, XDATA, add(CFA_XSP16, literal(-6)))
        CFI (cfiCond113) ?RET_LOW load(1, XDATA, add(CFA_XSP16, literal(-5)))
        CFI (cfiCond113) ?RET_HIGH load(1, XDATA, add(CFA_XSP16, literal(-4)))
        CFI (cfiCond113) ?BRET_EXT load(1, XDATA, add(CFA_XSP16, literal(-3)))
        CFI (cfiCond113) DPL0 load(1, XDATA, add(CFA_XSP16, literal(-2)))
        CFI (cfiCond113) DPH0 load(1, XDATA, add(CFA_XSP16, literal(-1)))
        CFI (cfiCond113) CFA_SP SP+0
        CFI (cfiCond113) CFA_XSP16 add(XSP16, 12)
        CFI Block cfiPicker114 Using cfiCommon1
        CFI (cfiPicker114) NoFunction
        CFI (cfiPicker114) Picker
        LCALL   ?Subroutine8 & 0xFFFF
??CrossCallReturnLabel_39:
        LCALL   ??Subroutine12_0 & 0xFFFF
??CrossCallReturnLabel_52:
        MOV     DPL,R0
        MOV     DPH,R1
        MOV     R3,#0x0
        RET
        CFI EndBlock cfiCond112
        CFI EndBlock cfiCond113
        CFI EndBlock cfiPicker114

        RSEG BANKED_CODE:CODE:NOROOT(0)
?Subroutine8:
        CFI Block cfiCond115 Using cfiCommon0
        CFI NoFunction
        CFI Conditional ??CrossCallReturnLabel_38
        CFI R6 load(1, XDATA, add(CFA_XSP16, literal(-12)))
        CFI VB load(1, XDATA, add(CFA_XSP16, literal(-11)))
        CFI V0 load(1, XDATA, add(CFA_XSP16, literal(-10)))
        CFI V1 load(1, XDATA, add(CFA_XSP16, literal(-9)))
        CFI V2 load(1, XDATA, add(CFA_XSP16, literal(-8)))
        CFI V3 load(1, XDATA, add(CFA_XSP16, literal(-7)))
        CFI R7 load(1, XDATA, add(CFA_XSP16, literal(-6)))
        CFI ?RET_LOW load(1, XDATA, add(CFA_XSP16, literal(-5)))
        CFI ?RET_HIGH load(1, XDATA, add(CFA_XSP16, literal(-4)))
        CFI ?BRET_EXT load(1, XDATA, add(CFA_XSP16, literal(-3)))
        CFI DPL0 load(1, XDATA, add(CFA_XSP16, literal(-2)))
        CFI DPH0 load(1, XDATA, add(CFA_XSP16, literal(-1)))
        CFI CFA_SP SP+0
        CFI CFA_XSP16 add(XSP16, 12)
        CFI Block cfiCond116 Using cfiCommon0
        CFI (cfiCond116) NoFunction
        CFI (cfiCond116) Conditional ??CrossCallReturnLabel_39, ??CrossCallReturnLabel_18
        CFI (cfiCond116) R6 load(1, XDATA, add(CFA_XSP16, literal(-12)))
        CFI (cfiCond116) VB load(1, XDATA, add(CFA_XSP16, literal(-11)))
        CFI (cfiCond116) V0 load(1, XDATA, add(CFA_XSP16, literal(-10)))
        CFI (cfiCond116) V1 load(1, XDATA, add(CFA_XSP16, literal(-9)))
        CFI (cfiCond116) V2 load(1, XDATA, add(CFA_XSP16, literal(-8)))
        CFI (cfiCond116) V3 load(1, XDATA, add(CFA_XSP16, literal(-7)))
        CFI (cfiCond116) R7 load(1, XDATA, add(CFA_XSP16, literal(-6)))
        CFI (cfiCond116) ?RET_LOW load(1, XDATA, add(CFA_XSP16, literal(-5)))
        CFI (cfiCond116) ?RET_HIGH load(1, XDATA, add(CFA_XSP16, literal(-4)))
        CFI (cfiCond116) ?BRET_EXT load(1, XDATA, add(CFA_XSP16, literal(-3)))
        CFI (cfiCond116) DPL0 load(1, XDATA, add(CFA_XSP16, literal(-2)))
        CFI (cfiCond116) DPH0 load(1, XDATA, add(CFA_XSP16, literal(-1)))
        CFI (cfiCond116) CFA_SP SP+0
        CFI (cfiCond116) CFA_XSP16 add(XSP16, 12)
        CFI Block cfiCond117 Using cfiCommon0
        CFI (cfiCond117) NoFunction
        CFI (cfiCond117) Conditional ??CrossCallReturnLabel_39, ??CrossCallReturnLabel_19
        CFI (cfiCond117) R6 load(1, XDATA, add(CFA_XSP16, literal(-12)))
        CFI (cfiCond117) VB load(1, XDATA, add(CFA_XSP16, literal(-11)))
        CFI (cfiCond117) V0 load(1, XDATA, add(CFA_XSP16, literal(-10)))
        CFI (cfiCond117) V1 load(1, XDATA, add(CFA_XSP16, literal(-9)))
        CFI (cfiCond117) V2 load(1, XDATA, add(CFA_XSP16, literal(-8)))
        CFI (cfiCond117) V3 load(1, XDATA, add(CFA_XSP16, literal(-7)))
        CFI (cfiCond117) R7 load(1, XDATA, add(CFA_XSP16, literal(-6)))
        CFI (cfiCond117) ?RET_LOW load(1, XDATA, add(CFA_XSP16, literal(-5)))
        CFI (cfiCond117) ?RET_HIGH load(1, XDATA, add(CFA_XSP16, literal(-4)))
        CFI (cfiCond117) ?BRET_EXT load(1, XDATA, add(CFA_XSP16, literal(-3)))
        CFI (cfiCond117) DPL0 load(1, XDATA, add(CFA_XSP16, literal(-2)))
        CFI (cfiCond117) DPH0 load(1, XDATA, add(CFA_XSP16, literal(-1)))
        CFI (cfiCond117) CFA_SP SP+0
        CFI (cfiCond117) CFA_XSP16 add(XSP16, 12)
        CFI Block cfiPicker118 Using cfiCommon1
        CFI (cfiPicker118) NoFunction
        CFI (cfiPicker118) Picker
        MOV     A,R6
        ADD     A,#0x16
        MOV     DPL,A
        MOV     A,R7
        ADDC    A,#0x0
        MOV     DPH,A
        RET
        CFI EndBlock cfiCond115
        CFI EndBlock cfiCond116
        CFI EndBlock cfiCond117
        CFI EndBlock cfiPicker118
//  327 
//  328 static void zclZigbeeReceiver_HandleKeys( byte shift, byte keys )
//  329 {
//  330   zAddrType_t dstAddr;
//  331   (void)shift; // Intentionally unreferenced parameter
//  332   
//  333 #if defined(Coor_receiver) || defined (Router_receiver)
//  334 
//  335   if ( keys & HAL_KEY_SW1 ) // Init EndDevice bind reequest, and use cluster list important to binding.
//  336   {
//  337     dstAddr.addrMode = afAddr16Bit;
//  338     dstAddr.addr.shortAddr = 0x0000;   // Coordinator makes the match
//  339     ZDP_EndDeviceBindReq( &dstAddr, NLME_GetShortAddr(), ZIGBEERECV_ENDPOINT, // ZIGBEERECV_ENDPOINT = 13 is coordinator
//  340                           ZCL_HA_PROFILE_ID, ZCLZIGBEERECV_BINDINGLIST, bindingInClusters, 0,
//  341                           NULL, // No Outgoing clusters to bind
//  342                           TRUE );
//  343   }
//  344 #endif
//  345 }
//  346 

        RSEG BANKED_CODE:CODE:NOROOT(0)
//  347 static void zclZigbeeReceiver_ProcessIdentifyTimeChange( void )
zclZigbeeReceiver_ProcessIdentifyTimeChange:
        CFI Block cfiBlock119 Using cfiCommon0
        CFI Function zclZigbeeReceiver_ProcessIdentifyTimeChange
//  348 {
        FUNCALL zclZigbeeReceiver_ProcessIdentifyTimeChange, osal_start_timerEx
        LOCFRAME ISTACK, 2, STACK
        LOCFRAME PSTACK, 0, STACK
        LOCFRAME XSTACK, 0, STACK
        LOCFRAME IOVERLAY, 0, STATIC
        LOCFRAME DOVERLAY, 0, STATIC
        ARGFRAME ISTACK, 2, STACK
        ARGFRAME PSTACK, 0, STACK
        ARGFRAME XSTACK, 0, STACK
        ARGFRAME IOVERLAY, 0, STATIC
        ARGFRAME DOVERLAY, 0, STATIC
        FUNCALL zclZigbeeReceiver_ProcessIdentifyTimeChange, HalLedBlink
        LOCFRAME ISTACK, 2, STACK
        LOCFRAME PSTACK, 0, STACK
        LOCFRAME XSTACK, 0, STACK
        LOCFRAME IOVERLAY, 0, STATIC
        LOCFRAME DOVERLAY, 0, STATIC
        ARGFRAME ISTACK, 2, STACK
        ARGFRAME PSTACK, 0, STACK
        ARGFRAME XSTACK, 0, STACK
        ARGFRAME IOVERLAY, 0, STATIC
        ARGFRAME DOVERLAY, 0, STATIC
        FUNCALL zclZigbeeReceiver_ProcessIdentifyTimeChange, HalLedSet
        LOCFRAME ISTACK, 2, STACK
        LOCFRAME PSTACK, 0, STACK
        LOCFRAME XSTACK, 0, STACK
        LOCFRAME IOVERLAY, 0, STATIC
        LOCFRAME DOVERLAY, 0, STATIC
        ARGFRAME ISTACK, 2, STACK
        ARGFRAME PSTACK, 0, STACK
        ARGFRAME XSTACK, 0, STACK
        ARGFRAME IOVERLAY, 0, STATIC
        ARGFRAME DOVERLAY, 0, STATIC
        FUNCALL zclZigbeeReceiver_ProcessIdentifyTimeChange, HalLedSet
        LOCFRAME ISTACK, 2, STACK
        LOCFRAME PSTACK, 0, STACK
        LOCFRAME XSTACK, 0, STACK
        LOCFRAME IOVERLAY, 0, STATIC
        LOCFRAME DOVERLAY, 0, STATIC
        ARGFRAME ISTACK, 2, STACK
        ARGFRAME PSTACK, 0, STACK
        ARGFRAME XSTACK, 0, STACK
        ARGFRAME IOVERLAY, 0, STATIC
        ARGFRAME DOVERLAY, 0, STATIC
        FUNCALL zclZigbeeReceiver_ProcessIdentifyTimeChange, osal_stop_timerEx
        LOCFRAME ISTACK, 2, STACK
        LOCFRAME PSTACK, 0, STACK
        LOCFRAME XSTACK, 0, STACK
        LOCFRAME IOVERLAY, 0, STATIC
        LOCFRAME DOVERLAY, 0, STATIC
        ARGFRAME ISTACK, 2, STACK
        ARGFRAME PSTACK, 0, STACK
        ARGFRAME XSTACK, 0, STACK
        ARGFRAME IOVERLAY, 0, STATIC
        ARGFRAME DOVERLAY, 0, STATIC
        PUSH    DPL
        CFI DPL0 Frame(CFA_SP, 4)
        CFI CFA_SP SP+-4
        PUSH    DPH
        CFI DPH0 Frame(CFA_SP, 5)
        CFI CFA_SP SP+-5
        ; Saved register size: 2
        ; Auto size: 0
//  349   if ( zclZigbeeRecv_IdentifyTime > 0 )
        MOV     DPTR,#zclZigbeeRecv_IdentifyTime
        MOVX    A,@DPTR
        JNZ     ??zclZigbeeReceiver_ProcessIdentifyTimeChange_0
        INC     DPTR
        MOVX    A,@DPTR
??zclZigbeeReceiver_ProcessIdentifyTimeChange_0:
        JZ      ??zclZigbeeReceiver_ProcessIdentifyTimeChange_1
//  350   {
//  351     osal_start_timerEx( zclZigbeeReceiver_TaskID, SAMPLELIGHT_IDENTIFY_TIMEOUT_EVT, 1000 );
        ; Setup parameters for call to function osal_start_timerEx
        MOV     R4,#-0x18
        MOV     R5,#0x3
        MOV     R2,#0x1
        MOV     R3,#0x0
        MOV     DPTR,#zclZigbeeReceiver_TaskID
        MOVX    A,@DPTR
        MOV     R1,A
        LCALL   ??osal_start_timerEx?relay
//  352     HalLedBlink ( HAL_LED_2, 0xFF, HAL_LED_DEFAULT_DUTY_CYCLE, HAL_LED_DEFAULT_FLASH_TIME );
        ; Setup parameters for call to function HalLedBlink
        MOV     R4,#-0x18
        MOV     R5,#0x3
        MOV     R3,#0x5
        MOV     R2,#-0x1
        MOV     R1,#0x2
        LCALL   ??HalLedBlink?relay
        SJMP    ??zclZigbeeReceiver_ProcessIdentifyTimeChange_2
//  353   }
//  354   else
//  355     {
//  356       if ( zclZigbeeRecv_OnOff )
??zclZigbeeReceiver_ProcessIdentifyTimeChange_1:
        MOV     DPTR,#zclZigbeeRecv_OnOff
        MOVX    A,@DPTR
        JZ      ??zclZigbeeReceiver_ProcessIdentifyTimeChange_3
//  357       {
//  358         HalLedSet ( HAL_LED_1, HAL_LED_MODE_ON );
        ; Setup parameters for call to function HalLedSet
        MOV     R2,#0x1
        MOV     R1,#0x1
        LCALL   ??HalLedSet?relay
        SJMP    ??zclZigbeeReceiver_ProcessIdentifyTimeChange_2
//  359       }
//  360       else
//  361         {
//  362           HalLedSet ( HAL_LED_1, HAL_LED_MODE_OFF );
??zclZigbeeReceiver_ProcessIdentifyTimeChange_3:
        ; Setup parameters for call to function HalLedSet
        MOV     R2,#0x0
        MOV     R1,#0x1
        LCALL   ??HalLedSet?relay
//  363           osal_stop_timerEx( zclZigbeeReceiver_TaskID, SAMPLELIGHT_IDENTIFY_TIMEOUT_EVT );
        ; Setup parameters for call to function osal_stop_timerEx
        MOV     R2,#0x1
        MOV     R3,#0x0
        MOV     DPTR,#zclZigbeeReceiver_TaskID
        MOVX    A,@DPTR
        MOV     R1,A
        LCALL   ??osal_stop_timerEx?relay
        CFI EndBlock cfiBlock119
//  364         }
//  365     }
//  366 }
??zclZigbeeReceiver_ProcessIdentifyTimeChange_2:
        REQUIRE ?Subroutine10
        ; // Fall through to label ?Subroutine10

        RSEG BANKED_CODE:CODE:NOROOT(0)
?Subroutine10:
        CFI Block cfiBlock120 Using cfiCommon0
        CFI NoFunction
        CFI CFA_SP SP+-5
        CFI DPL0 Frame(CFA_SP, 4)
        CFI DPH0 Frame(CFA_SP, 5)
        POP     DPH
        CFI CFA_SP SP+-4
        CFI DPH0 SameValue
        POP     DPL
        CFI CFA_SP SP+-3
        CFI DPL0 SameValue
        LJMP    ?BRET
        CFI EndBlock cfiBlock120
//  367 

        RSEG BANKED_CODE:CODE:NOROOT(0)
//  368 static void zclZigbeeReceiver_BasicResetCB( void )
zclZigbeeReceiver_BasicResetCB:
        CFI Block cfiBlock121 Using cfiCommon0
        CFI Function zclZigbeeReceiver_BasicResetCB
//  369 {
        ; Saved register size: 0
        ; Auto size: 0
//  370   // Reset all attributes to default values
//  371 }
        LJMP    ?BRET
        CFI EndBlock cfiBlock121
//  372 

        RSEG BANKED_CODE:CODE:NOROOT(0)
//  373 static void zclZigbeeReceiver_IdentifyCB( zclIdentify_t *pCmd )
zclZigbeeReceiver_IdentifyCB:
        CFI Block cfiBlock122 Using cfiCommon0
        CFI Function zclZigbeeReceiver_IdentifyCB
//  374 {
        FUNCALL zclZigbeeReceiver_IdentifyCB, zclZigbeeReceiver_ProcessIdentifyTimeChange
        LOCFRAME ISTACK, 2, STACK
        LOCFRAME PSTACK, 0, STACK
        LOCFRAME XSTACK, 0, STACK
        LOCFRAME IOVERLAY, 0, STATIC
        LOCFRAME DOVERLAY, 0, STATIC
        ARGFRAME ISTACK, 2, STACK
        ARGFRAME PSTACK, 0, STACK
        ARGFRAME XSTACK, 0, STACK
        ARGFRAME IOVERLAY, 0, STATIC
        ARGFRAME DOVERLAY, 0, STATIC
        PUSH    DPL
        CFI DPL0 Frame(CFA_SP, 4)
        CFI CFA_SP SP+-4
        PUSH    DPH
        CFI DPH0 Frame(CFA_SP, 5)
        CFI CFA_SP SP+-5
        ; Saved register size: 2
        ; Auto size: 0
//  375   zclZigbeeRecv_IdentifyTime = pCmd->identifyTime;
        MOV     DPL,R2
        MOV     DPH,R3
        INC     DPTR
        INC     DPTR
        LCALL   ??Subroutine12_0 & 0xFFFF
??CrossCallReturnLabel_51:
        MOV     DPTR,#zclZigbeeRecv_IdentifyTime
        MOV     A,R0
        MOVX    @DPTR,A
        INC     DPTR
        MOV     A,R1
        MOVX    @DPTR,A
//  376   zclZigbeeReceiver_ProcessIdentifyTimeChange();
        ; Setup parameters for call to function zclZigbeeReceiver_ProcessIdentifyTimeChange
        LCALL   ??zclZigbeeReceiver_ProcessIdentifyTimeChange?r
//  377 }
        SJMP    ?Subroutine10
        CFI EndBlock cfiBlock122
//  378 

        RSEG BANKED_CODE:CODE:NOROOT(0)
//  379 static void zclZigbeeReceiver_IdentifyQueryRspCB( zclIdentifyQueryRsp_t *pRsp )
zclZigbeeReceiver_IdentifyQueryRspCB:
        CFI Block cfiBlock123 Using cfiCommon0
        CFI Function zclZigbeeReceiver_IdentifyQueryRspCB
//  380 {
        ; Saved register size: 0
        ; Auto size: 0
//  381   (void)pRsp; // Query Response (with timeout value)
//  382 }
        LJMP    ?BRET
        CFI EndBlock cfiBlock123
//  383 

        RSEG BANKED_CODE:CODE:NOROOT(0)
//  384 static void zclZigbeeReceiver_OnOffCB( uint8 cmd )
zclZigbeeReceiver_OnOffCB:
        CFI Block cfiBlock124 Using cfiCommon0
        CFI Function zclZigbeeReceiver_OnOffCB
//  385 { 
        FUNCALL zclZigbeeReceiver_OnOffCB, HalLedSet
        LOCFRAME ISTACK, 2, STACK
        LOCFRAME PSTACK, 0, STACK
        LOCFRAME XSTACK, 0, STACK
        LOCFRAME IOVERLAY, 0, STATIC
        LOCFRAME DOVERLAY, 0, STATIC
        ARGFRAME ISTACK, 2, STACK
        ARGFRAME PSTACK, 0, STACK
        ARGFRAME XSTACK, 0, STACK
        ARGFRAME IOVERLAY, 0, STATIC
        ARGFRAME DOVERLAY, 0, STATIC
        FUNCALL zclZigbeeReceiver_OnOffCB, HalLedSet
        LOCFRAME ISTACK, 2, STACK
        LOCFRAME PSTACK, 0, STACK
        LOCFRAME XSTACK, 0, STACK
        LOCFRAME IOVERLAY, 0, STATIC
        LOCFRAME DOVERLAY, 0, STATIC
        ARGFRAME ISTACK, 2, STACK
        ARGFRAME PSTACK, 0, STACK
        ARGFRAME XSTACK, 0, STACK
        ARGFRAME IOVERLAY, 0, STATIC
        ARGFRAME DOVERLAY, 0, STATIC
        PUSH    DPL
        CFI DPL0 Frame(CFA_SP, 4)
        CFI CFA_SP SP+-4
        PUSH    DPH
        CFI DPH0 Frame(CFA_SP, 5)
        CFI CFA_SP SP+-5
        ; Saved register size: 2
        ; Auto size: 0
//  386   if ( cmd == COMMAND_ON ) // Turn on the light
        MOV     A,#0x1
        XRL     A,R1
        JNZ     ??zclZigbeeReceiver_OnOffCB_0
//  387     zclZigbeeRecv_OnOff = LIGHT_ON;
??zclZigbeeReceiver_OnOffCB_1:
        MOV     A,#0x1
??zclZigbeeReceiver_OnOffCB_2:
        MOV     DPTR,#zclZigbeeRecv_OnOff
        MOVX    @DPTR,A
//  388 
//  389   else if ( cmd == COMMAND_OFF ) // Turn off the light
//  390     zclZigbeeRecv_OnOff = LIGHT_OFF;
//  391 
//  392   else // Toggle the light
//  393   {
//  394     if ( zclZigbeeRecv_OnOff == LIGHT_OFF )
//  395           zclZigbeeRecv_OnOff = LIGHT_ON;
//  396     else
//  397           zclZigbeeRecv_OnOff = LIGHT_OFF;
//  398   }
//  399 
//  400   // In this sample app, we use LED4 to simulate the Light  
//  401   if ( zclZigbeeRecv_OnOff == LIGHT_ON )
//  402   {
//  403     HalLedSet( HAL_LED_2, HAL_LED_MODE_ON ); // setting the LED_1 on
        ; Setup parameters for call to function HalLedSet
        MOV     R2,A
        MOV     R1,#0x2
        LCALL   ??HalLedSet?relay
//  404   }
//  405   else
//  406     HalLedSet( HAL_LED_2, HAL_LED_MODE_OFF ); // setting the LED_1 off
//  407 }
        SJMP    ?Subroutine10
??zclZigbeeReceiver_OnOffCB_0:
        MOV     A,R1
        JNZ     ??zclZigbeeReceiver_OnOffCB_3
??zclZigbeeReceiver_OnOffCB_4:
        CLR     A
        SJMP    ??zclZigbeeReceiver_OnOffCB_2
??zclZigbeeReceiver_OnOffCB_3:
        MOV     DPTR,#zclZigbeeRecv_OnOff
        MOVX    A,@DPTR
        JNZ     ??zclZigbeeReceiver_OnOffCB_4
        SJMP    ??zclZigbeeReceiver_OnOffCB_1
        CFI EndBlock cfiBlock124
//  408 
//  409 static void zclZigbeeReceiver_ProcessIncomingMsg( zclIncomingMsg_t *pInMsg)
//  410 {
//  411   switch ( pInMsg->zclHdr.commandID )
//  412   {
//  413 #ifdef ZCL_READ
//  414     case ZCL_CMD_READ_RSP:
//  415       zclZigbeeReceiver_ProcessInReadRspCmd( pInMsg );
//  416       break;
//  417 #endif
//  418       
//  419 #ifdef ZCL_WRITE    
//  420     case ZCL_CMD_WRITE_RSP:
//  421       zclZigbeeReceiver_ProcessInWriteRspCmd( pInMsg );
//  422       break;
//  423 #endif
//  424       
//  425 #ifdef ZCL_REPORT
//  426     case ZCL_CMD_CONFIG_REPORT: // See ZCL Test Applicaiton (zcl_testapp.c) for sample code on Attribute Reporting
//  427       break;
//  428     case ZCL_CMD_CONFIG_REPORT_RSP:
//  429       break;
//  430     case ZCL_CMD_READ_REPORT_CFG:
//  431       break;
//  432     case ZCL_CMD_READ_REPORT_CFG_RSP:
//  433       break;
//  434     case ZCL_CMD_REPORT:
//  435       break;
//  436 #endif   
//  437     case ZCL_CMD_DEFAULT_RSP:
//  438       zclZigbeeReceiver_ProcessInDefaultRspCmd( pInMsg );
//  439       break;
//  440 #ifdef ZCL_DISCOVER     
//  441     case ZCL_CMD_DISCOVER_RSP:
//  442       zclZigbeeReceiver_ProcessInDiscRspCmd( pInMsg );
//  443       break;
//  444 #endif
//  445       
//  446     default:
//  447       break;
//  448   }
//  449   if ( pInMsg->attrCmd )
//  450     osal_mem_free( pInMsg->attrCmd );
//  451 }
//  452 
//  453 #ifdef ZCL_READ
//  454 
//  455 static uint8 zclZigbeeReceiver_ProcessInReadRspCmd( zclIncomingMsg_t *pInMsg )
//  456 {
//  457   zclReadRspCmd_t *readRspCmd;
//  458   uint8 i;
//  459 
//  460   readRspCmd = (zclReadRspCmd_t *)pInMsg->attrCmd;
//  461   for (i = 0; i < readRspCmd->numAttr; i++)
//  462   {
//  463     // Notify the originator of the results of the original read attributes attempt and, 
//  464     // for each successfull request, the value of the requested attribute
//  465   }
//  466   return TRUE; 
//  467 }
//  468 #endif // ZCL_READ
//  469 
//  470 #ifdef ZCL_WRITE
//  471 
//  472 static uint8 zclZigbeeReceiver_ProcessInWriteRspCmd( zclIncomingMsg_t *pInMsg )
//  473 {
//  474   zclWriteRspCmd_t *writeRspCmd;
//  475   uint8 i;
//  476 
//  477   writeRspCmd = (zclWriteRspCmd_t *)pInMsg->attrCmd;
//  478   for (i = 0; i < writeRspCmd->numAttr; i++)
//  479   {
//  480     // Notify the device of the results of the its original write attributes command.
//  481   }
//  482   return TRUE; 
//  483 }
//  484 #endif // ZCL_WRITE
//  485 
//  486 static uint8 zclZigbeeReceiver_ProcessInDefaultRspCmd( zclIncomingMsg_t *pInMsg )
//  487 {
//  488   // Device is notified of the Default Response command.
//  489   (void)pInMsg;
//  490   return TRUE; 
//  491 }
//  492 
//  493 #ifdef ZCL_DISCOVER
//  494 static uint8 zclZigbeeReceiver_ProcessInDiscRspCmd( zclIncomingMsg_t *pInMsg )
//  495 {
//  496   zclDiscoverRspCmd_t *discoverRspCmd;
//  497   uint8 i;
//  498   
//  499   discoverRspCmd = (zclDiscoverRspCmd_t *)pInMsg->attrCmd;
//  500   for ( i = 0; i < discoverRspCmd->numAttr; i++ )
//  501   {
//  502     // Device is notified of the result of its attribute discovery command.
//  503   }
//  504   return TRUE;
//  505 }
//  506 #endif // ZCL_DISCOVER
//  507 

        RSEG BANKED_CODE:CODE:NOROOT(0)
//  508 void zclUARTMsg_CallBack(uint8 port, uint8 event)
zclUARTMsg_CallBack:
        CFI Block cfiBlock125 Using cfiCommon0
        CFI Function zclUARTMsg_CallBack
//  509 {
        FUNCALL zclUARTMsg_CallBack, Hal_UART_RxBufLen
        LOCFRAME ISTACK, 0, STACK
        LOCFRAME PSTACK, 0, STACK
        LOCFRAME XSTACK, 10, STACK
        LOCFRAME IOVERLAY, 0, STATIC
        LOCFRAME DOVERLAY, 0, STATIC
        ARGFRAME ISTACK, 0, STACK
        ARGFRAME PSTACK, 0, STACK
        ARGFRAME XSTACK, 10, STACK
        ARGFRAME IOVERLAY, 0, STATIC
        ARGFRAME DOVERLAY, 0, STATIC
        FUNCALL zclUARTMsg_CallBack, Hal_UART_RxBufLen
        LOCFRAME ISTACK, 0, STACK
        LOCFRAME PSTACK, 0, STACK
        LOCFRAME XSTACK, 10, STACK
        LOCFRAME IOVERLAY, 0, STATIC
        LOCFRAME DOVERLAY, 0, STATIC
        ARGFRAME ISTACK, 0, STACK
        ARGFRAME PSTACK, 0, STACK
        ARGFRAME XSTACK, 10, STACK
        ARGFRAME IOVERLAY, 0, STATIC
        ARGFRAME DOVERLAY, 0, STATIC
        FUNCALL zclUARTMsg_CallBack, HalUARTRead
        LOCFRAME ISTACK, 0, STACK
        LOCFRAME PSTACK, 0, STACK
        LOCFRAME XSTACK, 10, STACK
        LOCFRAME IOVERLAY, 0, STATIC
        LOCFRAME DOVERLAY, 0, STATIC
        ARGFRAME ISTACK, 0, STACK
        ARGFRAME PSTACK, 0, STACK
        ARGFRAME XSTACK, 10, STACK
        ARGFRAME IOVERLAY, 0, STATIC
        ARGFRAME DOVERLAY, 0, STATIC
        FUNCALL zclUARTMsg_CallBack, osal_set_event
        LOCFRAME ISTACK, 0, STACK
        LOCFRAME PSTACK, 0, STACK
        LOCFRAME XSTACK, 10, STACK
        LOCFRAME IOVERLAY, 0, STATIC
        LOCFRAME DOVERLAY, 0, STATIC
        ARGFRAME ISTACK, 0, STACK
        ARGFRAME PSTACK, 0, STACK
        ARGFRAME XSTACK, 10, STACK
        ARGFRAME IOVERLAY, 0, STATIC
        ARGFRAME DOVERLAY, 0, STATIC
        MOV     A,#-0xa
        LCALL   ?BANKED_ENTER_XDATA
        CFI DPH0 load(1, XDATA, add(CFA_XSP16, literal(-1)))
        CFI DPL0 load(1, XDATA, add(CFA_XSP16, literal(-2)))
        CFI ?BRET_EXT load(1, XDATA, add(CFA_XSP16, literal(-3)))
        CFI ?RET_HIGH load(1, XDATA, add(CFA_XSP16, literal(-4)))
        CFI ?RET_LOW load(1, XDATA, add(CFA_XSP16, literal(-5)))
        CFI R7 load(1, XDATA, add(CFA_XSP16, literal(-6)))
        CFI V1 load(1, XDATA, add(CFA_XSP16, literal(-7)))
        CFI V0 load(1, XDATA, add(CFA_XSP16, literal(-8)))
        CFI VB load(1, XDATA, add(CFA_XSP16, literal(-9)))
        CFI R6 load(1, XDATA, add(CFA_XSP16, literal(-10)))
        CFI CFA_SP SP+0
        CFI CFA_XSP16 add(XSP16, 10)
        ; Saved register size: 10
        ; Auto size: 0
//  510   (void)port;
//  511   
//  512   if(Hal_UART_RxBufLen( MT_UART_DEFAULT_PORT) > 0 )
        ; Setup parameters for call to function Hal_UART_RxBufLen
        MOV     R1,#0x0
        LCALL   ??Hal_UART_RxBufLen?relay
        MOV     A,R2
        JNZ     ??zclUARTMsg_CallBack_0
        MOV     A,R3
??zclUARTMsg_CallBack_0:
        JZ      ??zclUARTMsg_CallBack_1
//  513   {
//  514       len = Hal_UART_RxBufLen( MT_UART_DEFAULT_PORT );
        ; Setup parameters for call to function Hal_UART_RxBufLen
        MOV     R1,#0x0
        LCALL   ??Hal_UART_RxBufLen?relay
        MOV     A,R2
        MOV     DPTR,#len
        MOVX    @DPTR,A
//  515       HalUARTRead( MT_UART_DEFAULT_PORT, TransmitApp_Msg, len );
        ; Setup parameters for call to function HalUARTRead
        MOV     R4,A
        MOV     R5,#0x0
        MOV     R2,#(TransmitApp_Msg & 0xff)
        MOV     R3,#((TransmitApp_Msg >> 8) & 0xff)
        MOV     R1,#0x0
        LCALL   ??HalUARTRead?relay
//  516       osal_set_event( zclZigbeeReceiver_TaskID, UART_MSG_EVT );
        ; Setup parameters for call to function osal_set_event
        MOV     R2,#0x2
        MOV     R3,#0x0
        MOV     DPTR,#zclZigbeeReceiver_TaskID
        MOVX    A,@DPTR
        MOV     R1,A
        LCALL   ??osal_set_event?relay
        CFI EndBlock cfiBlock125
//  517   }
//  518 }
??zclUARTMsg_CallBack_1:
        REQUIRE ?Subroutine11
        ; // Fall through to label ?Subroutine11

        RSEG BANKED_CODE:CODE:NOROOT(0)
?Subroutine11:
        CFI Block cfiBlock126 Using cfiCommon0
        CFI NoFunction
        CFI CFA_SP SP+0
        CFI CFA_XSP16 add(XSP16, 10)
        CFI VB load(1, XDATA, add(CFA_XSP16, literal(-9)))
        CFI DPL0 load(1, XDATA, add(CFA_XSP16, literal(-2)))
        CFI DPH0 load(1, XDATA, add(CFA_XSP16, literal(-1)))
        CFI R6 load(1, XDATA, add(CFA_XSP16, literal(-10)))
        CFI R7 load(1, XDATA, add(CFA_XSP16, literal(-6)))
        CFI V0 load(1, XDATA, add(CFA_XSP16, literal(-8)))
        CFI V1 load(1, XDATA, add(CFA_XSP16, literal(-7)))
        CFI ?BRET_EXT load(1, XDATA, add(CFA_XSP16, literal(-3)))
        CFI ?RET_HIGH load(1, XDATA, add(CFA_XSP16, literal(-4)))
        CFI ?RET_LOW load(1, XDATA, add(CFA_XSP16, literal(-5)))
        MOV     R7,#0x2
        LJMP    ?BANKED_LEAVE_XDATA
        CFI EndBlock cfiBlock126
//  519 

        RSEG BANKED_CODE:CODE:NOROOT(0)
//  520 void zclUartReceiver( void )
zclUartReceiver:
        CFI Block cfiBlock127 Using cfiCommon0
        CFI Function zclUartReceiver
//  521 { 
        FUNCALL zclUartReceiver, HalUARTWrite
        LOCFRAME ISTACK, 0, STACK
        LOCFRAME PSTACK, 0, STACK
        LOCFRAME XSTACK, 10, STACK
        LOCFRAME IOVERLAY, 0, STATIC
        LOCFRAME DOVERLAY, 0, STATIC
        ARGFRAME ISTACK, 0, STACK
        ARGFRAME PSTACK, 0, STACK
        ARGFRAME XSTACK, 10, STACK
        ARGFRAME IOVERLAY, 0, STATIC
        ARGFRAME DOVERLAY, 0, STATIC
        FUNCALL zclUartReceiver, zcl_SendCommand
        LOCFRAME ISTACK, 0, STACK
        LOCFRAME PSTACK, 0, STACK
        LOCFRAME XSTACK, 21, STACK
        LOCFRAME IOVERLAY, 0, STATIC
        LOCFRAME DOVERLAY, 0, STATIC
        ARGFRAME ISTACK, 0, STACK
        ARGFRAME PSTACK, 0, STACK
        ARGFRAME XSTACK, 21, STACK
        ARGFRAME IOVERLAY, 0, STATIC
        ARGFRAME DOVERLAY, 0, STATIC
        MOV     A,#-0xa
        LCALL   ?BANKED_ENTER_XDATA
        CFI DPH0 load(1, XDATA, add(CFA_XSP16, literal(-1)))
        CFI DPL0 load(1, XDATA, add(CFA_XSP16, literal(-2)))
        CFI ?BRET_EXT load(1, XDATA, add(CFA_XSP16, literal(-3)))
        CFI ?RET_HIGH load(1, XDATA, add(CFA_XSP16, literal(-4)))
        CFI ?RET_LOW load(1, XDATA, add(CFA_XSP16, literal(-5)))
        CFI R7 load(1, XDATA, add(CFA_XSP16, literal(-6)))
        CFI V1 load(1, XDATA, add(CFA_XSP16, literal(-7)))
        CFI V0 load(1, XDATA, add(CFA_XSP16, literal(-8)))
        CFI VB load(1, XDATA, add(CFA_XSP16, literal(-9)))
        CFI R6 load(1, XDATA, add(CFA_XSP16, literal(-10)))
        CFI CFA_SP SP+0
        CFI CFA_XSP16 add(XSP16, 10)
        ; Saved register size: 10
        ; Auto size: 0
//  522   for(uint8 length = 0; length < len; length++)
        MOV     R2,#0x0
        SJMP    ??zclUartReceiver_0
//  523   {
//  524     uart_recv[length] = TransmitApp_Msg[length];
??zclUartReceiver_1:
        MOV     DPL,R2
        MOV     R0,DPL
        MOV     A,R0
        ADD     A,#(TransmitApp_Msg & 0xff)
        MOV     DPL,A
        CLR     A
        ADDC    A,#((TransmitApp_Msg >> 8) & 0xff)
        MOV     DPH,A
        MOVX    A,@DPTR
        PUSH    A
        CFI CFA_SP SP+-1
        MOV     A,R0
        ADD     A,#(uart_recv & 0xff)
        MOV     DPL,A
        CLR     A
        ADDC    A,#((uart_recv >> 8) & 0xff)
        MOV     DPH,A
        POP     A
        CFI CFA_SP SP+0
        MOVX    @DPTR,A
//  525   }
        INC     R2
??zclUartReceiver_0:
        MOV     DPTR,#len
        MOVX    A,@DPTR
        MOV     R3,A
        MOV     A,R2
        CLR     C
        SUBB    A,R3
        JC      ??zclUartReceiver_1
//  526 
//  527   HalUARTWrite(MT_UART_DEFAULT_PORT, uart_recv, len);    
        ; Setup parameters for call to function HalUARTWrite
        LCALL   ?Subroutine1 & 0xFFFF
??CrossCallReturnLabel_17:
        MOV     R2,#(uart_recv & 0xff)
        MOV     R3,#((uart_recv >> 8) & 0xff)
        MOV     R1,#0x0
        LCALL   ??HalUARTWrite?relay
//  528   
//  529   // Set the End Device state
//  530   zclZigbeeRecv_DstAddr.endPoint = 12;
        MOV     A,#0xc
        MOV     DPTR,#(zclZigbeeRecv_DstAddr + 9)
        MOVX    @DPTR,A
//  531   zclZigbeeRecv_DstAddr.addr.shortAddr = 0xFFFF;
        MOV     DPTR,#zclZigbeeRecv_DstAddr
        MOV     A,#-0x1
        MOVX    @DPTR,A
        INC     DPTR
        MOVX    @DPTR,A
//  532   zclZigbeeRecv_DstAddr.addrMode = (afAddrMode_t)AddrBroadcast;
        MOV     A,#0xf
        MOV     DPTR,#(zclZigbeeRecv_DstAddr + 8)
        MOVX    @DPTR,A
//  533     
//  534   // Transmit the UART command to End Device
//  535   uint8 send = zcl_SendCommand( ZIGBEERECV_ENDPOINT, 
//  536                                 &zclZigbeeRecv_DstAddr,
//  537                                 ZCL_CLUSTER_ID_GEN_ON_OFF,
//  538                                 COMMAND_TOGGLE,
//  539                                 TRUE,
//  540                                 ZCL_FRAME_CLIENT_SERVER_DIR,
//  541                                 false,
//  542                                 0,
//  543                                 0,
//  544                                 10,
//  545                                 uart_recv );
        ; Setup parameters for call to function zcl_SendCommand
        MOV     ?V0 + 0,#(uart_recv & 0xff)
        MOV     ?V0 + 1,#((uart_recv >> 8) & 0xff)
        MOV     R0,#?V0 + 0
        LCALL   ?PUSH_XSTACK_I_TWO
        CFI CFA_XSP16 add(XSP16, 12)
        MOV     ?V0 + 0,#0xa
        MOV     ?V0 + 1,#0x0
        MOV     R0,#?V0 + 0
        LCALL   ?PUSH_XSTACK_I_TWO
        CFI CFA_XSP16 add(XSP16, 14)
        MOV     ?V0 + 0,#0x0
        MOV     R0,#?V0 + 0
        LCALL   ?PUSH_XSTACK_I_ONE
        CFI CFA_XSP16 add(XSP16, 15)
        MOV     R0,#?V0 + 0
        LCALL   ?PUSH_XSTACK_I_TWO
        CFI CFA_XSP16 add(XSP16, 17)
        MOV     R0,#?V0 + 0
        LCALL   ?PUSH_XSTACK_I_ONE
        CFI CFA_XSP16 add(XSP16, 18)
        MOV     R0,#?V0 + 0
        LCALL   ?PUSH_XSTACK_I_ONE
        CFI CFA_XSP16 add(XSP16, 19)
        MOV     ?V0 + 0,#0x1
        MOV     R0,#?V0 + 0
        LCALL   ?PUSH_XSTACK_I_ONE
        CFI CFA_XSP16 add(XSP16, 20)
        MOV     ?V0 + 0,#0x2
        MOV     R0,#?V0 + 0
        LCALL   ?PUSH_XSTACK_I_ONE
        CFI CFA_XSP16 add(XSP16, 21)
        MOV     R4,#0x6
        MOV     R5,#0x0
        MOV     R2,#(zclZigbeeRecv_DstAddr & 0xff)
        MOV     R3,#((zclZigbeeRecv_DstAddr >> 8) & 0xff)
        MOV     R1,#0xd
        LCALL   ??zcl_SendCommand?relay
        MOV     A,#0xb
        LCALL   ?DEALLOC_XSTACK8
        CFI CFA_XSP16 add(XSP16, 10)
//  546 }
        LJMP    ?Subroutine11 & 0xFFFF
        CFI EndBlock cfiBlock127

        RSEG BANKED_CODE:CODE:NOROOT(0)
?Subroutine1:
        CFI Block cfiCond128 Using cfiCommon0
        CFI NoFunction
        CFI Conditional ??CrossCallReturnLabel_8
        CFI R6 load(1, XDATA, add(CFA_XSP16, literal(-14)))
        CFI VB load(1, XDATA, add(CFA_XSP16, literal(-13)))
        CFI V0 load(1, XDATA, add(CFA_XSP16, literal(-12)))
        CFI V1 load(1, XDATA, add(CFA_XSP16, literal(-11)))
        CFI V2 load(1, XDATA, add(CFA_XSP16, literal(-10)))
        CFI V3 load(1, XDATA, add(CFA_XSP16, literal(-9)))
        CFI V4 load(1, XDATA, add(CFA_XSP16, literal(-8)))
        CFI V5 load(1, XDATA, add(CFA_XSP16, literal(-7)))
        CFI R7 load(1, XDATA, add(CFA_XSP16, literal(-6)))
        CFI ?RET_LOW load(1, XDATA, add(CFA_XSP16, literal(-5)))
        CFI ?RET_HIGH load(1, XDATA, add(CFA_XSP16, literal(-4)))
        CFI ?BRET_EXT load(1, XDATA, add(CFA_XSP16, literal(-3)))
        CFI DPL0 load(1, XDATA, add(CFA_XSP16, literal(-2)))
        CFI DPH0 load(1, XDATA, add(CFA_XSP16, literal(-1)))
        CFI CFA_SP SP+0
        CFI CFA_XSP16 add(XSP16, 14)
        CFI Block cfiCond129 Using cfiCommon0
        CFI (cfiCond129) NoFunction
        CFI (cfiCond129) Conditional ??CrossCallReturnLabel_9
        CFI (cfiCond129) R6 load(1, XDATA, add(CFA_XSP16, literal(-14)))
        CFI (cfiCond129) VB load(1, XDATA, add(CFA_XSP16, literal(-13)))
        CFI (cfiCond129) V0 load(1, XDATA, add(CFA_XSP16, literal(-12)))
        CFI (cfiCond129) V1 load(1, XDATA, add(CFA_XSP16, literal(-11)))
        CFI (cfiCond129) V2 load(1, XDATA, add(CFA_XSP16, literal(-10)))
        CFI (cfiCond129) V3 load(1, XDATA, add(CFA_XSP16, literal(-9)))
        CFI (cfiCond129) V4 load(1, XDATA, add(CFA_XSP16, literal(-8)))
        CFI (cfiCond129) V5 load(1, XDATA, add(CFA_XSP16, literal(-7)))
        CFI (cfiCond129) R7 load(1, XDATA, add(CFA_XSP16, literal(-6)))
        CFI (cfiCond129) ?RET_LOW load(1, XDATA, add(CFA_XSP16, literal(-5)))
        CFI (cfiCond129) ?RET_HIGH load(1, XDATA, add(CFA_XSP16, literal(-4)))
        CFI (cfiCond129) ?BRET_EXT load(1, XDATA, add(CFA_XSP16, literal(-3)))
        CFI (cfiCond129) DPL0 load(1, XDATA, add(CFA_XSP16, literal(-2)))
        CFI (cfiCond129) DPH0 load(1, XDATA, add(CFA_XSP16, literal(-1)))
        CFI (cfiCond129) CFA_SP SP+0
        CFI (cfiCond129) CFA_XSP16 add(XSP16, 14)
        CFI Block cfiCond130 Using cfiCommon0
        CFI (cfiCond130) NoFunction
        CFI (cfiCond130) Conditional ??CrossCallReturnLabel_10
        CFI (cfiCond130) R6 load(1, XDATA, add(CFA_XSP16, literal(-14)))
        CFI (cfiCond130) VB load(1, XDATA, add(CFA_XSP16, literal(-13)))
        CFI (cfiCond130) V0 load(1, XDATA, add(CFA_XSP16, literal(-12)))
        CFI (cfiCond130) V1 load(1, XDATA, add(CFA_XSP16, literal(-11)))
        CFI (cfiCond130) V2 load(1, XDATA, add(CFA_XSP16, literal(-10)))
        CFI (cfiCond130) V3 load(1, XDATA, add(CFA_XSP16, literal(-9)))
        CFI (cfiCond130) V4 load(1, XDATA, add(CFA_XSP16, literal(-8)))
        CFI (cfiCond130) V5 load(1, XDATA, add(CFA_XSP16, literal(-7)))
        CFI (cfiCond130) R7 load(1, XDATA, add(CFA_XSP16, literal(-6)))
        CFI (cfiCond130) ?RET_LOW load(1, XDATA, add(CFA_XSP16, literal(-5)))
        CFI (cfiCond130) ?RET_HIGH load(1, XDATA, add(CFA_XSP16, literal(-4)))
        CFI (cfiCond130) ?BRET_EXT load(1, XDATA, add(CFA_XSP16, literal(-3)))
        CFI (cfiCond130) DPL0 load(1, XDATA, add(CFA_XSP16, literal(-2)))
        CFI (cfiCond130) DPH0 load(1, XDATA, add(CFA_XSP16, literal(-1)))
        CFI (cfiCond130) CFA_SP SP+0
        CFI (cfiCond130) CFA_XSP16 add(XSP16, 14)
        CFI Block cfiCond131 Using cfiCommon0
        CFI (cfiCond131) NoFunction
        CFI (cfiCond131) Conditional ??CrossCallReturnLabel_11
        CFI (cfiCond131) R6 load(1, XDATA, add(CFA_XSP16, literal(-14)))
        CFI (cfiCond131) VB load(1, XDATA, add(CFA_XSP16, literal(-13)))
        CFI (cfiCond131) V0 load(1, XDATA, add(CFA_XSP16, literal(-12)))
        CFI (cfiCond131) V1 load(1, XDATA, add(CFA_XSP16, literal(-11)))
        CFI (cfiCond131) V2 load(1, XDATA, add(CFA_XSP16, literal(-10)))
        CFI (cfiCond131) V3 load(1, XDATA, add(CFA_XSP16, literal(-9)))
        CFI (cfiCond131) V4 load(1, XDATA, add(CFA_XSP16, literal(-8)))
        CFI (cfiCond131) V5 load(1, XDATA, add(CFA_XSP16, literal(-7)))
        CFI (cfiCond131) R7 load(1, XDATA, add(CFA_XSP16, literal(-6)))
        CFI (cfiCond131) ?RET_LOW load(1, XDATA, add(CFA_XSP16, literal(-5)))
        CFI (cfiCond131) ?RET_HIGH load(1, XDATA, add(CFA_XSP16, literal(-4)))
        CFI (cfiCond131) ?BRET_EXT load(1, XDATA, add(CFA_XSP16, literal(-3)))
        CFI (cfiCond131) DPL0 load(1, XDATA, add(CFA_XSP16, literal(-2)))
        CFI (cfiCond131) DPH0 load(1, XDATA, add(CFA_XSP16, literal(-1)))
        CFI (cfiCond131) CFA_SP SP+0
        CFI (cfiCond131) CFA_XSP16 add(XSP16, 14)
        CFI Block cfiCond132 Using cfiCommon0
        CFI (cfiCond132) NoFunction
        CFI (cfiCond132) Conditional ??CrossCallReturnLabel_12
        CFI (cfiCond132) R6 load(1, XDATA, add(CFA_XSP16, literal(-14)))
        CFI (cfiCond132) VB load(1, XDATA, add(CFA_XSP16, literal(-13)))
        CFI (cfiCond132) V0 load(1, XDATA, add(CFA_XSP16, literal(-12)))
        CFI (cfiCond132) V1 load(1, XDATA, add(CFA_XSP16, literal(-11)))
        CFI (cfiCond132) V2 load(1, XDATA, add(CFA_XSP16, literal(-10)))
        CFI (cfiCond132) V3 load(1, XDATA, add(CFA_XSP16, literal(-9)))
        CFI (cfiCond132) V4 load(1, XDATA, add(CFA_XSP16, literal(-8)))
        CFI (cfiCond132) V5 load(1, XDATA, add(CFA_XSP16, literal(-7)))
        CFI (cfiCond132) R7 load(1, XDATA, add(CFA_XSP16, literal(-6)))
        CFI (cfiCond132) ?RET_LOW load(1, XDATA, add(CFA_XSP16, literal(-5)))
        CFI (cfiCond132) ?RET_HIGH load(1, XDATA, add(CFA_XSP16, literal(-4)))
        CFI (cfiCond132) ?BRET_EXT load(1, XDATA, add(CFA_XSP16, literal(-3)))
        CFI (cfiCond132) DPL0 load(1, XDATA, add(CFA_XSP16, literal(-2)))
        CFI (cfiCond132) DPH0 load(1, XDATA, add(CFA_XSP16, literal(-1)))
        CFI (cfiCond132) CFA_SP SP+0
        CFI (cfiCond132) CFA_XSP16 add(XSP16, 14)
        CFI Block cfiCond133 Using cfiCommon0
        CFI (cfiCond133) NoFunction
        CFI (cfiCond133) Conditional ??CrossCallReturnLabel_13
        CFI (cfiCond133) R6 load(1, XDATA, add(CFA_XSP16, literal(-14)))
        CFI (cfiCond133) VB load(1, XDATA, add(CFA_XSP16, literal(-13)))
        CFI (cfiCond133) V0 load(1, XDATA, add(CFA_XSP16, literal(-12)))
        CFI (cfiCond133) V1 load(1, XDATA, add(CFA_XSP16, literal(-11)))
        CFI (cfiCond133) V2 load(1, XDATA, add(CFA_XSP16, literal(-10)))
        CFI (cfiCond133) V3 load(1, XDATA, add(CFA_XSP16, literal(-9)))
        CFI (cfiCond133) V4 load(1, XDATA, add(CFA_XSP16, literal(-8)))
        CFI (cfiCond133) V5 load(1, XDATA, add(CFA_XSP16, literal(-7)))
        CFI (cfiCond133) R7 load(1, XDATA, add(CFA_XSP16, literal(-6)))
        CFI (cfiCond133) ?RET_LOW load(1, XDATA, add(CFA_XSP16, literal(-5)))
        CFI (cfiCond133) ?RET_HIGH load(1, XDATA, add(CFA_XSP16, literal(-4)))
        CFI (cfiCond133) ?BRET_EXT load(1, XDATA, add(CFA_XSP16, literal(-3)))
        CFI (cfiCond133) DPL0 load(1, XDATA, add(CFA_XSP16, literal(-2)))
        CFI (cfiCond133) DPH0 load(1, XDATA, add(CFA_XSP16, literal(-1)))
        CFI (cfiCond133) CFA_SP SP+0
        CFI (cfiCond133) CFA_XSP16 add(XSP16, 14)
        CFI Block cfiCond134 Using cfiCommon0
        CFI (cfiCond134) NoFunction
        CFI (cfiCond134) Conditional ??CrossCallReturnLabel_14
        CFI (cfiCond134) R6 load(1, XDATA, add(CFA_XSP16, literal(-14)))
        CFI (cfiCond134) VB load(1, XDATA, add(CFA_XSP16, literal(-13)))
        CFI (cfiCond134) V0 load(1, XDATA, add(CFA_XSP16, literal(-12)))
        CFI (cfiCond134) V1 load(1, XDATA, add(CFA_XSP16, literal(-11)))
        CFI (cfiCond134) V2 load(1, XDATA, add(CFA_XSP16, literal(-10)))
        CFI (cfiCond134) V3 load(1, XDATA, add(CFA_XSP16, literal(-9)))
        CFI (cfiCond134) V4 load(1, XDATA, add(CFA_XSP16, literal(-8)))
        CFI (cfiCond134) V5 load(1, XDATA, add(CFA_XSP16, literal(-7)))
        CFI (cfiCond134) R7 load(1, XDATA, add(CFA_XSP16, literal(-6)))
        CFI (cfiCond134) ?RET_LOW load(1, XDATA, add(CFA_XSP16, literal(-5)))
        CFI (cfiCond134) ?RET_HIGH load(1, XDATA, add(CFA_XSP16, literal(-4)))
        CFI (cfiCond134) ?BRET_EXT load(1, XDATA, add(CFA_XSP16, literal(-3)))
        CFI (cfiCond134) DPL0 load(1, XDATA, add(CFA_XSP16, literal(-2)))
        CFI (cfiCond134) DPH0 load(1, XDATA, add(CFA_XSP16, literal(-1)))
        CFI (cfiCond134) CFA_SP SP+0
        CFI (cfiCond134) CFA_XSP16 add(XSP16, 14)
        CFI Block cfiCond135 Using cfiCommon0
        CFI (cfiCond135) NoFunction
        CFI (cfiCond135) Conditional ??CrossCallReturnLabel_15
        CFI (cfiCond135) R6 load(1, XDATA, add(CFA_XSP16, literal(-14)))
        CFI (cfiCond135) VB load(1, XDATA, add(CFA_XSP16, literal(-13)))
        CFI (cfiCond135) V0 load(1, XDATA, add(CFA_XSP16, literal(-12)))
        CFI (cfiCond135) V1 load(1, XDATA, add(CFA_XSP16, literal(-11)))
        CFI (cfiCond135) V2 load(1, XDATA, add(CFA_XSP16, literal(-10)))
        CFI (cfiCond135) V3 load(1, XDATA, add(CFA_XSP16, literal(-9)))
        CFI (cfiCond135) V4 load(1, XDATA, add(CFA_XSP16, literal(-8)))
        CFI (cfiCond135) V5 load(1, XDATA, add(CFA_XSP16, literal(-7)))
        CFI (cfiCond135) R7 load(1, XDATA, add(CFA_XSP16, literal(-6)))
        CFI (cfiCond135) ?RET_LOW load(1, XDATA, add(CFA_XSP16, literal(-5)))
        CFI (cfiCond135) ?RET_HIGH load(1, XDATA, add(CFA_XSP16, literal(-4)))
        CFI (cfiCond135) ?BRET_EXT load(1, XDATA, add(CFA_XSP16, literal(-3)))
        CFI (cfiCond135) DPL0 load(1, XDATA, add(CFA_XSP16, literal(-2)))
        CFI (cfiCond135) DPH0 load(1, XDATA, add(CFA_XSP16, literal(-1)))
        CFI (cfiCond135) CFA_SP SP+0
        CFI (cfiCond135) CFA_XSP16 add(XSP16, 14)
        CFI Block cfiCond136 Using cfiCommon0
        CFI (cfiCond136) NoFunction
        CFI (cfiCond136) Conditional ??CrossCallReturnLabel_16
        CFI (cfiCond136) R6 load(1, XDATA, add(CFA_XSP16, literal(-14)))
        CFI (cfiCond136) VB load(1, XDATA, add(CFA_XSP16, literal(-13)))
        CFI (cfiCond136) V0 load(1, XDATA, add(CFA_XSP16, literal(-12)))
        CFI (cfiCond136) V1 load(1, XDATA, add(CFA_XSP16, literal(-11)))
        CFI (cfiCond136) V2 load(1, XDATA, add(CFA_XSP16, literal(-10)))
        CFI (cfiCond136) V3 load(1, XDATA, add(CFA_XSP16, literal(-9)))
        CFI (cfiCond136) V4 load(1, XDATA, add(CFA_XSP16, literal(-8)))
        CFI (cfiCond136) V5 load(1, XDATA, add(CFA_XSP16, literal(-7)))
        CFI (cfiCond136) R7 load(1, XDATA, add(CFA_XSP16, literal(-6)))
        CFI (cfiCond136) ?RET_LOW load(1, XDATA, add(CFA_XSP16, literal(-5)))
        CFI (cfiCond136) ?RET_HIGH load(1, XDATA, add(CFA_XSP16, literal(-4)))
        CFI (cfiCond136) ?BRET_EXT load(1, XDATA, add(CFA_XSP16, literal(-3)))
        CFI (cfiCond136) DPL0 load(1, XDATA, add(CFA_XSP16, literal(-2)))
        CFI (cfiCond136) DPH0 load(1, XDATA, add(CFA_XSP16, literal(-1)))
        CFI (cfiCond136) CFA_SP SP+0
        CFI (cfiCond136) CFA_XSP16 add(XSP16, 14)
        CFI Block cfiCond137 Using cfiCommon0
        CFI (cfiCond137) NoFunction
        CFI (cfiCond137) Conditional ??CrossCallReturnLabel_17
        CFI (cfiCond137) R6 load(1, XDATA, add(CFA_XSP16, literal(-10)))
        CFI (cfiCond137) VB load(1, XDATA, add(CFA_XSP16, literal(-9)))
        CFI (cfiCond137) V0 load(1, XDATA, add(CFA_XSP16, literal(-8)))
        CFI (cfiCond137) V1 load(1, XDATA, add(CFA_XSP16, literal(-7)))
        CFI (cfiCond137) R7 load(1, XDATA, add(CFA_XSP16, literal(-6)))
        CFI (cfiCond137) ?RET_LOW load(1, XDATA, add(CFA_XSP16, literal(-5)))
        CFI (cfiCond137) ?RET_HIGH load(1, XDATA, add(CFA_XSP16, literal(-4)))
        CFI (cfiCond137) ?BRET_EXT load(1, XDATA, add(CFA_XSP16, literal(-3)))
        CFI (cfiCond137) DPL0 load(1, XDATA, add(CFA_XSP16, literal(-2)))
        CFI (cfiCond137) DPH0 load(1, XDATA, add(CFA_XSP16, literal(-1)))
        CFI (cfiCond137) CFA_SP SP+0
        CFI (cfiCond137) CFA_XSP16 add(XSP16, 10)
        CFI Block cfiPicker138 Using cfiCommon1
        CFI (cfiPicker138) NoFunction
        CFI (cfiPicker138) Picker
        MOVX    A,@DPTR
        MOV     R4,A
        MOV     R5,#0x0
        RET
        CFI EndBlock cfiCond128
        CFI EndBlock cfiCond129
        CFI EndBlock cfiCond130
        CFI EndBlock cfiCond131
        CFI EndBlock cfiCond132
        CFI EndBlock cfiCond133
        CFI EndBlock cfiCond134
        CFI EndBlock cfiCond135
        CFI EndBlock cfiCond136
        CFI EndBlock cfiCond137
        CFI EndBlock cfiPicker138

        RSEG XDATA_ID:CODE:NOROOT(0)
        DATA
`?<Initializer for zigbeeReceiver_TestEp>`:
        DB 20
        DW zclZigbeeReceiver_TaskID, 0H
        DB 0

        RSEG XDATA_ID:CODE:NOROOT(0)
        DATA
`?<Initializer for zclZigbeeReceiver_CmdCallbac`:
        DW ??zclZigbeeReceiver_BasicResetCB?relay
        DW ??zclZigbeeReceiver_IdentifyCB?relay
        DW ??zclZigbeeReceiver_IdentifyQueryRspCB?relay
        DW ??zclZigbeeReceiver_OnOffCB?relay, 0H, 0H, 0H, 0H, 0H, 0H, 0H, 0H
        DW 0H, 0H
        DB 0, 0

        RSEG BANK_RELAYS:CODE:REORDER:NOROOT(0)
??ZSendMsgProcess?relay:
        LCALL   ?BDISPATCH
        DATA
        DC24    ZSendMsgProcess

        RSEG BANK_RELAYS:CODE:REORDER:NOROOT(0)
??zclZigbeeRecv_Init?relay:
        LCALL   ?BDISPATCH
        DATA
        DC24    zclZigbeeRecv_Init

        RSEG BANK_RELAYS:CODE:REORDER:NOROOT(0)
??zclZigbeeRecv_event_loop?relay:
        LCALL   ?BDISPATCH
        DATA
        DC24    zclZigbeeRecv_event_loop

        RSEG BANK_RELAYS:CODE:REORDER:NOROOT(0)
??zclZigbeeReceiver_ProcessIdentifyTimeChange?r:
        LCALL   ?BDISPATCH
        DATA
        DC24    zclZigbeeReceiver_ProcessIdentifyTimeChange

        RSEG BANK_RELAYS:CODE:REORDER:NOROOT(0)
??zclZigbeeReceiver_BasicResetCB?relay:
        LCALL   ?BDISPATCH
        DATA
        DC24    zclZigbeeReceiver_BasicResetCB

        RSEG BANK_RELAYS:CODE:REORDER:NOROOT(0)
??zclZigbeeReceiver_IdentifyCB?relay:
        LCALL   ?BDISPATCH
        DATA
        DC24    zclZigbeeReceiver_IdentifyCB

        RSEG BANK_RELAYS:CODE:REORDER:NOROOT(0)
??zclZigbeeReceiver_IdentifyQueryRspCB?relay:
        LCALL   ?BDISPATCH
        DATA
        DC24    zclZigbeeReceiver_IdentifyQueryRspCB

        RSEG BANK_RELAYS:CODE:REORDER:NOROOT(0)
??zclZigbeeReceiver_OnOffCB?relay:
        LCALL   ?BDISPATCH
        DATA
        DC24    zclZigbeeReceiver_OnOffCB

        RSEG BANK_RELAYS:CODE:REORDER:NOROOT(0)
??zclUARTMsg_CallBack?relay:
        LCALL   ?BDISPATCH
        DATA
        DC24    zclUARTMsg_CallBack

        RSEG BANK_RELAYS:CODE:REORDER:NOROOT(0)
??zclUartReceiver?relay:
        LCALL   ?BDISPATCH
        DATA
        DC24    zclUartReceiver

        RSEG XDATA_ROM_C:CONST:REORDER:NOROOT(0)
        DATA
`?<Constant "3">`:
        DB "3"

        RSEG XDATA_ROM_C:CONST:REORDER:NOROOT(0)
        DATA
`?<Constant ",">`:
        DB ","

        RSEG XDATA_ROM_C:CONST:REORDER:NOROOT(0)
        DATA
`?<Constant "$\\r\\n">`:
        DB "$\015\012"

        RSEG XDATA_ROM_C:CONST:REORDER:NOROOT(0)
        DATA
`?<Constant "RECV_GROUP">`:
        DB "RECV_GROUP"

        END
// 
// 1 377 bytes in segment BANKED_CODE
//    60 bytes in segment BANK_RELAYS
//    36 bytes in segment XDATA_I
//    36 bytes in segment XDATA_ID
//    19 bytes in segment XDATA_ROM_C
//   342 bytes in segment XDATA_Z
// 
// 1 473 bytes of CODE  memory
//    19 bytes of CONST memory
//   378 bytes of XDATA memory
//
//Errors: none
//Warnings: 10
