###############################################################################
#                                                                             #
# IAR C/C++ Compiler V7.51A/W32 for 8051                16/Aug/2013  02:06:23 #
# Copyright 2004-2009 IAR Systems AB.                                         #
#                                                                             #
#    Core               =  plain                                              #
#    Code model         =  banked                                             #
#    Data model         =  large                                              #
#    Calling convention =  xdata reentrant                                    #
#    Constant location  =  data_rom                                           #
#    Dptr setup         =  1,16                                               #
#    Source file        =  D:\z-stack_813\z-stack\Sensor Network              #
#                          Example\Projects\zstack\Sensor Network             #
#                          Application\ZIGBEE Coordinator &                   #
#                          Router\Source\zcl_zigbee receiver.c                #
#    Command line       =  -f "D:\z-stack_813\z-stack\Sensor Network          #
#                          Example\Projects\zstack\Sensor Network             #
#                          Application\ZIGBEE Coordinator &                   #
#                          Router\CC2530DB\..\..\..\Tools\CC2530DB\f8wCoord.c #
#                          fg" (-DCPU32MHZ -DROOT=__near_func                 #
#                          -DMAC_CFG_APP_PENDING_QUEUE=TRUE                   #
#                          -DZDO_COORDINATOR -DRTR_NWK -DBLINK_LEDS) -f       #
#                          "D:\z-stack_813\z-stack\Sensor Network             #
#                          Example\Projects\zstack\Sensor Network             #
#                          Application\ZIGBEE Coordinator &                   #
#                          Router\CC2530DB\..\..\..\Tools\CC2530DB\f8wConfig. #
#                          cfg" (-DSECURE=0 -DZG_SECURE_DYNAMIC=0             #
#                          -DREFLECTOR -DDEFAULT_CHANLIST=0x00000800          #
#                          -DZDAPP_CONFIG_PAN_ID=0xFFFF                       #
#                          -DNWK_START_DELAY=100 -DEXTENDED_JOINING_RANDOM_MA #
#                          SK=0x007F -DBEACON_REQUEST_DELAY=100               #
#                          -DBEACON_REQ_DELAY_MASK=0x00FF                     #
#                          -DROUTE_EXPIRY_TIME=30 -DAPSC_ACK_WAIT_DURATION_PO #
#                          LLED=3000 -DNWK_INDIRECT_MSG_TIMEOUT=7             #
#                          -DMAX_RREQ_ENTRIES=8 -DAPSC_MAX_FRAME_RETRIES=3    #
#                          -DNWK_MAX_DATA_RETRIES=2                           #
#                          -DMAX_POLL_FAILURE_RETRIES=2 -DMAX_BCAST=9         #
#                          -DAPS_MAX_GROUPS=16 -DMAX_RTG_ENTRIES=40           #
#                          -DNWK_MAX_BINDING_ENTRIES=4                        #
#                          -DMAX_BINDING_CLUSTER_IDS=4 "-DDEFAULT_KEY={0x01,  #
#                          0x03, 0x05, 0x07, 0x09, 0x0B, 0x0D, 0x0F, 0x00,    #
#                          0x02, 0x04, 0x06, 0x08, 0x0A, 0x0C, 0x0D}"         #
#                          -DMAC_MAX_FRAME_SIZE=116 "-DCONST=const __code"    #
#                          -DGENERIC=__generic -DRFD_RCVC_ALWAYS_ON=TRUE      #
#                          -DPOLL_RATE=1000 -DQUEUED_POLL_RATE=100            #
#                          -DRESPONSE_POLL_RATE=100 -DREJOIN_POLL_RATE=440)   #
#                          -f "D:\z-stack_813\z-stack\Sensor Network          #
#                          Example\Projects\zstack\Sensor Network             #
#                          Application\ZIGBEE Coordinator &                   #
#                          Router\CC2530DB\..\..\..\Tools\CC2530DB\f8wZCL.cfg #
#                          " (-DZCL_READ -DZCL_WRITE -DZCL_BASIC              #
#                          -DZCL_IDENTIFY -DZCL_ON_OFF -DZCL_KEY_ESTABLISH    #
#                          -DZCL_LOAD_CONTROL -DZCL_SIMPLE_METERING           #
#                          -DZCL_PRICING) -DZCL_MESSAGE                       #
#                          "D:\z-stack_813\z-stack\Sensor Network             #
#                          Example\Projects\zstack\Sensor Network             #
#                          Application\ZIGBEE Coordinator &                   #
#                          Router\Source\zcl_zigbee receiver.c" -D CC2530 -D  #
#                          ZTOOL_P1 -D MT_TASK -D MT_APP_FUNC -D MT_SYS_FUNC  #
#                          -D MT_ZDO_FUNC -D LCD_SUPPORTED=DEBUG -D           #
#                          Coor_receiver -D xHAL_KEYPAD -D xPA2591 -lC        #
#                          "D:\z-stack_813\z-stack\Sensor Network             #
#                          Example\Projects\zstack\Sensor Network             #
#                          Application\ZIGBEE Coordinator &                   #
#                          Router\CC2530DB\Coordinator_KB_PA\List\" -lA       #
#                          "D:\z-stack_813\z-stack\Sensor Network             #
#                          Example\Projects\zstack\Sensor Network             #
#                          Application\ZIGBEE Coordinator &                   #
#                          Router\CC2530DB\Coordinator_KB_PA\List\"           #
#                          --diag_suppress Pe001,Pa010 -o                     #
#                          "D:\z-stack_813\z-stack\Sensor Network             #
#                          Example\Projects\zstack\Sensor Network             #
#                          Application\ZIGBEE Coordinator &                   #
#                          Router\CC2530DB\Coordinator_KB_PA\Obj\" -e         #
#                          --require_prototypes --debug --core=plain          #
#                          --dptr=16,1 --data_model=large                     #
#                          --code_model=banked --calling_convention=xdata_ree #
#                          ntrant --place_constants=data_rom                  #
#                          --nr_virtual_regs 16 -I "D:\z-stack_813\z-stack\Se #
#                          nsor Network Example\Projects\zstack\Sensor        #
#                          Network Application\ZIGBEE Coordinator &           #
#                          Router\CC2530DB\" -I "D:\z-stack_813\z-stack\Senso #
#                          r Network Example\Projects\zstack\Sensor Network   #
#                          Application\ZIGBEE Coordinator &                   #
#                          Router\CC2530DB\..\SOURCE\" -I                     #
#                          "D:\z-stack_813\z-stack\Sensor Network             #
#                          Example\Projects\zstack\Sensor Network             #
#                          Application\ZIGBEE Coordinator &                   #
#                          Router\CC2530DB\..\..\SOURCE\" -I                  #
#                          "D:\z-stack_813\z-stack\Sensor Network             #
#                          Example\Projects\zstack\Sensor Network             #
#                          Application\ZIGBEE Coordinator &                   #
#                          Router\CC2530DB\..\..\..\ZMAIN\TI2530DB\" -I       #
#                          "D:\z-stack_813\z-stack\Sensor Network             #
#                          Example\Projects\zstack\Sensor Network             #
#                          Application\ZIGBEE Coordinator &                   #
#                          Router\CC2530DB\..\..\..\..\..\COMPONENTS\MT\" -I  #
#                          "D:\z-stack_813\z-stack\Sensor Network             #
#                          Example\Projects\zstack\Sensor Network             #
#                          Application\ZIGBEE Coordinator &                   #
#                          Router\CC2530DB\..\..\..\..\..\COMPONENTS\HAL\INCL #
#                          UDE\" -I "D:\z-stack_813\z-stack\Sensor Network    #
#                          Example\Projects\zstack\Sensor Network             #
#                          Application\ZIGBEE Coordinator &                   #
#                          Router\CC2530DB\..\..\..\..\..\COMPONENTS\HAL\TARG #
#                          ET\CC2530KB\" -I "D:\z-stack_813\z-stack\Sensor    #
#                          Network Example\Projects\zstack\Sensor Network     #
#                          Application\ZIGBEE Coordinator &                   #
#                          Router\CC2530DB\..\..\..\..\..\COMPONENTS\OSAL\MCU #
#                          \CCSOC\" -I "D:\z-stack_813\z-stack\Sensor         #
#                          Network Example\Projects\zstack\Sensor Network     #
#                          Application\ZIGBEE Coordinator &                   #
#                          Router\CC2530DB\..\..\..\..\..\COMPONENTS\OSAL\INC #
#                          LUDE\" -I "D:\z-stack_813\z-stack\Sensor Network   #
#                          Example\Projects\zstack\Sensor Network             #
#                          Application\ZIGBEE Coordinator &                   #
#                          Router\CC2530DB\..\..\..\..\..\COMPONENTS\STACK\AF #
#                          \" -I "D:\z-stack_813\z-stack\Sensor Network       #
#                          Example\Projects\zstack\Sensor Network             #
#                          Application\ZIGBEE Coordinator &                   #
#                          Router\CC2530DB\..\..\..\..\..\COMPONENTS\STACK\NW #
#                          K\" -I "D:\z-stack_813\z-stack\Sensor Network      #
#                          Example\Projects\zstack\Sensor Network             #
#                          Application\ZIGBEE Coordinator &                   #
#                          Router\CC2530DB\..\..\..\..\..\COMPONENTS\STACK\SE #
#                          C\" -I "D:\z-stack_813\z-stack\Sensor Network      #
#                          Example\Projects\zstack\Sensor Network             #
#                          Application\ZIGBEE Coordinator &                   #
#                          Router\CC2530DB\..\..\..\..\..\COMPONENTS\STACK\SA #
#                          PI\" -I "D:\z-stack_813\z-stack\Sensor Network     #
#                          Example\Projects\zstack\Sensor Network             #
#                          Application\ZIGBEE Coordinator &                   #
#                          Router\CC2530DB\..\..\..\..\..\COMPONENTS\STACK\SY #
#                          S\" -I "D:\z-stack_813\z-stack\Sensor Network      #
#                          Example\Projects\zstack\Sensor Network             #
#                          Application\ZIGBEE Coordinator &                   #
#                          Router\CC2530DB\..\..\..\..\..\COMPONENTS\STACK\ZC #
#                          L\" -I "D:\z-stack_813\z-stack\Sensor Network      #
#                          Example\Projects\zstack\Sensor Network             #
#                          Application\ZIGBEE Coordinator &                   #
#                          Router\CC2530DB\..\..\..\..\..\COMPONENTS\STACK\ZD #
#                          O\" -I "D:\z-stack_813\z-stack\Sensor Network      #
#                          Example\Projects\zstack\Sensor Network             #
#                          Application\ZIGBEE Coordinator &                   #
#                          Router\CC2530DB\..\..\..\..\..\COMPONENTS\ZMAC\F8W #
#                          \" -I "D:\z-stack_813\z-stack\Sensor Network       #
#                          Example\Projects\zstack\Sensor Network             #
#                          Application\ZIGBEE Coordinator &                   #
#                          Router\CC2530DB\..\..\..\..\..\COMPONENTS\ZMAC\"   #
#                          -I "D:\z-stack_813\z-stack\Sensor Network          #
#                          Example\Projects\zstack\Sensor Network             #
#                          Application\ZIGBEE Coordinator &                   #
#                          Router\CC2530DB\..\..\..\..\..\COMPONENTS\SERVICES #
#                          \SADDR\" -I "D:\z-stack_813\z-stack\Sensor         #
#                          Network Example\Projects\zstack\Sensor Network     #
#                          Application\ZIGBEE Coordinator &                   #
#                          Router\CC2530DB\..\..\..\..\..\COMPONENTS\SERVICES #
#                          \SDATA\" -I "D:\z-stack_813\z-stack\Sensor         #
#                          Network Example\Projects\zstack\Sensor Network     #
#                          Application\ZIGBEE Coordinator &                   #
#                          Router\CC2530DB\..\..\..\..\..\COMPONENTS\MAC\INCL #
#                          UDE\" -I "D:\z-stack_813\z-stack\Sensor Network    #
#                          Example\Projects\zstack\Sensor Network             #
#                          Application\ZIGBEE Coordinator &                   #
#                          Router\CC2530DB\..\..\..\..\..\COMPONENTS\MAC\HIGH #
#                          _LEVEL\" -I "D:\z-stack_813\z-stack\Sensor         #
#                          Network Example\Projects\zstack\Sensor Network     #
#                          Application\ZIGBEE Coordinator &                   #
#                          Router\CC2530DB\..\..\..\..\..\COMPONENTS\MAC\LOW_ #
#                          LEVEL\srf04\" -I "D:\z-stack_813\z-stack\Sensor    #
#                          Network Example\Projects\zstack\Sensor Network     #
#                          Application\ZIGBEE Coordinator &                   #
#                          Router\CC2530DB\..\..\..\..\..\COMPONENTS\MAC\LOW_ #
#                          LEVEL\srf04\SINGLE_CHIP\" -I "C:\Program Files     #
#                          (x86)\IAR Systems\Embedded Workbench               #
#                          5.3\8051\INC\" -I "C:\Program Files (x86)\IAR      #
#                          Systems\Embedded Workbench 5.3\8051\INC\CLIB\"     #
#                          -Ohz                                               #
#    List file          =  D:\z-stack_813\z-stack\Sensor Network              #
#                          Example\Projects\zstack\Sensor Network             #
#                          Application\ZIGBEE Coordinator &                   #
#                          Router\CC2530DB\Coordinator_KB_PA\List\zcl_zigbee  #
#                          receiver.lst                                       #
#    Object file        =  D:\z-stack_813\z-stack\Sensor Network              #
#                          Example\Projects\zstack\Sensor Network             #
#                          Application\ZIGBEE Coordinator &                   #
#                          Router\CC2530DB\Coordinator_KB_PA\Obj\zcl_zigbee   #
#                          receiver.r51                                       #
#                                                                             #
#                                                                             #
###############################################################################

D:\z-stack_813\z-stack\Sensor Network Example\Projects\zstack\Sensor Network Application\ZIGBEE Coordinator & Router\Source\zcl_zigbee receiver.c
      1          /**************************************************************************************************
      2            Filename:       zcl_zigbee receiver.c
      3            Revised:        $Date: 2009-03-18 15:56:27 -0700 (Wed, 18 Mar 2009) $
      4            Revision:       $Revision: 19453 $
      5          
      6            Description:    Zigbee Cluster Library - ZIGBEE Receiver device application.
      7          
      8            Copyright 2006-2009 Texas Instruments Incorporated. All rights reserved.
      9          
     10            Should you have any questions regarding your right to use this Software,
     11            contact Texas Instruments Incorporated at www.TI.com. 
     12          **************************************************************************************************/
     13          
     14          /*************************************************************************************************
     15            This device will be like a Light device.  This application is not intended to be a Light device, 
     16            but will use the device description to implement this sample code.
     17          *************************************************************************************************/
     18          
     19          /*********************************************************************
     20           * INCLUDES
     21           */
     22          #include <stdio.h>
     23          #include <string.h>
     24          #include "ZComDef.h"
     25          #include "OSAL.h"
     26          #include "AF.h"
     27          #include "ZDApp.h"
     28          
     29          /* ZCL */
     30          #include "zcl.h"
     31          #include "zcl_general.h"
     32          #include "zcl_ha.h"
     33          #include "zcl_zigbee receiver.h"
     34          
     35          /* HAL */
     36          #include "onboard.h"
     37          #include "hal_lcd.h"
     38          #include "hal_led.h"
     39          #include "hal_timer.h"
     40          #include "hal_uart.h"
     41          #include "hal_key.h"
     42          #include "hal_keypad.h"
     43          
     44          /* MAC_high-level */
     45          #include "mac_high_level.h"
     46          
     47          /* MT */
     48          #include "MT_UART.h"
     49          #include "MT.h"
     50          
     51          #include "ZComDef.h"
     52          /*********************************************************************
     53           * MACROS
     54           */
     55          /*********************************************************************
     56           * CONSTANTS
     57           */
     58           #define TRANSMITAPP_MAX_DATA_LEN    102
     59          
     60          /*********************************************************************
     61           * TYPEDEFS
     62           */
     63          /*********************************************************************
     64           * GLOBAL VARIABLES
     65           */
     66          

   \                                 In  segment XDATA_Z, align 1, keep-with-next
     67          uint8 send_msg_counter =0;
   \                     send_msg_counter:
   \   000000                DS 1
   \   000001                REQUIRE __INIT_XDATA_Z
     68          

   \                                 In  segment XDATA_Z, align 1, keep-with-next
     69          byte zclZigbeeReceiver_TaskID; // The zigbee task_ID
   \                     zclZigbeeReceiver_TaskID:
   \   000000                DS 1
   \   000001                REQUIRE __INIT_XDATA_Z
     70          

   \                                 In  segment XDATA_Z, align 1, keep-with-next
     71          byte ZDO_MSG_SEND_ID; // The zigbee task_ID
   \                     ZDO_MSG_SEND_ID:
   \   000000                DS 1
   \   000001                REQUIRE __INIT_XDATA_Z
     72          
     73          // The UART transmit variable and array
     74          // the transmit data length

   \                                 In  segment XDATA_Z, align 1, keep-with-next
     75          uint8 len; 
   \                     len:
   \   000000                DS 1
   \   000001                REQUIRE __INIT_XDATA_Z
     76          // Transmit message array

   \                                 In  segment XDATA_Z, align 1, keep-with-next
     77          byte TransmitApp_Msg[ TRANSMITAPP_MAX_DATA_LEN ]; 
   \                     TransmitApp_Msg:
   \   000000                DS 102
   \   000066                REQUIRE __INIT_XDATA_Z
     78          // The coordinator send to device message array

   \                                 In  segment XDATA_Z, align 1, keep-with-next
     79          byte UartTransmit_Msg[ TRANSMITAPP_MAX_DATA_LEN ]; 
   \                     UartTransmit_Msg:
   \   000000                DS 102
   \   000066                REQUIRE __INIT_XDATA_Z
     80          // Receive the UART command

   \                                 In  segment XDATA_Z, align 1, keep-with-next
     81          uint8 uart_recv[TRANSMITAPP_MAX_DATA_LEN]; 
   \                     uart_recv:
   \   000000                DS 102
   \   000066                REQUIRE __INIT_XDATA_Z
     82          
     83          /*********************************************************************
     84           * GLOBAL FUNCTIONS
     85           */
     86          
     87          /*********************************************************************
     88           * LOCAL VARIABLES
     89           */

   \                                 In  segment XDATA_Z, align 1, keep-with-next
     90          afAddrType_t zclZigbeeRecv_DstAddr;  // AF address type
   \                     zclZigbeeRecv_DstAddr:
   \   000000                DS 12
   \   00000C                REQUIRE __INIT_XDATA_Z

   \                                 In  segment XDATA_Z, align 1, keep-with-next
     91          aps_Group_t zclZigbeeRecv_Group;
   \                     zclZigbeeRecv_Group:
   \   000000                DS 18
   \   000012                REQUIRE __INIT_XDATA_Z
     92          
     93          #define ZCLZIGBEERECV_BINDINGLIST       2
     94          
     95          static cId_t bindingInClusters[ZCLZIGBEERECV_BINDINGLIST] =
     96          {
     97            ZCL_CLUSTER_ID_GEN_ON_OFF,
     98            ZCL_CLUSTER_ID_GEN_LEVEL_CONTROL
     99          };
    100          
    101          // Test Endpoint to allow SYS_APP_MSGs

   \                                 In  segment XDATA_I, align 1, keep-with-next
    102          static endPointDesc_t zigbeeReceiver_TestEp =
   \                     zigbeeReceiver_TestEp:
   \   000000                DS 6
   \   000006                REQUIRE `?<Initializer for zigbeeReceiver_TestEp>`
   \   000006                REQUIRE __INIT_XDATA_I
    103          {
    104            20,                                 // Test endpoint
    105            &zclZigbeeReceiver_TaskID,
    106            (SimpleDescriptionFormat_t *)NULL,  // No Simple description for this test endpoint
    107            (afNetworkLatencyReq_t)0            // No Network Latency req
    108          };
    109          
    110          /*********************************************************************
    111           * LOCAL FUNCTIONS
    112           */
    113          static void zclZigbeeReceiver_HandleKeys( byte shift, byte keys );
    114          static void zclZigbeeReceiver_BasicResetCB( void );
    115          static void zclZigbeeReceiver_IdentifyCB( zclIdentify_t *pCmd );
    116          static void zclZigbeeReceiver_IdentifyQueryRspCB( zclIdentifyQueryRsp_t *pRsp );
    117          static void zclZigbeeReceiver_OnOffCB( uint8 cmd );
    118          static void zclZigbeeReceiver_ProcessIdentifyTimeChange( void );
    119          
    120          void zclUARTMsg_CallBack(uint8 port, uint8 event); // The UART Message callback
    121          void zclUartReceiver( void ); // The coordinator receive command function
    122          
    123          // Functions to process ZCL Foundation incoming Command/Response messages 
    124          static void zclZigbeeReceiver_ProcessIncomingMsg( zclIncomingMsg_t *msg );
    125          #ifdef ZCL_READ
    126            static uint8 zclZigbeeReceiver_ProcessInReadRspCmd( zclIncomingMsg_t *pInMsg );
    127          #endif
    128          #ifdef ZCL_WRITE
    129            static uint8 zclZigbeeReceiver_ProcessInWriteRspCmd( zclIncomingMsg_t *pInMsg );
    130          #endif
    131            static uint8 zclZigbeeReceiver_ProcessInDefaultRspCmd( zclIncomingMsg_t *pInMsg );
    132          #ifdef ZCL_DISCOVER
    133            static uint8 zclZigbeeReceiver_ProcessInDiscRspCmd( zclIncomingMsg_t *pInMsg );
    134          #endif
    135            
    136          /*********************************************************************
    137           * ZCL General Profile Callback table
    138           */

   \                                 In  segment XDATA_I, align 1, keep-with-next
    139          static zclGeneral_AppCallbacks_t zclZigbeeReceiver_CmdCallbacks =
   \                     zclZigbeeReceiver_CmdCallbacks:
   \   000000                DS 30
   \   00001E                REQUIRE `?<Initializer for zclZigbeeReceiver_CmdCallbac`
   \   00001E                REQUIRE __INIT_XDATA_I
    140          {
    141            zclZigbeeReceiver_BasicResetCB,              // Basic Cluster Reset command
    142            zclZigbeeReceiver_IdentifyCB,                // Identify command  
    143            zclZigbeeReceiver_IdentifyQueryRspCB,        // Identify Query Response command
    144            zclZigbeeReceiver_OnOffCB,                   // On/Off cluster command
    145            NULL,                                        // Level Control Move to Level command
    146            NULL,                                        // Level Control Move command
    147            NULL,                                        // Level Control Step command
    148            NULL,                                        // Group Response commands
    149            NULL,                                        // Scene Store Request command
    150            NULL,                                        // Scene Recall Request command
    151            NULL,                                        // Scene Response command
    152            NULL,                                        // Alarm (Response) command
    153            NULL,                                        // RSSI Location commands
    154            NULL,                                        // RSSI Location Response commands
    155          };
    156          
    157          /*
    158          * @fn      show
    159          *
    160          * @brief   Write a buffer to the UART.
    161          *
    162          * @param   temp - pointer to the buffer that will be written, not freed
    163          *
    164          */

   \                                 In  segment BANKED_CODE, align 1, keep-with-next
    165          void ZSendMsg(char *temp)
   \                     ZSendMsg:
    166          {
   \   000000   74F6         MOV     A,#-0xa
   \   000002   12....       LCALL   ?BANKED_ENTER_XDATA
   \   000005                ; Saved register size: 10
   \   000005                ; Auto size: 64
   \   000005   74C0         MOV     A,#-0x40
   \   000007   12....       LCALL   ?ALLOC_XSTACK8
    167          //  Start sending the periodic message in a regular interval. 開始在定期的時間間隔傳送定期訊息
    168          //  osal_start_timerEx( uint8 taskID, uint16 event_id, uint16 timeout_value )            
    169          //  osal_start_timerEx( SampleApp_TaskID, SAMPLEAPP_SEND_PERIODIC_MSG_EVT, SAMPLEAPP_SEND_PERIODIC_MSG_TIMEOUT );
    170          //  osal_start_timerEx(ZDAppTaskID, ZDO_NETWORK_INIT, NWK_RETRY_DELAY );   
    171              char buf[64];
    172              
    173              memset(buf, 0x0, 64);
   \   00000A                ; Setup parameters for call to function memset
   \   00000A   75..40       MOV     ?V0 + 0,#0x40
   \   00000D   75..00       MOV     ?V0 + 1,#0x0
   \   000010   78..         MOV     R0,#?V0 + 0
   \   000012   12....       LCALL   ?PUSH_XSTACK_I_TWO
   \   000015   7C00         MOV     R4,#0x0
   \   000017   7D00         MOV     R5,#0x0
   \   000019   7402         MOV     A,#0x2
   \   00001B   12....       LCALL   ?XSTACK_DISP0_8
   \   00001E   AA82         MOV     R2,DPL
   \   000020   AB83         MOV     R3,DPH
   \   000022   12....       LCALL   ??memset?relay
   \   000025   7402         MOV     A,#0x2
   \   000027   12....       LCALL   ?DEALLOC_XSTACK8
    174              
    175              show("Chris:KEY_CHANGE"); 
   \   00002A                ; Setup parameters for call to function show
   \   00002A   7A..         MOV     R2,#(`?<Constant "Chris:KEY_CHANGE">` & 0xff)
   \   00002C   7B..         MOV     R3,#((`?<Constant "Chris:KEY_CHANGE">` >> 8) & 0xff)
   \   00002E   12....       LCALL   ??show?relay
    176              
    177          //    sprintf(buf, "Hello, Chris");
    178          //    HalUARTWrite(HAL_UART_PORT_0, buf, 64);
    179              
    180              //ZDO_MSG_SEND              
    181              osal_set_event( ZDO_MSG_SEND_ID, 100);
   \   000031                ; Setup parameters for call to function osal_set_event
   \   000031   7A64         MOV     R2,#0x64
   \   000033   7B00         MOV     R3,#0x0
   \   000035   90....       MOV     DPTR,#ZDO_MSG_SEND_ID
   \   000038   E0           MOVX    A,@DPTR
   \   000039   F9           MOV     R1,A
   \   00003A   12....       LCALL   ??osal_set_event?relay
    182                //  NWK_RETRY_DELAY             1000   // in milliseconds
    183              osal_start_timerEx( ZDO_MSG_SEND_ID, AF_DATA_CONFIRM_CMD, 100); //ZDO_MSG_SEND_EVT => AF_DATA_CONFIRM_CMD
   \   00003D                ; Setup parameters for call to function osal_start_timerEx
   \   00003D   7C64         MOV     R4,#0x64
   \   00003F   7D00         MOV     R5,#0x0
   \   000041   7AFD         MOV     R2,#-0x3
   \   000043   7B00         MOV     R3,#0x0
   \   000045   90....       MOV     DPTR,#ZDO_MSG_SEND_ID
   \   000048   E0           MOVX    A,@DPTR
   \   000049   F9           MOV     R1,A
   \   00004A   12....       LCALL   ??osal_start_timerEx?relay
    184          }
   \   00004D   7440         MOV     A,#0x40
   \   00004F                REQUIRE ?Subroutine3
   \   00004F                ; // Fall through to label ?Subroutine3

   \                                 In  segment BANKED_CODE, align 1, keep-with-next
   \                     ?Subroutine3:
   \   000000   12....       LCALL   ?DEALLOC_XSTACK8
   \   000003                REQUIRE ??Subroutine6_0
   \   000003                ; // Fall through to label ??Subroutine6_0

   \                                 In  segment BANKED_CODE, align 1, keep-with-next
   \                     ??Subroutine6_0:
   \   000000   7F02         MOV     R7,#0x2
   \   000002   02....       LJMP    ?BANKED_LEAVE_XDATA
    185          
    186          /*********************************************************************
    187           * @fn          zclZigbeeRecv_Init
    188           * @brief       Initialization function for the zclGeneral layer.
    189           */

   \                                 In  segment BANKED_CODE, align 1, keep-with-next
    190          void zclZigbeeRecv_Init( byte task_id )
   \                     zclZigbeeRecv_Init:
    191          {
   \   000000   74F5         MOV     A,#-0xb
   \   000002   12....       LCALL   ?BANKED_ENTER_XDATA
   \   000005                ; Saved register size: 11
   \   000005                ; Auto size: 0
    192            zclZigbeeReceiver_TaskID = task_id;
   \   000005   E9           MOV     A,R1
   \   000006   90....       MOV     DPTR,#zclZigbeeReceiver_TaskID
   \   000009   F0           MOVX    @DPTR,A
    193            
    194            // Setup for the flash command's destination address ( Group )
    195            zclZigbeeRecv_DstAddr.addrMode = (afAddrMode_t)afAddrGroup;  // transmit mode - Group address
   \   00000A   7401         MOV     A,#0x1
   \   00000C   90....       MOV     DPTR,#(zclZigbeeRecv_DstAddr + 8)
   \   00000F   F0           MOVX    @DPTR,A
    196            zclZigbeeRecv_DstAddr.endPoint = ZIGBEERECV_ENDPOINT;        // end-point number:20
   \   000010   740D         MOV     A,#0xd
   \   000012   90....       MOV     DPTR,#(zclZigbeeRecv_DstAddr + 9)
   \   000015   F0           MOVX    @DPTR,A
    197            zclZigbeeRecv_DstAddr.addr.shortAddr = RECV_GROUP;           // Group short address
   \   000016   90....       MOV     DPTR,#zclZigbeeRecv_DstAddr
   \   000019   7410         MOV     A,#0x10
   \   00001B   F0           MOVX    @DPTR,A
   \   00001C   A3           INC     DPTR
   \   00001D   7420         MOV     A,#0x20
   \   00001F   F0           MOVX    @DPTR,A
    198            
    199            // This App is part of the Zigbee Device Profile
    200            zclZD_Init( &zclZigbeeRecv_SimpleDesc ); 
   \   000020                ; Setup parameters for call to function zclZD_Init
   \   000020   7A..         MOV     R2,#(zclZigbeeRecv_SimpleDesc & 0xff)
   \   000022   7B..         MOV     R3,#((zclZigbeeRecv_SimpleDesc >> 8) & 0xff)
   \   000024   12....       LCALL   ??zclZD_Init?relay
    201            
    202            // Register the ZCL General Cluster Library callback functions
    203            zclGeneral_RegisterCmdCallbacks( ZIGBEERECV_ENDPOINT, &zclZigbeeReceiver_CmdCallbacks ); 
   \   000027                ; Setup parameters for call to function zclGeneral_RegisterCmdCallbacks
   \   000027   7A..         MOV     R2,#(zclZigbeeReceiver_CmdCallbacks & 0xff)
   \   000029   7B..         MOV     R3,#((zclZigbeeReceiver_CmdCallbacks >> 8) & 0xff)
   \   00002B   790D         MOV     R1,#0xd
   \   00002D   12....       LCALL   ??zclGeneral_RegisterCmdCallbacks?relay
    204            
    205            // Register the application's attribute list
    206            zcl_registerAttrList( ZIGBEERECV_ENDPOINT, ZIGBEERECV_MAX_ATTRIBUTES, zclZigbeeRecv_Attrs ); 
   \   000030                ; Setup parameters for call to function zcl_registerAttrList
   \   000030   7C..         MOV     R4,#(zclZigbeeRecv_Attrs & 0xff)
   \   000032   7D..         MOV     R5,#((zclZigbeeRecv_Attrs >> 8) & 0xff)
   \   000034   7A0C         MOV     R2,#0xc
   \   000036   790D         MOV     R1,#0xd
   \   000038   12....       LCALL   ??zcl_registerAttrList?relay
    207            
    208            // Register the Application to receive the unprocessed Foundation command/response messages
    209            zcl_registerForMsg( zclZigbeeReceiver_TaskID ); 
   \   00003B                ; Setup parameters for call to function zcl_registerForMsg
   \   00003B   90....       MOV     DPTR,#zclZigbeeReceiver_TaskID
   \   00003E   E0           MOVX    A,@DPTR
   \   00003F   F9           MOV     R1,A
   \   000040   12....       LCALL   ??zcl_registerForMsg?relay
    210            
    211            // Register for all key events - This app will handle all key events
    212            RegisterForKeys( zclZigbeeReceiver_TaskID ); 
   \   000043                ; Setup parameters for call to function RegisterForKeys
   \   000043   90....       MOV     DPTR,#zclZigbeeReceiver_TaskID
   \   000046   E0           MOVX    A,@DPTR
   \   000047   F9           MOV     R1,A
   \   000048   12....       LCALL   ??RegisterForKeys?relay
    213            
    214            // By default, all devices start out in Group 1 ( register grouop )
    215            zclZigbeeRecv_Group.ID = RECV_GROUP;
   \   00004B   90....       MOV     DPTR,#zclZigbeeRecv_Group
   \   00004E   7410         MOV     A,#0x10
   \   000050   F0           MOVX    @DPTR,A
   \   000051   A3           INC     DPTR
   \   000052   7420         MOV     A,#0x20
   \   000054   F0           MOVX    @DPTR,A
    216            osal_memcpy( zclZigbeeRecv_Group.name, "RECV_GROUP", 8  );
   \   000055                ; Setup parameters for call to function osal_memcpy
   \   000055   75....       MOV     ?V0 + 0,#(`?<Constant "RECV_GROUP">` & 0xff)
   \   000058   75....       MOV     ?V0 + 1,#((`?<Constant "RECV_GROUP">` >> 8) & 0xff)
   \   00005B   75..00       MOV     ?V0 + 2,#0x0
   \   00005E   78..         MOV     R0,#?V0 + 0
   \   000060   12....       LCALL   ?PUSH_XSTACK_I_THREE
   \   000063   7C08         MOV     R4,#0x8
   \   000065   7D00         MOV     R5,#0x0
   \   000067   7A..         MOV     R2,#((zclZigbeeRecv_Group + 2) & 0xff)
   \   000069   7B..         MOV     R3,#(((zclZigbeeRecv_Group + 2) >> 8) & 0xff)
   \   00006B   12....       LCALL   ??osal_memcpy?relay
   \   00006E   7403         MOV     A,#0x3
   \   000070   12....       LCALL   ?DEALLOC_XSTACK8
    217            aps_AddGroup( ZIGBEERECV_ENDPOINT, &zclZigbeeRecv_Group ); 
   \   000073                ; Setup parameters for call to function aps_AddGroup
   \   000073   7A..         MOV     R2,#(zclZigbeeRecv_Group & 0xff)
   \   000075   7B..         MOV     R3,#((zclZigbeeRecv_Group >> 8) & 0xff)
   \   000077   790D         MOV     R1,#0xd
   \   000079   12....       LCALL   ??aps_AddGroup?relay
    218            
    219            // Register for a test endpoint
    220            afRegister( &zigbeeReceiver_TestEp ); 
   \   00007C                ; Setup parameters for call to function afRegister
   \   00007C   7A..         MOV     R2,#(zigbeeReceiver_TestEp & 0xff)
   \   00007E   7B..         MOV     R3,#((zigbeeReceiver_TestEp >> 8) & 0xff)
   \   000080   12....       LCALL   ??afRegister?relay
    221          }
   \   000083   7F03         MOV     R7,#0x3
   \   000085   02....       LJMP    ?BANKED_LEAVE_XDATA
    222          

   \                                 In  segment BANKED_CODE, align 1, keep-with-next
    223          uint16 zclZigbeeSendMsg_event_loop(uint8 task_id, uint16 events)
   \                     zclZigbeeSendMsg_event_loop:
    224          {
   \   000000   74F4         MOV     A,#-0xc
   \   000002   12....       LCALL   ?BANKED_ENTER_XDATA
   \   000005                ; Saved register size: 12
   \   000005                ; Auto size: 0
   \   000005   8A..         MOV     ?V0 + 0,R2
   \   000007   8B..         MOV     ?V0 + 1,R3
    225            afIncomingMSGPacket_t *MSGpkt;
    226            (void)task_id;  // Intentionally unreferenced parameter
    227            
    228                show("Fuck you!"); 
   \   000009                ; Setup parameters for call to function show
   \   000009   7A..         MOV     R2,#(`?<Constant "Fuck you!">` & 0xff)
   \   00000B   7B..         MOV     R3,#((`?<Constant "Fuck you!">` >> 8) & 0xff)
   \   00000D   12....       LCALL   ??show?relay
    229          
    230            if ( events & SYS_EVENT_MSG ) 
   \   000010   7480         MOV     A,#-0x80
   \   000012   55..         ANL     A,?V0 + 1
   \   000014   F9           MOV     R1,A
   \   000015   E4           CLR     A
   \   000016   7001         JNZ     ??zclZigbeeSendMsg_event_loop_0
   \   000018   E9           MOV     A,R1
   \                     ??zclZigbeeSendMsg_event_loop_0:
   \   000019   602D         JZ      ??zclZigbeeSendMsg_event_loop_1
    231            {
    232              MSGpkt = (afIncomingMSGPacket_t *)osal_msg_receive( ZDO_MSG_SEND_ID ); // 透過osal_msg_receive function 接收SampleApp_TaskID標誌
   \   00001B                ; Setup parameters for call to function osal_msg_receive
   \   00001B   8017         SJMP    ??zclZigbeeSendMsg_event_loop_2
    233              while ( MSGpkt )
    234              {    
    235                switch ( MSGpkt->hdr.event )
   \                     ??zclZigbeeSendMsg_event_loop_3:
   \   00001D   8E82         MOV     DPL,R6
   \   00001F   8F83         MOV     DPH,R7
   \   000021   E0           MOVX    A,@DPTR
   \   000022   64D1         XRL     A,#0xd1
   \   000024   7007         JNZ     ??zclZigbeeSendMsg_event_loop_4
    236                {
    237                  case ZDO_MSG_SEND_EVT: // Received when a key is pressed(當按下key時進行接收)
    238                    ZSendMsg("Hello");
    239                    break;
    240                  case ZDO_STATE_CHANGE: // Received whenever the device changes state in the network(加入網路後狀態改變時進行接收)
    241                    show("Chris:ZDO_STATE_CHANGE");
   \   000026                ; Setup parameters for call to function show
   \   000026   7A..         MOV     R2,#(`?<Constant "Chris:ZDO_STATE_CHANGE">` & 0xff)
   \   000028   7B..         MOV     R3,#((`?<Constant "Chris:ZDO_STATE_CHANGE">` >> 8) & 0xff)
   \   00002A   12....       LCALL   ??show?relay
    242                  default:
    243                    break;
    244                }
    245          
    246                // Release the memory
    247                osal_msg_deallocate( (uint8 *)MSGpkt );
   \                     ??zclZigbeeSendMsg_event_loop_4:
   \   00002D                ; Setup parameters for call to function osal_msg_deallocate
   \   00002D   EE           MOV     A,R6
   \   00002E   FA           MOV     R2,A
   \   00002F   EF           MOV     A,R7
   \   000030   FB           MOV     R3,A
   \   000031   12....       LCALL   ??osal_msg_deallocate?relay
    248          
    249                // Next - if one is available
    250                MSGpkt = (afIncomingMSGPacket_t *)osal_msg_receive( ZDO_MSG_SEND_ID );
   \   000034                ; Setup parameters for call to function osal_msg_receive
   \                     ??zclZigbeeSendMsg_event_loop_2:
   \   000034   90....       MOV     DPTR,#ZDO_MSG_SEND_ID
    251              }
   \   000037   12....       LCALL   ?Subroutine1 & 0xFFFF
   \                     ??CrossCallReturnLabel_2:
   \   00003A   7001         JNZ     ??zclZigbeeSendMsg_event_loop_5
   \   00003C   EF           MOV     A,R7
   \                     ??zclZigbeeSendMsg_event_loop_5:
   \   00003D   70DE         JNZ     ??zclZigbeeSendMsg_event_loop_3
    252          
    253              // return unprocessed events
    254              return (events ^ SYS_EVENT_MSG);
   \   00003F   AA..         MOV     R2,?V0 + 0
   \   000041   7480         MOV     A,#-0x80
   \                     ??zclZigbeeSendMsg_event_loop_6:
   \   000043   65..         XRL     A,?V0 + 1
   \   000045   FB           MOV     R3,A
   \   000046   801C         SJMP    ??zclZigbeeSendMsg_event_loop_7
    255            }
    256          
    257            // Send a message out - This event is generated by a timer (setup in SampleApp_Init()).
    258            if ( events & ZDO_MSG_SEND_EVT )
   \                     ??zclZigbeeSendMsg_event_loop_1:
   \   000048   7408         MOV     A,#0x8
   \   00004A   55..         ANL     A,?V0 + 1
   \   00004C   F9           MOV     R1,A
   \   00004D   E4           CLR     A
   \   00004E   7001         JNZ     ??zclZigbeeSendMsg_event_loop_8
   \   000050   E9           MOV     A,R1
   \                     ??zclZigbeeSendMsg_event_loop_8:
   \   000051   600D         JZ      ??zclZigbeeSendMsg_event_loop_9
    259            {
    260              // Send the periodic message
    261          //    SampleApp_SendPeriodicMessage();
    262              show("ZDO_MSG_SEND_EVT");
   \   000053                ; Setup parameters for call to function show
   \   000053   7A..         MOV     R2,#(`?<Constant "ZDO_MSG_SEND_EVT">` & 0xff)
   \   000055   7B..         MOV     R3,#((`?<Constant "ZDO_MSG_SEND_EVT">` >> 8) & 0xff)
   \   000057   12....       LCALL   ??show?relay
    263          
    264              // Setup to send message again in normal period (+ a little jitter)
    265          //    osal_start_timerEx( ZDO_MSG_SEND_ID, 
    266          //                        ZDO_MSG_SEND_EVT,
    267          //                       (SAMPLEAPP_SEND_PERIODIC_MSG_TIMEOUT + (osal_rand() & 0x00FF)) );
    268          
    269              // return unprocessed events
    270              return (events ^ ZDO_MSG_SEND_EVT);
   \   00005A   AA..         MOV     R2,?V0 + 0
   \   00005C   7408         MOV     A,#0x8
   \   00005E   80E3         SJMP    ??zclZigbeeSendMsg_event_loop_6
    271            }
    272          
    273            // Discard unknown events
    274            return 0;
   \                     ??zclZigbeeSendMsg_event_loop_9:
   \   000060   7A00         MOV     R2,#0x0
   \   000062   7B00         MOV     R3,#0x0
   \                     ??zclZigbeeSendMsg_event_loop_7:
   \   000064                REQUIRE ?Subroutine4
   \   000064                ; // Fall through to label ?Subroutine4
    275          }

   \                                 In  segment BANKED_CODE, align 1, keep-with-next
   \                     ?Subroutine4:
   \   000000   7F04         MOV     R7,#0x4
   \   000002   02....       LJMP    ?BANKED_LEAVE_XDATA

   \                                 In  segment BANKED_CODE, align 1, keep-with-next
   \                     ?Subroutine1:
   \   000000   E0           MOVX    A,@DPTR
   \   000001   F9           MOV     R1,A
   \   000002   12....       LCALL   ??osal_msg_receive?relay
   \   000005   8A..         MOV     ?V0 + 2,R2
   \   000007   8B..         MOV     ?V0 + 3,R3
   \   000009   AE..         MOV     R6,?V0 + 2
   \   00000B   AF..         MOV     R7,?V0 + 3
   \   00000D   EE           MOV     A,R6
   \   00000E   22           RET
    276          
    277          /*********************************************************************
    278           * @fn          zclZigbeeRecv_event_loop
    279           * @brief       Event Loop Processor for zclGeneral.
    280           */

   \                                 In  segment BANKED_CODE, align 1, keep-with-next
    281          uint16 zclZigbeeRecv_event_loop( uint8 task_id, uint16 events )
   \                     zclZigbeeRecv_event_loop:
    282          { 
   \   000000   74F4         MOV     A,#-0xc
   \   000002   12....       LCALL   ?BANKED_ENTER_XDATA
   \   000005                ; Saved register size: 12
   \   000005                ; Auto size: 0
   \   000005   8A..         MOV     ?V0 + 0,R2
   \   000007   8B..         MOV     ?V0 + 1,R3
    283              afIncomingMSGPacket_t *MSGpkt;
    284              (void)task_id;  // Intentionally unreferenced parameter
    285            
    286              if ( events & SYS_EVENT_MSG ) // SYSTEM Message event
   \   000009   7480         MOV     A,#-0x80
   \   00000B   55..         ANL     A,?V0 + 1
   \   00000D   F9           MOV     R1,A
   \   00000E   E4           CLR     A
   \   00000F   7001         JNZ     ??zclZigbeeRecv_event_loop_0
   \   000011   E9           MOV     A,R1
   \                     ??zclZigbeeRecv_event_loop_0:
   \   000012   7041         JNZ     ??zclZigbeeRecv_event_loop_1
    287              {
    288                while ( (MSGpkt = (afIncomingMSGPacket_t *)osal_msg_receive( zclZigbeeReceiver_TaskID )) )
    289                { 
    290                    char temp[32];
                                ^
Warning[Pe177]: variable "temp" was declared but never referenced
    291                  
    292          //        packet_t pack;
    293                  
    294          //        uint16 shortAddr = NLME_GetShortAddr();
    295          
    296          //        sprintf(temp, "Data:%s", MSGpkt->cmd.Data);
    297          //        show(temp);
    298                  
    299          //        sprintf(temp, "Addr:%d,Data:%s", MSGpkt->macDestAddr,MSGpkt->cmd.Data);
    300          //        show(temp);      
    301          //        sprintf(temp, "Addr:%d", MSGpkt->srcAddr.addr.shortAddr);
    302          //        show(temp);          
    303                  //req.dstAddr.addr.shortAddr
    304          //       sprintf(temp, "Mac:%d,Addr:%d,Data:%s", MSGpkt->macDestAddr, MSGpkt->srcAddr.addr.shortAddr, MSGpkt->cmd.Data);
    305          //        sprintf(temp, "Addr:%d,Data:%s", MSGpkt->srcAddr.addr.shortAddr, MSGpkt->cmd.Data);        
    306          //        show(temp); 
    307          /*
    308             typedef struct
    309          {
    310            uint8 *Type;
    311            uint8 *shortAddr;   //HalUARTWrite(uint8 port, uint8 *buf, uint16 len)
    312            uint8 *Module;  
    313            uint8 *Data;
    314          } packet_t;     
    315           */       
    316           //       pack.Type = "1";
    317          //        strcpy(pack.shortAddr, MSGpkt->srcAddr.addr.shortAddr);
    318          //        pack.shortAddr = MSGpkt->srcAddr.addr.shortAddr;
    319          //        pack.Data = MSGpkt->cmd.Data;
    320                  
    321          //        show("Type:");
    322           //       show(itoa(pack.Type));
    323          //uint16  HalUARTWrite(uint8 port, uint8 *buf, uint16 len)        
    324          //        HalUARTWrite ( HAL_UART_PORT_0, pack.Type, 2 );        
    325          //        show("Address:");
    326          //        show(itoa(pack.shortAddr));
    327          //       HalUARTWrite ( HAL_UART_PORT_0, pack.shortAddr, 8 );        
    328          //        show("Data:");     
    329          //       show(pack.Data);
    330                  
    331                  //[Type][Logical address] [Module/M140,M160][Data]
    332                  //[1Byte][4Bytes][3Bytes][8Bytes] =>[16Bytes]
    333          /*        typedef struct
    334                  {
    335                      byte Type;
    336                      uint32 shortAddr;
    337                      uint16 Module;  // used for the INTER_PAN feature
    338                      byte  *Data;
    339                  } packet_t;
    340          */  
    341          /*
    342                  device_manager[0].Type = '0';
    343                  device_manager[0].Module = 140;        
    344                  device_manager[0].shaddr = MSGpkt->srcAddr.addr.shortAddr;
    345          //        device_manager[0].Data = MSGpkt->cmd.Data;
    346                  strcpy(device_manager[0].Data, MSGpkt->cmd.Data);
    347                  
    348                  show("device_manager[0].Type");
    349                  sprintf(temp, "%c", device_manager[0].Type);                  
    350                  show("device_manager[0].Module");        
    351                  sprintf(temp, "%d", device_manager[0].Module);                          
    352                  show("device_manager[0].ShourAddress");        
    353                  sprintf(temp, "%s", device_manager[0].shaddr);                          
    354                  show("device_manager[0].Data");        
    355                  sprintf(temp, "%d", device_manager[0].Data);                                  
    356           //       sprintf(temp, "shortAddr:%d", MSGpkt->srcAddr.addr.shortAddr);     
    357                  sprintf(temp, "shortAddr:%d", shaddr);          
    358                  show(temp);   
    359          */        
    360          //        NLME_GetCoordShortAddr();
    361          //        sprintf(temp, "CoordShortAddr:%d", NLME_GetCoordShortAddr());          
    362          //        show(temp);   
    363                  
    364                  switch ( MSGpkt->hdr.event )
    365                  {
    366                  case ZCL_INCOMING_MSG: //0x34 : Incoming ZCL foundation message
    367                      show("ZCL_INCOMING_MSG");
    368                      // Incoming ZCL Foundation command/response messages
    369                      zclZigbeeReceiver_ProcessIncomingMsg( (zclIncomingMsg_t *)MSGpkt ); 
    370                      break; 
    371                  case KEY_CHANGE: //0xC0 : Key Events
    372                      show("KEY_CHANGE");
    373                      ZSendMsg("Hi");              
    374          //            zclZigbeeReceiver_HandleKeys( ((keyChange_t *)MSGpkt)->state, ((keyChange_t *)MSGpkt)->keys );
    375                      break;
    376                      
    377                  case AF_DATA_CONFIRM_CMD:
    378                      //chris
    379                      // send event
    380           //           ZSendMsg("Hi");              
    381                      break;      
    382                  case AF_INCOMING_MSG_CMD:
    383                      show("AF_INCOMING_MSG_CMD");
    384                      break;                
    385                  case AF_INCOMING_KVP_CMD:       
    386                      show("AF_INCOMING_KVP_CMD");
    387                      break;
    388                  case AF_INCOMING_GRP_KVP_CMD:       
    389                      show("AF_INCOMING_GRP_KVP_CMD");
    390                      break;   
    391          
    392                  case ZDO_NEW_DSTADDR:       
    393                      show("ZDO_NEW_DSTADDR");
    394                      break;   
    395                  case ZDO_STATE_CHANGE:       
    396                      show("ZDO_STATE_CHANGE");
    397                      break;         
    398                  case ZDO_MATCH_DESC_RSP_SENT:       
    399                      show("ZDO_MATCH_DESC_RSP_SENT");
    400                      // Check the state of NWK
    401                      
    402                      break;    
    403                  case ZDO_CB_MSG:       
    404                      show("ZDO_CB_MSG");
    405                      break;    
    406                  case ZDO_NETWORK_REPORT:       
    407                      show("ZDO_NETWORK_REPORT");
    408                      break;    
    409                  case ZDO_NETWORK_UPDATE:       
    410                      show("ZDO_NETWORK_UPDATE");
    411                      break;     
    412          
    413                  case NM_CHANNEL_INTERFERE:       
    414                      show("NM_CHANNEL_INTERFERE");
    415                      break;     
    416                  case NM_ED_SCAN_CONFIRM:       
    417                      show("NM_ED_SCAN_CONFIRM");
    418                      break;     
    419                  case SAPS_CHANNEL_CHANGE:       
    420                      show("SAPS_CHANNEL_CHANGE");
    421                      break;         
    422                  case ZCL_KEY_ESTABLISH_IND:       
    423                      show("ZCL_KEY_ESTABLISH_IND");
    424                      break;   
    425                     
    426                    default:
    427                      break;
    428                  }
    429                  osal_msg_deallocate( (uint8 *)MSGpkt ); // Release the memory
    430                }
    431                return (events ^ SYS_EVENT_MSG); // return unprocessed events
    432              }
    433            
    434              // The user define application events
    435              switch ( events )
   \   000014   78..         MOV     R0,#?V0 + 0
   \   000016   12....       LCALL   ?US_SWITCH_DENSE
   \                     `?<Jumptable for zclZigbeeRecv_event_loop>_0`:
   \   000019   0100         DW        1
   \   00001B   02           DB        2
   \   00001C   ....         DW        ??zclZigbeeRecv_event_loop_2
   \   00001E   ....         DW        ??zclZigbeeRecv_event_loop_3
   \   000020   ....         DW        ??zclZigbeeRecv_event_loop_4
   \   000022   ....         DW        ??zclZigbeeRecv_event_loop_5
    436              {
    437                case SAMPLELIGHT_IDENTIFY_TIMEOUT_EVT: // ZIGBEE Receiver identify timeout event
    438                  show("SAMPLELIGHT_IDENTIFY_TIMEOUT_EVT");
   \                     ??zclZigbeeRecv_event_loop_3:
   \   000024                ; Setup parameters for call to function show
   \   000024   7A..         MOV     R2,#(`?<Constant "SAMPLELIGHT_IDENTIFY_...">` & 0xff)
   \   000026   7B..         MOV     R3,#((`?<Constant "SAMPLELIGHT_IDENTIFY_...">` >> 8) & 0xff)
   \   000028   12....       LCALL   ??show?relay
    439                  if ( zclZigbeeRecv_IdentifyTime > 0 )
   \   00002B   90....       MOV     DPTR,#zclZigbeeRecv_IdentifyTime
   \   00002E   E0           MOVX    A,@DPTR
   \   00002F   7002         JNZ     ??zclZigbeeRecv_event_loop_6
   \   000031   A3           INC     DPTR
   \   000032   E0           MOVX    A,@DPTR
   \                     ??zclZigbeeRecv_event_loop_6:
   \   000033   600C         JZ      ??zclZigbeeRecv_event_loop_7
    440                       zclZigbeeRecv_IdentifyTime--;
   \   000035   90....       MOV     DPTR,#zclZigbeeRecv_IdentifyTime
   \   000038   E0           MOVX    A,@DPTR
   \   000039   24FF         ADD     A,#-0x1
   \   00003B   F0           MOVX    @DPTR,A
   \   00003C   A3           INC     DPTR
   \   00003D   E0           MOVX    A,@DPTR
   \   00003E   34FF         ADDC    A,#-0x1
   \   000040   F0           MOVX    @DPTR,A
    441                       zclZigbeeReceiver_ProcessIdentifyTimeChange();
   \                     ??zclZigbeeRecv_event_loop_7:
   \   000041                ; Setup parameters for call to function zclZigbeeReceiver_ProcessIdentifyTimeChange
   \   000041   12....       LCALL   ??zclZigbeeReceiver_ProcessIdentifyTimeChange?r
   \   000044   02....       LJMP    ??zclZigbeeRecv_event_loop_2 & 0xFFFF
   \                     ??zclZigbeeRecv_event_loop_8:
   \   000047                ; Setup parameters for call to function show
   \   000047   7A..         MOV     R2,#(`?<Constant "ZCL_KEY_ESTABLISH_IND">` & 0xff)
   \   000049   7B..         MOV     R3,#((`?<Constant "ZCL_KEY_ESTABLISH_IND">` >> 8) & 0xff)
   \                     ??zclZigbeeRecv_event_loop_9:
   \   00004B   12....       LCALL   ??show?relay
   \                     ??zclZigbeeRecv_event_loop_10:
   \   00004E                ; Setup parameters for call to function osal_msg_deallocate
   \   00004E   EE           MOV     A,R6
   \   00004F   FA           MOV     R2,A
   \   000050   EF           MOV     A,R7
   \   000051   FB           MOV     R3,A
   \   000052   12....       LCALL   ??osal_msg_deallocate?relay
   \                     ??zclZigbeeRecv_event_loop_1:
   \   000055                ; Setup parameters for call to function osal_msg_receive
   \   000055   90....       MOV     DPTR,#zclZigbeeReceiver_TaskID
   \   000058   12....       LCALL   ?Subroutine1 & 0xFFFF
   \                     ??CrossCallReturnLabel_3:
   \   00005B   7001         JNZ     ??zclZigbeeRecv_event_loop_11
   \   00005D   EF           MOV     A,R7
   \                     ??zclZigbeeRecv_event_loop_11:
   \   00005E   7003         JNZ     $+5
   \   000060   02....       LJMP    ??zclZigbeeRecv_event_loop_12 & 0xFFFF
   \   000063   8E82         MOV     DPL,R6
   \   000065   8F83         MOV     DPH,R7
   \   000067   E0           MOVX    A,@DPTR
   \   000068   12....       LCALL   ?UC_SWITCH_SPARSE
   \                     `?<Jumptable for zclZigbeeRecv_event_loop>_1`:
   \   00006B   00           DB        0
   \   00006C   0F           DB        15
   \   00006D   1A           DB        26
   \   00006E   ....         DW        ??zclZigbeeRecv_event_loop_13
   \   000070   1B           DB        27
   \   000071   ....         DW        ??zclZigbeeRecv_event_loop_14
   \   000073   1C           DB        28
   \   000074   ....         DW        ??zclZigbeeRecv_event_loop_15
   \   000076   31           DB        49
   \   000077   ....         DW        ??zclZigbeeRecv_event_loop_16
   \   000079   32           DB        50
   \   00007A   ....         DW        ??zclZigbeeRecv_event_loop_17
   \   00007C   33           DB        51
   \   00007D   ....         DW        ??zclZigbeeRecv_event_loop_18
   \   00007F   34           DB        52
   \   000080   ....         DW        ??zclZigbeeRecv_event_loop_19
   \   000082   35           DB        53
   \   000083   ....         DW        ??zclZigbeeRecv_event_loop_8
   \   000085   C0           DB        192
   \   000086   ....         DW        ??zclZigbeeRecv_event_loop_20
   \   000088   D0           DB        208
   \   000089   ....         DW        ??zclZigbeeRecv_event_loop_21
   \   00008B   D1           DB        209
   \   00008C   ....         DW        ??zclZigbeeRecv_event_loop_22
   \   00008E   D2           DB        210
   \   00008F   ....         DW        ??zclZigbeeRecv_event_loop_23
   \   000091   D3           DB        211
   \   000092   ....         DW        ??zclZigbeeRecv_event_loop_24
   \   000094   D4           DB        212
   \   000095   ....         DW        ??zclZigbeeRecv_event_loop_25
   \   000097   D5           DB        213
   \   000098   ....         DW        ??zclZigbeeRecv_event_loop_26
   \   00009A   ....         DW        ??zclZigbeeRecv_event_loop_10
   \                     ??zclZigbeeRecv_event_loop_19:
   \   00009C                ; Setup parameters for call to function show
   \   00009C   7A..         MOV     R2,#(`?<Constant "ZCL_INCOMING_MSG">` & 0xff)
   \   00009E   7B..         MOV     R3,#((`?<Constant "ZCL_INCOMING_MSG">` >> 8) & 0xff)
   \   0000A0   12....       LCALL   ??show?relay
   \   0000A3   8E82         MOV     DPL,R6
   \   0000A5   8F83         MOV     DPH,R7
   \   0000A7   A3           INC     DPTR
   \   0000A8   A3           INC     DPTR
   \   0000A9   A3           INC     DPTR
   \   0000AA   A3           INC     DPTR
   \   0000AB   A3           INC     DPTR
   \   0000AC   A3           INC     DPTR
   \   0000AD   A3           INC     DPTR
   \   0000AE   E0           MOVX    A,@DPTR
   \   0000AF   12....       LCALL   ?UC_SWITCH_SPARSE
   \                     `?<Jumptable for zclZigbeeRecv_event_loop>_2`:
   \   0000B2   00           DB        0
   \   0000B3   02           DB        2
   \   0000B4   01           DB        1
   \   0000B5   ....         DW        ??zclZigbeeRecv_event_loop_27
   \   0000B7   04           DB        4
   \   0000B8   ....         DW        ??zclZigbeeRecv_event_loop_28
   \   0000BA   ....         DW        ??zclZigbeeRecv_event_loop_29
   \                     ??zclZigbeeRecv_event_loop_27:
   \   0000BC   12....       LCALL   ?Subroutine0 & 0xFFFF
   \                     ??CrossCallReturnLabel_0:
   \   0000BF   E0           MOVX    A,@DPTR
   \   0000C0   FA           MOV     R2,A
   \   0000C1   EB           MOV     A,R3
   \   0000C2   C3           CLR     C
   \   0000C3   9A           SUBB    A,R2
   \   0000C4   5010         JNC     ??zclZigbeeRecv_event_loop_29
   \   0000C6   0B           INC     R3
   \   0000C7   80F6         SJMP    ??CrossCallReturnLabel_0
   \                     ??zclZigbeeRecv_event_loop_28:
   \   0000C9   12....       LCALL   ?Subroutine0 & 0xFFFF
   \                     ??CrossCallReturnLabel_1:
   \   0000CC   8001         SJMP    ??zclZigbeeRecv_event_loop_30
   \                     ??zclZigbeeRecv_event_loop_31:
   \   0000CE   0B           INC     R3
   \                     ??zclZigbeeRecv_event_loop_30:
   \   0000CF   E0           MOVX    A,@DPTR
   \   0000D0   FA           MOV     R2,A
   \   0000D1   EB           MOV     A,R3
   \   0000D2   C3           CLR     C
   \   0000D3   9A           SUBB    A,R2
   \   0000D4   40F8         JC      ??zclZigbeeRecv_event_loop_31
   \                     ??zclZigbeeRecv_event_loop_29:
   \   0000D6   12....       LCALL   ?Subroutine2 & 0xFFFF
   \                     ??CrossCallReturnLabel_4:
   \   0000D9   FA           MOV     R2,A
   \   0000DA   A3           INC     DPTR
   \   0000DB   E0           MOVX    A,@DPTR
   \   0000DC   FB           MOV     R3,A
   \   0000DD   EA           MOV     A,R2
   \   0000DE   7001         JNZ     ??zclZigbeeRecv_event_loop_32
   \   0000E0   EB           MOV     A,R3
   \                     ??zclZigbeeRecv_event_loop_32:
   \   0000E1   7003         JNZ     $+5
   \   0000E3   02....       LJMP    ??zclZigbeeRecv_event_loop_10 & 0xFFFF
   \   0000E6                ; Setup parameters for call to function osal_mem_free
   \   0000E6   12....       LCALL   ??osal_mem_free?relay
   \   0000E9   02....       LJMP    ??zclZigbeeRecv_event_loop_10 & 0xFFFF
   \                     ??zclZigbeeRecv_event_loop_20:
   \   0000EC                ; Setup parameters for call to function show
   \   0000EC   7A..         MOV     R2,#(`?<Constant "KEY_CHANGE">` & 0xff)
   \   0000EE   7B..         MOV     R3,#((`?<Constant "KEY_CHANGE">` >> 8) & 0xff)
   \   0000F0   12....       LCALL   ??show?relay
   \   0000F3                ; Setup parameters for call to function ZSendMsg
   \   0000F3   7A..         MOV     R2,#(`?<Constant "Hi">` & 0xff)
   \   0000F5   7B..         MOV     R3,#((`?<Constant "Hi">` >> 8) & 0xff)
   \   0000F7   12....       LCALL   ??ZSendMsg?relay
   \   0000FA   02....       LJMP    ??zclZigbeeRecv_event_loop_10 & 0xFFFF
   \                     ??zclZigbeeRecv_event_loop_13:
   \   0000FD                ; Setup parameters for call to function show
   \   0000FD   7A..         MOV     R2,#(`?<Constant "AF_INCOMING_MSG_CMD">` & 0xff)
   \   0000FF   7B..         MOV     R3,#((`?<Constant "AF_INCOMING_MSG_CMD">` >> 8) & 0xff)
   \   000101   02....       LJMP    ??zclZigbeeRecv_event_loop_9 & 0xFFFF
   \                     ??zclZigbeeRecv_event_loop_14:
   \   000104                ; Setup parameters for call to function show
   \   000104   7A..         MOV     R2,#(`?<Constant "AF_INCOMING_KVP_CMD">` & 0xff)
   \   000106   7B..         MOV     R3,#((`?<Constant "AF_INCOMING_KVP_CMD">` >> 8) & 0xff)
   \   000108   02....       LJMP    ??zclZigbeeRecv_event_loop_9 & 0xFFFF
   \                     ??zclZigbeeRecv_event_loop_15:
   \   00010B                ; Setup parameters for call to function show
   \   00010B   7A..         MOV     R2,#(`?<Constant "AF_INCOMING_GRP_KVP_CMD">` & 0xff)
   \   00010D   7B..         MOV     R3,#((`?<Constant "AF_INCOMING_GRP_KVP_CMD">` >> 8) & 0xff)
   \   00010F   02....       LJMP    ??zclZigbeeRecv_event_loop_9 & 0xFFFF
   \                     ??zclZigbeeRecv_event_loop_21:
   \   000112                ; Setup parameters for call to function show
   \   000112   7A..         MOV     R2,#(`?<Constant "ZDO_NEW_DSTADDR">` & 0xff)
   \   000114   7B..         MOV     R3,#((`?<Constant "ZDO_NEW_DSTADDR">` >> 8) & 0xff)
   \   000116   02....       LJMP    ??zclZigbeeRecv_event_loop_9 & 0xFFFF
   \                     ??zclZigbeeRecv_event_loop_22:
   \   000119                ; Setup parameters for call to function show
   \   000119   7A..         MOV     R2,#(`?<Constant "ZDO_STATE_CHANGE">` & 0xff)
   \   00011B   7B..         MOV     R3,#((`?<Constant "ZDO_STATE_CHANGE">` >> 8) & 0xff)
   \   00011D   02....       LJMP    ??zclZigbeeRecv_event_loop_9 & 0xFFFF
   \                     ??zclZigbeeRecv_event_loop_23:
   \   000120                ; Setup parameters for call to function show
   \   000120   7A..         MOV     R2,#(`?<Constant "ZDO_MATCH_DESC_RSP_SENT">` & 0xff)
   \   000122   7B..         MOV     R3,#((`?<Constant "ZDO_MATCH_DESC_RSP_SENT">` >> 8) & 0xff)
   \   000124   02....       LJMP    ??zclZigbeeRecv_event_loop_9 & 0xFFFF
   \                     ??zclZigbeeRecv_event_loop_24:
   \   000127                ; Setup parameters for call to function show
   \   000127   7A..         MOV     R2,#(`?<Constant "ZDO_CB_MSG">` & 0xff)
   \   000129   7B..         MOV     R3,#((`?<Constant "ZDO_CB_MSG">` >> 8) & 0xff)
   \   00012B   02....       LJMP    ??zclZigbeeRecv_event_loop_9 & 0xFFFF
   \                     ??zclZigbeeRecv_event_loop_25:
   \   00012E                ; Setup parameters for call to function show
   \   00012E   7A..         MOV     R2,#(`?<Constant "ZDO_NETWORK_REPORT">` & 0xff)
   \   000130   7B..         MOV     R3,#((`?<Constant "ZDO_NETWORK_REPORT">` >> 8) & 0xff)
   \   000132   02....       LJMP    ??zclZigbeeRecv_event_loop_9 & 0xFFFF
   \                     ??zclZigbeeRecv_event_loop_26:
   \   000135                ; Setup parameters for call to function show
   \   000135   7A..         MOV     R2,#(`?<Constant "ZDO_NETWORK_UPDATE">` & 0xff)
   \   000137   7B..         MOV     R3,#((`?<Constant "ZDO_NETWORK_UPDATE">` >> 8) & 0xff)
   \   000139   02....       LJMP    ??zclZigbeeRecv_event_loop_9 & 0xFFFF
   \                     ??zclZigbeeRecv_event_loop_16:
   \   00013C                ; Setup parameters for call to function show
   \   00013C   7A..         MOV     R2,#(`?<Constant "NM_CHANNEL_INTERFERE">` & 0xff)
   \   00013E   7B..         MOV     R3,#((`?<Constant "NM_CHANNEL_INTERFERE">` >> 8) & 0xff)
   \   000140   02....       LJMP    ??zclZigbeeRecv_event_loop_9 & 0xFFFF
   \                     ??zclZigbeeRecv_event_loop_17:
   \   000143                ; Setup parameters for call to function show
   \   000143   7A..         MOV     R2,#(`?<Constant "NM_ED_SCAN_CONFIRM">` & 0xff)
   \   000145   7B..         MOV     R3,#((`?<Constant "NM_ED_SCAN_CONFIRM">` >> 8) & 0xff)
   \   000147   02....       LJMP    ??zclZigbeeRecv_event_loop_9 & 0xFFFF
   \                     ??zclZigbeeRecv_event_loop_18:
   \   00014A                ; Setup parameters for call to function show
   \   00014A   7A..         MOV     R2,#(`?<Constant "SAPS_CHANNEL_CHANGE">` & 0xff)
   \   00014C   7B..         MOV     R3,#((`?<Constant "SAPS_CHANNEL_CHANGE">` >> 8) & 0xff)
   \   00014E   02....       LJMP    ??zclZigbeeRecv_event_loop_9 & 0xFFFF
   \                     ??zclZigbeeRecv_event_loop_12:
   \   000151   AA..         MOV     R2,?V0 + 0
   \   000153   7480         MOV     A,#-0x80
   \   000155   65..         XRL     A,?V0 + 1
   \   000157   FB           MOV     R3,A
   \   000158   8023         SJMP    ??zclZigbeeRecv_event_loop_33
    442                  break;
    443                
    444                case UART_MSG_EVT: // The UART Message event
    445                  show("UART_MSG_EVT");
   \                     ??zclZigbeeRecv_event_loop_4:
   \   00015A                ; Setup parameters for call to function show
   \   00015A   7A..         MOV     R2,#(`?<Constant "UART_MSG_EVT">` & 0xff)
   \   00015C   7B..         MOV     R3,#((`?<Constant "UART_MSG_EVT">` >> 8) & 0xff)
   \   00015E   12....       LCALL   ??show?relay
    446                  zclUartReceiver();
   \   000161                ; Setup parameters for call to function zclUartReceiver
   \   000161   12....       LCALL   ??zclUartReceiver?relay
   \   000164   8013         SJMP    ??zclZigbeeRecv_event_loop_2
    447                  break;
    448                
    449                case KEYPAD_MSG_EVT: // The KEYPAD keyin event
    450                  show("KEYPAD_MSG_EVT");
   \                     ??zclZigbeeRecv_event_loop_5:
   \   000166                ; Setup parameters for call to function show
   \   000166   7A..         MOV     R2,#(`?<Constant "KEYPAD_MSG_EVT">` & 0xff)
   \   000168   7B..         MOV     R3,#((`?<Constant "KEYPAD_MSG_EVT">` >> 8) & 0xff)
   \   00016A   12....       LCALL   ??show?relay
    451                  #if defined( LCD_SUPPORTED )
    452                    HalLcdWriteChar(HAL_LCD_LINE_3, 0, ch);
   \   00016D                ; Setup parameters for call to function HalLcdWriteChar
   \   00016D   90....       MOV     DPTR,#ch
   \   000170   E0           MOVX    A,@DPTR
   \   000171   FB           MOV     R3,A
   \   000172   7A00         MOV     R2,#0x0
   \   000174   7903         MOV     R1,#0x3
   \   000176   12....       LCALL   ??HalLcdWriteChar?relay
    453                  #endif
    454                  break;
    455              }
    456              
    457              return 0; // Discard unknown events
   \                     ??zclZigbeeRecv_event_loop_2:
   \   000179   7A00         MOV     R2,#0x0
   \   00017B   7B00         MOV     R3,#0x0
   \                     ??zclZigbeeRecv_event_loop_33:
   \   00017D   02....       LJMP    ?Subroutine4 & 0xFFFF
    458          }

   \                                 In  segment BANKED_CODE, align 1, keep-with-next
   \                     ?Subroutine0:
   \   000000   12....       LCALL   ?Subroutine2 & 0xFFFF
   \                     ??CrossCallReturnLabel_5:
   \   000003   F8           MOV     R0,A
   \   000004   A3           INC     DPTR
   \   000005   E0           MOVX    A,@DPTR
   \   000006   F9           MOV     R1,A
   \   000007   8882         MOV     DPL,R0
   \   000009   8983         MOV     DPH,R1
   \   00000B   7B00         MOV     R3,#0x0
   \   00000D   22           RET

   \                                 In  segment BANKED_CODE, align 1, keep-with-next
   \                     ?Subroutine2:
   \   000000   EE           MOV     A,R6
   \   000001   2416         ADD     A,#0x16
   \   000003   F582         MOV     DPL,A
   \   000005   EF           MOV     A,R7
   \   000006   3400         ADDC    A,#0x0
   \   000008   F583         MOV     DPH,A
   \   00000A   E0           MOVX    A,@DPTR
   \   00000B   22           RET
    459          
    460          /*********************************************************************
    461           * @fn      zclZigbeeReceiver_HandleKeys
    462           * @brief   Handles all key events for this device.
    463           * @param   shift - true if in shift/alt.
    464           * @param   keys - bit field for key events.
    465           *          Valid entries: HAL_KEY_SW_1(MCU-K1)                        
    466           */
    467          static void zclZigbeeReceiver_HandleKeys( byte shift, byte keys )
                             ^
Warning[Pe177]: function "zclZigbeeReceiver_HandleKeys" was declared but never
          referenced
    468          {
    469            zAddrType_t dstAddr;
    470            (void)shift; // Intentionally unreferenced parameter
    471            
    472          #if defined(Coor_receiver) || defined (Router_receiver)
    473          
    474            if ( keys & HAL_KEY_SW1 ) // Init EndDevice bind reequest, and use cluster list important to binding.
    475            {
    476              dstAddr.addrMode = afAddr16Bit;
    477              dstAddr.addr.shortAddr = 0x0000;   // Coordinator makes the match
    478              ZDP_EndDeviceBindReq( &dstAddr, NLME_GetShortAddr(), ZIGBEERECV_ENDPOINT, // ZIGBEERECV_ENDPOINT = 13 is coordinator
    479                                    ZCL_HA_PROFILE_ID, ZCLZIGBEERECV_BINDINGLIST, bindingInClusters, 0,
    480                                    NULL, // No Outgoing clusters to bind
    481                                    TRUE );
    482            }
    483            
    484            if ( keys & HAL_KEY_SW2 ) 
    485            {
    486              
    487            }
    488            
    489          #endif
    490          }
    491          
    492          /*********************************************************************
    493           * @fn      zclZigbeeReceiver_ProcessIdentifyTimeChange
    494           * @brief   Called to process any change to the IdentifyTime attribute.
    495           */

   \                                 In  segment BANKED_CODE, align 1, keep-with-next
    496          static void zclZigbeeReceiver_ProcessIdentifyTimeChange( void )
   \                     zclZigbeeReceiver_ProcessIdentifyTimeChange:
    497          {
   \   000000   C082         PUSH    DPL
   \   000002   C083         PUSH    DPH
   \   000004                ; Saved register size: 2
   \   000004                ; Auto size: 0
    498            if ( zclZigbeeRecv_IdentifyTime > 0 )
   \   000004   90....       MOV     DPTR,#zclZigbeeRecv_IdentifyTime
   \   000007   E0           MOVX    A,@DPTR
   \   000008   7002         JNZ     ??zclZigbeeReceiver_ProcessIdentifyTimeChange_0
   \   00000A   A3           INC     DPTR
   \   00000B   E0           MOVX    A,@DPTR
   \                     ??zclZigbeeReceiver_ProcessIdentifyTimeChange_0:
   \   00000C   601F         JZ      ??zclZigbeeReceiver_ProcessIdentifyTimeChange_1
    499            {
    500              osal_start_timerEx( zclZigbeeReceiver_TaskID, SAMPLELIGHT_IDENTIFY_TIMEOUT_EVT, 1000 );
   \   00000E                ; Setup parameters for call to function osal_start_timerEx
   \   00000E   7CE8         MOV     R4,#-0x18
   \   000010   7D03         MOV     R5,#0x3
   \   000012   7A01         MOV     R2,#0x1
   \   000014   7B00         MOV     R3,#0x0
   \   000016   90....       MOV     DPTR,#zclZigbeeReceiver_TaskID
   \   000019   E0           MOVX    A,@DPTR
   \   00001A   F9           MOV     R1,A
   \   00001B   12....       LCALL   ??osal_start_timerEx?relay
    501              HalLedBlink ( HAL_LED_2, 0xFF, HAL_LED_DEFAULT_DUTY_CYCLE, HAL_LED_DEFAULT_FLASH_TIME );
   \   00001E                ; Setup parameters for call to function HalLedBlink
   \   00001E   7CE8         MOV     R4,#-0x18
   \   000020   7D03         MOV     R5,#0x3
   \   000022   7B05         MOV     R3,#0x5
   \   000024   7AFF         MOV     R2,#-0x1
   \   000026   7902         MOV     R1,#0x2
   \   000028   12....       LCALL   ??HalLedBlink?relay
   \   00002B   8022         SJMP    ??zclZigbeeReceiver_ProcessIdentifyTimeChange_2
    502            }
    503            else
    504              {
    505                if ( zclZigbeeRecv_OnOff )
   \                     ??zclZigbeeReceiver_ProcessIdentifyTimeChange_1:
   \   00002D   90....       MOV     DPTR,#zclZigbeeRecv_OnOff
   \   000030   E0           MOVX    A,@DPTR
   \   000031   6009         JZ      ??zclZigbeeReceiver_ProcessIdentifyTimeChange_3
    506                {
    507                  HalLedSet ( HAL_LED_1, HAL_LED_MODE_ON );
   \   000033                ; Setup parameters for call to function HalLedSet
   \   000033   7A01         MOV     R2,#0x1
   \   000035   7901         MOV     R1,#0x1
   \   000037   12....       LCALL   ??HalLedSet?relay
   \   00003A   8013         SJMP    ??zclZigbeeReceiver_ProcessIdentifyTimeChange_2
    508                }
    509                else
    510                  {
    511                    HalLedSet ( HAL_LED_1, HAL_LED_MODE_OFF );
   \                     ??zclZigbeeReceiver_ProcessIdentifyTimeChange_3:
   \   00003C                ; Setup parameters for call to function HalLedSet
   \   00003C   7A00         MOV     R2,#0x0
   \   00003E   7901         MOV     R1,#0x1
   \   000040   12....       LCALL   ??HalLedSet?relay
    512                    osal_stop_timerEx( zclZigbeeReceiver_TaskID, SAMPLELIGHT_IDENTIFY_TIMEOUT_EVT );
   \   000043                ; Setup parameters for call to function osal_stop_timerEx
   \   000043   7A01         MOV     R2,#0x1
   \   000045   7B00         MOV     R3,#0x0
   \   000047   90....       MOV     DPTR,#zclZigbeeReceiver_TaskID
   \   00004A   E0           MOVX    A,@DPTR
   \   00004B   F9           MOV     R1,A
   \   00004C   12....       LCALL   ??osal_stop_timerEx?relay
    513                  }
    514              }
    515          }
   \                     ??zclZigbeeReceiver_ProcessIdentifyTimeChange_2:
   \   00004F                REQUIRE ?Subroutine5
   \   00004F                ; // Fall through to label ?Subroutine5

   \                                 In  segment BANKED_CODE, align 1, keep-with-next
   \                     ?Subroutine5:
   \   000000   D083         POP     DPH
   \   000002   D082         POP     DPL
   \   000004   02....       LJMP    ?BRET
    516          
    517          /*********************************************************************
    518           * @fn      zclZigbeeReceiver_BasicResetCB
    519           * @brief   Callback from the ZCL General Cluster Library
    520           *          to set all the Basic Cluster attributes to default values.
    521           */

   \                                 In  segment BANKED_CODE, align 1, keep-with-next
    522          static void zclZigbeeReceiver_BasicResetCB( void )
   \                     zclZigbeeReceiver_BasicResetCB:
    523          {
   \   000000                ; Saved register size: 0
   \   000000                ; Auto size: 0
    524            // Reset all attributes to default values
    525          }
   \   000000   02....       LJMP    ?BRET
    526          
    527          /*********************************************************************
    528           * @fn      zclZigbeeReceiver_IdentifyCB
    529           * @brief   Callback from the ZCL General Cluster Library when
    530           *          it received an Identity Command for this application.
    531           * @param   srcAddr - source address and endpoint of the response message
    532           *          identifyTime - the number of seconds to identify yourself
    533           */

   \                                 In  segment BANKED_CODE, align 1, keep-with-next
    534          static void zclZigbeeReceiver_IdentifyCB( zclIdentify_t *pCmd )
   \                     zclZigbeeReceiver_IdentifyCB:
    535          {
   \   000000   C082         PUSH    DPL
   \   000002   C083         PUSH    DPH
   \   000004                ; Saved register size: 2
   \   000004                ; Auto size: 0
    536            zclZigbeeRecv_IdentifyTime = pCmd->identifyTime;
   \   000004   8A82         MOV     DPL,R2
   \   000006   8B83         MOV     DPH,R3
   \   000008   A3           INC     DPTR
   \   000009   A3           INC     DPTR
   \   00000A   E0           MOVX    A,@DPTR
   \   00000B   F8           MOV     R0,A
   \   00000C   A3           INC     DPTR
   \   00000D   E0           MOVX    A,@DPTR
   \   00000E   F9           MOV     R1,A
   \   00000F   90....       MOV     DPTR,#zclZigbeeRecv_IdentifyTime
   \   000012   E8           MOV     A,R0
   \   000013   F0           MOVX    @DPTR,A
   \   000014   A3           INC     DPTR
   \   000015   E9           MOV     A,R1
   \   000016   F0           MOVX    @DPTR,A
    537            zclZigbeeReceiver_ProcessIdentifyTimeChange();
   \   000017                ; Setup parameters for call to function zclZigbeeReceiver_ProcessIdentifyTimeChange
   \   000017   12....       LCALL   ??zclZigbeeReceiver_ProcessIdentifyTimeChange?r
    538          }
   \   00001A   80..         SJMP    ?Subroutine5
    539          
    540          /*********************************************************************
    541           * @fn      zclZigbeeReceiver_IdentifyQueryRspCB
    542           * @brief   Callback from the ZCL General Cluster Library when
    543           *          it received an Identity Query Response Command for this application.
    544           * @param   srcAddr - requestor's address
    545           *          timeout - number of seconds to identify yourself (valid for query response)
    546           */

   \                                 In  segment BANKED_CODE, align 1, keep-with-next
    547          static void zclZigbeeReceiver_IdentifyQueryRspCB( zclIdentifyQueryRsp_t *pRsp )
   \                     zclZigbeeReceiver_IdentifyQueryRspCB:
    548          {
   \   000000                ; Saved register size: 0
   \   000000                ; Auto size: 0
    549            (void)pRsp; // Query Response (with timeout value)
    550          }
   \   000000   02....       LJMP    ?BRET
    551          
    552          /*********************************************************************
    553           * @fn      zclZigbeeReceiver_OnOffCB
    554           * @brief   Callback from the ZCL General Cluster Library when
    555           *          it received an On/Off Command for this application.
    556           * @param   cmd - COMMAND_ON, COMMAND_OFF or COMMAND_TOGGLE
    557           */

   \                                 In  segment BANKED_CODE, align 1, keep-with-next
    558          static void zclZigbeeReceiver_OnOffCB( uint8 cmd )
   \                     zclZigbeeReceiver_OnOffCB:
    559          { 
   \   000000   C082         PUSH    DPL
   \   000002   C083         PUSH    DPH
   \   000004                ; Saved register size: 2
   \   000004                ; Auto size: 0
    560            if ( cmd == COMMAND_ON ) // Turn on the light
   \   000004   7401         MOV     A,#0x1
   \   000006   69           XRL     A,R1
   \   000007   700E         JNZ     ??zclZigbeeReceiver_OnOffCB_0
    561              zclZigbeeRecv_OnOff = LIGHT_ON;
   \                     ??zclZigbeeReceiver_OnOffCB_1:
   \   000009   7401         MOV     A,#0x1
   \                     ??zclZigbeeReceiver_OnOffCB_2:
   \   00000B   90....       MOV     DPTR,#zclZigbeeRecv_OnOff
   \   00000E   F0           MOVX    @DPTR,A
    562          
    563            else if ( cmd == COMMAND_OFF ) // Turn off the light
    564              zclZigbeeRecv_OnOff = LIGHT_OFF;
    565          
    566            else // Toggle the light
    567            {
    568              if ( zclZigbeeRecv_OnOff == LIGHT_OFF )
    569                    zclZigbeeRecv_OnOff = LIGHT_ON;
    570              else
    571                    zclZigbeeRecv_OnOff = LIGHT_OFF;
    572            }
    573          
    574            // In this sample app, we use LED4 to simulate the Light  
    575            if ( zclZigbeeRecv_OnOff == LIGHT_ON )
    576            {
    577              HalLedSet( HAL_LED_2, HAL_LED_MODE_ON ); // setting the LED_1 on
   \   00000F                ; Setup parameters for call to function HalLedSet
   \   00000F   FA           MOV     R2,A
   \   000010   7902         MOV     R1,#0x2
   \   000012   12....       LCALL   ??HalLedSet?relay
    578            }
    579            else
    580              HalLedSet( HAL_LED_2, HAL_LED_MODE_OFF ); // setting the LED_1 off
    581          }
   \   000015   80..         SJMP    ?Subroutine5
   \                     ??zclZigbeeReceiver_OnOffCB_0:
   \   000017   E9           MOV     A,R1
   \   000018   7003         JNZ     ??zclZigbeeReceiver_OnOffCB_3
   \                     ??zclZigbeeReceiver_OnOffCB_4:
   \   00001A   E4           CLR     A
   \   00001B   80EE         SJMP    ??zclZigbeeReceiver_OnOffCB_2
   \                     ??zclZigbeeReceiver_OnOffCB_3:
   \   00001D   90....       MOV     DPTR,#zclZigbeeRecv_OnOff
   \   000020   E0           MOVX    A,@DPTR
   \   000021   70F7         JNZ     ??zclZigbeeReceiver_OnOffCB_4
   \   000023   80E4         SJMP    ??zclZigbeeReceiver_OnOffCB_1
    582          /****************************************************************************** 
    583           * 
    584           *  Functions for processing ZCL Foundation incoming Command/Response messages
    585           *
    586           *****************************************************************************/
    587          
    588          /*********************************************************************
    589           * @fn      zclZigbeeReceiver_ProcessIncomingMsg
    590           * @brief   Process ZCL Foundation incoming message
    591           * @param   pInMsg - pointer to the received message
    592           */
    593          static void zclZigbeeReceiver_ProcessIncomingMsg( zclIncomingMsg_t *pInMsg)
    594          {
    595            switch ( pInMsg->zclHdr.commandID )
    596            {
    597          #ifdef ZCL_READ
    598              case ZCL_CMD_READ_RSP:
    599                zclZigbeeReceiver_ProcessInReadRspCmd( pInMsg );
    600                break;
    601          #endif
    602                
    603          #ifdef ZCL_WRITE    
    604              case ZCL_CMD_WRITE_RSP:
    605                zclZigbeeReceiver_ProcessInWriteRspCmd( pInMsg );
    606                break;
    607          #endif
    608                
    609          #ifdef ZCL_REPORT
    610              case ZCL_CMD_CONFIG_REPORT: // See ZCL Test Applicaiton (zcl_testapp.c) for sample code on Attribute Reporting
    611                //zclSampleLight_ProcessInConfigReportCmd( pInMsg );
    612                break;
    613              
    614              case ZCL_CMD_CONFIG_REPORT_RSP:
    615                //zclSampleLight_ProcessInConfigReportRspCmd( pInMsg );
    616                break;
    617              
    618              case ZCL_CMD_READ_REPORT_CFG:
    619                //zclSampleLight_ProcessInReadReportCfgCmd( pInMsg );
    620                break;
    621              
    622              case ZCL_CMD_READ_REPORT_CFG_RSP:
    623                //zclSampleLight_ProcessInReadReportCfgRspCmd( pInMsg );
    624                break;
    625              
    626              case ZCL_CMD_REPORT:
    627                //zclSampleLight_ProcessInReportCmd( pInMsg );
    628                break;
    629          #endif   
    630                
    631              case ZCL_CMD_DEFAULT_RSP:
    632                zclZigbeeReceiver_ProcessInDefaultRspCmd( pInMsg );
    633                break;
    634                
    635          #ifdef ZCL_DISCOVER     
    636              case ZCL_CMD_DISCOVER_RSP:
    637                zclZigbeeReceiver_ProcessInDiscRspCmd( pInMsg );
    638                break;
    639          #endif
    640                
    641              default:
    642                break;
    643            }
    644            if ( pInMsg->attrCmd )
    645              osal_mem_free( pInMsg->attrCmd );
    646          }
    647          
    648          #ifdef ZCL_READ
    649          /*********************************************************************
    650           * @fn      zclZigbeeReceiver_ProcessInReadRspCmd
    651           * @brief   Process the "Profile" Read Response Command
    652           * @param   pInMsg - incoming message to process
    653           */
    654          static uint8 zclZigbeeReceiver_ProcessInReadRspCmd( zclIncomingMsg_t *pInMsg )
    655          {
    656            zclReadRspCmd_t *readRspCmd;
    657            uint8 i;
    658          
    659            readRspCmd = (zclReadRspCmd_t *)pInMsg->attrCmd;
    660            for (i = 0; i < readRspCmd->numAttr; i++)
    661            {
    662              // Notify the originator of the results of the original read attributes attempt and, 
    663              // for each successfull request, the value of the requested attribute
    664            }
    665            return TRUE; 
    666          }
    667          #endif // ZCL_READ
    668          
    669          #ifdef ZCL_WRITE
    670          /*********************************************************************
    671           * @fn      zclZigbeeReceiver_ProcessInWriteRspCmd
    672           * @brief   Process the "Profile" Write Response Command
    673           * @param   pInMsg - incoming message to process
    674           */
    675          static uint8 zclZigbeeReceiver_ProcessInWriteRspCmd( zclIncomingMsg_t *pInMsg )
    676          {
    677            zclWriteRspCmd_t *writeRspCmd;
    678            uint8 i;
    679          
    680            writeRspCmd = (zclWriteRspCmd_t *)pInMsg->attrCmd;
    681            for (i = 0; i < writeRspCmd->numAttr; i++)
    682            {
    683              // Notify the device of the results of the its original write attributes command.
    684            }
    685            return TRUE; 
    686          }
    687          #endif // ZCL_WRITE
    688          
    689          /*********************************************************************
    690           * @fn      zclZigbeeReceiver_ProcessInDefaultRspCmd
    691           * @brief   Process the "Profile" Default Response Command
    692           * @param   pInMsg - incoming message to process
    693           */
    694          static uint8 zclZigbeeReceiver_ProcessInDefaultRspCmd( zclIncomingMsg_t *pInMsg )
    695          {
    696            // zclDefaultRspCmd_t *defaultRspCmd = (zclDefaultRspCmd_t *)pInMsg->attrCmd; 
    697            // Device is notified of the Default Response command.
    698            (void)pInMsg;
    699            return TRUE; 
    700          }
    701          
    702          #ifdef ZCL_DISCOVER
    703          /*********************************************************************
    704           * @fn      zclZigbeeReceiver_ProcessInDiscRspCmd
    705           * @brief   Process the "Profile" Discover Response Command
    706           * @param   pInMsg - incoming message to process
    707           */
    708          static uint8 zclZigbeeReceiver_ProcessInDiscRspCmd( zclIncomingMsg_t *pInMsg )
    709          {
    710            zclDiscoverRspCmd_t *discoverRspCmd;
    711            uint8 i;
    712            
    713            discoverRspCmd = (zclDiscoverRspCmd_t *)pInMsg->attrCmd;
    714            for ( i = 0; i < discoverRspCmd->numAttr; i++ )
    715            {
    716              // Device is notified of the result of its attribute discovery command.
    717            }
    718            return TRUE;
    719          }
    720          #endif // ZCL_DISCOVER
    721          
    722          /****************************************************************************
    723          ****************************************************************************/
    724          
    725          /*********************************************************************
    726           * @fn      zclUARTMsg_CallBack
    727           * @brief   Send data OTA.
    728           * @param   port - UART port.
    729           * @param   event - the UART port event flag.
    730           */

   \                                 In  segment BANKED_CODE, align 1, keep-with-next
    731          void zclUARTMsg_CallBack(uint8 port, uint8 event)
   \                     zclUARTMsg_CallBack:
    732          {
   \   000000   74F6         MOV     A,#-0xa
   \   000002   12....       LCALL   ?BANKED_ENTER_XDATA
   \   000005                ; Saved register size: 10
   \   000005                ; Auto size: 0
    733            (void)port;
    734            
    735            if(Hal_UART_RxBufLen( MT_UART_DEFAULT_PORT) > 0 )
   \   000005                ; Setup parameters for call to function Hal_UART_RxBufLen
   \   000005   7900         MOV     R1,#0x0
   \   000007   12....       LCALL   ??Hal_UART_RxBufLen?relay
   \   00000A   EA           MOV     A,R2
   \   00000B   7001         JNZ     ??zclUARTMsg_CallBack_0
   \   00000D   EB           MOV     A,R3
   \                     ??zclUARTMsg_CallBack_0:
   \   00000E   6022         JZ      ??zclUARTMsg_CallBack_1
    736            {
    737                len = Hal_UART_RxBufLen( MT_UART_DEFAULT_PORT );
   \   000010                ; Setup parameters for call to function Hal_UART_RxBufLen
   \   000010   7900         MOV     R1,#0x0
   \   000012   12....       LCALL   ??Hal_UART_RxBufLen?relay
   \   000015   EA           MOV     A,R2
   \   000016   90....       MOV     DPTR,#len
   \   000019   F0           MOVX    @DPTR,A
    738                HalUARTRead( MT_UART_DEFAULT_PORT, TransmitApp_Msg, len );
   \   00001A                ; Setup parameters for call to function HalUARTRead
   \   00001A   FC           MOV     R4,A
   \   00001B   7D00         MOV     R5,#0x0
   \   00001D   7A..         MOV     R2,#(TransmitApp_Msg & 0xff)
   \   00001F   7B..         MOV     R3,#((TransmitApp_Msg >> 8) & 0xff)
   \   000021   7900         MOV     R1,#0x0
   \   000023   12....       LCALL   ??HalUARTRead?relay
    739                osal_set_event( zclZigbeeReceiver_TaskID, UART_MSG_EVT );
   \   000026                ; Setup parameters for call to function osal_set_event
   \   000026   7A02         MOV     R2,#0x2
   \   000028   7B00         MOV     R3,#0x0
   \   00002A   90....       MOV     DPTR,#zclZigbeeReceiver_TaskID
   \   00002D   E0           MOVX    A,@DPTR
   \   00002E   F9           MOV     R1,A
   \   00002F   12....       LCALL   ??osal_set_event?relay
    740            }
    741          }
   \                     ??zclUARTMsg_CallBack_1:
   \   000032   02....       LJMP    ??Subroutine6_0 & 0xFFFF
    742          
    743          /*********************************************************************
    744           * @fn      zclUartReceiver
    745           * @brief   The coordinator receive command.
    746           */

   \                                 In  segment BANKED_CODE, align 1, keep-with-next
    747          void zclUartReceiver( void )
   \                     zclUartReceiver:
    748          { 
   \   000000   74F6         MOV     A,#-0xa
   \   000002   12....       LCALL   ?BANKED_ENTER_XDATA
   \   000005                ; Saved register size: 10
   \   000005                ; Auto size: 0
    749            show("zclUartReceiver");
   \   000005                ; Setup parameters for call to function show
   \   000005   7A..         MOV     R2,#(`?<Constant "zclUartReceiver">` & 0xff)
   \   000007   7B..         MOV     R3,#((`?<Constant "zclUartReceiver">` >> 8) & 0xff)
   \   000009   12....       LCALL   ??show?relay
    750            
    751            for(uint8 length = 0; length < len; length++)
   \   00000C   7E00         MOV     R6,#0x0
   \   00000E   8024         SJMP    ??zclUartReceiver_0
    752            {
    753              uart_recv[length] = TransmitApp_Msg[length];
   \                     ??zclUartReceiver_1:
   \   000010   8E82         MOV     DPL,R6
   \   000012   A882         MOV     R0,DPL
   \   000014   E8           MOV     A,R0
   \   000015   24..         ADD     A,#(TransmitApp_Msg & 0xff)
   \   000017   F582         MOV     DPL,A
   \   000019   E4           CLR     A
   \   00001A   34..         ADDC    A,#((TransmitApp_Msg >> 8) & 0xff)
   \   00001C   F583         MOV     DPH,A
   \   00001E   E0           MOVX    A,@DPTR
   \   00001F   FB           MOV     R3,A
   \   000020   E8           MOV     A,R0
   \   000021   24..         ADD     A,#(uart_recv & 0xff)
   \   000023   F582         MOV     DPL,A
   \   000025   E4           CLR     A
   \   000026   34..         ADDC    A,#((uart_recv >> 8) & 0xff)
   \   000028   F583         MOV     DPH,A
   \   00002A   EB           MOV     A,R3
   \   00002B   F0           MOVX    @DPTR,A
    754            #if defined( LCD_SUPPORTED )
    755              HalLcdWriteChar(HAL_LCD_LINE_4, length, uart_recv[length]);
   \   00002C                ; Setup parameters for call to function HalLcdWriteChar
   \   00002C   EE           MOV     A,R6
   \   00002D   FA           MOV     R2,A
   \   00002E   7904         MOV     R1,#0x4
   \   000030   12....       LCALL   ??HalLcdWriteChar?relay
    756            #endif
    757            }
   \   000033   0E           INC     R6
   \                     ??zclUartReceiver_0:
   \   000034   90....       MOV     DPTR,#len
   \   000037   E0           MOVX    A,@DPTR
   \   000038   FA           MOV     R2,A
   \   000039   EE           MOV     A,R6
   \   00003A   C3           CLR     C
   \   00003B   9A           SUBB    A,R2
   \   00003C   40D2         JC      ??zclUartReceiver_1
    758            
    759            // Set the End Device state
    760            zclZigbeeRecv_DstAddr.endPoint = 12;
   \   00003E   740C         MOV     A,#0xc
   \   000040   90....       MOV     DPTR,#(zclZigbeeRecv_DstAddr + 9)
   \   000043   F0           MOVX    @DPTR,A
    761            zclZigbeeRecv_DstAddr.addr.shortAddr = 0xFFFF;
   \   000044   90....       MOV     DPTR,#zclZigbeeRecv_DstAddr
   \   000047   74FF         MOV     A,#-0x1
   \   000049   F0           MOVX    @DPTR,A
   \   00004A   A3           INC     DPTR
   \   00004B   F0           MOVX    @DPTR,A
    762            zclZigbeeRecv_DstAddr.addrMode = (afAddrMode_t)AddrBroadcast;
   \   00004C   740F         MOV     A,#0xf
   \   00004E   90....       MOV     DPTR,#(zclZigbeeRecv_DstAddr + 8)
   \   000051   F0           MOVX    @DPTR,A
    763              
    764            // Transmit the UART command to End Device
    765            uint8 send = zcl_SendCommand( ZIGBEERECV_ENDPOINT, 
    766                                          &zclZigbeeRecv_DstAddr,
    767                                          ZCL_CLUSTER_ID_GEN_ON_OFF,
    768                                          COMMAND_TOGGLE,
    769                                          TRUE,
    770                                          ZCL_FRAME_CLIENT_SERVER_DIR,
    771                                          false,
    772                                          0,
    773                                          0,
    774                                          10,
    775                                          uart_recv );
   \   000052                ; Setup parameters for call to function zcl_SendCommand
   \   000052   75....       MOV     ?V0 + 0,#(uart_recv & 0xff)
   \   000055   75....       MOV     ?V0 + 1,#((uart_recv >> 8) & 0xff)
   \   000058   78..         MOV     R0,#?V0 + 0
   \   00005A   12....       LCALL   ?PUSH_XSTACK_I_TWO
   \   00005D   75..0A       MOV     ?V0 + 0,#0xa
   \   000060   75..00       MOV     ?V0 + 1,#0x0
   \   000063   78..         MOV     R0,#?V0 + 0
   \   000065   12....       LCALL   ?PUSH_XSTACK_I_TWO
   \   000068   75..00       MOV     ?V0 + 0,#0x0
   \   00006B   78..         MOV     R0,#?V0 + 0
   \   00006D   12....       LCALL   ?PUSH_XSTACK_I_ONE
   \   000070   78..         MOV     R0,#?V0 + 0
   \   000072   12....       LCALL   ?PUSH_XSTACK_I_TWO
   \   000075   78..         MOV     R0,#?V0 + 0
   \   000077   12....       LCALL   ?PUSH_XSTACK_I_ONE
   \   00007A   78..         MOV     R0,#?V0 + 0
   \   00007C   12....       LCALL   ?PUSH_XSTACK_I_ONE
   \   00007F   75..01       MOV     ?V0 + 0,#0x1
   \   000082   78..         MOV     R0,#?V0 + 0
   \   000084   12....       LCALL   ?PUSH_XSTACK_I_ONE
   \   000087   75..02       MOV     ?V0 + 0,#0x2
   \   00008A   78..         MOV     R0,#?V0 + 0
   \   00008C   12....       LCALL   ?PUSH_XSTACK_I_ONE
   \   00008F   7C06         MOV     R4,#0x6
   \   000091   7D00         MOV     R5,#0x0
   \   000093   7A..         MOV     R2,#(zclZigbeeRecv_DstAddr & 0xff)
   \   000095   7B..         MOV     R3,#((zclZigbeeRecv_DstAddr >> 8) & 0xff)
   \   000097   790D         MOV     R1,#0xd
   \   000099   12....       LCALL   ??zcl_SendCommand?relay
   \   00009C   740B         MOV     A,#0xb
   \   00009E   02....       LJMP    ?Subroutine3 & 0xFFFF
    776          }

   \                                 In  segment XDATA_ID, align 1, keep-with-next
   \                     `?<Initializer for zigbeeReceiver_TestEp>`:
   \   000000   14           DB 20
   \   000001   ....0000     DW zclZigbeeReceiver_TaskID, 0H
   \   000005   00           DB 0

   \                                 In  segment XDATA_ID, align 1, keep-with-next
   \                     `?<Initializer for zclZigbeeReceiver_CmdCallbac`:
   \   000000   ....         DW ??zclZigbeeReceiver_BasicResetCB?relay
   \   000002   ....         DW ??zclZigbeeReceiver_IdentifyCB?relay
   \   000004   ....         DW ??zclZigbeeReceiver_IdentifyQueryRspCB?relay
   \   000006   ....0000     DW ??zclZigbeeReceiver_OnOffCB?relay, 0H, 0H, 0H, 0H, 0H, 0H, 0H, 0H
   \            00000000
   \            00000000
   \            00000000
   \            0000    
   \   000018   00000000     DW 0H, 0H
   \   00001C   0000         DB 0, 0

   \                                 In  segment BANK_RELAYS, align 1
   \                     ??ZSendMsg?relay:
   \   000000   12....       LCALL   ?BDISPATCH
   \   000003   ......       DC24    ZSendMsg

   \                                 In  segment BANK_RELAYS, align 1
   \                     ??zclZigbeeRecv_Init?relay:
   \   000000   12....       LCALL   ?BDISPATCH
   \   000003   ......       DC24    zclZigbeeRecv_Init

   \                                 In  segment BANK_RELAYS, align 1
   \                     ??zclZigbeeSendMsg_event_loop?relay:
   \   000000   12....       LCALL   ?BDISPATCH
   \   000003   ......       DC24    zclZigbeeSendMsg_event_loop

   \                                 In  segment BANK_RELAYS, align 1
   \                     ??zclZigbeeRecv_event_loop?relay:
   \   000000   12....       LCALL   ?BDISPATCH
   \   000003   ......       DC24    zclZigbeeRecv_event_loop

   \                                 In  segment BANK_RELAYS, align 1
   \                     ??zclZigbeeReceiver_ProcessIdentifyTimeChange?r:
   \   000000   12....       LCALL   ?BDISPATCH
   \   000003   ......       DC24    zclZigbeeReceiver_ProcessIdentifyTimeChange

   \                                 In  segment BANK_RELAYS, align 1
   \                     ??zclZigbeeReceiver_BasicResetCB?relay:
   \   000000   12....       LCALL   ?BDISPATCH
   \   000003   ......       DC24    zclZigbeeReceiver_BasicResetCB

   \                                 In  segment BANK_RELAYS, align 1
   \                     ??zclZigbeeReceiver_IdentifyCB?relay:
   \   000000   12....       LCALL   ?BDISPATCH
   \   000003   ......       DC24    zclZigbeeReceiver_IdentifyCB

   \                                 In  segment BANK_RELAYS, align 1
   \                     ??zclZigbeeReceiver_IdentifyQueryRspCB?relay:
   \   000000   12....       LCALL   ?BDISPATCH
   \   000003   ......       DC24    zclZigbeeReceiver_IdentifyQueryRspCB

   \                                 In  segment BANK_RELAYS, align 1
   \                     ??zclZigbeeReceiver_OnOffCB?relay:
   \   000000   12....       LCALL   ?BDISPATCH
   \   000003   ......       DC24    zclZigbeeReceiver_OnOffCB

   \                                 In  segment BANK_RELAYS, align 1
   \                     ??zclUARTMsg_CallBack?relay:
   \   000000   12....       LCALL   ?BDISPATCH
   \   000003   ......       DC24    zclUARTMsg_CallBack

   \                                 In  segment BANK_RELAYS, align 1
   \                     ??zclUartReceiver?relay:
   \   000000   12....       LCALL   ?BDISPATCH
   \   000003   ......       DC24    zclUartReceiver

   \                                 In  segment XDATA_ROM_C, align 1
   \                     `?<Constant "Chris:KEY_CHANGE">`:
   \   000000   43687269     DB "Chris:KEY_CHANGE"
   \            733A4B45
   \            595F4348
   \            414E4745
   \            00      

   \                                 In  segment XDATA_ROM_C, align 1
   \                     `?<Constant "RECV_GROUP">`:
   \   000000   52454356     DB "RECV_GROUP"
   \            5F47524F
   \            555000  

   \                                 In  segment XDATA_ROM_C, align 1
   \                     `?<Constant "Fuck you!">`:
   \   000000   4675636B     DB "Fuck you!"
   \            20796F75
   \            2100    

   \                                 In  segment XDATA_ROM_C, align 1
   \                     `?<Constant "Chris:ZDO_STATE_CHANGE">`:
   \   000000   43687269     DB "Chris:ZDO_STATE_CHANGE"
   \            733A5A44
   \            4F5F5354
   \            4154455F
   \            4348414E
   \            474500  

   \                                 In  segment XDATA_ROM_C, align 1
   \                     `?<Constant "ZDO_MSG_SEND_EVT">`:
   \   000000   5A444F5F     DB "ZDO_MSG_SEND_EVT"
   \            4D53475F
   \            53454E44
   \            5F455654
   \            00      

   \                                 In  segment XDATA_ROM_C, align 1
   \                     `?<Constant "ZCL_INCOMING_MSG">`:
   \   000000   5A434C5F     DB "ZCL_INCOMING_MSG"
   \            494E434F
   \            4D494E47
   \            5F4D5347
   \            00      

   \                                 In  segment XDATA_ROM_C, align 1
   \                     `?<Constant "KEY_CHANGE">`:
   \   000000   4B45595F     DB "KEY_CHANGE"
   \            4348414E
   \            474500  

   \                                 In  segment XDATA_ROM_C, align 1
   \                     `?<Constant "Hi">`:
   \   000000   486900       DB "Hi"

   \                                 In  segment XDATA_ROM_C, align 1
   \                     `?<Constant "AF_INCOMING_MSG_CMD">`:
   \   000000   41465F49     DB "AF_INCOMING_MSG_CMD"
   \            4E434F4D
   \            494E475F
   \            4D53475F
   \            434D4400

   \                                 In  segment XDATA_ROM_C, align 1
   \                     `?<Constant "AF_INCOMING_KVP_CMD">`:
   \   000000   41465F49     DB "AF_INCOMING_KVP_CMD"
   \            4E434F4D
   \            494E475F
   \            4B56505F
   \            434D4400

   \                                 In  segment XDATA_ROM_C, align 1
   \                     `?<Constant "AF_INCOMING_GRP_KVP_CMD">`:
   \   000000   41465F49     DB "AF_INCOMING_GRP_KVP_CMD"
   \            4E434F4D
   \            494E475F
   \            4752505F
   \            4B56505F
   \            434D4400

   \                                 In  segment XDATA_ROM_C, align 1
   \                     `?<Constant "ZDO_NEW_DSTADDR">`:
   \   000000   5A444F5F     DB "ZDO_NEW_DSTADDR"
   \            4E45575F
   \            44535441
   \            44445200

   \                                 In  segment XDATA_ROM_C, align 1
   \                     `?<Constant "ZDO_STATE_CHANGE">`:
   \   000000   5A444F5F     DB "ZDO_STATE_CHANGE"
   \            53544154
   \            455F4348
   \            414E4745
   \            00      

   \                                 In  segment XDATA_ROM_C, align 1
   \                     `?<Constant "ZDO_MATCH_DESC_RSP_SENT">`:
   \   000000   5A444F5F     DB "ZDO_MATCH_DESC_RSP_SENT"
   \            4D415443
   \            485F4445
   \            53435F52
   \            53505F53
   \            454E5400

   \                                 In  segment XDATA_ROM_C, align 1
   \                     `?<Constant "ZDO_CB_MSG">`:
   \   000000   5A444F5F     DB "ZDO_CB_MSG"
   \            43425F4D
   \            534700  

   \                                 In  segment XDATA_ROM_C, align 1
   \                     `?<Constant "ZDO_NETWORK_REPORT">`:
   \   000000   5A444F5F     DB "ZDO_NETWORK_REPORT"
   \            4E455457
   \            4F524B5F
   \            5245504F
   \            525400  

   \                                 In  segment XDATA_ROM_C, align 1
   \                     `?<Constant "ZDO_NETWORK_UPDATE">`:
   \   000000   5A444F5F     DB "ZDO_NETWORK_UPDATE"
   \            4E455457
   \            4F524B5F
   \            55504441
   \            544500  

   \                                 In  segment XDATA_ROM_C, align 1
   \                     `?<Constant "NM_CHANNEL_INTERFERE">`:
   \   000000   4E4D5F43     DB "NM_CHANNEL_INTERFERE"
   \            48414E4E
   \            454C5F49
   \            4E544552
   \            46455245
   \            00      

   \                                 In  segment XDATA_ROM_C, align 1
   \                     `?<Constant "NM_ED_SCAN_CONFIRM">`:
   \   000000   4E4D5F45     DB "NM_ED_SCAN_CONFIRM"
   \            445F5343
   \            414E5F43
   \            4F4E4649
   \            524D00  

   \                                 In  segment XDATA_ROM_C, align 1
   \                     `?<Constant "SAPS_CHANNEL_CHANGE">`:
   \   000000   53415053     DB "SAPS_CHANNEL_CHANGE"
   \            5F434841
   \            4E4E454C
   \            5F434841
   \            4E474500

   \                                 In  segment XDATA_ROM_C, align 1
   \                     `?<Constant "ZCL_KEY_ESTABLISH_IND">`:
   \   000000   5A434C5F     DB "ZCL_KEY_ESTABLISH_IND"
   \            4B45595F
   \            45535441
   \            424C4953
   \            485F494E
   \            4400    

   \                                 In  segment XDATA_ROM_C, align 1
   \                     `?<Constant "SAMPLELIGHT_IDENTIFY_...">`:
   \   000000   53414D50     DB "SAMPLELIGHT_IDENTIFY_TIMEOUT_EVT"
   \            4C454C49
   \            4748545F
   \            4944454E
   \            54494659
   \            5F54494D
   \            454F5554
   \            5F455654
   \            00      

   \                                 In  segment XDATA_ROM_C, align 1
   \                     `?<Constant "UART_MSG_EVT">`:
   \   000000   55415254     DB "UART_MSG_EVT"
   \            5F4D5347
   \            5F455654
   \            00      

   \                                 In  segment XDATA_ROM_C, align 1
   \                     `?<Constant "KEYPAD_MSG_EVT">`:
   \   000000   4B455950     DB "KEYPAD_MSG_EVT"
   \            41445F4D
   \            53475F45
   \            565400  

   \                                 In  segment XDATA_ROM_C, align 1
   \                     `?<Constant "zclUartReceiver">`:
   \   000000   7A636C55     DB "zclUartReceiver"
   \            61727452
   \            65636569
   \            76657200

   Maximum stack usage in bytes:

     Function                       ISTACK PSTACK XSTACK
     --------                       ------ ------ ------
     ZSendMsg                           0      0     88
       -> memset                        0      0    152
       -> show                          0      0    148
       -> osal_set_event                0      0    148
       -> osal_start_timerEx            0      0    148
     zclUARTMsg_CallBack                0      0     10
       -> Hal_UART_RxBufLen             0      0     20
       -> Hal_UART_RxBufLen             0      0     20
       -> HalUARTRead                   0      0     20
       -> osal_set_event                0      0     20
     zclUartReceiver                    1      0     33
       -> show                          0      0     20
       -> HalLcdWriteChar               0      0     20
       -> zcl_SendCommand               0      0     42
     zclZigbeeReceiver_BasicResetCB     0      0      0
     zclZigbeeReceiver_IdentifyCB       2      0      0
       -> zclZigbeeReceiver_ProcessIdentifyTimeChange
                                        4      0      0
     zclZigbeeReceiver_IdentifyQueryRspCB
                                        0      0      0
     zclZigbeeReceiver_OnOffCB          2      0      0
       -> HalLedSet                     4      0      0
       -> HalLedSet                     4      0      0
     zclZigbeeReceiver_ProcessIdentifyTimeChange
                                        2      0     12
       -> osal_start_timerEx            4      0      0
       -> HalLedBlink                   4      0      0
       -> HalLedSet                     4      0      0
       -> HalLedSet                     4      0      0
       -> osal_stop_timerEx             4      0      0
     zclZigbeeRecv_Init                 0      0     14
       -> zclZD_Init                    0      0     22
       -> zclGeneral_RegisterCmdCallbacks
                                        0      0     22
       -> zcl_registerAttrList          0      0     22
       -> zcl_registerForMsg            0      0     22
       -> RegisterForKeys               0      0     22
       -> osal_memcpy                   0      0     28
       -> aps_AddGroup                  0      0     22
       -> afRegister                    0      0     22
     zclZigbeeRecv_event_loop           1      0     12
       -> show                          0      0     24
       -> zclZigbeeReceiver_ProcessIdentifyTimeChange
                                        0      0     24
       -> show                          0      0     24
       -> osal_msg_deallocate           0      0     24
       -> osal_msg_receive              0      0     24
       -> show                          0      0     24
       -> osal_mem_free                 0      0     24
       -> show                          0      0     24
       -> ZSendMsg                      0      0     24
       -> show                          0      0     24
       -> show                          0      0     24
       -> show                          0      0     24
       -> show                          0      0     24
       -> show                          0      0     24
       -> show                          0      0     24
       -> show                          0      0     24
       -> show                          0      0     24
       -> show                          0      0     24
       -> show                          0      0     24
       -> show                          0      0     24
       -> show                          0      0     24
       -> show                          0      0     24
       -> zclUartReceiver               0      0     24
       -> show                          0      0     24
       -> HalLcdWriteChar               0      0     24
     zclZigbeeSendMsg_event_loop        0      0     12
       -> show                          0      0     24
       -> osal_msg_receive              0      0     24
       -> show                          0      0     24
       -> osal_msg_deallocate           0      0     24
       -> osal_msg_receive              0      0     24
       -> show                          0      0     24


   Segment part sizes:

     Function/Label                                  Bytes
     --------------                                  -----
     send_msg_counter                                   1
     zclZigbeeReceiver_TaskID                           1
     ZDO_MSG_SEND_ID                                    1
     len                                                1
     TransmitApp_Msg                                  102
     UartTransmit_Msg                                 102
     uart_recv                                        102
     zclZigbeeRecv_DstAddr                             12
     zclZigbeeRecv_Group                               18
     zigbeeReceiver_TestEp                              6
     zclZigbeeReceiver_CmdCallbacks                    30
     ZSendMsg                                          79
     ?Subroutine3                                       3
     ??Subroutine6_0                                    5
     zclZigbeeRecv_Init                               136
     zclZigbeeSendMsg_event_loop                      100
     ?Subroutine4                                       5
     ?Subroutine1                                      15
     zclZigbeeRecv_event_loop                         384
     ?Subroutine0                                      14
     ?Subroutine2                                      12
     zclZigbeeReceiver_ProcessIdentifyTimeChange
                                                       79
     ?Subroutine5                                       7
     zclZigbeeReceiver_BasicResetCB                     3
     zclZigbeeReceiver_IdentifyCB                      28
     zclZigbeeReceiver_IdentifyQueryRspCB
                                                        3
     zclZigbeeReceiver_OnOffCB                         37
     zclUARTMsg_CallBack                               53
     zclUartReceiver                                  161
     ?<Initializer for zigbeeReceiver_TestEp>           6
     ?<Initializer for zclZigbeeReceiver_CmdCallbac    30
     ??ZSendMsg?relay                                   6
     ??zclZigbeeRecv_Init?relay                         6
     ??zclZigbeeSendMsg_event_loop?relay                6
     ??zclZigbeeRecv_event_loop?relay                   6
     ??zclZigbeeReceiver_ProcessIdentifyTimeChange?r    6
     ??zclZigbeeReceiver_BasicResetCB?relay             6
     ??zclZigbeeReceiver_IdentifyCB?relay               6
     ??zclZigbeeReceiver_IdentifyQueryRspCB?relay       6
     ??zclZigbeeReceiver_OnOffCB?relay                  6
     ??zclUARTMsg_CallBack?relay                        6
     ??zclUartReceiver?relay                            6
     ?<Constant "Chris:KEY_CHANGE">                    17
     ?<Constant "RECV_GROUP">                          11
     ?<Constant "Fuck you!">                           10
     ?<Constant "Chris:ZDO_STATE_CHANGE">              23
     ?<Constant "ZDO_MSG_SEND_EVT">                    17
     ?<Constant "ZCL_INCOMING_MSG">                    17
     ?<Constant "KEY_CHANGE">                          11
     ?<Constant "Hi">                                   3
     ?<Constant "AF_INCOMING_MSG_CMD">                 20
     ?<Constant "AF_INCOMING_KVP_CMD">                 20
     ?<Constant "AF_INCOMING_GRP_KVP_CMD">             24
     ?<Constant "ZDO_NEW_DSTADDR">                     16
     ?<Constant "ZDO_STATE_CHANGE">                    17
     ?<Constant "ZDO_MATCH_DESC_RSP_SENT">             24
     ?<Constant "ZDO_CB_MSG">                          11
     ?<Constant "ZDO_NETWORK_REPORT">                  19
     ?<Constant "ZDO_NETWORK_UPDATE">                  19
     ?<Constant "NM_CHANNEL_INTERFERE">                21
     ?<Constant "NM_ED_SCAN_CONFIRM">                  19
     ?<Constant "SAPS_CHANNEL_CHANGE">                 20
     ?<Constant "ZCL_KEY_ESTABLISH_IND">               22
     ?<Constant "SAMPLELIGHT_IDENTIFY_...">            33
     ?<Constant "UART_MSG_EVT">                        13
     ?<Constant "KEYPAD_MSG_EVT">                      15
     ?<Constant "zclUartReceiver">                     16

 
 1 124 bytes in segment BANKED_CODE
    66 bytes in segment BANK_RELAYS
    36 bytes in segment XDATA_I
    36 bytes in segment XDATA_ID
   438 bytes in segment XDATA_ROM_C
   340 bytes in segment XDATA_Z
 
 1 226 bytes of CODE  memory
   438 bytes of CONST memory
   376 bytes of XDATA memory

Errors: none
Warnings: 2
