///////////////////////////////////////////////////////////////////////////////
//                                                                            /
// IAR C/C++ Compiler V7.51A/W32 for 8051               11/Mar/2010  16:05:26 /
// Copyright 2004-2009 IAR Systems AB.                                        /
//                                                                            /
//    Core               =  plain                                             /
//    Code model         =  banked                                            /
//    Data model         =  large                                             /
//    Calling convention =  xdata reentrant                                   /
//    Constant location  =  data_rom                                          /
//    Dptr setup         =  1,16                                              /
//    Source file        =  D:\µ{¦¡¶}µo\TI Zigbee Z-Stack\ZStack-CC2530-2.3.0 /
//                          -1.4.0\Components\hal\target\CC2530KB\hal_kit1_lc /
//                          d.c                                               /
//    Command line       =  -f "D:\µ{¦¡¶}µo\TI Zigbee                         /
//                          Z-Stack\ZStack-CC2530-2.3.0-1.4.0\Projects\zstack /
//                          \HomeAutomation\SampleSwitch\CC2530DB\..\..\..\To /
//                          ols\CC2530DB\f8wEndev.cfg" (-DCPU32MHZ            /
//                          -DROOT=__near_func -DBLINK_LEDS) -f               /
//                          "D:\µ{¦¡¶}µo\TI Zigbee Z-Stack\ZStack-CC2530-2.3. /
//                          0-1.4.0\Projects\zstack\HomeAutomation\SampleSwit /
//                          ch\CC2530DB\..\..\..\Tools\CC2530DB\f8wConfig.cfg /
//                          " (-DSECURE=0 -DZG_SECURE_DYNAMIC=0 -DREFLECTOR   /
//                          -DDEFAULT_CHANLIST=0x00000800                     /
//                          -DZDAPP_CONFIG_PAN_ID=0xFFFF                      /
//                          -DNWK_START_DELAY=100 -DEXTENDED_JOINING_RANDOM_M /
//                          ASK=0x007F -DBEACON_REQUEST_DELAY=100             /
//                          -DBEACON_REQ_DELAY_MASK=0x00FF                    /
//                          -DROUTE_EXPIRY_TIME=30 -DAPSC_ACK_WAIT_DURATION_P /
//                          OLLED=3000 -DNWK_INDIRECT_MSG_TIMEOUT=7           /
//                          -DMAX_RREQ_ENTRIES=8 -DAPSC_MAX_FRAME_RETRIES=3   /
//                          -DNWK_MAX_DATA_RETRIES=2                          /
//                          -DMAX_POLL_FAILURE_RETRIES=2 -DMAX_BCAST=9        /
//                          -DAPS_MAX_GROUPS=16 -DMAX_RTG_ENTRIES=40          /
//                          -DNWK_MAX_BINDING_ENTRIES=4                       /
//                          -DMAX_BINDING_CLUSTER_IDS=4                       /
//                          "-DDEFAULT_KEY={0x01, 0x03, 0x05, 0x07, 0x09,     /
//                          0x0B, 0x0D, 0x0F, 0x00, 0x02, 0x04, 0x06, 0x08,   /
//                          0x0A, 0x0C, 0x0D}" -DMAC_MAX_FRAME_SIZE=116       /
//                          "-DCONST=const __code" -DGENERIC=__generic        /
//                          -DRFD_RCVC_ALWAYS_ON=FALSE -DPOLL_RATE=1000       /
//                          -DQUEUED_POLL_RATE=100 -DRESPONSE_POLL_RATE=100   /
//                          -DREJOIN_POLL_RATE=440) -f "D:\µ{¦¡¶}µo\TI        /
//                          Zigbee Z-Stack\ZStack-CC2530-2.3.0-1.4.0\Projects /
//                          \zstack\HomeAutomation\SampleSwitch\CC2530DB\..\. /
//                          .\..\Tools\CC2530DB\f8wZCL.cfg" (-DZCL_READ       /
//                          -DZCL_WRITE -DZCL_BASIC -DZCL_IDENTIFY            /
//                          -DZCL_ON_OFF -DZCL_KEY_ESTABLISH                  /
//                          -DZCL_LOAD_CONTROL -DZCL_SIMPLE_METERING          /
//                          -DZCL_PRICING) -DZCL_MESSAGE "D:\µ{¦¡¶}µo\TI      /
//                          Zigbee Z-Stack\ZStack-CC2530-2.3.0-1.4.0\Componen /
//                          ts\hal\target\CC2530KB\hal_kit1_lcd.c" -D         /
//                          NWK_AUTO_POLL -D ZTOOL_P1 -D MT_TASK -D           /
//                          MT_APP_FUNC -D MT_SYS_FUNC -D MT_ZDO_FUNC -D      /
//                          LCD_SUPPORTED=DEBUG -D xPOWER_SAVING -lC          /
//                          "D:\µ{¦¡¶}µo\TI Zigbee Z-Stack\ZStack-CC2530-2.3. /
//                          0-1.4.0\Projects\zstack\HomeAutomation\SampleSwit /
//                          ch\CC2530DB\EndDeviceKB\List\" -lA                /
//                          "D:\µ{¦¡¶}µo\TI Zigbee Z-Stack\ZStack-CC2530-2.3. /
//                          0-1.4.0\Projects\zstack\HomeAutomation\SampleSwit /
//                          ch\CC2530DB\EndDeviceKB\List\" --diag_suppress    /
//                          Pe001,Pa010 -o "D:\µ{¦¡¶}µo\TI Zigbee             /
//                          Z-Stack\ZStack-CC2530-2.3.0-1.4.0\Projects\zstack /
//                          \HomeAutomation\SampleSwitch\CC2530DB\EndDeviceKB /
//                          \Obj\" -e --require_prototypes --debug            /
//                          --core=plain --dptr=16,1 --data_model=large       /
//                          --code_model=banked --calling_convention=xdata_re /
//                          entrant --place_constants=data_rom                /
//                          --nr_virtual_regs 16 -I "D:\µ{¦¡¶}µo\TI Zigbee    /
//                          Z-Stack\ZStack-CC2530-2.3.0-1.4.0\Projects\zstack /
//                          \HomeAutomation\SampleSwitch\CC2530DB\" -I        /
//                          "D:\µ{¦¡¶}µo\TI Zigbee Z-Stack\ZStack-CC2530-2.3. /
//                          0-1.4.0\Projects\zstack\HomeAutomation\SampleSwit /
//                          ch\CC2530DB\..\SOURCE\" -I "D:\µ{¦¡¶}µo\TI        /
//                          Zigbee Z-Stack\ZStack-CC2530-2.3.0-1.4.0\Projects /
//                          \zstack\HomeAutomation\SampleSwitch\CC2530DB\..\. /
//                          .\SOURCE\" -I "D:\µ{¦¡¶}µo\TI Zigbee              /
//                          Z-Stack\ZStack-CC2530-2.3.0-1.4.0\Projects\zstack /
//                          \HomeAutomation\SampleSwitch\CC2530DB\..\..\..\ZM /
//                          AIN\TI2530DB\" -I "D:\µ{¦¡¶}µo\TI Zigbee          /
//                          Z-Stack\ZStack-CC2530-2.3.0-1.4.0\Projects\zstack /
//                          \HomeAutomation\SampleSwitch\CC2530DB\..\..\..\.. /
//                          \..\COMPONENTS\MT\" -I "D:\µ{¦¡¶}µo\TI Zigbee     /
//                          Z-Stack\ZStack-CC2530-2.3.0-1.4.0\Projects\zstack /
//                          \HomeAutomation\SampleSwitch\CC2530DB\..\..\..\.. /
//                          \..\COMPONENTS\HAL\INCLUDE\" -I "D:\µ{¦¡¶}µo\TI   /
//                          Zigbee Z-Stack\ZStack-CC2530-2.3.0-1.4.0\Projects /
//                          \zstack\HomeAutomation\SampleSwitch\CC2530DB\..\. /
//                          .\..\..\..\COMPONENTS\HAL\TARGET\CC2530EB\" -I    /
//                          "D:\µ{¦¡¶}µo\TI Zigbee Z-Stack\ZStack-CC2530-2.3. /
//                          0-1.4.0\Projects\zstack\HomeAutomation\SampleSwit /
//                          ch\CC2530DB\..\..\..\..\..\COMPONENTS\OSAL\MCU\CC /
//                          SOC\" -I "D:\µ{¦¡¶}µo\TI Zigbee                   /
//                          Z-Stack\ZStack-CC2530-2.3.0-1.4.0\Projects\zstack /
//                          \HomeAutomation\SampleSwitch\CC2530DB\..\..\..\.. /
//                          \..\COMPONENTS\OSAL\INCLUDE\" -I "D:\µ{¦¡¶}µo\TI  /
//                          Zigbee Z-Stack\ZStack-CC2530-2.3.0-1.4.0\Projects /
//                          \zstack\HomeAutomation\SampleSwitch\CC2530DB\..\. /
//                          .\..\..\..\COMPONENTS\STACK\AF\" -I               /
//                          "D:\µ{¦¡¶}µo\TI Zigbee Z-Stack\ZStack-CC2530-2.3. /
//                          0-1.4.0\Projects\zstack\HomeAutomation\SampleSwit /
//                          ch\CC2530DB\..\..\..\..\..\COMPONENTS\STACK\NWK\" /
//                           -I "D:\µ{¦¡¶}µo\TI Zigbee                        /
//                          Z-Stack\ZStack-CC2530-2.3.0-1.4.0\Projects\zstack /
//                          \HomeAutomation\SampleSwitch\CC2530DB\..\..\..\.. /
//                          \..\COMPONENTS\STACK\SEC\" -I "D:\µ{¦¡¶}µo\TI     /
//                          Zigbee Z-Stack\ZStack-CC2530-2.3.0-1.4.0\Projects /
//                          \zstack\HomeAutomation\SampleSwitch\CC2530DB\..\. /
//                          .\..\..\..\COMPONENTS\STACK\SAPI\" -I             /
//                          "D:\µ{¦¡¶}µo\TI Zigbee Z-Stack\ZStack-CC2530-2.3. /
//                          0-1.4.0\Projects\zstack\HomeAutomation\SampleSwit /
//                          ch\CC2530DB\..\..\..\..\..\COMPONENTS\STACK\SYS\" /
//                           -I "D:\µ{¦¡¶}µo\TI Zigbee                        /
//                          Z-Stack\ZStack-CC2530-2.3.0-1.4.0\Projects\zstack /
//                          \HomeAutomation\SampleSwitch\CC2530DB\..\..\..\.. /
//                          \..\COMPONENTS\STACK\ZCL\" -I "D:\µ{¦¡¶}µo\TI     /
//                          Zigbee Z-Stack\ZStack-CC2530-2.3.0-1.4.0\Projects /
//                          \zstack\HomeAutomation\SampleSwitch\CC2530DB\..\. /
//                          .\..\..\..\COMPONENTS\STACK\ZDO\" -I              /
//                          "D:\µ{¦¡¶}µo\TI Zigbee Z-Stack\ZStack-CC2530-2.3. /
//                          0-1.4.0\Projects\zstack\HomeAutomation\SampleSwit /
//                          ch\CC2530DB\..\..\..\..\..\COMPONENTS\ZMAC\F8W\"  /
//                          -I "D:\µ{¦¡¶}µo\TI Zigbee                         /
//                          Z-Stack\ZStack-CC2530-2.3.0-1.4.0\Projects\zstack /
//                          \HomeAutomation\SampleSwitch\CC2530DB\..\..\..\.. /
//                          \..\COMPONENTS\ZMAC\" -I "D:\µ{¦¡¶}µo\TI Zigbee   /
//                          Z-Stack\ZStack-CC2530-2.3.0-1.4.0\Projects\zstack /
//                          \HomeAutomation\SampleSwitch\CC2530DB\..\..\..\.. /
//                          \..\COMPONENTS\SERVICES\SADDR\" -I                /
//                          "D:\µ{¦¡¶}µo\TI Zigbee Z-Stack\ZStack-CC2530-2.3. /
//                          0-1.4.0\Projects\zstack\HomeAutomation\SampleSwit /
//                          ch\CC2530DB\..\..\..\..\..\COMPONENTS\SERVICES\SD /
//                          ATA\" -I "D:\µ{¦¡¶}µo\TI Zigbee                   /
//                          Z-Stack\ZStack-CC2530-2.3.0-1.4.0\Projects\zstack /
//                          \HomeAutomation\SampleSwitch\CC2530DB\..\..\..\.. /
//                          \..\COMPONENTS\MAC\INCLUDE\" -I "D:\µ{¦¡¶}µo\TI   /
//                          Zigbee Z-Stack\ZStack-CC2530-2.3.0-1.4.0\Projects /
//                          \zstack\HomeAutomation\SampleSwitch\CC2530DB\..\. /
//                          .\..\..\..\COMPONENTS\MAC\HIGH_LEVEL\" -I         /
//                          "D:\µ{¦¡¶}µo\TI Zigbee Z-Stack\ZStack-CC2530-2.3. /
//                          0-1.4.0\Projects\zstack\HomeAutomation\SampleSwit /
//                          ch\CC2530DB\..\..\..\..\..\COMPONENTS\MAC\LOW_LEV /
//                          EL\srf04\" -I "D:\µ{¦¡¶}µo\TI Zigbee              /
//                          Z-Stack\ZStack-CC2530-2.3.0-1.4.0\Projects\zstack /
//                          \HomeAutomation\SampleSwitch\CC2530DB\..\..\..\.. /
//                          \..\COMPONENTS\MAC\LOW_LEVEL\srf04\SINGLE_CHIP\"  /
//                          -I "C:\Program Files\IAR Systems\Embedded         /
//                          Workbench 5.3\8051\INC\" -I "C:\Program           /
//                          Files\IAR Systems\Embedded Workbench              /
//                          5.3\8051\INC\CLIB\" -Ohz                          /
//    List file          =  D:\µ{¦¡¶}µo\TI Zigbee Z-Stack\ZStack-CC2530-2.3.0 /
//                          -1.4.0\Projects\zstack\HomeAutomation\SampleSwitc /
//                          h\CC2530DB\EndDeviceKB\List\hal_kit1_lcd.s51      /
//                                                                            /
//                                                                            /
///////////////////////////////////////////////////////////////////////////////

        NAME hal_kit1_lcd

        RTMODEL "__calling_convention", "xdata_reentrant"
        RTMODEL "__code_model", "banked"
        RTMODEL "__core", "plain"
        RTMODEL "__data_model", "large"
        RTMODEL "__dptr_size", "16"
        RTMODEL "__extended_stack", "disabled"
        RTMODEL "__location_for_constants", "data"
        RTMODEL "__number_of_dptrs", "1"
        RTMODEL "__rt_version", "1"

        RSEG DOVERLAY:DATA:NOROOT(0)
        RSEG IOVERLAY:IDATA:NOROOT(0)
        RSEG ISTACK:IDATA:NOROOT(0)
        RSEG PSTACK:XDATA:NOROOT(0)
        RSEG XSTACK:XDATA:NOROOT(0)

        EXTERN ??HalLcdWriteString?relay
        EXTERN ??HalLcd_HW_Clear?relay
        EXTERN ??HalLcd_HW_WriteLine?relay
        EXTERN ??halLcdInit?relay
        EXTERN ??halLcdWriteChar?relay
        EXTERN ??lcdControl?relay
        EXTERN ??lcdWrite?relay
        EXTERN ?ALLOC_XSTACK8
        EXTERN ?BANKED_ENTER_XDATA
        EXTERN ?BANKED_LEAVE_XDATA
        EXTERN ?BDISPATCH
        EXTERN ?BRET
        EXTERN ?DEALLOC_XSTACK8
        EXTERN ?PUSH_XSTACK_I_THREE
        EXTERN ?PUSH_XSTACK_I_TWO
        EXTERN ?V0
        EXTERN ?XSP
        EXTERN ?XSTACK_DISP0_8
        EXTERN __INIT_XDATA_Z

        PUBLIC ??HalLcdDisplayPercentBar?relay
        FUNCTION ??HalLcdDisplayPercentBar?relay,0203H
        PUBLIC ??HalLcdInit?relay
        FUNCTION ??HalLcdInit?relay,0203H
        PUBLIC ??HalLcdWriteScreen?relay
        FUNCTION ??HalLcdWriteScreen?relay,0203H
        PUBLIC ??HalLcdWriteString?relay
        FUNCTION ??HalLcdWriteString?relay,0203H
        PUBLIC ??HalLcdWriteStringValue?relay
        FUNCTION ??HalLcdWriteStringValue?relay,0203H
        PUBLIC ??HalLcdWriteStringValueValue?relay
        FUNCTION ??HalLcdWriteStringValueValue?relay,0203H
        PUBLIC ??HalLcdWriteValue?relay
        FUNCTION ??HalLcdWriteValue?relay,0203H
        PUBLIC ??HalLcd_HW_Clear?relay
        FUNCTION ??HalLcd_HW_Clear?relay,0203H
        PUBLIC ??HalLcd_HW_ClearAllSpecChars?relay
        FUNCTION ??HalLcd_HW_ClearAllSpecChars?relay,0203H
        PUBLIC ??HalLcd_HW_SetContrast?relay
        FUNCTION ??HalLcd_HW_SetContrast?relay,0203H
        PUBLIC ??HalLcd_HW_WaitUs?relay
        FUNCTION ??HalLcd_HW_WaitUs?relay,0203H
        PUBLIC ??HalLcd_HW_WriteLine?relay
        FUNCTION ??HalLcd_HW_WriteLine?relay,0203H
        FUNCTION ??halLcdInit?relay,0203H
        FUNCTION ??halLcdWriteChar?relay,0203H
        FUNCTION ??lcdControl?relay,0203H
        FUNCTION ??lcdWrite?relay,0203H
        PUBLIC Font16x8
        PUBLIC HalLcdDisplayPercentBar
        FUNCTION HalLcdDisplayPercentBar,021203H
        ARGFRAME XSTACK, 0, STACK
        LOCFRAME ISTACK, 1, STACK
        LOCFRAME XSTACK, 35, STACK
        PUBLIC HalLcdInit
        FUNCTION HalLcdInit,021203H
        ARGFRAME XSTACK, 0, STACK
        LOCFRAME ISTACK, 2, STACK
        PUBLIC HalLcdWriteScreen
        FUNCTION HalLcdWriteScreen,021203H
        ARGFRAME XSTACK, 0, STACK
        LOCFRAME XSTACK, 9, STACK
        PUBLIC HalLcdWriteString
        FUNCTION HalLcdWriteString,021203H
        ARGFRAME XSTACK, 43, STACK
        ARGFRAME IOVERLAY, 0, STATIC
        ARGFRAME DOVERLAY, 0, STATIC
        LOCFRAME ISTACK, 1, STACK
        LOCFRAME XSTACK, 27, STACK
        PUBLIC HalLcdWriteStringValue
        FUNCTION HalLcdWriteStringValue,021203H
        ARGFRAME XSTACK, 1, STACK
        LOCFRAME ISTACK, 1, STACK
        LOCFRAME XSTACK, 46, STACK
        PUBLIC HalLcdWriteStringValueValue
        FUNCTION HalLcdWriteStringValueValue,021203H
        ARGFRAME XSTACK, 4, STACK
        LOCFRAME ISTACK, 1, STACK
        LOCFRAME XSTACK, 46, STACK
        PUBLIC HalLcdWriteValue
        FUNCTION HalLcdWriteValue,021203H
        ARGFRAME XSTACK, 1, STACK
        LOCFRAME XSTACK, 41, STACK
        PUBLIC HalLcd_HW_Clear
        FUNCTION HalLcd_HW_Clear,021203H
        ARGFRAME XSTACK, 0, STACK
        ARGFRAME IOVERLAY, 0, STATIC
        ARGFRAME DOVERLAY, 0, STATIC
        LOCFRAME XSTACK, 9, STACK
        PUBLIC HalLcd_HW_ClearAllSpecChars
        FUNCTION HalLcd_HW_ClearAllSpecChars,021203H
        ARGFRAME XSTACK, 0, STACK
        LOCFRAME XSTACK, 9, STACK
        PUBLIC HalLcd_HW_SetContrast
        FUNCTION HalLcd_HW_SetContrast,021203H
        ARGFRAME XSTACK, 0, STACK
        LOCFRAME XSTACK, 9, STACK
        PUBLIC HalLcd_HW_WaitUs
        FUNCTION HalLcd_HW_WaitUs,080203H
        ARGFRAME XSTACK, 0, STACK
        PUBLIC HalLcd_HW_WriteLine
        FUNCTION HalLcd_HW_WriteLine,021203H
        ARGFRAME XSTACK, 24, STACK
        ARGFRAME IOVERLAY, 0, STATIC
        ARGFRAME DOVERLAY, 0, STATIC
        LOCFRAME XSTACK, 11, STACK
        PUBWEAK P0DIR
        PUBWEAK _A_P0
        PUBWEAK _A_P1
        PUBWEAK _A_P2
        FUNCTION halLcdInit,021203H
        ARGFRAME XSTACK, 0, STACK
        ARGFRAME IOVERLAY, 0, STATIC
        ARGFRAME DOVERLAY, 0, STATIC
        LOCFRAME ISTACK, 2, STACK
        FUNCTION halLcdWriteChar,021203H
        ARGFRAME XSTACK, 11, STACK
        ARGFRAME IOVERLAY, 0, STATIC
        ARGFRAME DOVERLAY, 0, STATIC
        LOCFRAME XSTACK, 9, STACK
        FUNCTION lcdControl,021203H
        ARGFRAME XSTACK, 9, STACK
        ARGFRAME IOVERLAY, 0, STATIC
        ARGFRAME DOVERLAY, 0, STATIC
        LOCFRAME ISTACK, 2, STACK
        FUNCTION lcdWrite,021203H
        ARGFRAME XSTACK, 9, STACK
        ARGFRAME IOVERLAY, 0, STATIC
        ARGFRAME DOVERLAY, 0, STATIC
        LOCFRAME ISTACK, 2, STACK
        PUBLIC pLedData
        
        CFI Names cfiNames0
        CFI StackFrame CFA_SP SP IDATA
        CFI StackFrame CFA_PSP16 PSP16 XDATA
        CFI StackFrame CFA_XSP16 XSP16 XDATA
        CFI StaticOverlayFrame CFA_IOVERLAY IOVERLAY
        CFI StaticOverlayFrame CFA_DOVERLAY DOVERLAY
        CFI Resource `PSW.CY`:1, `B.BR0`:1, `B.BR1`:1, `B.BR2`:1, `B.BR3`:1
        CFI Resource `B.BR4`:1, `B.BR5`:1, `B.BR6`:1, `B.BR7`:1, `VB.BR8`:1
        CFI Resource `VB.BR9`:1, `VB.BR10`:1, `VB.BR11`:1, `VB.BR12`:1
        CFI Resource `VB.BR13`:1, `VB.BR14`:1, `VB.BR15`:1, VB:8, B:8, A:8
        CFI Resource PSW:8, DPL0:8, DPH0:8, R0:8, R1:8, R2:8, R3:8, R4:8, R5:8
        CFI Resource R6:8, R7:8, V0:8, V1:8, V2:8, V3:8, V4:8, V5:8, V6:8, V7:8
        CFI Resource V8:8, V9:8, V10:8, V11:8, V12:8, V13:8, V14:8, V15:8, SP:8
        CFI Resource PSPH:8, PSPL:8, PSP16:16, XSPH:8, XSPL:8, XSP16:16
        CFI VirtualResource ?RET:24
        CFI Resource ?BRET_EXT:8
        CFI VirtualResource ?RET_HIGH:8, ?RET_LOW:8
        CFI ResourceParts PSP16 PSPH, PSPL
        CFI ResourceParts XSP16 XSPH, XSPL
        CFI ResourceParts ?RET ?BRET_EXT, ?RET_HIGH, ?RET_LOW
        CFI EndNames cfiNames0
        
        CFI Common cfiCommon0 Using cfiNames0
        CFI CodeAlign 1
        CFI DataAlign -1
        CFI ReturnAddress ?RET CODE
        CFI CFA_DOVERLAY Used
        CFI CFA_IOVERLAY Used
        CFI CFA_SP SP+-3
        CFI CFA_PSP16 PSP16+0
        CFI CFA_XSP16 XSP16+0
        CFI `PSW.CY` SameValue
        CFI `B.BR0` SameValue
        CFI `B.BR1` SameValue
        CFI `B.BR2` SameValue
        CFI `B.BR3` SameValue
        CFI `B.BR4` SameValue
        CFI `B.BR5` SameValue
        CFI `B.BR6` SameValue
        CFI `B.BR7` SameValue
        CFI `VB.BR8` SameValue
        CFI `VB.BR9` SameValue
        CFI `VB.BR10` SameValue
        CFI `VB.BR11` SameValue
        CFI `VB.BR12` SameValue
        CFI `VB.BR13` SameValue
        CFI `VB.BR14` SameValue
        CFI `VB.BR15` SameValue
        CFI VB SameValue
        CFI B Undefined
        CFI A Undefined
        CFI PSW SameValue
        CFI DPL0 SameValue
        CFI DPH0 SameValue
        CFI R0 Undefined
        CFI R1 Undefined
        CFI R2 Undefined
        CFI R3 Undefined
        CFI R4 Undefined
        CFI R5 Undefined
        CFI R6 SameValue
        CFI R7 SameValue
        CFI V0 SameValue
        CFI V1 SameValue
        CFI V2 SameValue
        CFI V3 SameValue
        CFI V4 SameValue
        CFI V5 SameValue
        CFI V6 SameValue
        CFI V7 SameValue
        CFI V8 SameValue
        CFI V9 SameValue
        CFI V10 SameValue
        CFI V11 SameValue
        CFI V12 SameValue
        CFI V13 SameValue
        CFI V14 SameValue
        CFI V15 SameValue
        CFI PSPH Undefined
        CFI PSPL Undefined
        CFI XSPH Undefined
        CFI XSPL Undefined
        CFI ?RET Concat
        CFI ?BRET_EXT Frame(CFA_SP, 3)
        CFI ?RET_HIGH Frame(CFA_SP, 2)
        CFI ?RET_LOW Frame(CFA_SP, 1)
        CFI EndCommon cfiCommon0
        
        
        CFI Common cfiCommon1 Using cfiNames0
        CFI CodeAlign 1
        CFI DataAlign -1
        CFI ReturnAddress ?RET CODE
        CFI CFA_DOVERLAY Used
        CFI CFA_IOVERLAY Used
        CFI CFA_SP SP+-2
        CFI CFA_PSP16 PSP16+0
        CFI CFA_XSP16 XSP16+0
        CFI `PSW.CY` SameValue
        CFI `B.BR0` SameValue
        CFI `B.BR1` SameValue
        CFI `B.BR2` SameValue
        CFI `B.BR3` SameValue
        CFI `B.BR4` SameValue
        CFI `B.BR5` SameValue
        CFI `B.BR6` SameValue
        CFI `B.BR7` SameValue
        CFI `VB.BR8` SameValue
        CFI `VB.BR9` SameValue
        CFI `VB.BR10` SameValue
        CFI `VB.BR11` SameValue
        CFI `VB.BR12` SameValue
        CFI `VB.BR13` SameValue
        CFI `VB.BR14` SameValue
        CFI `VB.BR15` SameValue
        CFI VB SameValue
        CFI B SameValue
        CFI A SameValue
        CFI PSW SameValue
        CFI DPL0 SameValue
        CFI DPH0 SameValue
        CFI R0 SameValue
        CFI R1 SameValue
        CFI R2 SameValue
        CFI R3 SameValue
        CFI R4 SameValue
        CFI R5 SameValue
        CFI R6 SameValue
        CFI R7 SameValue
        CFI V0 SameValue
        CFI V1 SameValue
        CFI V2 SameValue
        CFI V3 SameValue
        CFI V4 SameValue
        CFI V5 SameValue
        CFI V6 SameValue
        CFI V7 SameValue
        CFI V8 SameValue
        CFI V9 SameValue
        CFI V10 SameValue
        CFI V11 SameValue
        CFI V12 SameValue
        CFI V13 SameValue
        CFI V14 SameValue
        CFI V15 SameValue
        CFI PSPH Undefined
        CFI PSPL Undefined
        CFI XSPH Undefined
        CFI XSPL Undefined
        CFI ?RET Concat
        CFI ?BRET_EXT SameValue
        CFI ?RET_HIGH Frame(CFA_SP, 2)
        CFI ?RET_LOW Frame(CFA_SP, 1)
        CFI EndCommon cfiCommon1
        
osal_mem_alloc      SYMBOL "osal_mem_alloc"
osal_strlen         SYMBOL "osal_strlen"
osal_memcpy         SYMBOL "osal_memcpy"
debug_str           SYMBOL "debug_str"
osal_mem_free       SYMBOL "osal_mem_free"
_ltoa               SYMBOL "_ltoa"
halMcuWaitMs        SYMBOL "halMcuWaitMs"
halMcuWaitUs        SYMBOL "halMcuWaitUs"
??_ltoa?relay       SYMBOL "?relay", _ltoa
??debug_str?relay   SYMBOL "?relay", debug_str
??halMcuWaitMs?relay SYMBOL "?relay", halMcuWaitMs
??halMcuWaitUs?relay SYMBOL "?relay", halMcuWaitUs
??osal_mem_alloc?relay SYMBOL "?relay", osal_mem_alloc
??osal_mem_free?relay SYMBOL "?relay", osal_mem_free
??osal_memcpy?relay SYMBOL "?relay", osal_memcpy
??osal_strlen?relay SYMBOL "?relay", osal_strlen
HalLcdDisplayPercentBar SYMBOL "HalLcdDisplayPercentBar"
??HalLcdDisplayPercentBar?relay SYMBOL "?relay", HalLcdDisplayPercentBar
HalLcdInit          SYMBOL "HalLcdInit"
??HalLcdInit?relay  SYMBOL "?relay", HalLcdInit
HalLcdWriteScreen   SYMBOL "HalLcdWriteScreen"
??HalLcdWriteScreen?relay SYMBOL "?relay", HalLcdWriteScreen
HalLcdWriteString   SYMBOL "HalLcdWriteString"
??HalLcdWriteString?relay SYMBOL "?relay", HalLcdWriteString
HalLcdWriteStringValue SYMBOL "HalLcdWriteStringValue"
??HalLcdWriteStringValue?relay SYMBOL "?relay", HalLcdWriteStringValue
HalLcdWriteStringValueValue SYMBOL "HalLcdWriteStringValueValue"
??HalLcdWriteStringValueValue?relay SYMBOL "?relay", HalLcdWriteStringValueValue
HalLcdWriteValue    SYMBOL "HalLcdWriteValue"
??HalLcdWriteValue?relay SYMBOL "?relay", HalLcdWriteValue
HalLcd_HW_Clear     SYMBOL "HalLcd_HW_Clear"
??HalLcd_HW_Clear?relay SYMBOL "?relay", HalLcd_HW_Clear
HalLcd_HW_ClearAllSpecChars SYMBOL "HalLcd_HW_ClearAllSpecChars"
??HalLcd_HW_ClearAllSpecChars?relay SYMBOL "?relay", HalLcd_HW_ClearAllSpecChars
HalLcd_HW_SetContrast SYMBOL "HalLcd_HW_SetContrast"
??HalLcd_HW_SetContrast?relay SYMBOL "?relay", HalLcd_HW_SetContrast
HalLcd_HW_WaitUs    SYMBOL "HalLcd_HW_WaitUs"
??HalLcd_HW_WaitUs?relay SYMBOL "?relay", HalLcd_HW_WaitUs
HalLcd_HW_WriteLine SYMBOL "HalLcd_HW_WriteLine"
??HalLcd_HW_WriteLine?relay SYMBOL "?relay", HalLcd_HW_WriteLine

        EXTERN osal_mem_alloc
        FUNCTION osal_mem_alloc,0202H
        ARGFRAME ISTACK, 0, STACK
        ARGFRAME PSTACK, 0, STACK
        ARGFRAME XSTACK, 24, STACK
        ARGFRAME IOVERLAY, 0, STATIC
        ARGFRAME DOVERLAY, 0, STATIC
        EXTERN osal_strlen
        FUNCTION osal_strlen,0202H
        ARGFRAME ISTACK, 0, STACK
        ARGFRAME PSTACK, 0, STACK
        ARGFRAME XSTACK, 43, STACK
        ARGFRAME IOVERLAY, 0, STATIC
        ARGFRAME DOVERLAY, 0, STATIC
        EXTERN osal_memcpy
        FUNCTION osal_memcpy,0202H
        ARGFRAME ISTACK, 0, STACK
        ARGFRAME PSTACK, 0, STACK
        ARGFRAME XSTACK, 46, STACK
        ARGFRAME IOVERLAY, 0, STATIC
        ARGFRAME DOVERLAY, 0, STATIC
        EXTERN debug_str
        FUNCTION debug_str,0202H
        ARGFRAME ISTACK, 0, STACK
        ARGFRAME PSTACK, 0, STACK
        ARGFRAME XSTACK, 24, STACK
        ARGFRAME IOVERLAY, 0, STATIC
        ARGFRAME DOVERLAY, 0, STATIC
        EXTERN osal_mem_free
        FUNCTION osal_mem_free,0202H
        ARGFRAME ISTACK, 0, STACK
        ARGFRAME PSTACK, 0, STACK
        ARGFRAME XSTACK, 24, STACK
        ARGFRAME IOVERLAY, 0, STATIC
        ARGFRAME DOVERLAY, 0, STATIC
        EXTERN _ltoa
        FUNCTION _ltoa,0202H
        ARGFRAME ISTACK, 0, STACK
        ARGFRAME PSTACK, 0, STACK
        ARGFRAME XSTACK, 45, STACK
        ARGFRAME IOVERLAY, 0, STATIC
        ARGFRAME DOVERLAY, 0, STATIC
        EXTERN halMcuWaitMs
        FUNCTION halMcuWaitMs,0202H
        ARGFRAME ISTACK, 2, STACK
        ARGFRAME PSTACK, 0, STACK
        ARGFRAME XSTACK, 0, STACK
        ARGFRAME IOVERLAY, 0, STATIC
        ARGFRAME DOVERLAY, 0, STATIC
        EXTERN halMcuWaitUs
        FUNCTION halMcuWaitUs,0202H
        ARGFRAME ISTACK, 2, STACK
        ARGFRAME PSTACK, 0, STACK
        ARGFRAME XSTACK, 0, STACK
        ARGFRAME IOVERLAY, 0, STATIC
        ARGFRAME DOVERLAY, 0, STATIC
        EXTERN ??_ltoa?relay
        FUNCTION ??_ltoa?relay,00H
        EXTERN ??debug_str?relay
        FUNCTION ??debug_str?relay,00H
        EXTERN ??halMcuWaitMs?relay
        FUNCTION ??halMcuWaitMs?relay,00H
        EXTERN ??halMcuWaitUs?relay
        FUNCTION ??halMcuWaitUs?relay,00H
        EXTERN ??osal_mem_alloc?relay
        FUNCTION ??osal_mem_alloc?relay,00H
        EXTERN ??osal_mem_free?relay
        FUNCTION ??osal_mem_free?relay,00H
        EXTERN ??osal_memcpy?relay
        FUNCTION ??osal_memcpy?relay,00H
        EXTERN ??osal_strlen?relay
        FUNCTION ??osal_strlen?relay,00H

// D:\µ{¦¡¶}µo\TI Zigbee Z-Stack\ZStack-CC2530-2.3.0-1.4.0\Components\hal\target\CC2530KB\hal_kit1_lcd.c
//    1 /**************************************************************************************************
//    2   Filename:       hal_lcd.c
//    3   Revised:        $Date: 2009-11-09 20:03:17 -0800 (Mon, 09 Nov 2009) $
//    4   Revision:       $Revision: 21106 $
//    5 
//    6   Description:    This file contains the interface to the HAL LCD Service.
//    7 
//    8 
//    9   Copyright 2007 - 2009 Texas Instruments Incorporated. All rights reserved.
//   10 
//   11   IMPORTANT: Your use of this Software is limited to those specific rights
//   12   granted under the terms of a software license agreement between the user
//   13   who downloaded the software, his/her employer (which must be your employer)
//   14   and Texas Instruments Incorporated (the "License").  You may not use this
//   15   Software unless you agree to abide by the terms of the License. The License
//   16   limits your use, and you acknowledge, that the Software may not be modified,
//   17   copied or distributed unless embedded on a Texas Instruments microcontroller
//   18   or used solely and exclusively in conjunction with a Texas Instruments radio
//   19   frequency transceiver, which is integrated into your product.  Other than for
//   20   the foregoing purpose, you may not use, reproduce, copy, prepare derivative
//   21   works of, modify, distribute, perform, display or sell this Software and/or
//   22   its documentation for any purpose.
//   23 
//   24   YOU FURTHER ACKNOWLEDGE AND AGREE THAT THE SOFTWARE AND DOCUMENTATION ARE
//   25   PROVIDED “AS IS?WITHOUT WARRANTY OF ANY KIND, EITHER EXPRESS OR IMPLIED,
//   26   INCLUDING WITHOUT LIMITATION, ANY WARRANTY OF MERCHANTABILITY, TITLE,
//   27   NON-INFRINGEMENT AND FITNESS FOR A PARTICULAR PURPOSE. IN NO EVENT SHALL
//   28   TEXAS INSTRUMENTS OR ITS LICENSORS BE LIABLE OR OBLIGATED UNDER CONTRACT,
//   29   NEGLIGENCE, STRICT LIABILITY, CONTRIBUTION, BREACH OF WARRANTY, OR OTHER
//   30   LEGAL EQUITABLE THEORY ANY DIRECT OR INDIRECT DAMAGES OR EXPENSES
//   31   INCLUDING BUT NOT LIMITED TO ANY INCIDENTAL, SPECIAL, INDIRECT, PUNITIVE
//   32   OR CONSEQUENTIAL DAMAGES, LOST PROFITS OR LOST DATA, COST OF PROCUREMENT
//   33   OF SUBSTITUTE GOODS, TECHNOLOGY, SERVICES, OR ANY CLAIMS BY THIRD PARTIES
//   34   (INCLUDING BUT NOT LIMITED TO ANY DEFENSE THEREOF), OR OTHER SIMILAR COSTS.
//   35 
//   36   Should you have any questions regarding your right to use this Software,
//   37   contact Texas Instruments Incorporated at www.TI.com.
//   38 **************************************************************************************************/
//   39 
//   40 /**************************************************************************************************
//   41  *                                           INCLUDES
//   42  **************************************************************************************************/
//   43 #include "hal_types.h"
//   44 #include "hal_kit1_lcd.h"

        ASEGN SFR_AN:DATA:NOROOT,080H
// union <unnamed> volatile __sfr _A_P0
_A_P0:
        DS 1

        ASEGN SFR_AN:DATA:NOROOT,090H
// union <unnamed> volatile __sfr _A_P1
_A_P1:
        DS 1

        ASEGN SFR_AN:DATA:NOROOT,0a0H
// union <unnamed> volatile __sfr _A_P2
_A_P2:
        DS 1

        ASEGN SFR_AN:DATA:NOROOT,0fdH
// unsigned char volatile __sfr P0DIR
P0DIR:
        DS 1
//   45 #include "OSAL.h"
//   46 #include "OnBoard.h"
//   47 #include "hal_keypad.h"
//   48 #include <string.h>
//   49 
//   50 #if defined (ZTOOL_P1) || defined (ZTOOL_P2)
//   51   #include "DebugTrace.h"
//   52 #endif
//   53 
//   54 //-------------------------------------------------------------------
//   55 // English Font  16 x 8   ASCII 32 ~ 127
//   56 //-------------------------------------------------------------------

        RSEG CODE_C:CODE:REORDER:NOROOT(0)
        DATA
//   57 __code const uint8 Font16x8[]={
Font16x8:
        DB 0, 0, 0, 0, 0, 0, 0, 0, 0, 0, 0, 0, 0, 0, 0, 0, 0, 0, 112, 248, 248
        DB 112, 0, 0, 0, 0, 0, 13, 13, 0, 0, 0, 0, 28, 60, 0, 0, 0, 60, 28, 0
        DB 0, 0, 0, 0, 0, 0, 0, 0, 32, 248, 248, 32, 248, 248, 32, 0, 2, 15, 15
        DB 2, 15, 15, 2, 0, 112, 248, 136, 142, 142, 152, 48, 0, 6, 12, 8, 56
        DB 56, 15, 7, 0, 96, 96, 0, 0, 128, 192, 96, 0, 8, 12, 6, 3, 1, 12, 12
        DB 0, 0, 176, 248, 200, 120, 176, 128, 0, 7, 15, 8, 9, 7, 15, 8, 0, 32
        DB 60, 28, 0, 0, 0, 0, 0, 0, 0, 0, 0, 0, 0, 0, 0, 0, 224, 240, 24, 8, 0
        DB 0, 0, 0, 3, 7, 12, 8, 0, 0, 0, 0, 0, 8, 24, 240, 224, 0, 0, 0, 0, 8
        DB 12, 7, 3, 0, 128, 160, 224, 192, 192, 224, 160, 128, 0, 2, 3, 1, 1
        DB 3, 2, 0, 128, 128, 128, 240, 240, 128, 128, 128, 0, 0, 0, 7, 7, 0, 0
        DB 0, 0, 0, 0, 0, 0, 0, 0, 0, 0, 0, 16, 30, 14, 0, 0, 0, 128, 128, 128
        DB 128, 128, 128, 128, 0, 0, 0, 0, 0, 0, 0, 0, 0, 0, 0, 0, 0, 0, 0, 0
        DB 0, 0, 0, 0, 12, 12, 0, 0, 0, 0, 0, 0, 128, 192, 96, 48, 24, 0, 6, 3
        DB 1, 0, 0, 0, 0, 0, 240, 248, 136, 200, 104, 248, 240, 0, 7, 15, 9, 8
        DB 8, 15, 7, 0, 0, 32, 48, 248, 248, 0, 0, 0, 0, 8, 8, 15, 15, 8, 8, 0
        DB 16, 24, 8, 136, 200, 120, 48, 0, 12, 14, 11, 9, 8, 12, 12, 0, 16, 24
        DB 136, 136, 136, 248, 112, 0, 4, 12, 8, 8, 8, 15, 7, 0, 128, 192, 96
        DB 48, 248, 248, 0, 0, 1, 1, 1, 9, 15, 15, 9, 0, 248, 248, 136, 136
        DB 136, 136, 8, 0, 4, 12, 8, 8, 8, 15, 7, 0, 224, 240, 152, 136, 136
        DB 128, 0, 0, 7, 15, 8, 8, 8, 15, 7, 0, 24, 24, 8, 136, 200, 120, 56, 0
        DB 0, 0, 15, 15, 0, 0, 0, 0, 112, 248, 136, 136, 136, 248, 112, 0, 7
        DB 15, 8, 8, 8, 15, 7, 0, 112, 248, 136, 136, 136, 248, 240, 0, 0, 8, 8
        DB 8, 12, 7, 3, 0, 0, 0, 48, 48, 0, 0, 0, 0, 0, 0, 6, 6, 0, 0, 0, 0, 0
        DB 0, 48, 48, 0, 0, 0, 0, 0, 8, 14, 6, 0, 0, 0, 0, 128, 192, 96, 48, 24
        DB 8, 0, 0, 0, 1, 3, 6, 12, 8, 0, 0, 64, 64, 64, 64, 64, 64, 0, 0, 2, 2
        DB 2, 2, 2, 2, 0, 0, 8, 24, 48, 96, 192, 128, 0, 0, 8, 12, 6, 3, 1, 0
        DB 0, 0, 48, 56, 8, 136, 200, 120, 48, 0, 0, 0, 0, 13, 13, 0, 0, 0, 240
        DB 248, 8, 200, 200, 248, 240, 0, 7, 15, 8, 11, 11, 11, 1, 0, 192, 224
        DB 48, 24, 48, 224, 192, 0, 15, 15, 1, 1, 1, 15, 15, 0, 8, 248, 248
        DB 136, 136, 248, 112, 0, 8, 15, 15, 8, 8, 15, 7, 0, 224, 240, 24, 8, 8
        DB 24, 48, 0, 3, 7, 12, 8, 8, 12, 6, 0, 8, 248, 248, 8, 24, 240, 224, 0
        DB 8, 15, 15, 8, 12, 7, 3, 0, 8, 248, 248, 136, 200, 24, 56, 0, 8, 15
        DB 15, 8, 9, 12, 14, 0, 8, 248, 248, 136, 200, 24, 56, 0, 8, 15, 15, 8
        DB 1, 0, 0, 0, 224, 240, 24, 8, 8, 24, 48, 0, 3, 7, 12, 9, 9, 7, 15, 0
        DB 248, 248, 128, 128, 128, 248, 248, 0, 15, 15, 0, 0, 0, 15, 15, 0, 0
        DB 8, 248, 248, 8, 0, 0, 0, 0, 8, 15, 15, 8, 0, 0, 0, 0, 0, 0, 8, 248
        DB 248, 8, 0, 6, 14, 8, 8, 15, 7, 0, 0, 8, 248, 248, 128, 224, 120, 24
        DB 0, 8, 15, 15, 0, 3, 15, 12, 0, 8, 248, 248, 8, 0, 0, 0, 0, 8, 15, 15
        DB 8, 8, 12, 14, 0, 248, 248, 48, 96, 48, 248, 248, 0, 15, 15, 0, 0, 0
        DB 15, 15, 0, 248, 248, 112, 224, 192, 248, 248, 0, 15, 15, 0, 0, 1, 15
        DB 15, 0, 224, 240, 24, 8, 24, 240, 224, 0, 3, 7, 12, 8, 12, 7, 3, 0, 8
        DB 248, 248, 136, 136, 248, 112, 0, 8, 15, 15, 8, 0, 0, 0, 0, 240, 248
        DB 8, 8, 8, 248, 240, 0, 3, 7, 4, 7, 30, 31, 19, 0, 8, 248, 248, 136
        DB 136, 248, 112, 0, 8, 15, 15, 0, 1, 15, 14, 0, 48, 120, 200, 136, 136
        DB 56, 48, 0, 6, 14, 8, 8, 9, 15, 6, 24, 8, 8, 248, 248, 8, 8, 24, 0, 0
        DB 8, 15, 15, 8, 0, 0, 0, 248, 248, 0, 0, 0, 248, 248, 0, 7, 15, 8, 8
        DB 8, 15, 7, 0, 248, 248, 0, 0, 0, 248, 248, 0, 1, 3, 6, 12, 6, 3, 1, 0
        DB 248, 248, 0, 0, 0, 248, 248, 0, 15, 15, 6, 3, 6, 15, 15, 0, 56, 120
        DB 192, 128, 192, 120, 56, 0, 14, 15, 1, 0, 1, 15, 14, 0, 56, 120, 192
        DB 128, 192, 120, 56, 0, 0, 8, 15, 15, 15, 8, 0, 0, 56, 24, 136, 200
        DB 104, 56, 24, 0, 14, 15, 9, 8, 8, 12, 14, 0, 0, 248, 248, 8, 8, 0, 0
        DB 0, 0, 15, 15, 8, 8, 0, 0, 0, 56, 112, 224, 192, 128, 0, 0, 0, 0, 0
        DB 0, 1, 3, 7, 14, 0, 0, 8, 8, 248, 248, 0, 0, 0, 0, 8, 8, 15, 15, 0, 0
        DB 0, 16, 24, 12, 6, 12, 24, 16, 0, 0, 0, 0, 0, 0, 0, 0, 0, 0, 0, 0, 0
        DB 0, 0, 0, 0, 32, 32, 32, 32, 32, 32, 0, 0, 0, 0, 6, 14, 8, 0, 0, 0, 0
        DB 0, 0, 0, 0, 0, 0, 0, 0, 64, 64, 64, 192, 128, 0, 0, 6, 15, 9, 9, 7
        DB 15, 8, 0, 8, 248, 248, 64, 192, 128, 0, 0, 8, 15, 7, 8, 8, 15, 7, 0
        DB 128, 192, 64, 64, 64, 192, 128, 0, 7, 15, 8, 8, 8, 12, 4, 0, 0, 128
        DB 192, 72, 248, 248, 0, 0, 7, 15, 8, 8, 7, 15, 8, 0, 128, 192, 64, 64
        DB 64, 192, 128, 0, 7, 15, 9, 9, 9, 13, 5, 0, 128, 240, 248, 136, 152
        DB 48, 0, 0, 8, 15, 15, 8, 0, 0, 0, 0, 128, 192, 64, 64, 128, 192, 64
        DB 0, 19, 55, 36, 36, 63, 31, 0, 0, 8, 248, 248, 128, 64, 192, 128, 0
        DB 8, 15, 15, 0, 0, 15, 15, 0, 0, 0, 64, 216, 216, 0, 0, 0, 0, 0, 8, 15
        DB 15, 8, 0, 0, 0, 0, 0, 64, 216, 216, 0, 0, 24, 56, 32, 32, 63, 31, 0
        DB 0, 8, 248, 248, 0, 128, 192, 64, 0, 8, 15, 15, 1, 3, 14, 12, 0, 0, 0
        DB 8, 248, 248, 0, 0, 0, 0, 0, 8, 15, 15, 8, 0, 0, 128, 192, 128, 128
        DB 128, 192, 128, 0, 15, 15, 0, 15, 0, 15, 15, 0, 64, 192, 128, 64, 64
        DB 192, 128, 0, 0, 15, 15, 0, 0, 15, 15, 0, 128, 192, 64, 64, 64, 192
        DB 128, 0, 7, 15, 8, 8, 8, 15, 7, 0, 64, 192, 128, 64, 64, 192, 128, 0
        DB 32, 63, 63, 36, 4, 7, 3, 0, 128, 192, 64, 64, 128, 192, 64, 0, 3, 7
        DB 4, 36, 63, 63, 32, 0, 64, 192, 128, 192, 64, 192, 128, 0, 8, 15, 15
        DB 8, 0, 1, 1, 0, 128, 192, 64, 64, 64, 192, 128, 0, 4, 13, 9, 11, 10
        DB 14, 4, 0, 64, 64, 240, 248, 64, 64, 0, 0, 0, 0, 7, 15, 8, 12, 4, 0
        DB 192, 192, 0, 0, 192, 192, 0, 0, 7, 15, 8, 8, 7, 15, 8, 0, 192, 192
        DB 0, 0, 0, 192, 192, 0, 1, 3, 6, 12, 6, 3, 1, 0, 192, 192, 0, 0, 0
        DB 192, 192, 0, 7, 15, 12, 6, 12, 15, 7, 0, 64, 192, 128, 0, 128, 192
        DB 64, 0, 8, 12, 7, 3, 7, 12, 8, 0, 192, 192, 0, 0, 0, 192, 192, 0, 3
        DB 39, 36, 36, 52, 31, 15, 0, 192, 192, 64, 64, 192, 192, 64, 0, 8, 12
        DB 14, 11, 9, 12, 12, 0, 128, 128, 240, 120, 8, 8, 0, 0, 0, 0, 7, 15, 8
        DB 8, 0, 0, 0, 0, 120, 120, 0, 0, 0, 0, 0, 0, 15, 15, 0, 0, 0, 0, 8, 8
        DB 120, 240, 128, 128, 0, 0, 8, 8, 15, 7, 0, 0, 0, 0, 16, 24, 8, 24, 16
        DB 24, 8, 0, 0, 0, 0, 0, 0, 0, 0, 0, 0, 0, 14, 10, 14, 0, 0, 0, 0, 0, 0
        DB 0, 0, 0, 0
//   58     //   - 32
//   59     0x00,0x00,0x00,0x00,0x00,0x00,0x00,0x00,0x00,0x00,0x00,0x00,0x00,0x00,0x00,0x00,
//   60     // ! - 33
//   61     0x00,0x00,0x70,0xF8,0xF8,0x70,0x00,0x00,0x00,0x00,0x00,0x0D,0x0D,0x00,0x00,0x00,
//   62     // " - 34
//   63     0x00,0x1C,0x3C,0x00,0x00,0x00,0x3C,0x1C,0x00,0x00,0x00,0x00,0x00,0x00,0x00,0x00,
//   64     // # - 35
//   65     0x00,0x20,0xF8,0xF8,0x20,0xF8,0xF8,0x20,0x00,0x02,0x0F,0x0F,0x02,0x0F,0x0F,0x02,
//   66     // $ - 36
//   67     0x00,0x70,0xF8,0x88,0x8E,0x8E,0x98,0x30,0x00,0x06,0x0C,0x08,0x38,0x38,0x0F,0x07,
//   68     // % - 37
//   69     0x00,0x60,0x60,0x00,0x00,0x80,0xC0,0x60,0x00,0x08,0x0C,0x06,0x03,0x01,0x0C,0x0C,
//   70     // & - 38
//   71     0x00,0x00,0xB0,0xF8,0xC8,0x78,0xB0,0x80,0x00,0x07,0x0F,0x08,0x09,0x07,0x0F,0x08,
//   72     // ' - 39
//   73     0x00,0x20,0x3C,0x1C,0x00,0x00,0x00,0x00,0x00,0x00,0x00,0x00,0x00,0x00,0x00,0x00,
//   74     // ( - 40
//   75     0x00,0x00,0xE0,0xF0,0x18,0x08,0x00,0x00,0x00,0x00,0x03,0x07,0x0C,0x08,0x00,0x00,
//   76     // ) - 41
//   77     0x00,0x00,0x00,0x08,0x18,0xF0,0xE0,0x00,0x00,0x00,0x00,0x08,0x0C,0x07,0x03,0x00,
//   78     // * - 42
//   79     0x80,0xA0,0xE0,0xC0,0xC0,0xE0,0xA0,0x80,0x00,0x02,0x03,0x01,0x01,0x03,0x02,0x00,
//   80     // + - 43
//   81     0x80,0x80,0x80,0xF0,0xF0,0x80,0x80,0x80,0x00,0x00,0x00,0x07,0x07,0x00,0x00,0x00,
//   82     // , - 44
//   83     0x00,0x00,0x00,0x00,0x00,0x00,0x00,0x00,0x00,0x00,0x10,0x1E,0x0E,0x00,0x00,0x00,
//   84     // - - 45
//   85     0x80,0x80,0x80,0x80,0x80,0x80,0x80,0x00,0x00,0x00,0x00,0x00,0x00,0x00,0x00,0x00,
//   86     // . - 46
//   87     0x00,0x00,0x00,0x00,0x00,0x00,0x00,0x00,0x00,0x00,0x00,0x0C,0x0C,0x00,0x00,0x00,
//   88     // / - 47
//   89     0x00,0x00,0x00,0x80,0xC0,0x60,0x30,0x18,0x00,0x06,0x03,0x01,0x00,0x00,0x00,0x00,
//   90     // 0 - 48
//   91     0x00,0xF0,0xF8,0x88,0xC8,0x68,0xF8,0xF0,0x00,0x07,0x0F,0x09,0x08,0x08,0x0F,0x07,
//   92     // 1 - 49
//   93     0x00,0x00,0x20,0x30,0xF8,0xF8,0x00,0x00,0x00,0x00,0x08,0x08,0x0F,0x0F,0x08,0x08,
//   94     // 2 - 50
//   95     0x00,0x10,0x18,0x08,0x88,0xC8,0x78,0x30,0x00,0x0C,0x0E,0x0B,0x09,0x08,0x0C,0x0C,
//   96     // 3 - 51
//   97     0x00,0x10,0x18,0x88,0x88,0x88,0xF8,0x70,0x00,0x04,0x0C,0x08,0x08,0x08,0x0F,0x07,
//   98     // 4 - 52
//   99     0x00,0x80,0xC0,0x60,0x30,0xF8,0xF8,0x00,0x00,0x01,0x01,0x01,0x09,0x0F,0x0F,0x09,
//  100     // 5 - 53
//  101     0x00,0xF8,0xF8,0x88,0x88,0x88,0x88,0x08,0x00,0x04,0x0C,0x08,0x08,0x08,0x0F,0x07,
//  102     // 6 - 54
//  103     0x00,0xE0,0xF0,0x98,0x88,0x88,0x80,0x00,0x00,0x07,0x0F,0x08,0x08,0x08,0x0F,0x07,
//  104     // 7 - 55
//  105     0x00,0x18,0x18,0x08,0x88,0xC8,0x78,0x38,0x00,0x00,0x00,0x0F,0x0F,0x00,0x00,0x00,
//  106     // 8 - 56
//  107     0x00,0x70,0xF8,0x88,0x88,0x88,0xF8,0x70,0x00,0x07,0x0F,0x08,0x08,0x08,0x0F,0x07,
//  108     // 9 - 57
//  109     0x00,0x70,0xF8,0x88,0x88,0x88,0xF8,0xF0,0x00,0x00,0x08,0x08,0x08,0x0C,0x07,0x03,
//  110     // : - 58
//  111     0x00,0x00,0x00,0x30,0x30,0x00,0x00,0x00,0x00,0x00,0x00,0x06,0x06,0x00,0x00,0x00,
//  112     // ; - 59
//  113     0x00,0x00,0x00,0x30,0x30,0x00,0x00,0x00,0x00,0x00,0x08,0x0E,0x06,0x00,0x00,0x00,
//  114     // < - 60
//  115     0x00,0x80,0xC0,0x60,0x30,0x18,0x08,0x00,0x00,0x00,0x01,0x03,0x06,0x0C,0x08,0x00,
//  116     // = - 61
//  117     0x00,0x40,0x40,0x40,0x40,0x40,0x40,0x00,0x00,0x02,0x02,0x02,0x02,0x02,0x02,0x00,
//  118     // > - 62
//  119     0x00,0x08,0x18,0x30,0x60,0xC0,0x80,0x00,0x00,0x08,0x0C,0x06,0x03,0x01,0x00,0x00,
//  120     // ? - 63
//  121     0x00,0x30,0x38,0x08,0x88,0xC8,0x78,0x30,0x00,0x00,0x00,0x00,0x0D,0x0D,0x00,0x00,
//  122     // @ - 64
//  123     0x00,0xF0,0xF8,0x08,0xC8,0xC8,0xF8,0xF0,0x00,0x07,0x0F,0x08,0x0B,0x0B,0x0B,0x01,
//  124     // A - 65
//  125     0x00,0xC0,0xE0,0x30,0x18,0x30,0xE0,0xC0,0x00,0x0F,0x0F,0x01,0x01,0x01,0x0F,0x0F,
//  126     // B - 66
//  127     0x00,0x08,0xF8,0xF8,0x88,0x88,0xF8,0x70,0x00,0x08,0x0F,0x0F,0x08,0x08,0x0F,0x07,
//  128     // C - 67
//  129     0x00,0xE0,0xF0,0x18,0x08,0x08,0x18,0x30,0x00,0x03,0x07,0x0C,0x08,0x08,0x0C,0x06,
//  130     // D - 68
//  131     0x00,0x08,0xF8,0xF8,0x08,0x18,0xF0,0xE0,0x00,0x08,0x0F,0x0F,0x08,0x0C,0x07,0x03,
//  132     // E - 69
//  133     0x00,0x08,0xF8,0xF8,0x88,0xC8,0x18,0x38,0x00,0x08,0x0F,0x0F,0x08,0x09,0x0C,0x0E,
//  134     // F - 70
//  135     0x00,0x08,0xF8,0xF8,0x88,0xC8,0x18,0x38,0x00,0x08,0x0F,0x0F,0x08,0x01,0x00,0x00,
//  136     // G - 71
//  137     0x00,0xE0,0xF0,0x18,0x08,0x08,0x18,0x30,0x00,0x03,0x07,0x0C,0x09,0x09,0x07,0x0F,
//  138     // H - 72
//  139     0x00,0xF8,0xF8,0x80,0x80,0x80,0xF8,0xF8,0x00,0x0F,0x0F,0x00,0x00,0x00,0x0F,0x0F,
//  140     // I - 73
//  141     0x00,0x00,0x08,0xF8,0xF8,0x08,0x00,0x00,0x00,0x00,0x08,0x0F,0x0F,0x08,0x00,0x00,
//  142     // J - 74
//  143     0x00,0x00,0x00,0x00,0x08,0xF8,0xF8,0x08,0x00,0x06,0x0E,0x08,0x08,0x0F,0x07,0x00,
//  144     // K - 75
//  145     0x00,0x08,0xF8,0xF8,0x80,0xE0,0x78,0x18,0x00,0x08,0x0F,0x0F,0x00,0x03,0x0F,0x0C,
//  146     // L - 76
//  147     0x00,0x08,0xF8,0xF8,0x08,0x00,0x00,0x00,0x00,0x08,0x0F,0x0F,0x08,0x08,0x0C,0x0E,
//  148     // M - 77
//  149     0x00,0xF8,0xF8,0x30,0x60,0x30,0xF8,0xF8,0x00,0x0F,0x0F,0x00,0x00,0x00,0x0F,0x0F,
//  150     // N - 78
//  151     0x00,0xF8,0xF8,0x70,0xE0,0xC0,0xF8,0xF8,0x00,0x0F,0x0F,0x00,0x00,0x01,0x0F,0x0F,
//  152     // O - 79
//  153     0x00,0xE0,0xF0,0x18,0x08,0x18,0xF0,0xE0,0x00,0x03,0x07,0x0C,0x08,0x0C,0x07,0x03,
//  154     // P - 80
//  155     0x00,0x08,0xF8,0xF8,0x88,0x88,0xF8,0x70,0x00,0x08,0x0F,0x0F,0x08,0x00,0x00,0x00,
//  156     // Q - 81
//  157     0x00,0xF0,0xF8,0x08,0x08,0x08,0xF8,0xF0,0x00,0x03,0x07,0x04,0x07,0x1E,0x1F,0x13,
//  158     // R - 82
//  159     0x00,0x08,0xF8,0xF8,0x88,0x88,0xF8,0x70,0x00,0x08,0x0F,0x0F,0x00,0x01,0x0F,0x0E,
//  160     // S - 83
//  161     0x00,0x30,0x78,0xC8,0x88,0x88,0x38,0x30,0x00,0x06,0x0E,0x08,0x08,0x09,0x0F,0x06,
//  162     // T - 84
//  163     0x18,0x08,0x08,0xF8,0xF8,0x08,0x08,0x18,0x00,0x00,0x08,0x0F,0x0F,0x08,0x00,0x00,
//  164     // U - 85
//  165     0x00,0xF8,0xF8,0x00,0x00,0x00,0xF8,0xF8,0x00,0x07,0x0F,0x08,0x08,0x08,0x0F,0x07,
//  166     // V - 86
//  167     0x00,0xF8,0xF8,0x00,0x00,0x00,0xF8,0xF8,0x00,0x01,0x03,0x06,0x0C,0x06,0x03,0x01,
//  168     // W - 87
//  169     0x00,0xF8,0xF8,0x00,0x00,0x00,0xF8,0xF8,0x00,0x0F,0x0F,0x06,0x03,0x06,0x0F,0x0F,
//  170     // X - 88
//  171     0x00,0x38,0x78,0xC0,0x80,0xC0,0x78,0x38,0x00,0x0E,0x0F,0x01,0x00,0x01,0x0F,0x0E,
//  172     // Y - 89
//  173     0x00,0x38,0x78,0xC0,0x80,0xC0,0x78,0x38,0x00,0x00,0x08,0x0F,0x0F,0x0F,0x08,0x00,
//  174     // Z - 90
//  175     0x00,0x38,0x18,0x88,0xC8,0x68,0x38,0x18,0x00,0x0E,0x0F,0x09,0x08,0x08,0x0C,0x0E,
//  176     // [ - 91
//  177     0x00,0x00,0xF8,0xF8,0x08,0x08,0x00,0x00,0x00,0x00,0x0F,0x0F,0x08,0x08,0x00,0x00,
//  178     // \ - 92
//  179     0x00,0x38,0x70,0xE0,0xC0,0x80,0x00,0x00,0x00,0x00,0x00,0x00,0x01,0x03,0x07,0x0E,
//  180     // ] - 93
//  181     0x00,0x00,0x08,0x08,0xF8,0xF8,0x00,0x00,0x00,0x00,0x08,0x08,0x0F,0x0F,0x00,0x00,
//  182     // ^ - 94
//  183     0x00,0x10,0x18,0x0C,0x06,0x0C,0x18,0x10,0x00,0x00,0x00,0x00,0x00,0x00,0x00,0x00,
//  184     // _ - 95
//  185     0x00,0x00,0x00,0x00,0x00,0x00,0x00,0x00,0x00,0x20,0x20,0x20,0x20,0x20,0x20,0x00,
//  186     // ` - 96
//  187     0x00,0x00,0x00,0x06,0x0E,0x08,0x00,0x00,0x00,0x00,0x00,0x00,0x00,0x00,0x00,0x00,
//  188     // a - 97
//  189     0x00,0x00,0x40,0x40,0x40,0xC0,0x80,0x00,0x00,0x06,0x0F,0x09,0x09,0x07,0x0F,0x08,
//  190     // b - 98
//  191     0x00,0x08,0xF8,0xF8,0x40,0xC0,0x80,0x00,0x00,0x08,0x0F,0x07,0x08,0x08,0x0F,0x07,
//  192     // c - 99
//  193     0x00,0x80,0xC0,0x40,0x40,0x40,0xC0,0x80,0x00,0x07,0x0F,0x08,0x08,0x08,0x0C,0x04,
//  194     // d - 100
//  195     0x00,0x00,0x80,0xC0,0x48,0xF8,0xF8,0x00,0x00,0x07,0x0F,0x08,0x08,0x07,0x0F,0x08,
//  196     // e - 101
//  197     0x00,0x80,0xC0,0x40,0x40,0x40,0xC0,0x80,0x00,0x07,0x0F,0x09,0x09,0x09,0x0D,0x05,
//  198     // f - 102
//  199     0x00,0x80,0xF0,0xF8,0x88,0x98,0x30,0x00,0x00,0x08,0x0F,0x0F,0x08,0x00,0x00,0x00,
//  200     // g - 103
//  201     0x00,0x80,0xC0,0x40,0x40,0x80,0xC0,0x40,0x00,0x13,0x37,0x24,0x24,0x3F,0x1F,0x00,
//  202     // h - 104
//  203     0x00,0x08,0xF8,0xF8,0x80,0x40,0xC0,0x80,0x00,0x08,0x0F,0x0F,0x00,0x00,0x0F,0x0F,
//  204     // i - 105
//  205     0x00,0x00,0x00,0x40,0xD8,0xD8,0x00,0x00,0x00,0x00,0x00,0x08,0x0F,0x0F,0x08,0x00,
//  206     // j - 106
//  207     0x00,0x00,0x00,0x00,0x40,0xD8,0xD8,0x00,0x00,0x18,0x38,0x20,0x20,0x3F,0x1F,0x00,
//  208     // k - 107
//  209     0x00,0x08,0xF8,0xF8,0x00,0x80,0xC0,0x40,0x00,0x08,0x0F,0x0F,0x01,0x03,0x0E,0x0C,
//  210     // l - 108
//  211     0x00,0x00,0x00,0x08,0xF8,0xF8,0x00,0x00,0x00,0x00,0x00,0x08,0x0F,0x0F,0x08,0x00,
//  212     // m - 109
//  213     0x00,0x80,0xC0,0x80,0x80,0x80,0xC0,0x80,0x00,0x0F,0x0F,0x00,0x0F,0x00,0x0F,0x0F,
//  214     // n - 110
//  215     0x00,0x40,0xC0,0x80,0x40,0x40,0xC0,0x80,0x00,0x00,0x0F,0x0F,0x00,0x00,0x0F,0x0F,
//  216     // o - 111
//  217     0x00,0x80,0xC0,0x40,0x40,0x40,0xC0,0x80,0x00,0x07,0x0F,0x08,0x08,0x08,0x0F,0x07,
//  218     // p - 112
//  219     0x00,0x40,0xC0,0x80,0x40,0x40,0xC0,0x80,0x00,0x20,0x3F,0x3F,0x24,0x04,0x07,0x03,
//  220     // q - 113
//  221     0x00,0x80,0xC0,0x40,0x40,0x80,0xC0,0x40,0x00,0x03,0x07,0x04,0x24,0x3F,0x3F,0x20,
//  222     // r - 114
//  223     0x00,0x40,0xC0,0x80,0xC0,0x40,0xC0,0x80,0x00,0x08,0x0F,0x0F,0x08,0x00,0x01,0x01,
//  224     // s - 115
//  225     0x00,0x80,0xC0,0x40,0x40,0x40,0xC0,0x80,0x00,0x04,0x0D,0x09,0x0B,0x0A,0x0E,0x04,
//  226     // t - 116
//  227     0x00,0x40,0x40,0xF0,0xF8,0x40,0x40,0x00,0x00,0x00,0x00,0x07,0x0F,0x08,0x0C,0x04,
//  228     // u - 117
//  229     0x00,0xC0,0xC0,0x00,0x00,0xC0,0xC0,0x00,0x00,0x07,0x0F,0x08,0x08,0x07,0x0F,0x08,
//  230     // v - 118
//  231     0x00,0xC0,0xC0,0x00,0x00,0x00,0xC0,0xC0,0x00,0x01,0x03,0x06,0x0C,0x06,0x03,0x01,
//  232     // w - 119
//  233     0x00,0xC0,0xC0,0x00,0x00,0x00,0xC0,0xC0,0x00,0x07,0x0F,0x0C,0x06,0x0C,0x0F,0x07,
//  234     // x - 120
//  235     0x00,0x40,0xC0,0x80,0x00,0x80,0xC0,0x40,0x00,0x08,0x0C,0x07,0x03,0x07,0x0C,0x08,
//  236     // y - 121
//  237     0x00,0xC0,0xC0,0x00,0x00,0x00,0xC0,0xC0,0x00,0x03,0x27,0x24,0x24,0x34,0x1F,0x0F,
//  238     // z - 122
//  239     0x00,0xC0,0xC0,0x40,0x40,0xC0,0xC0,0x40,0x00,0x08,0x0C,0x0E,0x0B,0x09,0x0C,0x0C,
//  240     // { - 123
//  241     0x00,0x80,0x80,0xF0,0x78,0x08,0x08,0x00,0x00,0x00,0x00,0x07,0x0F,0x08,0x08,0x00,
//  242     // | - 124
//  243     0x00,0x00,0x00,0x78,0x78,0x00,0x00,0x00,0x00,0x00,0x00,0x0F,0x0F,0x00,0x00,0x00,
//  244     // } - 125
//  245     0x00,0x08,0x08,0x78,0xF0,0x80,0x80,0x00,0x00,0x08,0x08,0x0F,0x07,0x00,0x00,0x00,
//  246     // ~ - 126
//  247     0x00,0x10,0x18,0x08,0x18,0x10,0x18,0x08,0x00,0x00,0x00,0x00,0x00,0x00,0x00,0x00,
//  248     // d - 127
//  249     0x00,0x00,0x00,0x0E,0x0A,0x0E,0x00,0x00,0x00,0x00,0x00,0x00,0x00,0x00,0x00,0x00
//  250    
//  251     };
//  252 
//  253 /*******************************************************************************
//  254  *                                          CONSTANTS
//  255  ******************************************************************************/
//  256 /* Max number of chars on a single LCD line */
//  257 #define LCD_LINE_COUNT       2
//  258 #define LCD_LINE_LENGTH      16
//  259 #define LCD_MAX_BUF          25
//  260 /* LCD Control */
//  261 #define HAL_BOARD_IO_LCD_EN_PORT            2
//  262 #define HAL_BOARD_IO_LCD_EN_PIN             0
//  263 #define HAL_BOARD_IO_LCD_RS_PORT            0
//  264 #define HAL_BOARD_IO_LCD_RS_PIN             6
//  265 #define HAL_BOARD_IO_LCD_DATA_PORT          1
//  266 /* LED Control */
//  267 #define HAL_TURN_OFF_LED3()       st( LED3_SBIT = LED3_POLARITY (0); )
//  268 #define HAL_TURN_OFF_LED4()       HAL_TURN_OFF_LED1()
//  269 #define HAL_TURN_ON_LED1()        st( LED1_SBIT = LED1_POLARITY (1); )
//  270 /* LCD Setting */
//  271 #define HAL_LCD_EN_SET()               MCU_IO_SET_HIGH(HAL_BOARD_IO_LCD_EN_PORT, HAL_BOARD_IO_LCD_EN_PIN)
//  272 #define HAL_LCD_EN_CLR()               MCU_IO_SET_LOW(HAL_BOARD_IO_LCD_EN_PORT, HAL_BOARD_IO_LCD_EN_PIN)
//  273 #define HAL_LCD_RS_SET()               MCU_IO_SET_HIGH(HAL_BOARD_IO_LCD_RS_PORT, HAL_BOARD_IO_LCD_RS_PIN)
//  274 #define HAL_LCD_RS_CLR()               MCU_IO_SET_LOW(HAL_BOARD_IO_LCD_RS_PORT, HAL_BOARD_IO_LCD_RS_PIN)
//  275 #define HAL_LCD_DATA(val)              MCU_PORT_OUTPUT(HAL_BOARD_IO_LCD_DATA_PORT, val)
//  276 
//  277 /**************Defines for HW LCD*****************/
//  278 // Function Set 
//  279 #define DOT_5X10_OFF                    0x00
//  280 #define DOT_5X10_ON                     0x04
//  281 #define DUAL_LINE_OFF                   0x00
//  282 #define DUAL_LINE_ON                    0x08
//  283 #define BUS_8BIT_OFF                    0x00
//  284 #define BUS_8BIT_ON                     0x10
//  285 #define FUNCTION_SET(options)           lcdControl(0x20 | (options))
//  286 
//  287 // Display clear
//  288 #define DISPLAY_CLEAR()                 lcdControl(0x01)
//  289 
//  290 // Set display control
//  291 #define DISPLAY_CTRL_ON                 0x04
//  292 #define DISPLAY_CTRL_OFF                0x00
//  293 #define DISPLAY_CTRL_BLINK_ON           0x01
//  294 #define DISPLAY_CTRL_BLINK_OFF          0x00
//  295 #define DISPLAY_CTRL_CURSOR_ON          0x02
//  296 #define DISPLAY_CTRL_CURSOR_OFF         0x00
//  297 #define SET_DISPLAY_CTRL(options)       lcdControl(0x08 | (options))
//  298 
//  299 // Set enter mode
//  300 #define INCREMENT_ON                    0x02
//  301 #define INCREMENT_OFF                   0x00
//  302 #define DISPLAY_SHIFT_ON                0x01
//  303 #define DISPLAY_SHIFT_OFF               0x00
//  304 #define SET_ENTER_MODE(options)         lcdControl(0x04 | (options))
//  305 
//  306 // Set display control
//  307 #define SHITF_DISPLAY_ON                0x04
//  308 #define SHITF_DISPLAY_OFF               0x00
//  309 #define SHITF_RIGHT_ON                  0x02
//  310 #define SHITF_RIGHT_OFF                 0x00
//  311 #define SET_CURSOR_SHIFT(options)       lcdControl(0x10 | (options))
//  312 
//  313 // Set Display Start Line
//  314 #define SET_DISPLAY_LINE(line)          lcdControl(0x80 | (line))
//  315 
//  316 /* Set DD/ CGRAM address */
//  317 #define SET_DDRAM_ADDR(charIndex)       lcdControl(0x80 | (charIndex))
//  318 #define SET_GCRAM_CHAR(specIndex)       lcdControl(0x40 | (specIndex))
//  319 
//  320 /* Set ICONRAM address */
//  321 #define CONTRAST_CTRL_REGISTER          0x10
//  322 #define SET_ICONRAM_ADDR(addr)          lcdControl(0x40 | (addr))
//  323 
//  324 /*******************************************************************************
//  325  *                                       GLOBAL VARIABLES
//  326  ******************************************************************************/

        RSEG XDATA_Z:XDATA:NOROOT(0)
//  327 static uint8 *Lcd_Line1;
Lcd_Line1:
        DS 2
        REQUIRE __INIT_XDATA_Z

        RSEG XDATA_Z:XDATA:NOROOT(0)
//  328 uint8 pLedData;
pLedData:
        DS 1
        REQUIRE __INIT_XDATA_Z
//  329 
//  330 /*******************************************************************************
//  331  *                                       FUNCTIONS - API
//  332  ******************************************************************************/
//  333 #if (HAL_LCD == TRUE)
//  334 void HalLcd_HW_WaitUs(uint16 i);
//  335 void HalLcd_HW_Clear(void);  
//  336 void HalLcd_HW_ClearAllSpecChars(void);
//  337 void HalLcd_HW_SetContrast(uint8 value);
//  338 void HalLcd_HW_WriteLine(uint8 line, const char *pText);
//  339 //MCU-KIT1
//  340 static void halLcdInit(void);
//  341 static void lcdControl(uint8 command); // MCU-KIT2 lcdCommand
//  342 static void lcdWrite(uint8 ch);        // MCU-KIT2 lcdData
//  343 static void halLcdWriteChar(uint8 line, uint8 col, char text); //MCU-KIT2 lcdUpdataChar
//  344 #endif //LCD
//  345 
//  346 /*******************************************************************************
//  347  * @fn      HalLcdInit
//  348  *
//  349  * @brief   Initilize LCD Service
//  350  *
//  351  * @param   init - pointer to void that contains the initialized value
//  352  *
//  353  * @return  None
//  354  ******************************************************************************/

        RSEG BANKED_CODE:CODE:NOROOT(0)
//  355 void HalLcdInit(void)
HalLcdInit:
        CFI Block cfiBlock0 Using cfiCommon0
        CFI Function HalLcdInit
//  356 {
        FUNCALL HalLcdInit, halLcdInit
        LOCFRAME ISTACK, 2, STACK
        LOCFRAME PSTACK, 0, STACK
        LOCFRAME XSTACK, 0, STACK
        LOCFRAME IOVERLAY, 0, STATIC
        LOCFRAME DOVERLAY, 0, STATIC
        ARGFRAME ISTACK, 2, STACK
        ARGFRAME PSTACK, 0, STACK
        ARGFRAME XSTACK, 0, STACK
        ARGFRAME IOVERLAY, 0, STATIC
        ARGFRAME DOVERLAY, 0, STATIC
        PUSH    DPL
        CFI DPL0 Frame(CFA_SP, 4)
        CFI CFA_SP SP+-4
        PUSH    DPH
        CFI DPH0 Frame(CFA_SP, 5)
        CFI CFA_SP SP+-5
        ; Saved register size: 2
        ; Auto size: 0
//  357   Lcd_Line1 = NULL;
        MOV     DPTR,#Lcd_Line1
        CLR     A
        MOVX    @DPTR,A
        INC     DPTR
        MOVX    @DPTR,A
//  358 #if (HAL_LCD == TRUE)
//  359   halLcdInit();
        ; Setup parameters for call to function halLcdInit
        LCALL   ??halLcdInit?relay
//  360 #endif
//  361 }
        SJMP    ??Subroutine13_0
        CFI EndBlock cfiBlock0
//  362 
//  363 /*************************************************************************************************
//  364  *                    LCD EMULATION FUNCTIONS
//  365  *
//  366  * Some evaluation boards are equipped with Liquid Crystal Displays
//  367  * (LCD) which may be used to display diagnostic information. These
//  368  * functions provide LCD emulation, sending the diagnostic strings
//  369  * to Z-Tool via the RS232 serial port. These functions are enabled
//  370  * when the "LCD_SUPPORTED" compiler flag is placed in the makefile.
//  371  *
//  372  * Most applications update both lines (1 and 2) of the LCD whenever
//  373  * text is posted to the device. This emulator assumes that line 1 is
//  374  * updated first (saved locally) and the formatting and send operation
//  375  * is triggered by receipt of line 2. Nothing will be transmitted if
//  376  * only line 1 is updated.
//  377  *
//  378  *************************************************************************************************/
//  379 
//  380 /*******************************************************************************
//  381  * @fn      HalLcdWriteString
//  382  *
//  383  * @brief   Write a string to the LCD
//  384  *
//  385  * @param   str    - pointer to the string that will be displayed
//  386  *          option - display options
//  387  *
//  388  * @return  None
//  389  ******************************************************************************/
//  390 void HalLcdWriteString ( char *str, uint8 option)
//  391 {
//  392 #if (HAL_LCD == TRUE)
//  393 
//  394   uint8 strLen = 0;
//  395   uint8 totalLen = 0;
//  396   uint8 *buf;
//  397   uint8 tmpLen;
//  398 
//  399   if ( Lcd_Line1 == NULL )
//  400   {
//  401     Lcd_Line1 = osal_mem_alloc( LCD_LINE_LENGTH+1 );
//  402   }
//  403 
//  404   strLen = (uint8)osal_strlen( (char*)str );
//  405 
//  406   /* Check boundries */
//  407   if ( strLen > LCD_LINE_LENGTH )
//  408     strLen = LCD_LINE_LENGTH;
//  409 
//  410   if ( option == HAL_LCD_LINE_1 )
//  411   {
//  412     /* Line 1 gets saved for later */
//  413     osal_memcpy( Lcd_Line1, str, strLen );
//  414     Lcd_Line1[strLen] = '\0';
//  415   }
//  416   else
//  417   {
//  418     /* Line 2 triggers action */
//  419     tmpLen = (uint8)osal_strlen( (char*)Lcd_Line1 );
//  420     totalLen =  tmpLen + 1 + strLen + 1;
//  421     buf = osal_mem_alloc( totalLen );
//  422     if ( buf != NULL )
//  423     {
//  424       /* Concatenate strings */
//  425       osal_memcpy( buf, Lcd_Line1, tmpLen );
//  426       buf[tmpLen++] = ' ';
//  427       osal_memcpy( &buf[tmpLen], str, strLen );
//  428       buf[tmpLen+strLen] = '\0';
//  429 
//  430       /* Send it out */
//  431 #if defined (ZTOOL_P1) || defined (ZTOOL_P2)
//  432 
//  433 #if defined(SERIAL_DEBUG_SUPPORTED)
//  434       debug_str( (uint8*)buf );
//  435 #endif //LCD_SUPPORTED
//  436 
//  437 #endif //ZTOOL_P1
//  438 
//  439       /* Free mem */
//  440       osal_mem_free( buf );
//  441     }
//  442   }
//  443 
//  444   /* Display the string */
//  445   HalLcd_HW_WriteLine (option, str);
//  446 
//  447 #endif //HAL_LCD
//  448 
//  449 }
//  450 
//  451 /**************************************************************************************************
//  452  * @fn      HalLcdWriteValue
//  453  *
//  454  * @brief   Write a value to the LCD
//  455  *
//  456  * @param   value  - value that will be displayed
//  457  *          radix  - 8, 10, 16
//  458  *          option - display options
//  459  *
//  460  * @return  None
//  461  **************************************************************************************************/
//  462 void HalLcdWriteValue ( uint32 value, const uint8 radix, uint8 option)
//  463 {
//  464 #if (HAL_LCD == TRUE)
//  465   uint8 buf[LCD_MAX_BUF];
//  466 
//  467   _ltoa( value, &buf[0], radix );
//  468   HalLcdWriteString( (char*)buf, option );
//  469 #endif
//  470 }
//  471 
//  472 /**************************************************************************************************
//  473  * @fn      HalLcdWriteScreen
//  474  *
//  475  * @brief   Write a value to the LCD
//  476  *
//  477  * @param   line1  - string that will be displayed on line 1
//  478  *          line2  - string that will be displayed on line 2
//  479  *
//  480  * @return  None
//  481  **************************************************************************************************/
//  482 void HalLcdWriteScreen( char *line1, char *line2 )
//  483 {
//  484 #if (HAL_LCD == TRUE)
//  485   HalLcdWriteString( line1, 1 );
//  486   HalLcdWriteString( line2, 2 );
//  487 #endif
//  488 }
//  489 
//  490 /**************************************************************************************************
//  491  * @fn      HalLcdWriteStringValue
//  492  *
//  493  * @brief   Write a string followed by a value to the LCD
//  494  *
//  495  * @param   title  - Title that will be displayed before the value
//  496  *          value  - value
//  497  *          format - redix
//  498  *          line   - line number
//  499  *
//  500  * @return  None
//  501  **************************************************************************************************/
//  502 void HalLcdWriteStringValue( char *title, uint16 value, uint8 format, uint8 line )
//  503 {
//  504 #if (HAL_LCD == TRUE)
//  505   uint8 tmpLen;
//  506   uint8 buf[LCD_MAX_BUF];
//  507   uint32 err;
//  508 
//  509   tmpLen = (uint8)osal_strlen( (char*)title );
//  510   osal_memcpy( buf, title, tmpLen );
//  511   buf[tmpLen] = ' ';
//  512   err = (uint32)(value);
//  513   _ltoa( err, &buf[tmpLen+1], format );
//  514   HalLcdWriteString( (char*)buf, line );		
//  515 #endif
//  516 }
//  517 
//  518 /**************************************************************************************************
//  519  * @fn      HalLcdWriteStringValue
//  520  *
//  521  * @brief   Write a string followed by a value to the LCD
//  522  *
//  523  * @param   title   - Title that will be displayed before the value
//  524  *          value1  - value #1
//  525  *          format1 - redix of value #1
//  526  *          value2  - value #2
//  527  *          format2 - redix of value #2
//  528  *          line    - line number
//  529  *
//  530  * @return  None
//  531  **************************************************************************************************/
//  532 void HalLcdWriteStringValueValue( char *title, uint16 value1, uint8 format1,
//  533                                   uint16 value2, uint8 format2, uint8 line )
//  534 {
//  535 
//  536 #if (HAL_LCD == TRUE)
//  537 
//  538   uint8 tmpLen;
//  539   uint8 buf[LCD_MAX_BUF];
//  540   uint32 err;
//  541 
//  542   tmpLen = (uint8)osal_strlen( (char*)title );
//  543   if ( tmpLen )
//  544   {
//  545     osal_memcpy( buf, title, tmpLen );
//  546     buf[tmpLen++] = ' ';
//  547   }
//  548 
//  549   err = (uint32)(value1);
//  550   _ltoa( err, &buf[tmpLen], format1 );
//  551   tmpLen = (uint8)osal_strlen( (char*)buf );
//  552 
//  553   buf[tmpLen++] = ',';
//  554   buf[tmpLen++] = ' ';
//  555   err = (uint32)(value2);
//  556   _ltoa( err, &buf[tmpLen], format2 );
//  557 
//  558   HalLcdWriteString( (char *)buf, line );		
//  559 
//  560 #endif
//  561 }
//  562 
//  563 /**************************************************************************************************
//  564  * @fn      HalLcdDisplayPercentBar
//  565  *
//  566  * @brief   Display percentage bar on the LCD
//  567  *
//  568  * @param   title   -
//  569  *          value   -
//  570  *
//  571  * @return  None
//  572  **************************************************************************************************/
//  573 void HalLcdDisplayPercentBar( char *title, uint8 value )
//  574 {
//  575 #if (HAL_LCD == TRUE)
//  576 
//  577   uint8 percent;
//  578   uint8 leftOver;
//  579   uint8 buf[17];
//  580   uint32 err;
//  581   uint8 x;
//  582 
//  583   /* Write the title: */
//  584   HalLcdWriteString( title, HAL_LCD_LINE_1 );
//  585 
//  586   if ( value > 100 )
//  587     value = 100;
//  588 
//  589   /* convert to blocks */
//  590   percent = (uint8)(value / 10);
//  591   leftOver = (uint8)(value % 10);
//  592 
//  593   /* Make window */
//  594   osal_memcpy( buf, "[          ]  ", 15 );
//  595 
//  596   for ( x = 0; x < percent; x ++ )
//  597   {
//  598     buf[1+x] = '>';
//  599   }
//  600 
//  601   if ( leftOver >= 5 )
//  602     buf[1+x] = '+';
//  603 
//  604   err = (uint32)value;
//  605   _ltoa( err, (uint8*)&buf[13], 10 );
//  606 
//  607   HalLcdWriteString( (char*)buf, HAL_LCD_LINE_2 );
//  608 
//  609 #endif
//  610 }
//  611 
//  612 
//  613 /**************************************************************************************************
//  614  *                                    HARDWARE LCD
//  615  **************************************************************************************************/
//  616 
//  617 /*******************************************************************************
//  618  * @fn      halLcdInit
//  619  *
//  620  * @brief   Initilize HW LCD Driver.
//  621  *
//  622  * @param   None
//  623  *
//  624  * @return  None
//  625  ******************************************************************************/
//  626 void halLcdInit(void)
//  627 {
//  628   // Perform the initialization sequence
//  629     MCU_IO_DIR_OUTPUT(HAL_BOARD_IO_LCD_RS_PORT, HAL_BOARD_IO_LCD_RS_PIN);
//  630     HAL_LCD_EN_CLR();
//  631     halMcuWaitMs(30);
//  632 
//  633     FUNCTION_SET(BUS_8BIT_ON);
//  634     halMcuWaitMs(2);
//  635     FUNCTION_SET(BUS_8BIT_ON);
//  636     halMcuWaitMs(2);
//  637     FUNCTION_SET(BUS_8BIT_ON);
//  638     halMcuWaitMs(2);
//  639     FUNCTION_SET(BUS_8BIT_ON | DUAL_LINE_ON);
//  640     halMcuWaitMs(2);
//  641     FUNCTION_SET(BUS_8BIT_ON | DUAL_LINE_ON);
//  642     halMcuWaitMs(2);
//  643     SET_CURSOR_SHIFT(SHITF_DISPLAY_OFF);
//  644     SET_ENTER_MODE(INCREMENT_ON);
//  645     DISPLAY_CLEAR();
//  646     halMcuWaitMs(2);
//  647     // Clear the display
//  648     HalLcd_HW_Clear();
//  649     SET_DISPLAY_CTRL(DISPLAY_CTRL_ON | DISPLAY_CTRL_BLINK_OFF | DISPLAY_CTRL_CURSOR_OFF);
//  650     HalLcdWriteString( "TexasInstruments", HAL_LCD_LINE_1 );
//  651 }
//  652 
//  653 /*******************************************************************************
//  654  * @fn      HalLcd_HW_Control
//  655  *
//  656  * @brief   Write 1 command to the LCD
//  657  *
//  658  * @param   uint8 cmd - command to be written to the LCD
//  659  *
//  660  * @return  None
//  661  ******************************************************************************/
//  662 //-------------------------------------------------------------------
//  663 // @fn          lcdControl
//  664 // @brief       Send command to display
//  665 // @param       uint8 command
//  666 // @return      none
//  667 //-------------------------------------------------------------------

        RSEG BANKED_CODE:CODE:NOROOT(0)
?Subroutine9:
        CFI Block cfiBlock1 Using cfiCommon0
        CFI NoFunction
        CFI CFA_SP SP+-5
        CFI DPL0 Frame(CFA_SP, 4)
        CFI DPH0 Frame(CFA_SP, 5)
        LCALL   ?Subroutine6 & 0xFFFF
        CFI EndBlock cfiBlock1
??CrossCallReturnLabel_5:
        REQUIRE ??Subroutine13_0
        ; // Fall through to label ??Subroutine13_0

        RSEG BANKED_CODE:CODE:NOROOT(0)
??Subroutine13_0:
        CFI Block cfiBlock2 Using cfiCommon0
        CFI NoFunction
        CFI CFA_SP SP+-5
        CFI DPL0 Frame(CFA_SP, 4)
        CFI DPH0 Frame(CFA_SP, 5)
        POP     DPH
        CFI CFA_SP SP+-4
        CFI DPH0 SameValue
        POP     DPL
        CFI CFA_SP SP+-3
        CFI DPL0 SameValue
        LJMP    ?BRET
        CFI EndBlock cfiBlock2

        RSEG BANKED_CODE:CODE:NOROOT(0)
HalLcdWriteString:
        CFI Block cfiBlock3 Using cfiCommon0
        CFI Function HalLcdWriteString
        FUNCALL HalLcdWriteString, osal_mem_alloc
        LOCFRAME ISTACK, 0, STACK
        LOCFRAME PSTACK, 0, STACK
        LOCFRAME XSTACK, 24, STACK
        LOCFRAME IOVERLAY, 0, STATIC
        LOCFRAME DOVERLAY, 0, STATIC
        ARGFRAME ISTACK, 0, STACK
        ARGFRAME PSTACK, 0, STACK
        ARGFRAME XSTACK, 24, STACK
        ARGFRAME IOVERLAY, 0, STATIC
        ARGFRAME DOVERLAY, 0, STATIC
        FUNCALL HalLcdWriteString, osal_strlen
        LOCFRAME ISTACK, 0, STACK
        LOCFRAME PSTACK, 0, STACK
        LOCFRAME XSTACK, 24, STACK
        LOCFRAME IOVERLAY, 0, STATIC
        LOCFRAME DOVERLAY, 0, STATIC
        ARGFRAME ISTACK, 0, STACK
        ARGFRAME PSTACK, 0, STACK
        ARGFRAME XSTACK, 24, STACK
        ARGFRAME IOVERLAY, 0, STATIC
        ARGFRAME DOVERLAY, 0, STATIC
        FUNCALL HalLcdWriteString, osal_memcpy
        LOCFRAME ISTACK, 0, STACK
        LOCFRAME PSTACK, 0, STACK
        LOCFRAME XSTACK, 27, STACK
        LOCFRAME IOVERLAY, 0, STATIC
        LOCFRAME DOVERLAY, 0, STATIC
        ARGFRAME ISTACK, 0, STACK
        ARGFRAME PSTACK, 0, STACK
        ARGFRAME XSTACK, 27, STACK
        ARGFRAME IOVERLAY, 0, STATIC
        ARGFRAME DOVERLAY, 0, STATIC
        FUNCALL HalLcdWriteString, osal_strlen
        LOCFRAME ISTACK, 0, STACK
        LOCFRAME PSTACK, 0, STACK
        LOCFRAME XSTACK, 24, STACK
        LOCFRAME IOVERLAY, 0, STATIC
        LOCFRAME DOVERLAY, 0, STATIC
        ARGFRAME ISTACK, 0, STACK
        ARGFRAME PSTACK, 0, STACK
        ARGFRAME XSTACK, 24, STACK
        ARGFRAME IOVERLAY, 0, STATIC
        ARGFRAME DOVERLAY, 0, STATIC
        FUNCALL HalLcdWriteString, osal_mem_alloc
        LOCFRAME ISTACK, 0, STACK
        LOCFRAME PSTACK, 0, STACK
        LOCFRAME XSTACK, 24, STACK
        LOCFRAME IOVERLAY, 0, STATIC
        LOCFRAME DOVERLAY, 0, STATIC
        ARGFRAME ISTACK, 0, STACK
        ARGFRAME PSTACK, 0, STACK
        ARGFRAME XSTACK, 24, STACK
        ARGFRAME IOVERLAY, 0, STATIC
        ARGFRAME DOVERLAY, 0, STATIC
        FUNCALL HalLcdWriteString, osal_memcpy
        LOCFRAME ISTACK, 0, STACK
        LOCFRAME PSTACK, 0, STACK
        LOCFRAME XSTACK, 27, STACK
        LOCFRAME IOVERLAY, 0, STATIC
        LOCFRAME DOVERLAY, 0, STATIC
        ARGFRAME ISTACK, 0, STACK
        ARGFRAME PSTACK, 0, STACK
        ARGFRAME XSTACK, 27, STACK
        ARGFRAME IOVERLAY, 0, STATIC
        ARGFRAME DOVERLAY, 0, STATIC
        FUNCALL HalLcdWriteString, osal_memcpy
        LOCFRAME ISTACK, 0, STACK
        LOCFRAME PSTACK, 0, STACK
        LOCFRAME XSTACK, 27, STACK
        LOCFRAME IOVERLAY, 0, STATIC
        LOCFRAME DOVERLAY, 0, STATIC
        ARGFRAME ISTACK, 0, STACK
        ARGFRAME PSTACK, 0, STACK
        ARGFRAME XSTACK, 27, STACK
        ARGFRAME IOVERLAY, 0, STATIC
        ARGFRAME DOVERLAY, 0, STATIC
        FUNCALL HalLcdWriteString, debug_str
        LOCFRAME ISTACK, 0, STACK
        LOCFRAME PSTACK, 0, STACK
        LOCFRAME XSTACK, 24, STACK
        LOCFRAME IOVERLAY, 0, STATIC
        LOCFRAME DOVERLAY, 0, STATIC
        ARGFRAME ISTACK, 0, STACK
        ARGFRAME PSTACK, 0, STACK
        ARGFRAME XSTACK, 24, STACK
        ARGFRAME IOVERLAY, 0, STATIC
        ARGFRAME DOVERLAY, 0, STATIC
        FUNCALL HalLcdWriteString, osal_mem_free
        LOCFRAME ISTACK, 0, STACK
        LOCFRAME PSTACK, 0, STACK
        LOCFRAME XSTACK, 24, STACK
        LOCFRAME IOVERLAY, 0, STATIC
        LOCFRAME DOVERLAY, 0, STATIC
        ARGFRAME ISTACK, 0, STACK
        ARGFRAME PSTACK, 0, STACK
        ARGFRAME XSTACK, 24, STACK
        ARGFRAME IOVERLAY, 0, STATIC
        ARGFRAME DOVERLAY, 0, STATIC
        FUNCALL HalLcdWriteString, HalLcd_HW_WriteLine
        LOCFRAME ISTACK, 0, STACK
        LOCFRAME PSTACK, 0, STACK
        LOCFRAME XSTACK, 24, STACK
        LOCFRAME IOVERLAY, 0, STATIC
        LOCFRAME DOVERLAY, 0, STATIC
        ARGFRAME ISTACK, 0, STACK
        ARGFRAME PSTACK, 0, STACK
        ARGFRAME XSTACK, 24, STACK
        ARGFRAME IOVERLAY, 0, STATIC
        ARGFRAME DOVERLAY, 0, STATIC
        MOV     A,#-0x18
        LCALL   ?BANKED_ENTER_XDATA
        CFI DPH0 load(1, XDATA, add(CFA_XSP16, literal(-1)))
        CFI DPL0 load(1, XDATA, add(CFA_XSP16, literal(-2)))
        CFI ?BRET_EXT load(1, XDATA, add(CFA_XSP16, literal(-3)))
        CFI ?RET_HIGH load(1, XDATA, add(CFA_XSP16, literal(-4)))
        CFI ?RET_LOW load(1, XDATA, add(CFA_XSP16, literal(-5)))
        CFI R7 load(1, XDATA, add(CFA_XSP16, literal(-6)))
        CFI V15 load(1, XDATA, add(CFA_XSP16, literal(-7)))
        CFI V14 load(1, XDATA, add(CFA_XSP16, literal(-8)))
        CFI V13 load(1, XDATA, add(CFA_XSP16, literal(-9)))
        CFI V12 load(1, XDATA, add(CFA_XSP16, literal(-10)))
        CFI V11 load(1, XDATA, add(CFA_XSP16, literal(-11)))
        CFI V10 load(1, XDATA, add(CFA_XSP16, literal(-12)))
        CFI V9 load(1, XDATA, add(CFA_XSP16, literal(-13)))
        CFI V8 load(1, XDATA, add(CFA_XSP16, literal(-14)))
        CFI V7 load(1, XDATA, add(CFA_XSP16, literal(-15)))
        CFI V6 load(1, XDATA, add(CFA_XSP16, literal(-16)))
        CFI V5 load(1, XDATA, add(CFA_XSP16, literal(-17)))
        CFI V4 load(1, XDATA, add(CFA_XSP16, literal(-18)))
        CFI V3 load(1, XDATA, add(CFA_XSP16, literal(-19)))
        CFI V2 load(1, XDATA, add(CFA_XSP16, literal(-20)))
        CFI V1 load(1, XDATA, add(CFA_XSP16, literal(-21)))
        CFI V0 load(1, XDATA, add(CFA_XSP16, literal(-22)))
        CFI VB load(1, XDATA, add(CFA_XSP16, literal(-23)))
        CFI R6 load(1, XDATA, add(CFA_XSP16, literal(-24)))
        CFI CFA_SP SP+0
        CFI CFA_XSP16 add(XSP16, 24)
        ; Saved register size: 24
        ; Auto size: 0
        MOV     ?V0 + 14,R2
        MOV     ?V0 + 15,R3
        MOV     ?V0 + 3,R1
        MOV     DPTR,#Lcd_Line1
        MOVX    A,@DPTR
        JNZ     ??HalLcdWriteString_0
        INC     DPTR
        MOVX    A,@DPTR
??HalLcdWriteString_0:
        JNZ     ??HalLcdWriteString_1
        ; Setup parameters for call to function osal_mem_alloc
        MOV     R2,#0x11
        MOV     R3,#0x0
        LCALL   ??osal_mem_alloc?relay
        MOV     DPTR,#Lcd_Line1
        MOV     A,R2
        MOVX    @DPTR,A
        INC     DPTR
        MOV     A,R3
        MOVX    @DPTR,A
??HalLcdWriteString_1:
        ; Setup parameters for call to function osal_strlen
        MOV     R2,?V0 + 14
        MOV     R3,?V0 + 15
        LCALL   ??osal_strlen?relay
        MOV     A,R2
        MOV     ?V0 + 4,A
        CLR     C
        SUBB    A,#0x11
        JC      ??HalLcdWriteString_2
        MOV     ?V0 + 4,#0x10
??HalLcdWriteString_2:
        MOV     DPL,?V0 + 4
        MOV     ?V0 + 12,DPL
        MOV     ?V0 + 0,?V0 + 14
        MOV     ?V0 + 1,?V0 + 15
        MOV     ?V0 + 2,#0x0
        MOV     R6,DPL
        MOV     A,#0x1
        XRL     A,?V0 + 3
        JNZ     ??HalLcdWriteString_3
        ; Setup parameters for call to function osal_memcpy
        MOV     R0,#?V0 + 0
        LCALL   ?PUSH_XSTACK_I_THREE
        CFI CFA_XSP16 add(XSP16, 27)
        MOV     A,R6
        MOV     R4,A
        MOV     R5,#0x0
        MOV     DPTR,#Lcd_Line1
        MOVX    A,@DPTR
        MOV     R2,A
        INC     DPTR
        MOVX    A,@DPTR
        MOV     R3,A
        LCALL   ??Subroutine15_0 & 0xFFFF
??CrossCallReturnLabel_14:
        LCALL   ?DEALLOC_XSTACK8
        CFI CFA_XSP16 add(XSP16, 24)
        MOV     DPTR,#Lcd_Line1
        MOVX    A,@DPTR
        ADD     A,?V0 + 12
        MOV     R2,A
        INC     DPTR
        MOVX    A,@DPTR
        ADDC    A,#0x0
        MOV     DPL,R2
        MOV     DPH,A
        CLR     A
        MOVX    @DPTR,A
        LJMP    ??HalLcdWriteString_4 & 0xFFFF
??HalLcdWriteString_3:
        ; Setup parameters for call to function osal_strlen
        MOV     DPTR,#Lcd_Line1
        MOVX    A,@DPTR
        MOV     R2,A
        INC     DPTR
        MOVX    A,@DPTR
        MOV     R3,A
        LCALL   ??osal_strlen?relay
        MOV     A,R2
        MOV     ?V0 + 6,A
        ; Setup parameters for call to function osal_mem_alloc
        MOV     A,R6
        ADD     A,?V0 + 6
        ADD     A,#0x2
        MOV     R2,A
        MOV     R3,#0x0
        LCALL   ??osal_mem_alloc?relay
        MOV     ?V0 + 4,R2
        MOV     ?V0 + 5,R3
        MOV     A,R2
        JNZ     ??HalLcdWriteString_5
        MOV     A,R3
??HalLcdWriteString_5:
        JZ      ??HalLcdWriteString_4
        ; Setup parameters for call to function osal_memcpy
        MOV     DPTR,#Lcd_Line1
        MOVX    A,@DPTR
        MOV     ?V0 + 8,A
        INC     DPTR
        MOVX    A,@DPTR
        MOV     ?V0 + 9,A
        MOV     ?V0 + 10,#0x0
        MOV     R0,#?V0 + 8
        LCALL   ?PUSH_XSTACK_I_THREE
        CFI CFA_XSP16 add(XSP16, 27)
        MOV     R4,?V0 + 6
        MOV     R5,#0x0
        LCALL   ??Subroutine15_0 & 0xFFFF
??CrossCallReturnLabel_15:
        LCALL   ?DEALLOC_XSTACK8
        CFI CFA_XSP16 add(XSP16, 24)
        MOV     ?V0 + 8,?V0 + 6
        MOV     A,?V0 + 4
        ADD     A,?V0 + 8
        MOV     DPL,A
        MOV     A,?V0 + 5
        LCALL   ??Subroutine14_0 & 0xFFFF
??CrossCallReturnLabel_7:
        INC     ?V0 + 6
        ; Setup parameters for call to function osal_memcpy
        MOV     R0,#?V0 + 0
        LCALL   ?PUSH_XSTACK_I_THREE
        CFI CFA_XSP16 add(XSP16, 27)
        MOV     A,R6
        MOV     R4,A
        MOV     R5,#0x0
        MOV     A,?V0 + 4
        ADD     A,?V0 + 6
        MOV     R2,A
        MOV     A,?V0 + 5
        ADDC    A,#0x0
        MOV     R3,A
        LCALL   ??Subroutine15_0 & 0xFFFF
??CrossCallReturnLabel_16:
        LCALL   ?DEALLOC_XSTACK8
        CFI CFA_XSP16 add(XSP16, 24)
        MOV     A,R6
        ADD     A,?V0 + 6
        MOV     R0,A
        CLR     A
        ADDC    A,#0x0
        MOV     R1,A
        MOV     A,?V0 + 4
        ADD     A,R0
        MOV     DPL,A
        MOV     A,?V0 + 5
        ADDC    A,R1
        MOV     DPH,A
        CLR     A
        MOVX    @DPTR,A
        ; Setup parameters for call to function debug_str
        MOV     R2,?V0 + 4
        MOV     R3,?V0 + 5
        LCALL   ??debug_str?relay
        ; Setup parameters for call to function osal_mem_free
        MOV     R2,?V0 + 4
        MOV     R3,?V0 + 5
        LCALL   ??osal_mem_free?relay
??HalLcdWriteString_4:
        ; Setup parameters for call to function HalLcd_HW_WriteLine
        MOV     R2,?V0 + 14
        MOV     R3,?V0 + 15
        MOV     R1,?V0 + 3
        LCALL   ??HalLcd_HW_WriteLine?relay
        MOV     R7,#0x10
        LJMP    ?BANKED_LEAVE_XDATA
        CFI EndBlock cfiBlock3

        RSEG BANKED_CODE:CODE:NOROOT(0)
HalLcdWriteValue:
        CFI Block cfiBlock4 Using cfiCommon0
        CFI Function HalLcdWriteValue
        FUNCALL HalLcdWriteValue, _ltoa
        LOCFRAME ISTACK, 0, STACK
        LOCFRAME PSTACK, 0, STACK
        LOCFRAME XSTACK, 41, STACK
        LOCFRAME IOVERLAY, 0, STATIC
        LOCFRAME DOVERLAY, 0, STATIC
        ARGFRAME ISTACK, 0, STACK
        ARGFRAME PSTACK, 0, STACK
        ARGFRAME XSTACK, 41, STACK
        ARGFRAME IOVERLAY, 0, STATIC
        ARGFRAME DOVERLAY, 0, STATIC
        FUNCALL HalLcdWriteValue, HalLcdWriteString
        LOCFRAME ISTACK, 0, STACK
        LOCFRAME PSTACK, 0, STACK
        LOCFRAME XSTACK, 39, STACK
        LOCFRAME IOVERLAY, 0, STATIC
        LOCFRAME DOVERLAY, 0, STATIC
        ARGFRAME ISTACK, 0, STACK
        ARGFRAME PSTACK, 0, STACK
        ARGFRAME XSTACK, 39, STACK
        ARGFRAME IOVERLAY, 0, STATIC
        ARGFRAME DOVERLAY, 0, STATIC
        MOV     A,#-0xe
        LCALL   ?BANKED_ENTER_XDATA
        CFI DPH0 load(1, XDATA, add(CFA_XSP16, literal(-1)))
        CFI DPL0 load(1, XDATA, add(CFA_XSP16, literal(-2)))
        CFI ?BRET_EXT load(1, XDATA, add(CFA_XSP16, literal(-3)))
        CFI ?RET_HIGH load(1, XDATA, add(CFA_XSP16, literal(-4)))
        CFI ?RET_LOW load(1, XDATA, add(CFA_XSP16, literal(-5)))
        CFI R7 load(1, XDATA, add(CFA_XSP16, literal(-6)))
        CFI V5 load(1, XDATA, add(CFA_XSP16, literal(-7)))
        CFI V4 load(1, XDATA, add(CFA_XSP16, literal(-8)))
        CFI V3 load(1, XDATA, add(CFA_XSP16, literal(-9)))
        CFI V2 load(1, XDATA, add(CFA_XSP16, literal(-10)))
        CFI V1 load(1, XDATA, add(CFA_XSP16, literal(-11)))
        CFI V0 load(1, XDATA, add(CFA_XSP16, literal(-12)))
        CFI VB load(1, XDATA, add(CFA_XSP16, literal(-13)))
        CFI R6 load(1, XDATA, add(CFA_XSP16, literal(-14)))
        CFI CFA_SP SP+0
        CFI CFA_XSP16 add(XSP16, 14)
        ; Saved register size: 14
        ; Auto size: 25
        MOV     A,#-0x19
        LCALL   ?ALLOC_XSTACK8
        CFI CFA_XSP16 add(XSP16, 39)
        MOV     A,#0x27
        LCALL   ?XSTACK_DISP0_8
        MOVX    A,@DPTR
        MOV     R6,A
        ; Setup parameters for call to function _ltoa
        MOV     DPL,?XSP + 0
        MOV     DPH,?XSP + 1
        MOV     ?V0 + 4,DPL
        MOV     ?V0 + 5,DPH
        MOV     R0,#?V0 + 4
        LCALL   ?PUSH_XSTACK_I_TWO
        CFI CFA_XSP16 add(XSP16, 41)
        LCALL   ??Subroutine17_0 & 0xFFFF
??CrossCallReturnLabel_21:
        LCALL   ?DEALLOC_XSTACK8
        CFI CFA_XSP16 add(XSP16, 39)
        ; Setup parameters for call to function HalLcdWriteString
        MOV     A,R6
        MOV     R1,A
        MOV     DPL,?XSP + 0
        MOV     DPH,?XSP + 1
        MOV     R2,DPL
        MOV     R3,DPH
        LCALL   ??HalLcdWriteString?relay
        MOV     A,#0x19
        LCALL   ?DEALLOC_XSTACK8
        CFI CFA_XSP16 add(XSP16, 14)
        MOV     R7,#0x6
        LJMP    ?BANKED_LEAVE_XDATA
        CFI EndBlock cfiBlock4

        RSEG BANKED_CODE:CODE:NOROOT(0)
HalLcdWriteScreen:
        CFI Block cfiBlock5 Using cfiCommon0
        CFI Function HalLcdWriteScreen
        FUNCALL HalLcdWriteScreen, HalLcdWriteString
        LOCFRAME ISTACK, 0, STACK
        LOCFRAME PSTACK, 0, STACK
        LOCFRAME XSTACK, 9, STACK
        LOCFRAME IOVERLAY, 0, STATIC
        LOCFRAME DOVERLAY, 0, STATIC
        ARGFRAME ISTACK, 0, STACK
        ARGFRAME PSTACK, 0, STACK
        ARGFRAME XSTACK, 9, STACK
        ARGFRAME IOVERLAY, 0, STATIC
        ARGFRAME DOVERLAY, 0, STATIC
        FUNCALL HalLcdWriteScreen, HalLcdWriteString
        LOCFRAME ISTACK, 0, STACK
        LOCFRAME PSTACK, 0, STACK
        LOCFRAME XSTACK, 9, STACK
        LOCFRAME IOVERLAY, 0, STATIC
        LOCFRAME DOVERLAY, 0, STATIC
        ARGFRAME ISTACK, 0, STACK
        ARGFRAME PSTACK, 0, STACK
        ARGFRAME XSTACK, 9, STACK
        ARGFRAME IOVERLAY, 0, STATIC
        ARGFRAME DOVERLAY, 0, STATIC
        MOV     A,#-0x9
        LCALL   ?BANKED_ENTER_XDATA
        CFI DPH0 load(1, XDATA, add(CFA_XSP16, literal(-1)))
        CFI DPL0 load(1, XDATA, add(CFA_XSP16, literal(-2)))
        CFI ?BRET_EXT load(1, XDATA, add(CFA_XSP16, literal(-3)))
        CFI ?RET_HIGH load(1, XDATA, add(CFA_XSP16, literal(-4)))
        CFI ?RET_LOW load(1, XDATA, add(CFA_XSP16, literal(-5)))
        CFI R7 load(1, XDATA, add(CFA_XSP16, literal(-6)))
        CFI V0 load(1, XDATA, add(CFA_XSP16, literal(-7)))
        CFI VB load(1, XDATA, add(CFA_XSP16, literal(-8)))
        CFI R6 load(1, XDATA, add(CFA_XSP16, literal(-9)))
        CFI CFA_SP SP+0
        CFI CFA_XSP16 add(XSP16, 9)
        ; Saved register size: 9
        ; Auto size: 0
        MOV     A,R4
        MOV     R6,A
        MOV     A,R5
        MOV     R7,A
        ; Setup parameters for call to function HalLcdWriteString
        MOV     R1,#0x1
        LCALL   ??HalLcdWriteString?relay
        ; Setup parameters for call to function HalLcdWriteString
        MOV     R1,#0x2
        MOV     A,R6
        MOV     R2,A
        MOV     A,R7
        MOV     R3,A
        LCALL   ??HalLcdWriteString?relay
        CFI EndBlock cfiBlock5
        REQUIRE ?Subroutine11
        ; // Fall through to label ?Subroutine11

        RSEG BANKED_CODE:CODE:NOROOT(0)
?Subroutine11:
        CFI Block cfiBlock6 Using cfiCommon0
        CFI NoFunction
        CFI CFA_SP SP+0
        CFI CFA_XSP16 add(XSP16, 9)
        CFI VB load(1, XDATA, add(CFA_XSP16, literal(-8)))
        CFI DPL0 load(1, XDATA, add(CFA_XSP16, literal(-2)))
        CFI DPH0 load(1, XDATA, add(CFA_XSP16, literal(-1)))
        CFI R6 load(1, XDATA, add(CFA_XSP16, literal(-9)))
        CFI R7 load(1, XDATA, add(CFA_XSP16, literal(-6)))
        CFI V0 load(1, XDATA, add(CFA_XSP16, literal(-7)))
        CFI ?BRET_EXT load(1, XDATA, add(CFA_XSP16, literal(-3)))
        CFI ?RET_HIGH load(1, XDATA, add(CFA_XSP16, literal(-4)))
        CFI ?RET_LOW load(1, XDATA, add(CFA_XSP16, literal(-5)))
        MOV     R7,#0x1
        LJMP    ?BANKED_LEAVE_XDATA
        CFI EndBlock cfiBlock6

        RSEG BANKED_CODE:CODE:NOROOT(0)
HalLcdWriteStringValue:
        CFI Block cfiBlock7 Using cfiCommon0
        CFI Function HalLcdWriteStringValue
        FUNCALL HalLcdWriteStringValue, osal_strlen
        LOCFRAME ISTACK, 0, STACK
        LOCFRAME PSTACK, 0, STACK
        LOCFRAME XSTACK, 43, STACK
        LOCFRAME IOVERLAY, 0, STATIC
        LOCFRAME DOVERLAY, 0, STATIC
        ARGFRAME ISTACK, 0, STACK
        ARGFRAME PSTACK, 0, STACK
        ARGFRAME XSTACK, 43, STACK
        ARGFRAME IOVERLAY, 0, STATIC
        ARGFRAME DOVERLAY, 0, STATIC
        FUNCALL HalLcdWriteStringValue, osal_memcpy
        LOCFRAME ISTACK, 0, STACK
        LOCFRAME PSTACK, 0, STACK
        LOCFRAME XSTACK, 46, STACK
        LOCFRAME IOVERLAY, 0, STATIC
        LOCFRAME DOVERLAY, 0, STATIC
        ARGFRAME ISTACK, 0, STACK
        ARGFRAME PSTACK, 0, STACK
        ARGFRAME XSTACK, 46, STACK
        ARGFRAME IOVERLAY, 0, STATIC
        ARGFRAME DOVERLAY, 0, STATIC
        FUNCALL HalLcdWriteStringValue, _ltoa
        LOCFRAME ISTACK, 0, STACK
        LOCFRAME PSTACK, 0, STACK
        LOCFRAME XSTACK, 45, STACK
        LOCFRAME IOVERLAY, 0, STATIC
        LOCFRAME DOVERLAY, 0, STATIC
        ARGFRAME ISTACK, 0, STACK
        ARGFRAME PSTACK, 0, STACK
        ARGFRAME XSTACK, 45, STACK
        ARGFRAME IOVERLAY, 0, STATIC
        ARGFRAME DOVERLAY, 0, STATIC
        FUNCALL HalLcdWriteStringValue, HalLcdWriteString
        LOCFRAME ISTACK, 0, STACK
        LOCFRAME PSTACK, 0, STACK
        LOCFRAME XSTACK, 43, STACK
        LOCFRAME IOVERLAY, 0, STATIC
        LOCFRAME DOVERLAY, 0, STATIC
        ARGFRAME ISTACK, 0, STACK
        ARGFRAME PSTACK, 0, STACK
        ARGFRAME XSTACK, 43, STACK
        ARGFRAME IOVERLAY, 0, STATIC
        ARGFRAME DOVERLAY, 0, STATIC
        MOV     A,#-0x12
        LCALL   ?BANKED_ENTER_XDATA
        CFI DPH0 load(1, XDATA, add(CFA_XSP16, literal(-1)))
        CFI DPL0 load(1, XDATA, add(CFA_XSP16, literal(-2)))
        CFI ?BRET_EXT load(1, XDATA, add(CFA_XSP16, literal(-3)))
        CFI ?RET_HIGH load(1, XDATA, add(CFA_XSP16, literal(-4)))
        CFI ?RET_LOW load(1, XDATA, add(CFA_XSP16, literal(-5)))
        CFI R7 load(1, XDATA, add(CFA_XSP16, literal(-6)))
        CFI V9 load(1, XDATA, add(CFA_XSP16, literal(-7)))
        CFI V8 load(1, XDATA, add(CFA_XSP16, literal(-8)))
        CFI V7 load(1, XDATA, add(CFA_XSP16, literal(-9)))
        CFI V6 load(1, XDATA, add(CFA_XSP16, literal(-10)))
        CFI V5 load(1, XDATA, add(CFA_XSP16, literal(-11)))
        CFI V4 load(1, XDATA, add(CFA_XSP16, literal(-12)))
        CFI V3 load(1, XDATA, add(CFA_XSP16, literal(-13)))
        CFI V2 load(1, XDATA, add(CFA_XSP16, literal(-14)))
        CFI V1 load(1, XDATA, add(CFA_XSP16, literal(-15)))
        CFI V0 load(1, XDATA, add(CFA_XSP16, literal(-16)))
        CFI VB load(1, XDATA, add(CFA_XSP16, literal(-17)))
        CFI R6 load(1, XDATA, add(CFA_XSP16, literal(-18)))
        CFI CFA_SP SP+0
        CFI CFA_XSP16 add(XSP16, 18)
        ; Saved register size: 18
        ; Auto size: 25
        MOV     A,#-0x19
        LCALL   ?ALLOC_XSTACK8
        CFI CFA_XSP16 add(XSP16, 43)
        MOV     A,R2
        MOV     R6,A
        MOV     A,R3
        MOV     R7,A
        MOV     ?V0 + 6,R4
        MOV     ?V0 + 7,R5
        MOV     ?V0 + 4,R1
        MOV     A,#0x2b
        LCALL   ?XSTACK_DISP0_8
        MOVX    A,@DPTR
        MOV     ?V0 + 3,A
        ; Setup parameters for call to function osal_strlen
        LCALL   ?Subroutine4 & 0xFFFF
??CrossCallReturnLabel_2:
        ; Setup parameters for call to function osal_memcpy
        MOV     ?V0 + 0,R6
        MOV     ?V0 + 1,R7
        MOV     ?V0 + 2,#0x0
        MOV     R0,#?V0 + 0
        LCALL   ?PUSH_XSTACK_I_THREE
        CFI CFA_XSP16 add(XSP16, 46)
        MOV     A,R2
        MOV     R4,A
        MOV     R5,#0x0
        MOV     A,#0x3
        LCALL   ?XSTACK_DISP0_8
        LCALL   ?Subroutine2 & 0xFFFF
??CrossCallReturnLabel_11:
        LCALL   ?DEALLOC_XSTACK8
        CFI CFA_XSP16 add(XSP16, 43)
        MOV     DPL,?XSP + 0
        MOV     DPH,?XSP + 1
        MOV     A,DPL
        ADD     A,?V0 + 8
        LCALL   ?Subroutine1 & 0xFFFF
??CrossCallReturnLabel_8:
        ; Setup parameters for call to function _ltoa
        INC     DPTR
        MOV     ?V0 + 0,DPL
        MOV     ?V0 + 1,DPH
        MOV     R0,#?V0 + 0
        LCALL   ?PUSH_XSTACK_I_TWO
        CFI CFA_XSP16 add(XSP16, 45)
        MOV     R1,?V0 + 4
        MOV     R2,?V0 + 6
        MOV     R3,?V0 + 7
        LCALL   ??Subroutine16_0 & 0xFFFF
??CrossCallReturnLabel_19:
        LCALL   ?DEALLOC_XSTACK8
        CFI CFA_XSP16 add(XSP16, 43)
        ; Setup parameters for call to function HalLcdWriteString
        MOV     R1,?V0 + 3
        CFI EndBlock cfiBlock7
        REQUIRE ?Subroutine12
        ; // Fall through to label ?Subroutine12

        RSEG BANKED_CODE:CODE:NOROOT(0)
?Subroutine12:
        CFI Block cfiBlock8 Using cfiCommon0
        CFI NoFunction
        CFI CFA_SP SP+0
        CFI CFA_XSP16 add(XSP16, 43)
        CFI VB load(1, XDATA, add(CFA_XSP16, literal(-17)))
        CFI DPL0 load(1, XDATA, add(CFA_XSP16, literal(-2)))
        CFI DPH0 load(1, XDATA, add(CFA_XSP16, literal(-1)))
        CFI R6 load(1, XDATA, add(CFA_XSP16, literal(-18)))
        CFI R7 load(1, XDATA, add(CFA_XSP16, literal(-6)))
        CFI V0 load(1, XDATA, add(CFA_XSP16, literal(-16)))
        CFI V1 load(1, XDATA, add(CFA_XSP16, literal(-15)))
        CFI V2 load(1, XDATA, add(CFA_XSP16, literal(-14)))
        CFI V3 load(1, XDATA, add(CFA_XSP16, literal(-13)))
        CFI V4 load(1, XDATA, add(CFA_XSP16, literal(-12)))
        CFI V5 load(1, XDATA, add(CFA_XSP16, literal(-11)))
        CFI V6 load(1, XDATA, add(CFA_XSP16, literal(-10)))
        CFI V7 load(1, XDATA, add(CFA_XSP16, literal(-9)))
        CFI V8 load(1, XDATA, add(CFA_XSP16, literal(-8)))
        CFI V9 load(1, XDATA, add(CFA_XSP16, literal(-7)))
        CFI ?BRET_EXT load(1, XDATA, add(CFA_XSP16, literal(-3)))
        CFI ?RET_HIGH load(1, XDATA, add(CFA_XSP16, literal(-4)))
        CFI ?RET_LOW load(1, XDATA, add(CFA_XSP16, literal(-5)))
        MOV     DPL,?XSP + 0
        MOV     DPH,?XSP + 1
        MOV     R2,DPL
        MOV     R3,DPH
        LCALL   ??HalLcdWriteString?relay
        MOV     A,#0x19
        LCALL   ?DEALLOC_XSTACK8
        CFI CFA_XSP16 add(XSP16, 18)
        MOV     R7,#0xa
        LJMP    ?BANKED_LEAVE_XDATA
        CFI EndBlock cfiBlock8

        RSEG BANKED_CODE:CODE:NOROOT(0)
?Subroutine1:
        CFI Block cfiCond9 Using cfiCommon0
        CFI NoFunction
        CFI Conditional ??CrossCallReturnLabel_8
        CFI R6 load(1, XDATA, add(CFA_XSP16, literal(-18)))
        CFI VB load(1, XDATA, add(CFA_XSP16, literal(-17)))
        CFI V0 load(1, XDATA, add(CFA_XSP16, literal(-16)))
        CFI V1 load(1, XDATA, add(CFA_XSP16, literal(-15)))
        CFI V2 load(1, XDATA, add(CFA_XSP16, literal(-14)))
        CFI V3 load(1, XDATA, add(CFA_XSP16, literal(-13)))
        CFI V4 load(1, XDATA, add(CFA_XSP16, literal(-12)))
        CFI V5 load(1, XDATA, add(CFA_XSP16, literal(-11)))
        CFI V6 load(1, XDATA, add(CFA_XSP16, literal(-10)))
        CFI V7 load(1, XDATA, add(CFA_XSP16, literal(-9)))
        CFI V8 load(1, XDATA, add(CFA_XSP16, literal(-8)))
        CFI V9 load(1, XDATA, add(CFA_XSP16, literal(-7)))
        CFI R7 load(1, XDATA, add(CFA_XSP16, literal(-6)))
        CFI ?RET_LOW load(1, XDATA, add(CFA_XSP16, literal(-5)))
        CFI ?RET_HIGH load(1, XDATA, add(CFA_XSP16, literal(-4)))
        CFI ?BRET_EXT load(1, XDATA, add(CFA_XSP16, literal(-3)))
        CFI DPL0 load(1, XDATA, add(CFA_XSP16, literal(-2)))
        CFI DPH0 load(1, XDATA, add(CFA_XSP16, literal(-1)))
        CFI CFA_SP SP+0
        CFI CFA_XSP16 add(XSP16, 43)
        CFI Block cfiCond10 Using cfiCommon0
        CFI (cfiCond10) NoFunction
        CFI (cfiCond10) Conditional ??CrossCallReturnLabel_9
        CFI (cfiCond10) R6 load(1, XDATA, add(CFA_XSP16, literal(-18)))
        CFI (cfiCond10) VB load(1, XDATA, add(CFA_XSP16, literal(-17)))
        CFI (cfiCond10) V0 load(1, XDATA, add(CFA_XSP16, literal(-16)))
        CFI (cfiCond10) V1 load(1, XDATA, add(CFA_XSP16, literal(-15)))
        CFI (cfiCond10) V2 load(1, XDATA, add(CFA_XSP16, literal(-14)))
        CFI (cfiCond10) V3 load(1, XDATA, add(CFA_XSP16, literal(-13)))
        CFI (cfiCond10) V4 load(1, XDATA, add(CFA_XSP16, literal(-12)))
        CFI (cfiCond10) V5 load(1, XDATA, add(CFA_XSP16, literal(-11)))
        CFI (cfiCond10) V6 load(1, XDATA, add(CFA_XSP16, literal(-10)))
        CFI (cfiCond10) V7 load(1, XDATA, add(CFA_XSP16, literal(-9)))
        CFI (cfiCond10) V8 load(1, XDATA, add(CFA_XSP16, literal(-8)))
        CFI (cfiCond10) V9 load(1, XDATA, add(CFA_XSP16, literal(-7)))
        CFI (cfiCond10) R7 load(1, XDATA, add(CFA_XSP16, literal(-6)))
        CFI (cfiCond10) ?RET_LOW load(1, XDATA, add(CFA_XSP16, literal(-5)))
        CFI (cfiCond10) ?RET_HIGH load(1, XDATA, add(CFA_XSP16, literal(-4)))
        CFI (cfiCond10) ?BRET_EXT load(1, XDATA, add(CFA_XSP16, literal(-3)))
        CFI (cfiCond10) DPL0 load(1, XDATA, add(CFA_XSP16, literal(-2)))
        CFI (cfiCond10) DPH0 load(1, XDATA, add(CFA_XSP16, literal(-1)))
        CFI (cfiCond10) CFA_SP SP+0
        CFI (cfiCond10) CFA_XSP16 add(XSP16, 43)
        CFI Block cfiCond11 Using cfiCommon0
        CFI (cfiCond11) NoFunction
        CFI (cfiCond11) Conditional ??CrossCallReturnLabel_10
        CFI (cfiCond11) R6 load(1, XDATA, add(CFA_XSP16, literal(-18)))
        CFI (cfiCond11) VB load(1, XDATA, add(CFA_XSP16, literal(-17)))
        CFI (cfiCond11) V0 load(1, XDATA, add(CFA_XSP16, literal(-16)))
        CFI (cfiCond11) V1 load(1, XDATA, add(CFA_XSP16, literal(-15)))
        CFI (cfiCond11) V2 load(1, XDATA, add(CFA_XSP16, literal(-14)))
        CFI (cfiCond11) V3 load(1, XDATA, add(CFA_XSP16, literal(-13)))
        CFI (cfiCond11) V4 load(1, XDATA, add(CFA_XSP16, literal(-12)))
        CFI (cfiCond11) V5 load(1, XDATA, add(CFA_XSP16, literal(-11)))
        CFI (cfiCond11) V6 load(1, XDATA, add(CFA_XSP16, literal(-10)))
        CFI (cfiCond11) V7 load(1, XDATA, add(CFA_XSP16, literal(-9)))
        CFI (cfiCond11) V8 load(1, XDATA, add(CFA_XSP16, literal(-8)))
        CFI (cfiCond11) V9 load(1, XDATA, add(CFA_XSP16, literal(-7)))
        CFI (cfiCond11) R7 load(1, XDATA, add(CFA_XSP16, literal(-6)))
        CFI (cfiCond11) ?RET_LOW load(1, XDATA, add(CFA_XSP16, literal(-5)))
        CFI (cfiCond11) ?RET_HIGH load(1, XDATA, add(CFA_XSP16, literal(-4)))
        CFI (cfiCond11) ?BRET_EXT load(1, XDATA, add(CFA_XSP16, literal(-3)))
        CFI (cfiCond11) DPL0 load(1, XDATA, add(CFA_XSP16, literal(-2)))
        CFI (cfiCond11) DPH0 load(1, XDATA, add(CFA_XSP16, literal(-1)))
        CFI (cfiCond11) CFA_SP SP+0
        CFI (cfiCond11) CFA_XSP16 add(XSP16, 43)
        CFI Block cfiPicker12 Using cfiCommon1
        CFI (cfiPicker12) NoFunction
        CFI (cfiPicker12) Picker
        MOV     DPL,A
        MOV     A,DPH
        CFI EndBlock cfiCond9
        CFI EndBlock cfiCond10
        CFI EndBlock cfiCond11
        CFI EndBlock cfiPicker12
        REQUIRE ??Subroutine14_0
        ; // Fall through to label ??Subroutine14_0

        RSEG BANKED_CODE:CODE:NOROOT(0)
??Subroutine14_0:
        CFI Block cfiCond13 Using cfiCommon0
        CFI NoFunction
        CFI Conditional ??CrossCallReturnLabel_7
        CFI R6 load(1, XDATA, add(CFA_XSP16, literal(-24)))
        CFI VB load(1, XDATA, add(CFA_XSP16, literal(-23)))
        CFI V0 load(1, XDATA, add(CFA_XSP16, literal(-22)))
        CFI V1 load(1, XDATA, add(CFA_XSP16, literal(-21)))
        CFI V2 load(1, XDATA, add(CFA_XSP16, literal(-20)))
        CFI V3 load(1, XDATA, add(CFA_XSP16, literal(-19)))
        CFI V4 load(1, XDATA, add(CFA_XSP16, literal(-18)))
        CFI V5 load(1, XDATA, add(CFA_XSP16, literal(-17)))
        CFI V6 load(1, XDATA, add(CFA_XSP16, literal(-16)))
        CFI V7 load(1, XDATA, add(CFA_XSP16, literal(-15)))
        CFI V8 load(1, XDATA, add(CFA_XSP16, literal(-14)))
        CFI V9 load(1, XDATA, add(CFA_XSP16, literal(-13)))
        CFI V10 load(1, XDATA, add(CFA_XSP16, literal(-12)))
        CFI V11 load(1, XDATA, add(CFA_XSP16, literal(-11)))
        CFI V12 load(1, XDATA, add(CFA_XSP16, literal(-10)))
        CFI V13 load(1, XDATA, add(CFA_XSP16, literal(-9)))
        CFI V14 load(1, XDATA, add(CFA_XSP16, literal(-8)))
        CFI V15 load(1, XDATA, add(CFA_XSP16, literal(-7)))
        CFI R7 load(1, XDATA, add(CFA_XSP16, literal(-6)))
        CFI ?RET_LOW load(1, XDATA, add(CFA_XSP16, literal(-5)))
        CFI ?RET_HIGH load(1, XDATA, add(CFA_XSP16, literal(-4)))
        CFI ?BRET_EXT load(1, XDATA, add(CFA_XSP16, literal(-3)))
        CFI DPL0 load(1, XDATA, add(CFA_XSP16, literal(-2)))
        CFI DPH0 load(1, XDATA, add(CFA_XSP16, literal(-1)))
        CFI CFA_SP SP+0
        CFI CFA_XSP16 add(XSP16, 24)
        CFI Block cfiCond14 Using cfiCommon0
        CFI (cfiCond14) NoFunction
        CFI (cfiCond14) Conditional ??CrossCallReturnLabel_8
        CFI (cfiCond14) R6 load(1, XDATA, add(CFA_XSP16, literal(-18)))
        CFI (cfiCond14) VB load(1, XDATA, add(CFA_XSP16, literal(-17)))
        CFI (cfiCond14) V0 load(1, XDATA, add(CFA_XSP16, literal(-16)))
        CFI (cfiCond14) V1 load(1, XDATA, add(CFA_XSP16, literal(-15)))
        CFI (cfiCond14) V2 load(1, XDATA, add(CFA_XSP16, literal(-14)))
        CFI (cfiCond14) V3 load(1, XDATA, add(CFA_XSP16, literal(-13)))
        CFI (cfiCond14) V4 load(1, XDATA, add(CFA_XSP16, literal(-12)))
        CFI (cfiCond14) V5 load(1, XDATA, add(CFA_XSP16, literal(-11)))
        CFI (cfiCond14) V6 load(1, XDATA, add(CFA_XSP16, literal(-10)))
        CFI (cfiCond14) V7 load(1, XDATA, add(CFA_XSP16, literal(-9)))
        CFI (cfiCond14) V8 load(1, XDATA, add(CFA_XSP16, literal(-8)))
        CFI (cfiCond14) V9 load(1, XDATA, add(CFA_XSP16, literal(-7)))
        CFI (cfiCond14) R7 load(1, XDATA, add(CFA_XSP16, literal(-6)))
        CFI (cfiCond14) ?RET_LOW load(1, XDATA, add(CFA_XSP16, literal(-5)))
        CFI (cfiCond14) ?RET_HIGH load(1, XDATA, add(CFA_XSP16, literal(-4)))
        CFI (cfiCond14) ?BRET_EXT load(1, XDATA, add(CFA_XSP16, literal(-3)))
        CFI (cfiCond14) DPL0 load(1, XDATA, add(CFA_XSP16, literal(-2)))
        CFI (cfiCond14) DPH0 load(1, XDATA, add(CFA_XSP16, literal(-1)))
        CFI (cfiCond14) CFA_SP SP+0
        CFI (cfiCond14) CFA_XSP16 add(XSP16, 43)
        CFI Block cfiCond15 Using cfiCommon0
        CFI (cfiCond15) NoFunction
        CFI (cfiCond15) Conditional ??CrossCallReturnLabel_9
        CFI (cfiCond15) R6 load(1, XDATA, add(CFA_XSP16, literal(-18)))
        CFI (cfiCond15) VB load(1, XDATA, add(CFA_XSP16, literal(-17)))
        CFI (cfiCond15) V0 load(1, XDATA, add(CFA_XSP16, literal(-16)))
        CFI (cfiCond15) V1 load(1, XDATA, add(CFA_XSP16, literal(-15)))
        CFI (cfiCond15) V2 load(1, XDATA, add(CFA_XSP16, literal(-14)))
        CFI (cfiCond15) V3 load(1, XDATA, add(CFA_XSP16, literal(-13)))
        CFI (cfiCond15) V4 load(1, XDATA, add(CFA_XSP16, literal(-12)))
        CFI (cfiCond15) V5 load(1, XDATA, add(CFA_XSP16, literal(-11)))
        CFI (cfiCond15) V6 load(1, XDATA, add(CFA_XSP16, literal(-10)))
        CFI (cfiCond15) V7 load(1, XDATA, add(CFA_XSP16, literal(-9)))
        CFI (cfiCond15) V8 load(1, XDATA, add(CFA_XSP16, literal(-8)))
        CFI (cfiCond15) V9 load(1, XDATA, add(CFA_XSP16, literal(-7)))
        CFI (cfiCond15) R7 load(1, XDATA, add(CFA_XSP16, literal(-6)))
        CFI (cfiCond15) ?RET_LOW load(1, XDATA, add(CFA_XSP16, literal(-5)))
        CFI (cfiCond15) ?RET_HIGH load(1, XDATA, add(CFA_XSP16, literal(-4)))
        CFI (cfiCond15) ?BRET_EXT load(1, XDATA, add(CFA_XSP16, literal(-3)))
        CFI (cfiCond15) DPL0 load(1, XDATA, add(CFA_XSP16, literal(-2)))
        CFI (cfiCond15) DPH0 load(1, XDATA, add(CFA_XSP16, literal(-1)))
        CFI (cfiCond15) CFA_SP SP+0
        CFI (cfiCond15) CFA_XSP16 add(XSP16, 43)
        CFI Block cfiCond16 Using cfiCommon0
        CFI (cfiCond16) NoFunction
        CFI (cfiCond16) Conditional ??CrossCallReturnLabel_10
        CFI (cfiCond16) R6 load(1, XDATA, add(CFA_XSP16, literal(-18)))
        CFI (cfiCond16) VB load(1, XDATA, add(CFA_XSP16, literal(-17)))
        CFI (cfiCond16) V0 load(1, XDATA, add(CFA_XSP16, literal(-16)))
        CFI (cfiCond16) V1 load(1, XDATA, add(CFA_XSP16, literal(-15)))
        CFI (cfiCond16) V2 load(1, XDATA, add(CFA_XSP16, literal(-14)))
        CFI (cfiCond16) V3 load(1, XDATA, add(CFA_XSP16, literal(-13)))
        CFI (cfiCond16) V4 load(1, XDATA, add(CFA_XSP16, literal(-12)))
        CFI (cfiCond16) V5 load(1, XDATA, add(CFA_XSP16, literal(-11)))
        CFI (cfiCond16) V6 load(1, XDATA, add(CFA_XSP16, literal(-10)))
        CFI (cfiCond16) V7 load(1, XDATA, add(CFA_XSP16, literal(-9)))
        CFI (cfiCond16) V8 load(1, XDATA, add(CFA_XSP16, literal(-8)))
        CFI (cfiCond16) V9 load(1, XDATA, add(CFA_XSP16, literal(-7)))
        CFI (cfiCond16) R7 load(1, XDATA, add(CFA_XSP16, literal(-6)))
        CFI (cfiCond16) ?RET_LOW load(1, XDATA, add(CFA_XSP16, literal(-5)))
        CFI (cfiCond16) ?RET_HIGH load(1, XDATA, add(CFA_XSP16, literal(-4)))
        CFI (cfiCond16) ?BRET_EXT load(1, XDATA, add(CFA_XSP16, literal(-3)))
        CFI (cfiCond16) DPL0 load(1, XDATA, add(CFA_XSP16, literal(-2)))
        CFI (cfiCond16) DPH0 load(1, XDATA, add(CFA_XSP16, literal(-1)))
        CFI (cfiCond16) CFA_SP SP+0
        CFI (cfiCond16) CFA_XSP16 add(XSP16, 43)
        CFI Block cfiPicker17 Using cfiCommon1
        CFI (cfiPicker17) NoFunction
        CFI (cfiPicker17) Picker
        ADDC    A,#0x0
        MOV     DPH,A
        MOV     A,#0x20
        MOVX    @DPTR,A
        RET
        CFI EndBlock cfiCond13
        CFI EndBlock cfiCond14
        CFI EndBlock cfiCond15
        CFI EndBlock cfiCond16
        CFI EndBlock cfiPicker17

        RSEG BANKED_CODE:CODE:NOROOT(0)
HalLcdWriteStringValueValue:
        CFI Block cfiBlock18 Using cfiCommon0
        CFI Function HalLcdWriteStringValueValue
        FUNCALL HalLcdWriteStringValueValue, osal_strlen
        LOCFRAME ISTACK, 0, STACK
        LOCFRAME PSTACK, 0, STACK
        LOCFRAME XSTACK, 43, STACK
        LOCFRAME IOVERLAY, 0, STATIC
        LOCFRAME DOVERLAY, 0, STATIC
        ARGFRAME ISTACK, 0, STACK
        ARGFRAME PSTACK, 0, STACK
        ARGFRAME XSTACK, 43, STACK
        ARGFRAME IOVERLAY, 0, STATIC
        ARGFRAME DOVERLAY, 0, STATIC
        FUNCALL HalLcdWriteStringValueValue, osal_memcpy
        LOCFRAME ISTACK, 0, STACK
        LOCFRAME PSTACK, 0, STACK
        LOCFRAME XSTACK, 46, STACK
        LOCFRAME IOVERLAY, 0, STATIC
        LOCFRAME DOVERLAY, 0, STATIC
        ARGFRAME ISTACK, 0, STACK
        ARGFRAME PSTACK, 0, STACK
        ARGFRAME XSTACK, 46, STACK
        ARGFRAME IOVERLAY, 0, STATIC
        ARGFRAME DOVERLAY, 0, STATIC
        FUNCALL HalLcdWriteStringValueValue, _ltoa
        LOCFRAME ISTACK, 0, STACK
        LOCFRAME PSTACK, 0, STACK
        LOCFRAME XSTACK, 45, STACK
        LOCFRAME IOVERLAY, 0, STATIC
        LOCFRAME DOVERLAY, 0, STATIC
        ARGFRAME ISTACK, 0, STACK
        ARGFRAME PSTACK, 0, STACK
        ARGFRAME XSTACK, 45, STACK
        ARGFRAME IOVERLAY, 0, STATIC
        ARGFRAME DOVERLAY, 0, STATIC
        FUNCALL HalLcdWriteStringValueValue, osal_strlen
        LOCFRAME ISTACK, 0, STACK
        LOCFRAME PSTACK, 0, STACK
        LOCFRAME XSTACK, 43, STACK
        LOCFRAME IOVERLAY, 0, STATIC
        LOCFRAME DOVERLAY, 0, STATIC
        ARGFRAME ISTACK, 0, STACK
        ARGFRAME PSTACK, 0, STACK
        ARGFRAME XSTACK, 43, STACK
        ARGFRAME IOVERLAY, 0, STATIC
        ARGFRAME DOVERLAY, 0, STATIC
        FUNCALL HalLcdWriteStringValueValue, _ltoa
        LOCFRAME ISTACK, 0, STACK
        LOCFRAME PSTACK, 0, STACK
        LOCFRAME XSTACK, 45, STACK
        LOCFRAME IOVERLAY, 0, STATIC
        LOCFRAME DOVERLAY, 0, STATIC
        ARGFRAME ISTACK, 0, STACK
        ARGFRAME PSTACK, 0, STACK
        ARGFRAME XSTACK, 45, STACK
        ARGFRAME IOVERLAY, 0, STATIC
        ARGFRAME DOVERLAY, 0, STATIC
        FUNCALL HalLcdWriteStringValueValue, HalLcdWriteString
        LOCFRAME ISTACK, 0, STACK
        LOCFRAME PSTACK, 0, STACK
        LOCFRAME XSTACK, 43, STACK
        LOCFRAME IOVERLAY, 0, STATIC
        LOCFRAME DOVERLAY, 0, STATIC
        ARGFRAME ISTACK, 0, STACK
        ARGFRAME PSTACK, 0, STACK
        ARGFRAME XSTACK, 43, STACK
        ARGFRAME IOVERLAY, 0, STATIC
        ARGFRAME DOVERLAY, 0, STATIC
        MOV     A,#-0x12
        LCALL   ?BANKED_ENTER_XDATA
        CFI DPH0 load(1, XDATA, add(CFA_XSP16, literal(-1)))
        CFI DPL0 load(1, XDATA, add(CFA_XSP16, literal(-2)))
        CFI ?BRET_EXT load(1, XDATA, add(CFA_XSP16, literal(-3)))
        CFI ?RET_HIGH load(1, XDATA, add(CFA_XSP16, literal(-4)))
        CFI ?RET_LOW load(1, XDATA, add(CFA_XSP16, literal(-5)))
        CFI R7 load(1, XDATA, add(CFA_XSP16, literal(-6)))
        CFI V9 load(1, XDATA, add(CFA_XSP16, literal(-7)))
        CFI V8 load(1, XDATA, add(CFA_XSP16, literal(-8)))
        CFI V7 load(1, XDATA, add(CFA_XSP16, literal(-9)))
        CFI V6 load(1, XDATA, add(CFA_XSP16, literal(-10)))
        CFI V5 load(1, XDATA, add(CFA_XSP16, literal(-11)))
        CFI V4 load(1, XDATA, add(CFA_XSP16, literal(-12)))
        CFI V3 load(1, XDATA, add(CFA_XSP16, literal(-13)))
        CFI V2 load(1, XDATA, add(CFA_XSP16, literal(-14)))
        CFI V1 load(1, XDATA, add(CFA_XSP16, literal(-15)))
        CFI V0 load(1, XDATA, add(CFA_XSP16, literal(-16)))
        CFI VB load(1, XDATA, add(CFA_XSP16, literal(-17)))
        CFI R6 load(1, XDATA, add(CFA_XSP16, literal(-18)))
        CFI CFA_SP SP+0
        CFI CFA_XSP16 add(XSP16, 18)
        ; Saved register size: 18
        ; Auto size: 25
        MOV     A,#-0x19
        LCALL   ?ALLOC_XSTACK8
        CFI CFA_XSP16 add(XSP16, 43)
        MOV     ?V0 + 4,R2
        MOV     ?V0 + 5,R3
        MOV     ?V0 + 0,R4
        MOV     ?V0 + 1,R5
        MOV     ?V0 + 7,R1
        MOV     A,#0x2b
        LCALL   ?XSTACK_DISP0_8
        MOVX    A,@DPTR
        MOV     R6,A
        INC     DPTR
        MOVX    A,@DPTR
        MOV     R7,A
        MOV     A,#0x2d
        LCALL   ?XSTACK_DISP0_8
        MOVX    A,@DPTR
        MOV     ?V0 + 3,A
        MOV     A,#0x2e
        LCALL   ?XSTACK_DISP0_8
        MOVX    A,@DPTR
        MOV     ?V0 + 2,A
        ; Setup parameters for call to function osal_strlen
        LCALL   ?Subroutine4 & 0xFFFF
??CrossCallReturnLabel_3:
        JZ      ??HalLcdWriteStringValueValue_0
        ; Setup parameters for call to function osal_memcpy
        MOV     ?V0 + 6,#0x0
        MOV     R0,#?V0 + 4
        LCALL   ?PUSH_XSTACK_I_THREE
        CFI CFA_XSP16 add(XSP16, 46)
        MOV     A,R2
        MOV     ?V0 + 4,A
        MOV     R4,A
        MOV     R5,#0x0
        MOV     A,#0x3
        LCALL   ?XSTACK_DISP0_8
        LCALL   ?Subroutine2 & 0xFFFF
??CrossCallReturnLabel_12:
        LCALL   ?DEALLOC_XSTACK8
        CFI CFA_XSP16 add(XSP16, 43)
        MOV     DPL,?XSP + 0
        MOV     DPH,?XSP + 1
        MOV     A,DPL
        ADD     A,?V0 + 4
        LCALL   ?Subroutine1 & 0xFFFF
??CrossCallReturnLabel_9:
        INC     ?V0 + 8
??HalLcdWriteStringValueValue_0:
        ; Setup parameters for call to function _ltoa
        MOV     DPL,?XSP + 0
        MOV     DPH,?XSP + 1
        MOV     A,DPL
        ADD     A,?V0 + 8
        MOV     ?V0 + 4,A
        MOV     A,DPH
        ADDC    A,#0x0
        MOV     ?V0 + 5,A
        MOV     R0,#?V0 + 4
        LCALL   ?PUSH_XSTACK_I_TWO
        CFI CFA_XSP16 add(XSP16, 45)
        MOV     R1,?V0 + 7
        LCALL   ?Subroutine3 & 0xFFFF
??CrossCallReturnLabel_17:
        LCALL   ?DEALLOC_XSTACK8
        CFI CFA_XSP16 add(XSP16, 43)
        ; Setup parameters for call to function osal_strlen
        MOV     DPL,?XSP + 0
        MOV     DPH,?XSP + 1
        MOV     R2,DPL
        MOV     R3,DPH
        LCALL   ?Subroutine4 & 0xFFFF
??CrossCallReturnLabel_4:
        MOV     ?V0 + 0,A
        MOV     DPL,?XSP + 0
        MOV     DPH,?XSP + 1
        MOV     A,DPL
        ADD     A,?V0 + 0
        MOV     DPL,A
        MOV     A,DPH
        ADDC    A,#0x0
        MOV     DPH,A
        MOV     A,#0x2c
        MOVX    @DPTR,A
        INC     ?V0 + 8
        MOV     ?V0 + 0,?V0 + 8
        MOV     DPL,?XSP + 0
        MOV     DPH,?XSP + 1
        MOV     A,DPL
        ADD     A,?V0 + 0
        LCALL   ?Subroutine1 & 0xFFFF
??CrossCallReturnLabel_10:
        ; Setup parameters for call to function _ltoa
        MOV     A,#0x1
        ADD     A,?V0 + 8
        MOV     R0,A
        MOV     DPL,?XSP + 0
        MOV     DPH,?XSP + 1
        MOV     A,DPL
        ADD     A,R0
        MOV     ?V0 + 0,A
        MOV     A,DPH
        ADDC    A,#0x0
        MOV     ?V0 + 1,A
        MOV     R0,#?V0 + 0
        LCALL   ?PUSH_XSTACK_I_TWO
        CFI CFA_XSP16 add(XSP16, 45)
        MOV     R1,?V0 + 3
        MOV     ?V0 + 0,R6
        MOV     ?V0 + 1,R7
        LCALL   ?Subroutine3 & 0xFFFF
??CrossCallReturnLabel_18:
        LCALL   ?DEALLOC_XSTACK8
        CFI CFA_XSP16 add(XSP16, 43)
        ; Setup parameters for call to function HalLcdWriteString
        MOV     R1,?V0 + 2
        LJMP    ?Subroutine12 & 0xFFFF
        CFI EndBlock cfiBlock18

        RSEG BANKED_CODE:CODE:NOROOT(0)
?Subroutine4:
        CFI Block cfiCond19 Using cfiCommon0
        CFI NoFunction
        CFI Conditional ??CrossCallReturnLabel_2
        CFI R6 load(1, XDATA, add(CFA_XSP16, literal(-18)))
        CFI VB load(1, XDATA, add(CFA_XSP16, literal(-17)))
        CFI V0 load(1, XDATA, add(CFA_XSP16, literal(-16)))
        CFI V1 load(1, XDATA, add(CFA_XSP16, literal(-15)))
        CFI V2 load(1, XDATA, add(CFA_XSP16, literal(-14)))
        CFI V3 load(1, XDATA, add(CFA_XSP16, literal(-13)))
        CFI V4 load(1, XDATA, add(CFA_XSP16, literal(-12)))
        CFI V5 load(1, XDATA, add(CFA_XSP16, literal(-11)))
        CFI V6 load(1, XDATA, add(CFA_XSP16, literal(-10)))
        CFI V7 load(1, XDATA, add(CFA_XSP16, literal(-9)))
        CFI V8 load(1, XDATA, add(CFA_XSP16, literal(-8)))
        CFI V9 load(1, XDATA, add(CFA_XSP16, literal(-7)))
        CFI R7 load(1, XDATA, add(CFA_XSP16, literal(-6)))
        CFI ?RET_LOW load(1, XDATA, add(CFA_XSP16, literal(-5)))
        CFI ?RET_HIGH load(1, XDATA, add(CFA_XSP16, literal(-4)))
        CFI ?BRET_EXT load(1, XDATA, add(CFA_XSP16, literal(-3)))
        CFI DPL0 load(1, XDATA, add(CFA_XSP16, literal(-2)))
        CFI DPH0 load(1, XDATA, add(CFA_XSP16, literal(-1)))
        CFI CFA_SP SP+0
        CFI CFA_XSP16 add(XSP16, 43)
        CFI Block cfiCond20 Using cfiCommon0
        CFI (cfiCond20) NoFunction
        CFI (cfiCond20) Conditional ??CrossCallReturnLabel_3
        CFI (cfiCond20) R6 load(1, XDATA, add(CFA_XSP16, literal(-18)))
        CFI (cfiCond20) VB load(1, XDATA, add(CFA_XSP16, literal(-17)))
        CFI (cfiCond20) V0 load(1, XDATA, add(CFA_XSP16, literal(-16)))
        CFI (cfiCond20) V1 load(1, XDATA, add(CFA_XSP16, literal(-15)))
        CFI (cfiCond20) V2 load(1, XDATA, add(CFA_XSP16, literal(-14)))
        CFI (cfiCond20) V3 load(1, XDATA, add(CFA_XSP16, literal(-13)))
        CFI (cfiCond20) V4 load(1, XDATA, add(CFA_XSP16, literal(-12)))
        CFI (cfiCond20) V5 load(1, XDATA, add(CFA_XSP16, literal(-11)))
        CFI (cfiCond20) V6 load(1, XDATA, add(CFA_XSP16, literal(-10)))
        CFI (cfiCond20) V7 load(1, XDATA, add(CFA_XSP16, literal(-9)))
        CFI (cfiCond20) V8 load(1, XDATA, add(CFA_XSP16, literal(-8)))
        CFI (cfiCond20) V9 load(1, XDATA, add(CFA_XSP16, literal(-7)))
        CFI (cfiCond20) R7 load(1, XDATA, add(CFA_XSP16, literal(-6)))
        CFI (cfiCond20) ?RET_LOW load(1, XDATA, add(CFA_XSP16, literal(-5)))
        CFI (cfiCond20) ?RET_HIGH load(1, XDATA, add(CFA_XSP16, literal(-4)))
        CFI (cfiCond20) ?BRET_EXT load(1, XDATA, add(CFA_XSP16, literal(-3)))
        CFI (cfiCond20) DPL0 load(1, XDATA, add(CFA_XSP16, literal(-2)))
        CFI (cfiCond20) DPH0 load(1, XDATA, add(CFA_XSP16, literal(-1)))
        CFI (cfiCond20) CFA_SP SP+0
        CFI (cfiCond20) CFA_XSP16 add(XSP16, 43)
        CFI Block cfiCond21 Using cfiCommon0
        CFI (cfiCond21) NoFunction
        CFI (cfiCond21) Conditional ??CrossCallReturnLabel_4
        CFI (cfiCond21) R6 load(1, XDATA, add(CFA_XSP16, literal(-18)))
        CFI (cfiCond21) VB load(1, XDATA, add(CFA_XSP16, literal(-17)))
        CFI (cfiCond21) V0 load(1, XDATA, add(CFA_XSP16, literal(-16)))
        CFI (cfiCond21) V1 load(1, XDATA, add(CFA_XSP16, literal(-15)))
        CFI (cfiCond21) V2 load(1, XDATA, add(CFA_XSP16, literal(-14)))
        CFI (cfiCond21) V3 load(1, XDATA, add(CFA_XSP16, literal(-13)))
        CFI (cfiCond21) V4 load(1, XDATA, add(CFA_XSP16, literal(-12)))
        CFI (cfiCond21) V5 load(1, XDATA, add(CFA_XSP16, literal(-11)))
        CFI (cfiCond21) V6 load(1, XDATA, add(CFA_XSP16, literal(-10)))
        CFI (cfiCond21) V7 load(1, XDATA, add(CFA_XSP16, literal(-9)))
        CFI (cfiCond21) V8 load(1, XDATA, add(CFA_XSP16, literal(-8)))
        CFI (cfiCond21) V9 load(1, XDATA, add(CFA_XSP16, literal(-7)))
        CFI (cfiCond21) R7 load(1, XDATA, add(CFA_XSP16, literal(-6)))
        CFI (cfiCond21) ?RET_LOW load(1, XDATA, add(CFA_XSP16, literal(-5)))
        CFI (cfiCond21) ?RET_HIGH load(1, XDATA, add(CFA_XSP16, literal(-4)))
        CFI (cfiCond21) ?BRET_EXT load(1, XDATA, add(CFA_XSP16, literal(-3)))
        CFI (cfiCond21) DPL0 load(1, XDATA, add(CFA_XSP16, literal(-2)))
        CFI (cfiCond21) DPH0 load(1, XDATA, add(CFA_XSP16, literal(-1)))
        CFI (cfiCond21) CFA_SP SP+0
        CFI (cfiCond21) CFA_XSP16 add(XSP16, 43)
        CFI Block cfiPicker22 Using cfiCommon1
        CFI (cfiPicker22) NoFunction
        CFI (cfiPicker22) Picker
        LCALL   ??osal_strlen?relay
        MOV     A,R2
        MOV     ?V0 + 8,A
        RET
        CFI EndBlock cfiCond19
        CFI EndBlock cfiCond20
        CFI EndBlock cfiCond21
        CFI EndBlock cfiPicker22

        RSEG BANKED_CODE:CODE:NOROOT(0)
?Subroutine2:
        CFI Block cfiCond23 Using cfiCommon0
        CFI NoFunction
        CFI Conditional ??CrossCallReturnLabel_11
        CFI R6 load(1, XDATA, add(CFA_XSP16, literal(-18)))
        CFI VB load(1, XDATA, add(CFA_XSP16, literal(-17)))
        CFI V0 load(1, XDATA, add(CFA_XSP16, literal(-16)))
        CFI V1 load(1, XDATA, add(CFA_XSP16, literal(-15)))
        CFI V2 load(1, XDATA, add(CFA_XSP16, literal(-14)))
        CFI V3 load(1, XDATA, add(CFA_XSP16, literal(-13)))
        CFI V4 load(1, XDATA, add(CFA_XSP16, literal(-12)))
        CFI V5 load(1, XDATA, add(CFA_XSP16, literal(-11)))
        CFI V6 load(1, XDATA, add(CFA_XSP16, literal(-10)))
        CFI V7 load(1, XDATA, add(CFA_XSP16, literal(-9)))
        CFI V8 load(1, XDATA, add(CFA_XSP16, literal(-8)))
        CFI V9 load(1, XDATA, add(CFA_XSP16, literal(-7)))
        CFI R7 load(1, XDATA, add(CFA_XSP16, literal(-6)))
        CFI ?RET_LOW load(1, XDATA, add(CFA_XSP16, literal(-5)))
        CFI ?RET_HIGH load(1, XDATA, add(CFA_XSP16, literal(-4)))
        CFI ?BRET_EXT load(1, XDATA, add(CFA_XSP16, literal(-3)))
        CFI DPL0 load(1, XDATA, add(CFA_XSP16, literal(-2)))
        CFI DPH0 load(1, XDATA, add(CFA_XSP16, literal(-1)))
        CFI CFA_SP SP+0
        CFI CFA_XSP16 add(XSP16, 46)
        CFI Block cfiCond24 Using cfiCommon0
        CFI (cfiCond24) NoFunction
        CFI (cfiCond24) Conditional ??CrossCallReturnLabel_12
        CFI (cfiCond24) R6 load(1, XDATA, add(CFA_XSP16, literal(-18)))
        CFI (cfiCond24) VB load(1, XDATA, add(CFA_XSP16, literal(-17)))
        CFI (cfiCond24) V0 load(1, XDATA, add(CFA_XSP16, literal(-16)))
        CFI (cfiCond24) V1 load(1, XDATA, add(CFA_XSP16, literal(-15)))
        CFI (cfiCond24) V2 load(1, XDATA, add(CFA_XSP16, literal(-14)))
        CFI (cfiCond24) V3 load(1, XDATA, add(CFA_XSP16, literal(-13)))
        CFI (cfiCond24) V4 load(1, XDATA, add(CFA_XSP16, literal(-12)))
        CFI (cfiCond24) V5 load(1, XDATA, add(CFA_XSP16, literal(-11)))
        CFI (cfiCond24) V6 load(1, XDATA, add(CFA_XSP16, literal(-10)))
        CFI (cfiCond24) V7 load(1, XDATA, add(CFA_XSP16, literal(-9)))
        CFI (cfiCond24) V8 load(1, XDATA, add(CFA_XSP16, literal(-8)))
        CFI (cfiCond24) V9 load(1, XDATA, add(CFA_XSP16, literal(-7)))
        CFI (cfiCond24) R7 load(1, XDATA, add(CFA_XSP16, literal(-6)))
        CFI (cfiCond24) ?RET_LOW load(1, XDATA, add(CFA_XSP16, literal(-5)))
        CFI (cfiCond24) ?RET_HIGH load(1, XDATA, add(CFA_XSP16, literal(-4)))
        CFI (cfiCond24) ?BRET_EXT load(1, XDATA, add(CFA_XSP16, literal(-3)))
        CFI (cfiCond24) DPL0 load(1, XDATA, add(CFA_XSP16, literal(-2)))
        CFI (cfiCond24) DPH0 load(1, XDATA, add(CFA_XSP16, literal(-1)))
        CFI (cfiCond24) CFA_SP SP+0
        CFI (cfiCond24) CFA_XSP16 add(XSP16, 46)
        CFI Block cfiCond25 Using cfiCommon0
        CFI (cfiCond25) NoFunction
        CFI (cfiCond25) Conditional ??CrossCallReturnLabel_13
        CFI (cfiCond25) R6 load(1, XDATA, add(CFA_XSP16, literal(-15)))
        CFI (cfiCond25) VB load(1, XDATA, add(CFA_XSP16, literal(-14)))
        CFI (cfiCond25) V0 load(1, XDATA, add(CFA_XSP16, literal(-13)))
        CFI (cfiCond25) V1 load(1, XDATA, add(CFA_XSP16, literal(-12)))
        CFI (cfiCond25) V2 load(1, XDATA, add(CFA_XSP16, literal(-11)))
        CFI (cfiCond25) V3 load(1, XDATA, add(CFA_XSP16, literal(-10)))
        CFI (cfiCond25) V4 load(1, XDATA, add(CFA_XSP16, literal(-9)))
        CFI (cfiCond25) V5 load(1, XDATA, add(CFA_XSP16, literal(-8)))
        CFI (cfiCond25) V6 load(1, XDATA, add(CFA_XSP16, literal(-7)))
        CFI (cfiCond25) R7 load(1, XDATA, add(CFA_XSP16, literal(-6)))
        CFI (cfiCond25) ?RET_LOW load(1, XDATA, add(CFA_XSP16, literal(-5)))
        CFI (cfiCond25) ?RET_HIGH load(1, XDATA, add(CFA_XSP16, literal(-4)))
        CFI (cfiCond25) ?BRET_EXT load(1, XDATA, add(CFA_XSP16, literal(-3)))
        CFI (cfiCond25) DPL0 load(1, XDATA, add(CFA_XSP16, literal(-2)))
        CFI (cfiCond25) DPH0 load(1, XDATA, add(CFA_XSP16, literal(-1)))
        CFI (cfiCond25) CFA_SP SP+0
        CFI (cfiCond25) CFA_XSP16 add(XSP16, 35)
        CFI Block cfiPicker26 Using cfiCommon1
        CFI (cfiPicker26) NoFunction
        CFI (cfiPicker26) Picker
        MOV     R2,DPL
        MOV     R3,DPH
        CFI EndBlock cfiCond23
        CFI EndBlock cfiCond24
        CFI EndBlock cfiCond25
        CFI EndBlock cfiPicker26
        REQUIRE ??Subroutine15_0
        ; // Fall through to label ??Subroutine15_0

        RSEG BANKED_CODE:CODE:NOROOT(0)
??Subroutine15_0:
        CFI Block cfiCond27 Using cfiCommon0
        CFI NoFunction
        CFI Conditional ??CrossCallReturnLabel_14
        CFI R6 load(1, XDATA, add(CFA_XSP16, literal(-24)))
        CFI VB load(1, XDATA, add(CFA_XSP16, literal(-23)))
        CFI V0 load(1, XDATA, add(CFA_XSP16, literal(-22)))
        CFI V1 load(1, XDATA, add(CFA_XSP16, literal(-21)))
        CFI V2 load(1, XDATA, add(CFA_XSP16, literal(-20)))
        CFI V3 load(1, XDATA, add(CFA_XSP16, literal(-19)))
        CFI V4 load(1, XDATA, add(CFA_XSP16, literal(-18)))
        CFI V5 load(1, XDATA, add(CFA_XSP16, literal(-17)))
        CFI V6 load(1, XDATA, add(CFA_XSP16, literal(-16)))
        CFI V7 load(1, XDATA, add(CFA_XSP16, literal(-15)))
        CFI V8 load(1, XDATA, add(CFA_XSP16, literal(-14)))
        CFI V9 load(1, XDATA, add(CFA_XSP16, literal(-13)))
        CFI V10 load(1, XDATA, add(CFA_XSP16, literal(-12)))
        CFI V11 load(1, XDATA, add(CFA_XSP16, literal(-11)))
        CFI V12 load(1, XDATA, add(CFA_XSP16, literal(-10)))
        CFI V13 load(1, XDATA, add(CFA_XSP16, literal(-9)))
        CFI V14 load(1, XDATA, add(CFA_XSP16, literal(-8)))
        CFI V15 load(1, XDATA, add(CFA_XSP16, literal(-7)))
        CFI R7 load(1, XDATA, add(CFA_XSP16, literal(-6)))
        CFI ?RET_LOW load(1, XDATA, add(CFA_XSP16, literal(-5)))
        CFI ?RET_HIGH load(1, XDATA, add(CFA_XSP16, literal(-4)))
        CFI ?BRET_EXT load(1, XDATA, add(CFA_XSP16, literal(-3)))
        CFI DPL0 load(1, XDATA, add(CFA_XSP16, literal(-2)))
        CFI DPH0 load(1, XDATA, add(CFA_XSP16, literal(-1)))
        CFI CFA_SP SP+0
        CFI CFA_XSP16 add(XSP16, 27)
        CFI Block cfiCond28 Using cfiCommon0
        CFI (cfiCond28) NoFunction
        CFI (cfiCond28) Conditional ??CrossCallReturnLabel_15
        CFI (cfiCond28) R6 load(1, XDATA, add(CFA_XSP16, literal(-24)))
        CFI (cfiCond28) VB load(1, XDATA, add(CFA_XSP16, literal(-23)))
        CFI (cfiCond28) V0 load(1, XDATA, add(CFA_XSP16, literal(-22)))
        CFI (cfiCond28) V1 load(1, XDATA, add(CFA_XSP16, literal(-21)))
        CFI (cfiCond28) V2 load(1, XDATA, add(CFA_XSP16, literal(-20)))
        CFI (cfiCond28) V3 load(1, XDATA, add(CFA_XSP16, literal(-19)))
        CFI (cfiCond28) V4 load(1, XDATA, add(CFA_XSP16, literal(-18)))
        CFI (cfiCond28) V5 load(1, XDATA, add(CFA_XSP16, literal(-17)))
        CFI (cfiCond28) V6 load(1, XDATA, add(CFA_XSP16, literal(-16)))
        CFI (cfiCond28) V7 load(1, XDATA, add(CFA_XSP16, literal(-15)))
        CFI (cfiCond28) V8 load(1, XDATA, add(CFA_XSP16, literal(-14)))
        CFI (cfiCond28) V9 load(1, XDATA, add(CFA_XSP16, literal(-13)))
        CFI (cfiCond28) V10 load(1, XDATA, add(CFA_XSP16, literal(-12)))
        CFI (cfiCond28) V11 load(1, XDATA, add(CFA_XSP16, literal(-11)))
        CFI (cfiCond28) V12 load(1, XDATA, add(CFA_XSP16, literal(-10)))
        CFI (cfiCond28) V13 load(1, XDATA, add(CFA_XSP16, literal(-9)))
        CFI (cfiCond28) V14 load(1, XDATA, add(CFA_XSP16, literal(-8)))
        CFI (cfiCond28) V15 load(1, XDATA, add(CFA_XSP16, literal(-7)))
        CFI (cfiCond28) R7 load(1, XDATA, add(CFA_XSP16, literal(-6)))
        CFI (cfiCond28) ?RET_LOW load(1, XDATA, add(CFA_XSP16, literal(-5)))
        CFI (cfiCond28) ?RET_HIGH load(1, XDATA, add(CFA_XSP16, literal(-4)))
        CFI (cfiCond28) ?BRET_EXT load(1, XDATA, add(CFA_XSP16, literal(-3)))
        CFI (cfiCond28) DPL0 load(1, XDATA, add(CFA_XSP16, literal(-2)))
        CFI (cfiCond28) DPH0 load(1, XDATA, add(CFA_XSP16, literal(-1)))
        CFI (cfiCond28) CFA_SP SP+0
        CFI (cfiCond28) CFA_XSP16 add(XSP16, 27)
        CFI Block cfiCond29 Using cfiCommon0
        CFI (cfiCond29) NoFunction
        CFI (cfiCond29) Conditional ??CrossCallReturnLabel_16
        CFI (cfiCond29) R6 load(1, XDATA, add(CFA_XSP16, literal(-24)))
        CFI (cfiCond29) VB load(1, XDATA, add(CFA_XSP16, literal(-23)))
        CFI (cfiCond29) V0 load(1, XDATA, add(CFA_XSP16, literal(-22)))
        CFI (cfiCond29) V1 load(1, XDATA, add(CFA_XSP16, literal(-21)))
        CFI (cfiCond29) V2 load(1, XDATA, add(CFA_XSP16, literal(-20)))
        CFI (cfiCond29) V3 load(1, XDATA, add(CFA_XSP16, literal(-19)))
        CFI (cfiCond29) V4 load(1, XDATA, add(CFA_XSP16, literal(-18)))
        CFI (cfiCond29) V5 load(1, XDATA, add(CFA_XSP16, literal(-17)))
        CFI (cfiCond29) V6 load(1, XDATA, add(CFA_XSP16, literal(-16)))
        CFI (cfiCond29) V7 load(1, XDATA, add(CFA_XSP16, literal(-15)))
        CFI (cfiCond29) V8 load(1, XDATA, add(CFA_XSP16, literal(-14)))
        CFI (cfiCond29) V9 load(1, XDATA, add(CFA_XSP16, literal(-13)))
        CFI (cfiCond29) V10 load(1, XDATA, add(CFA_XSP16, literal(-12)))
        CFI (cfiCond29) V11 load(1, XDATA, add(CFA_XSP16, literal(-11)))
        CFI (cfiCond29) V12 load(1, XDATA, add(CFA_XSP16, literal(-10)))
        CFI (cfiCond29) V13 load(1, XDATA, add(CFA_XSP16, literal(-9)))
        CFI (cfiCond29) V14 load(1, XDATA, add(CFA_XSP16, literal(-8)))
        CFI (cfiCond29) V15 load(1, XDATA, add(CFA_XSP16, literal(-7)))
        CFI (cfiCond29) R7 load(1, XDATA, add(CFA_XSP16, literal(-6)))
        CFI (cfiCond29) ?RET_LOW load(1, XDATA, add(CFA_XSP16, literal(-5)))
        CFI (cfiCond29) ?RET_HIGH load(1, XDATA, add(CFA_XSP16, literal(-4)))
        CFI (cfiCond29) ?BRET_EXT load(1, XDATA, add(CFA_XSP16, literal(-3)))
        CFI (cfiCond29) DPL0 load(1, XDATA, add(CFA_XSP16, literal(-2)))
        CFI (cfiCond29) DPH0 load(1, XDATA, add(CFA_XSP16, literal(-1)))
        CFI (cfiCond29) CFA_SP SP+0
        CFI (cfiCond29) CFA_XSP16 add(XSP16, 27)
        CFI Block cfiCond30 Using cfiCommon0
        CFI (cfiCond30) NoFunction
        CFI (cfiCond30) Conditional ??CrossCallReturnLabel_11
        CFI (cfiCond30) R6 load(1, XDATA, add(CFA_XSP16, literal(-18)))
        CFI (cfiCond30) VB load(1, XDATA, add(CFA_XSP16, literal(-17)))
        CFI (cfiCond30) V0 load(1, XDATA, add(CFA_XSP16, literal(-16)))
        CFI (cfiCond30) V1 load(1, XDATA, add(CFA_XSP16, literal(-15)))
        CFI (cfiCond30) V2 load(1, XDATA, add(CFA_XSP16, literal(-14)))
        CFI (cfiCond30) V3 load(1, XDATA, add(CFA_XSP16, literal(-13)))
        CFI (cfiCond30) V4 load(1, XDATA, add(CFA_XSP16, literal(-12)))
        CFI (cfiCond30) V5 load(1, XDATA, add(CFA_XSP16, literal(-11)))
        CFI (cfiCond30) V6 load(1, XDATA, add(CFA_XSP16, literal(-10)))
        CFI (cfiCond30) V7 load(1, XDATA, add(CFA_XSP16, literal(-9)))
        CFI (cfiCond30) V8 load(1, XDATA, add(CFA_XSP16, literal(-8)))
        CFI (cfiCond30) V9 load(1, XDATA, add(CFA_XSP16, literal(-7)))
        CFI (cfiCond30) R7 load(1, XDATA, add(CFA_XSP16, literal(-6)))
        CFI (cfiCond30) ?RET_LOW load(1, XDATA, add(CFA_XSP16, literal(-5)))
        CFI (cfiCond30) ?RET_HIGH load(1, XDATA, add(CFA_XSP16, literal(-4)))
        CFI (cfiCond30) ?BRET_EXT load(1, XDATA, add(CFA_XSP16, literal(-3)))
        CFI (cfiCond30) DPL0 load(1, XDATA, add(CFA_XSP16, literal(-2)))
        CFI (cfiCond30) DPH0 load(1, XDATA, add(CFA_XSP16, literal(-1)))
        CFI (cfiCond30) CFA_SP SP+0
        CFI (cfiCond30) CFA_XSP16 add(XSP16, 46)
        CFI Block cfiCond31 Using cfiCommon0
        CFI (cfiCond31) NoFunction
        CFI (cfiCond31) Conditional ??CrossCallReturnLabel_12
        CFI (cfiCond31) R6 load(1, XDATA, add(CFA_XSP16, literal(-18)))
        CFI (cfiCond31) VB load(1, XDATA, add(CFA_XSP16, literal(-17)))
        CFI (cfiCond31) V0 load(1, XDATA, add(CFA_XSP16, literal(-16)))
        CFI (cfiCond31) V1 load(1, XDATA, add(CFA_XSP16, literal(-15)))
        CFI (cfiCond31) V2 load(1, XDATA, add(CFA_XSP16, literal(-14)))
        CFI (cfiCond31) V3 load(1, XDATA, add(CFA_XSP16, literal(-13)))
        CFI (cfiCond31) V4 load(1, XDATA, add(CFA_XSP16, literal(-12)))
        CFI (cfiCond31) V5 load(1, XDATA, add(CFA_XSP16, literal(-11)))
        CFI (cfiCond31) V6 load(1, XDATA, add(CFA_XSP16, literal(-10)))
        CFI (cfiCond31) V7 load(1, XDATA, add(CFA_XSP16, literal(-9)))
        CFI (cfiCond31) V8 load(1, XDATA, add(CFA_XSP16, literal(-8)))
        CFI (cfiCond31) V9 load(1, XDATA, add(CFA_XSP16, literal(-7)))
        CFI (cfiCond31) R7 load(1, XDATA, add(CFA_XSP16, literal(-6)))
        CFI (cfiCond31) ?RET_LOW load(1, XDATA, add(CFA_XSP16, literal(-5)))
        CFI (cfiCond31) ?RET_HIGH load(1, XDATA, add(CFA_XSP16, literal(-4)))
        CFI (cfiCond31) ?BRET_EXT load(1, XDATA, add(CFA_XSP16, literal(-3)))
        CFI (cfiCond31) DPL0 load(1, XDATA, add(CFA_XSP16, literal(-2)))
        CFI (cfiCond31) DPH0 load(1, XDATA, add(CFA_XSP16, literal(-1)))
        CFI (cfiCond31) CFA_SP SP+0
        CFI (cfiCond31) CFA_XSP16 add(XSP16, 46)
        CFI Block cfiCond32 Using cfiCommon0
        CFI (cfiCond32) NoFunction
        CFI (cfiCond32) Conditional ??CrossCallReturnLabel_13
        CFI (cfiCond32) R6 load(1, XDATA, add(CFA_XSP16, literal(-15)))
        CFI (cfiCond32) VB load(1, XDATA, add(CFA_XSP16, literal(-14)))
        CFI (cfiCond32) V0 load(1, XDATA, add(CFA_XSP16, literal(-13)))
        CFI (cfiCond32) V1 load(1, XDATA, add(CFA_XSP16, literal(-12)))
        CFI (cfiCond32) V2 load(1, XDATA, add(CFA_XSP16, literal(-11)))
        CFI (cfiCond32) V3 load(1, XDATA, add(CFA_XSP16, literal(-10)))
        CFI (cfiCond32) V4 load(1, XDATA, add(CFA_XSP16, literal(-9)))
        CFI (cfiCond32) V5 load(1, XDATA, add(CFA_XSP16, literal(-8)))
        CFI (cfiCond32) V6 load(1, XDATA, add(CFA_XSP16, literal(-7)))
        CFI (cfiCond32) R7 load(1, XDATA, add(CFA_XSP16, literal(-6)))
        CFI (cfiCond32) ?RET_LOW load(1, XDATA, add(CFA_XSP16, literal(-5)))
        CFI (cfiCond32) ?RET_HIGH load(1, XDATA, add(CFA_XSP16, literal(-4)))
        CFI (cfiCond32) ?BRET_EXT load(1, XDATA, add(CFA_XSP16, literal(-3)))
        CFI (cfiCond32) DPL0 load(1, XDATA, add(CFA_XSP16, literal(-2)))
        CFI (cfiCond32) DPH0 load(1, XDATA, add(CFA_XSP16, literal(-1)))
        CFI (cfiCond32) CFA_SP SP+0
        CFI (cfiCond32) CFA_XSP16 add(XSP16, 35)
        CFI Block cfiPicker33 Using cfiCommon1
        CFI (cfiPicker33) NoFunction
        CFI (cfiPicker33) Picker
        LCALL   ??osal_memcpy?relay
        MOV     A,#0x3
        RET
        CFI EndBlock cfiCond27
        CFI EndBlock cfiCond28
        CFI EndBlock cfiCond29
        CFI EndBlock cfiCond30
        CFI EndBlock cfiCond31
        CFI EndBlock cfiCond32
        CFI EndBlock cfiPicker33

        RSEG BANKED_CODE:CODE:NOROOT(0)
HalLcdDisplayPercentBar:
        CFI Block cfiBlock34 Using cfiCommon0
        CFI Function HalLcdDisplayPercentBar
        FUNCALL HalLcdDisplayPercentBar, HalLcdWriteString
        LOCFRAME ISTACK, 0, STACK
        LOCFRAME PSTACK, 0, STACK
        LOCFRAME XSTACK, 32, STACK
        LOCFRAME IOVERLAY, 0, STATIC
        LOCFRAME DOVERLAY, 0, STATIC
        ARGFRAME ISTACK, 0, STACK
        ARGFRAME PSTACK, 0, STACK
        ARGFRAME XSTACK, 32, STACK
        ARGFRAME IOVERLAY, 0, STATIC
        ARGFRAME DOVERLAY, 0, STATIC
        FUNCALL HalLcdDisplayPercentBar, osal_memcpy
        LOCFRAME ISTACK, 0, STACK
        LOCFRAME PSTACK, 0, STACK
        LOCFRAME XSTACK, 35, STACK
        LOCFRAME IOVERLAY, 0, STATIC
        LOCFRAME DOVERLAY, 0, STATIC
        ARGFRAME ISTACK, 0, STACK
        ARGFRAME PSTACK, 0, STACK
        ARGFRAME XSTACK, 35, STACK
        ARGFRAME IOVERLAY, 0, STATIC
        ARGFRAME DOVERLAY, 0, STATIC
        FUNCALL HalLcdDisplayPercentBar, _ltoa
        LOCFRAME ISTACK, 0, STACK
        LOCFRAME PSTACK, 0, STACK
        LOCFRAME XSTACK, 34, STACK
        LOCFRAME IOVERLAY, 0, STATIC
        LOCFRAME DOVERLAY, 0, STATIC
        ARGFRAME ISTACK, 0, STACK
        ARGFRAME PSTACK, 0, STACK
        ARGFRAME XSTACK, 34, STACK
        ARGFRAME IOVERLAY, 0, STATIC
        ARGFRAME DOVERLAY, 0, STATIC
        FUNCALL HalLcdDisplayPercentBar, HalLcdWriteString
        LOCFRAME ISTACK, 0, STACK
        LOCFRAME PSTACK, 0, STACK
        LOCFRAME XSTACK, 32, STACK
        LOCFRAME IOVERLAY, 0, STATIC
        LOCFRAME DOVERLAY, 0, STATIC
        ARGFRAME ISTACK, 0, STACK
        ARGFRAME PSTACK, 0, STACK
        ARGFRAME XSTACK, 32, STACK
        ARGFRAME IOVERLAY, 0, STATIC
        ARGFRAME DOVERLAY, 0, STATIC
        MOV     A,#-0xf
        LCALL   ?BANKED_ENTER_XDATA
        CFI DPH0 load(1, XDATA, add(CFA_XSP16, literal(-1)))
        CFI DPL0 load(1, XDATA, add(CFA_XSP16, literal(-2)))
        CFI ?BRET_EXT load(1, XDATA, add(CFA_XSP16, literal(-3)))
        CFI ?RET_HIGH load(1, XDATA, add(CFA_XSP16, literal(-4)))
        CFI ?RET_LOW load(1, XDATA, add(CFA_XSP16, literal(-5)))
        CFI R7 load(1, XDATA, add(CFA_XSP16, literal(-6)))
        CFI V6 load(1, XDATA, add(CFA_XSP16, literal(-7)))
        CFI V5 load(1, XDATA, add(CFA_XSP16, literal(-8)))
        CFI V4 load(1, XDATA, add(CFA_XSP16, literal(-9)))
        CFI V3 load(1, XDATA, add(CFA_XSP16, literal(-10)))
        CFI V2 load(1, XDATA, add(CFA_XSP16, literal(-11)))
        CFI V1 load(1, XDATA, add(CFA_XSP16, literal(-12)))
        CFI V0 load(1, XDATA, add(CFA_XSP16, literal(-13)))
        CFI VB load(1, XDATA, add(CFA_XSP16, literal(-14)))
        CFI R6 load(1, XDATA, add(CFA_XSP16, literal(-15)))
        CFI CFA_SP SP+0
        CFI CFA_XSP16 add(XSP16, 15)
        ; Saved register size: 15
        ; Auto size: 17
        MOV     A,#-0x11
        LCALL   ?ALLOC_XSTACK8
        CFI CFA_XSP16 add(XSP16, 32)
        MOV     A,R1
        MOV     R6,A
        ; Setup parameters for call to function HalLcdWriteString
        MOV     R1,#0x1
        LCALL   ??HalLcdWriteString?relay
        MOV     A,R6
        CLR     C
        SUBB    A,#0x65
        JC      ??HalLcdDisplayPercentBar_0
        MOV     R6,#0x64
??HalLcdDisplayPercentBar_0:
        MOV     B,#0xa
        MOV     A,R6
        DIV     AB
        MOV     R7,A
        MOV     A,R6
        MOV     B,#0xa
        DIV     AB
        MOV     A,B
        MOV     ?V0 + 0,A
        ; Setup parameters for call to function osal_memcpy
        MOV     ?V0 + 4,#(`?<Constant "[          ]  ">` & 0xff)
        MOV     ?V0 + 5,#((`?<Constant "[          ]  ">` >> 8) & 0xff)
        MOV     ?V0 + 6,#0x0
        MOV     R0,#?V0 + 4
        LCALL   ?PUSH_XSTACK_I_THREE
        CFI CFA_XSP16 add(XSP16, 35)
        MOV     R4,#0xf
        MOV     R5,#0x0
        MOV     A,#0x3
        LCALL   ?XSTACK_DISP0_8
        LCALL   ?Subroutine2 & 0xFFFF
??CrossCallReturnLabel_13:
        LCALL   ?DEALLOC_XSTACK8
        CFI CFA_XSP16 add(XSP16, 32)
        MOV     R2,#0x0
        SJMP    ??HalLcdDisplayPercentBar_1
??HalLcdDisplayPercentBar_2:
        MOV     A,#0x3e
        MOVX    @DPTR,A
        INC     R2
??HalLcdDisplayPercentBar_1:
        MOV     ?V0 + 2,R2
        MOV     DPL,?XSP + 0
        MOV     DPH,?XSP + 1
        MOV     A,DPL
        ADD     A,?V0 + 2
        MOV     DPL,A
        MOV     A,DPH
        ADDC    A,#0x0
        MOV     DPH,A
        INC     DPTR
        MOV     A,R2
        CLR     C
        SUBB    A,R7
        JC      ??HalLcdDisplayPercentBar_2
        MOV     A,?V0 + 0
        CLR     C
        SUBB    A,#0x5
        JC      ??HalLcdDisplayPercentBar_3
        MOV     A,#0x2b
        MOVX    @DPTR,A
??HalLcdDisplayPercentBar_3:
        ; Setup parameters for call to function _ltoa
        MOV     A,#0xd
        LCALL   ?XSTACK_DISP0_8
        MOV     ?V0 + 0,DPL
        MOV     ?V0 + 1,DPH
        MOV     R0,#?V0 + 0
        LCALL   ?PUSH_XSTACK_I_TWO
        CFI CFA_XSP16 add(XSP16, 34)
        MOV     R1,#0xa
        MOV     A,R6
        MOV     R2,A
        MOV     R3,#0x0
        LCALL   ??Subroutine16_0 & 0xFFFF
??CrossCallReturnLabel_20:
        LCALL   ?DEALLOC_XSTACK8
        CFI CFA_XSP16 add(XSP16, 32)
        ; Setup parameters for call to function HalLcdWriteString
        MOV     R1,#0x2
        MOV     DPL,?XSP + 0
        MOV     DPH,?XSP + 1
        MOV     R2,DPL
        MOV     R3,DPH
        LCALL   ??HalLcdWriteString?relay
        MOV     A,#0x11
        LCALL   ?DEALLOC_XSTACK8
        CFI CFA_XSP16 add(XSP16, 15)
        MOV     R7,#0x7
        LJMP    ?BANKED_LEAVE_XDATA
        CFI EndBlock cfiBlock34

        RSEG BANKED_CODE:CODE:NOROOT(0)
?Subroutine3:
        CFI Block cfiCond35 Using cfiCommon0
        CFI NoFunction
        CFI Conditional ??CrossCallReturnLabel_17
        CFI R6 load(1, XDATA, add(CFA_XSP16, literal(-18)))
        CFI VB load(1, XDATA, add(CFA_XSP16, literal(-17)))
        CFI V0 load(1, XDATA, add(CFA_XSP16, literal(-16)))
        CFI V1 load(1, XDATA, add(CFA_XSP16, literal(-15)))
        CFI V2 load(1, XDATA, add(CFA_XSP16, literal(-14)))
        CFI V3 load(1, XDATA, add(CFA_XSP16, literal(-13)))
        CFI V4 load(1, XDATA, add(CFA_XSP16, literal(-12)))
        CFI V5 load(1, XDATA, add(CFA_XSP16, literal(-11)))
        CFI V6 load(1, XDATA, add(CFA_XSP16, literal(-10)))
        CFI V7 load(1, XDATA, add(CFA_XSP16, literal(-9)))
        CFI V8 load(1, XDATA, add(CFA_XSP16, literal(-8)))
        CFI V9 load(1, XDATA, add(CFA_XSP16, literal(-7)))
        CFI R7 load(1, XDATA, add(CFA_XSP16, literal(-6)))
        CFI ?RET_LOW load(1, XDATA, add(CFA_XSP16, literal(-5)))
        CFI ?RET_HIGH load(1, XDATA, add(CFA_XSP16, literal(-4)))
        CFI ?BRET_EXT load(1, XDATA, add(CFA_XSP16, literal(-3)))
        CFI DPL0 load(1, XDATA, add(CFA_XSP16, literal(-2)))
        CFI DPH0 load(1, XDATA, add(CFA_XSP16, literal(-1)))
        CFI CFA_SP SP+0
        CFI CFA_XSP16 add(XSP16, 45)
        CFI Block cfiCond36 Using cfiCommon0
        CFI (cfiCond36) NoFunction
        CFI (cfiCond36) Conditional ??CrossCallReturnLabel_18
        CFI (cfiCond36) R6 load(1, XDATA, add(CFA_XSP16, literal(-18)))
        CFI (cfiCond36) VB load(1, XDATA, add(CFA_XSP16, literal(-17)))
        CFI (cfiCond36) V0 load(1, XDATA, add(CFA_XSP16, literal(-16)))
        CFI (cfiCond36) V1 load(1, XDATA, add(CFA_XSP16, literal(-15)))
        CFI (cfiCond36) V2 load(1, XDATA, add(CFA_XSP16, literal(-14)))
        CFI (cfiCond36) V3 load(1, XDATA, add(CFA_XSP16, literal(-13)))
        CFI (cfiCond36) V4 load(1, XDATA, add(CFA_XSP16, literal(-12)))
        CFI (cfiCond36) V5 load(1, XDATA, add(CFA_XSP16, literal(-11)))
        CFI (cfiCond36) V6 load(1, XDATA, add(CFA_XSP16, literal(-10)))
        CFI (cfiCond36) V7 load(1, XDATA, add(CFA_XSP16, literal(-9)))
        CFI (cfiCond36) V8 load(1, XDATA, add(CFA_XSP16, literal(-8)))
        CFI (cfiCond36) V9 load(1, XDATA, add(CFA_XSP16, literal(-7)))
        CFI (cfiCond36) R7 load(1, XDATA, add(CFA_XSP16, literal(-6)))
        CFI (cfiCond36) ?RET_LOW load(1, XDATA, add(CFA_XSP16, literal(-5)))
        CFI (cfiCond36) ?RET_HIGH load(1, XDATA, add(CFA_XSP16, literal(-4)))
        CFI (cfiCond36) ?BRET_EXT load(1, XDATA, add(CFA_XSP16, literal(-3)))
        CFI (cfiCond36) DPL0 load(1, XDATA, add(CFA_XSP16, literal(-2)))
        CFI (cfiCond36) DPH0 load(1, XDATA, add(CFA_XSP16, literal(-1)))
        CFI (cfiCond36) CFA_SP SP+0
        CFI (cfiCond36) CFA_XSP16 add(XSP16, 45)
        CFI Block cfiPicker37 Using cfiCommon1
        CFI (cfiPicker37) NoFunction
        CFI (cfiPicker37) Picker
        MOV     R2,?V0 + 0
        MOV     R3,?V0 + 1
        CFI EndBlock cfiCond35
        CFI EndBlock cfiCond36
        CFI EndBlock cfiPicker37
        REQUIRE ??Subroutine16_0
        ; // Fall through to label ??Subroutine16_0

        RSEG BANKED_CODE:CODE:NOROOT(0)
??Subroutine16_0:
        CFI Block cfiCond38 Using cfiCommon0
        CFI NoFunction
        CFI Conditional ??CrossCallReturnLabel_19
        CFI R6 load(1, XDATA, add(CFA_XSP16, literal(-18)))
        CFI VB load(1, XDATA, add(CFA_XSP16, literal(-17)))
        CFI V0 load(1, XDATA, add(CFA_XSP16, literal(-16)))
        CFI V1 load(1, XDATA, add(CFA_XSP16, literal(-15)))
        CFI V2 load(1, XDATA, add(CFA_XSP16, literal(-14)))
        CFI V3 load(1, XDATA, add(CFA_XSP16, literal(-13)))
        CFI V4 load(1, XDATA, add(CFA_XSP16, literal(-12)))
        CFI V5 load(1, XDATA, add(CFA_XSP16, literal(-11)))
        CFI V6 load(1, XDATA, add(CFA_XSP16, literal(-10)))
        CFI V7 load(1, XDATA, add(CFA_XSP16, literal(-9)))
        CFI V8 load(1, XDATA, add(CFA_XSP16, literal(-8)))
        CFI V9 load(1, XDATA, add(CFA_XSP16, literal(-7)))
        CFI R7 load(1, XDATA, add(CFA_XSP16, literal(-6)))
        CFI ?RET_LOW load(1, XDATA, add(CFA_XSP16, literal(-5)))
        CFI ?RET_HIGH load(1, XDATA, add(CFA_XSP16, literal(-4)))
        CFI ?BRET_EXT load(1, XDATA, add(CFA_XSP16, literal(-3)))
        CFI DPL0 load(1, XDATA, add(CFA_XSP16, literal(-2)))
        CFI DPH0 load(1, XDATA, add(CFA_XSP16, literal(-1)))
        CFI CFA_SP SP+0
        CFI CFA_XSP16 add(XSP16, 45)
        CFI Block cfiCond39 Using cfiCommon0
        CFI (cfiCond39) NoFunction
        CFI (cfiCond39) Conditional ??CrossCallReturnLabel_20
        CFI (cfiCond39) R6 load(1, XDATA, add(CFA_XSP16, literal(-15)))
        CFI (cfiCond39) VB load(1, XDATA, add(CFA_XSP16, literal(-14)))
        CFI (cfiCond39) V0 load(1, XDATA, add(CFA_XSP16, literal(-13)))
        CFI (cfiCond39) V1 load(1, XDATA, add(CFA_XSP16, literal(-12)))
        CFI (cfiCond39) V2 load(1, XDATA, add(CFA_XSP16, literal(-11)))
        CFI (cfiCond39) V3 load(1, XDATA, add(CFA_XSP16, literal(-10)))
        CFI (cfiCond39) V4 load(1, XDATA, add(CFA_XSP16, literal(-9)))
        CFI (cfiCond39) V5 load(1, XDATA, add(CFA_XSP16, literal(-8)))
        CFI (cfiCond39) V6 load(1, XDATA, add(CFA_XSP16, literal(-7)))
        CFI (cfiCond39) R7 load(1, XDATA, add(CFA_XSP16, literal(-6)))
        CFI (cfiCond39) ?RET_LOW load(1, XDATA, add(CFA_XSP16, literal(-5)))
        CFI (cfiCond39) ?RET_HIGH load(1, XDATA, add(CFA_XSP16, literal(-4)))
        CFI (cfiCond39) ?BRET_EXT load(1, XDATA, add(CFA_XSP16, literal(-3)))
        CFI (cfiCond39) DPL0 load(1, XDATA, add(CFA_XSP16, literal(-2)))
        CFI (cfiCond39) DPH0 load(1, XDATA, add(CFA_XSP16, literal(-1)))
        CFI (cfiCond39) CFA_SP SP+0
        CFI (cfiCond39) CFA_XSP16 add(XSP16, 34)
        CFI Block cfiCond40 Using cfiCommon0
        CFI (cfiCond40) NoFunction
        CFI (cfiCond40) Conditional ??CrossCallReturnLabel_17
        CFI (cfiCond40) R6 load(1, XDATA, add(CFA_XSP16, literal(-18)))
        CFI (cfiCond40) VB load(1, XDATA, add(CFA_XSP16, literal(-17)))
        CFI (cfiCond40) V0 load(1, XDATA, add(CFA_XSP16, literal(-16)))
        CFI (cfiCond40) V1 load(1, XDATA, add(CFA_XSP16, literal(-15)))
        CFI (cfiCond40) V2 load(1, XDATA, add(CFA_XSP16, literal(-14)))
        CFI (cfiCond40) V3 load(1, XDATA, add(CFA_XSP16, literal(-13)))
        CFI (cfiCond40) V4 load(1, XDATA, add(CFA_XSP16, literal(-12)))
        CFI (cfiCond40) V5 load(1, XDATA, add(CFA_XSP16, literal(-11)))
        CFI (cfiCond40) V6 load(1, XDATA, add(CFA_XSP16, literal(-10)))
        CFI (cfiCond40) V7 load(1, XDATA, add(CFA_XSP16, literal(-9)))
        CFI (cfiCond40) V8 load(1, XDATA, add(CFA_XSP16, literal(-8)))
        CFI (cfiCond40) V9 load(1, XDATA, add(CFA_XSP16, literal(-7)))
        CFI (cfiCond40) R7 load(1, XDATA, add(CFA_XSP16, literal(-6)))
        CFI (cfiCond40) ?RET_LOW load(1, XDATA, add(CFA_XSP16, literal(-5)))
        CFI (cfiCond40) ?RET_HIGH load(1, XDATA, add(CFA_XSP16, literal(-4)))
        CFI (cfiCond40) ?BRET_EXT load(1, XDATA, add(CFA_XSP16, literal(-3)))
        CFI (cfiCond40) DPL0 load(1, XDATA, add(CFA_XSP16, literal(-2)))
        CFI (cfiCond40) DPH0 load(1, XDATA, add(CFA_XSP16, literal(-1)))
        CFI (cfiCond40) CFA_SP SP+0
        CFI (cfiCond40) CFA_XSP16 add(XSP16, 45)
        CFI Block cfiCond41 Using cfiCommon0
        CFI (cfiCond41) NoFunction
        CFI (cfiCond41) Conditional ??CrossCallReturnLabel_18
        CFI (cfiCond41) R6 load(1, XDATA, add(CFA_XSP16, literal(-18)))
        CFI (cfiCond41) VB load(1, XDATA, add(CFA_XSP16, literal(-17)))
        CFI (cfiCond41) V0 load(1, XDATA, add(CFA_XSP16, literal(-16)))
        CFI (cfiCond41) V1 load(1, XDATA, add(CFA_XSP16, literal(-15)))
        CFI (cfiCond41) V2 load(1, XDATA, add(CFA_XSP16, literal(-14)))
        CFI (cfiCond41) V3 load(1, XDATA, add(CFA_XSP16, literal(-13)))
        CFI (cfiCond41) V4 load(1, XDATA, add(CFA_XSP16, literal(-12)))
        CFI (cfiCond41) V5 load(1, XDATA, add(CFA_XSP16, literal(-11)))
        CFI (cfiCond41) V6 load(1, XDATA, add(CFA_XSP16, literal(-10)))
        CFI (cfiCond41) V7 load(1, XDATA, add(CFA_XSP16, literal(-9)))
        CFI (cfiCond41) V8 load(1, XDATA, add(CFA_XSP16, literal(-8)))
        CFI (cfiCond41) V9 load(1, XDATA, add(CFA_XSP16, literal(-7)))
        CFI (cfiCond41) R7 load(1, XDATA, add(CFA_XSP16, literal(-6)))
        CFI (cfiCond41) ?RET_LOW load(1, XDATA, add(CFA_XSP16, literal(-5)))
        CFI (cfiCond41) ?RET_HIGH load(1, XDATA, add(CFA_XSP16, literal(-4)))
        CFI (cfiCond41) ?BRET_EXT load(1, XDATA, add(CFA_XSP16, literal(-3)))
        CFI (cfiCond41) DPL0 load(1, XDATA, add(CFA_XSP16, literal(-2)))
        CFI (cfiCond41) DPH0 load(1, XDATA, add(CFA_XSP16, literal(-1)))
        CFI (cfiCond41) CFA_SP SP+0
        CFI (cfiCond41) CFA_XSP16 add(XSP16, 45)
        CFI Block cfiPicker42 Using cfiCommon1
        CFI (cfiPicker42) NoFunction
        CFI (cfiPicker42) Picker
        MOV     R4,#0x0
        MOV     R5,#0x0
        CFI EndBlock cfiCond38
        CFI EndBlock cfiCond39
        CFI EndBlock cfiCond40
        CFI EndBlock cfiCond41
        CFI EndBlock cfiPicker42
        REQUIRE ??Subroutine17_0
        ; // Fall through to label ??Subroutine17_0

        RSEG BANKED_CODE:CODE:NOROOT(0)
??Subroutine17_0:
        CFI Block cfiCond43 Using cfiCommon0
        CFI NoFunction
        CFI Conditional ??CrossCallReturnLabel_21
        CFI R6 load(1, XDATA, add(CFA_XSP16, literal(-14)))
        CFI VB load(1, XDATA, add(CFA_XSP16, literal(-13)))
        CFI V0 load(1, XDATA, add(CFA_XSP16, literal(-12)))
        CFI V1 load(1, XDATA, add(CFA_XSP16, literal(-11)))
        CFI V2 load(1, XDATA, add(CFA_XSP16, literal(-10)))
        CFI V3 load(1, XDATA, add(CFA_XSP16, literal(-9)))
        CFI V4 load(1, XDATA, add(CFA_XSP16, literal(-8)))
        CFI V5 load(1, XDATA, add(CFA_XSP16, literal(-7)))
        CFI R7 load(1, XDATA, add(CFA_XSP16, literal(-6)))
        CFI ?RET_LOW load(1, XDATA, add(CFA_XSP16, literal(-5)))
        CFI ?RET_HIGH load(1, XDATA, add(CFA_XSP16, literal(-4)))
        CFI ?BRET_EXT load(1, XDATA, add(CFA_XSP16, literal(-3)))
        CFI DPL0 load(1, XDATA, add(CFA_XSP16, literal(-2)))
        CFI DPH0 load(1, XDATA, add(CFA_XSP16, literal(-1)))
        CFI CFA_SP SP+0
        CFI CFA_XSP16 add(XSP16, 41)
        CFI Block cfiCond44 Using cfiCommon0
        CFI (cfiCond44) NoFunction
        CFI (cfiCond44) Conditional ??CrossCallReturnLabel_19
        CFI (cfiCond44) R6 load(1, XDATA, add(CFA_XSP16, literal(-18)))
        CFI (cfiCond44) VB load(1, XDATA, add(CFA_XSP16, literal(-17)))
        CFI (cfiCond44) V0 load(1, XDATA, add(CFA_XSP16, literal(-16)))
        CFI (cfiCond44) V1 load(1, XDATA, add(CFA_XSP16, literal(-15)))
        CFI (cfiCond44) V2 load(1, XDATA, add(CFA_XSP16, literal(-14)))
        CFI (cfiCond44) V3 load(1, XDATA, add(CFA_XSP16, literal(-13)))
        CFI (cfiCond44) V4 load(1, XDATA, add(CFA_XSP16, literal(-12)))
        CFI (cfiCond44) V5 load(1, XDATA, add(CFA_XSP16, literal(-11)))
        CFI (cfiCond44) V6 load(1, XDATA, add(CFA_XSP16, literal(-10)))
        CFI (cfiCond44) V7 load(1, XDATA, add(CFA_XSP16, literal(-9)))
        CFI (cfiCond44) V8 load(1, XDATA, add(CFA_XSP16, literal(-8)))
        CFI (cfiCond44) V9 load(1, XDATA, add(CFA_XSP16, literal(-7)))
        CFI (cfiCond44) R7 load(1, XDATA, add(CFA_XSP16, literal(-6)))
        CFI (cfiCond44) ?RET_LOW load(1, XDATA, add(CFA_XSP16, literal(-5)))
        CFI (cfiCond44) ?RET_HIGH load(1, XDATA, add(CFA_XSP16, literal(-4)))
        CFI (cfiCond44) ?BRET_EXT load(1, XDATA, add(CFA_XSP16, literal(-3)))
        CFI (cfiCond44) DPL0 load(1, XDATA, add(CFA_XSP16, literal(-2)))
        CFI (cfiCond44) DPH0 load(1, XDATA, add(CFA_XSP16, literal(-1)))
        CFI (cfiCond44) CFA_SP SP+0
        CFI (cfiCond44) CFA_XSP16 add(XSP16, 45)
        CFI Block cfiCond45 Using cfiCommon0
        CFI (cfiCond45) NoFunction
        CFI (cfiCond45) Conditional ??CrossCallReturnLabel_20
        CFI (cfiCond45) R6 load(1, XDATA, add(CFA_XSP16, literal(-15)))
        CFI (cfiCond45) VB load(1, XDATA, add(CFA_XSP16, literal(-14)))
        CFI (cfiCond45) V0 load(1, XDATA, add(CFA_XSP16, literal(-13)))
        CFI (cfiCond45) V1 load(1, XDATA, add(CFA_XSP16, literal(-12)))
        CFI (cfiCond45) V2 load(1, XDATA, add(CFA_XSP16, literal(-11)))
        CFI (cfiCond45) V3 load(1, XDATA, add(CFA_XSP16, literal(-10)))
        CFI (cfiCond45) V4 load(1, XDATA, add(CFA_XSP16, literal(-9)))
        CFI (cfiCond45) V5 load(1, XDATA, add(CFA_XSP16, literal(-8)))
        CFI (cfiCond45) V6 load(1, XDATA, add(CFA_XSP16, literal(-7)))
        CFI (cfiCond45) R7 load(1, XDATA, add(CFA_XSP16, literal(-6)))
        CFI (cfiCond45) ?RET_LOW load(1, XDATA, add(CFA_XSP16, literal(-5)))
        CFI (cfiCond45) ?RET_HIGH load(1, XDATA, add(CFA_XSP16, literal(-4)))
        CFI (cfiCond45) ?BRET_EXT load(1, XDATA, add(CFA_XSP16, literal(-3)))
        CFI (cfiCond45) DPL0 load(1, XDATA, add(CFA_XSP16, literal(-2)))
        CFI (cfiCond45) DPH0 load(1, XDATA, add(CFA_XSP16, literal(-1)))
        CFI (cfiCond45) CFA_SP SP+0
        CFI (cfiCond45) CFA_XSP16 add(XSP16, 34)
        CFI Block cfiCond46 Using cfiCommon0
        CFI (cfiCond46) NoFunction
        CFI (cfiCond46) Conditional ??CrossCallReturnLabel_17
        CFI (cfiCond46) R6 load(1, XDATA, add(CFA_XSP16, literal(-18)))
        CFI (cfiCond46) VB load(1, XDATA, add(CFA_XSP16, literal(-17)))
        CFI (cfiCond46) V0 load(1, XDATA, add(CFA_XSP16, literal(-16)))
        CFI (cfiCond46) V1 load(1, XDATA, add(CFA_XSP16, literal(-15)))
        CFI (cfiCond46) V2 load(1, XDATA, add(CFA_XSP16, literal(-14)))
        CFI (cfiCond46) V3 load(1, XDATA, add(CFA_XSP16, literal(-13)))
        CFI (cfiCond46) V4 load(1, XDATA, add(CFA_XSP16, literal(-12)))
        CFI (cfiCond46) V5 load(1, XDATA, add(CFA_XSP16, literal(-11)))
        CFI (cfiCond46) V6 load(1, XDATA, add(CFA_XSP16, literal(-10)))
        CFI (cfiCond46) V7 load(1, XDATA, add(CFA_XSP16, literal(-9)))
        CFI (cfiCond46) V8 load(1, XDATA, add(CFA_XSP16, literal(-8)))
        CFI (cfiCond46) V9 load(1, XDATA, add(CFA_XSP16, literal(-7)))
        CFI (cfiCond46) R7 load(1, XDATA, add(CFA_XSP16, literal(-6)))
        CFI (cfiCond46) ?RET_LOW load(1, XDATA, add(CFA_XSP16, literal(-5)))
        CFI (cfiCond46) ?RET_HIGH load(1, XDATA, add(CFA_XSP16, literal(-4)))
        CFI (cfiCond46) ?BRET_EXT load(1, XDATA, add(CFA_XSP16, literal(-3)))
        CFI (cfiCond46) DPL0 load(1, XDATA, add(CFA_XSP16, literal(-2)))
        CFI (cfiCond46) DPH0 load(1, XDATA, add(CFA_XSP16, literal(-1)))
        CFI (cfiCond46) CFA_SP SP+0
        CFI (cfiCond46) CFA_XSP16 add(XSP16, 45)
        CFI Block cfiCond47 Using cfiCommon0
        CFI (cfiCond47) NoFunction
        CFI (cfiCond47) Conditional ??CrossCallReturnLabel_18
        CFI (cfiCond47) R6 load(1, XDATA, add(CFA_XSP16, literal(-18)))
        CFI (cfiCond47) VB load(1, XDATA, add(CFA_XSP16, literal(-17)))
        CFI (cfiCond47) V0 load(1, XDATA, add(CFA_XSP16, literal(-16)))
        CFI (cfiCond47) V1 load(1, XDATA, add(CFA_XSP16, literal(-15)))
        CFI (cfiCond47) V2 load(1, XDATA, add(CFA_XSP16, literal(-14)))
        CFI (cfiCond47) V3 load(1, XDATA, add(CFA_XSP16, literal(-13)))
        CFI (cfiCond47) V4 load(1, XDATA, add(CFA_XSP16, literal(-12)))
        CFI (cfiCond47) V5 load(1, XDATA, add(CFA_XSP16, literal(-11)))
        CFI (cfiCond47) V6 load(1, XDATA, add(CFA_XSP16, literal(-10)))
        CFI (cfiCond47) V7 load(1, XDATA, add(CFA_XSP16, literal(-9)))
        CFI (cfiCond47) V8 load(1, XDATA, add(CFA_XSP16, literal(-8)))
        CFI (cfiCond47) V9 load(1, XDATA, add(CFA_XSP16, literal(-7)))
        CFI (cfiCond47) R7 load(1, XDATA, add(CFA_XSP16, literal(-6)))
        CFI (cfiCond47) ?RET_LOW load(1, XDATA, add(CFA_XSP16, literal(-5)))
        CFI (cfiCond47) ?RET_HIGH load(1, XDATA, add(CFA_XSP16, literal(-4)))
        CFI (cfiCond47) ?BRET_EXT load(1, XDATA, add(CFA_XSP16, literal(-3)))
        CFI (cfiCond47) DPL0 load(1, XDATA, add(CFA_XSP16, literal(-2)))
        CFI (cfiCond47) DPH0 load(1, XDATA, add(CFA_XSP16, literal(-1)))
        CFI (cfiCond47) CFA_SP SP+0
        CFI (cfiCond47) CFA_XSP16 add(XSP16, 45)
        CFI Block cfiPicker48 Using cfiCommon1
        CFI (cfiPicker48) NoFunction
        CFI (cfiPicker48) Picker
        LCALL   ??_ltoa?relay
        MOV     A,#0x2
        RET
        CFI EndBlock cfiCond43
        CFI EndBlock cfiCond44
        CFI EndBlock cfiCond45
        CFI EndBlock cfiCond46
        CFI EndBlock cfiCond47
        CFI EndBlock cfiPicker48

        RSEG BANKED_CODE:CODE:NOROOT(0)
halLcdInit:
        CFI Block cfiBlock49 Using cfiCommon0
        CFI Function halLcdInit
        FUNCALL halLcdInit, halMcuWaitMs
        LOCFRAME ISTACK, 2, STACK
        LOCFRAME PSTACK, 0, STACK
        LOCFRAME XSTACK, 0, STACK
        LOCFRAME IOVERLAY, 0, STATIC
        LOCFRAME DOVERLAY, 0, STATIC
        ARGFRAME ISTACK, 2, STACK
        ARGFRAME PSTACK, 0, STACK
        ARGFRAME XSTACK, 0, STACK
        ARGFRAME IOVERLAY, 0, STATIC
        ARGFRAME DOVERLAY, 0, STATIC
        FUNCALL halLcdInit, lcdControl
        LOCFRAME ISTACK, 2, STACK
        LOCFRAME PSTACK, 0, STACK
        LOCFRAME XSTACK, 0, STACK
        LOCFRAME IOVERLAY, 0, STATIC
        LOCFRAME DOVERLAY, 0, STATIC
        ARGFRAME ISTACK, 2, STACK
        ARGFRAME PSTACK, 0, STACK
        ARGFRAME XSTACK, 0, STACK
        ARGFRAME IOVERLAY, 0, STATIC
        ARGFRAME DOVERLAY, 0, STATIC
        FUNCALL halLcdInit, halMcuWaitMs
        LOCFRAME ISTACK, 2, STACK
        LOCFRAME PSTACK, 0, STACK
        LOCFRAME XSTACK, 0, STACK
        LOCFRAME IOVERLAY, 0, STATIC
        LOCFRAME DOVERLAY, 0, STATIC
        ARGFRAME ISTACK, 2, STACK
        ARGFRAME PSTACK, 0, STACK
        ARGFRAME XSTACK, 0, STACK
        ARGFRAME IOVERLAY, 0, STATIC
        ARGFRAME DOVERLAY, 0, STATIC
        FUNCALL halLcdInit, lcdControl
        LOCFRAME ISTACK, 2, STACK
        LOCFRAME PSTACK, 0, STACK
        LOCFRAME XSTACK, 0, STACK
        LOCFRAME IOVERLAY, 0, STATIC
        LOCFRAME DOVERLAY, 0, STATIC
        ARGFRAME ISTACK, 2, STACK
        ARGFRAME PSTACK, 0, STACK
        ARGFRAME XSTACK, 0, STACK
        ARGFRAME IOVERLAY, 0, STATIC
        ARGFRAME DOVERLAY, 0, STATIC
        FUNCALL halLcdInit, halMcuWaitMs
        LOCFRAME ISTACK, 2, STACK
        LOCFRAME PSTACK, 0, STACK
        LOCFRAME XSTACK, 0, STACK
        LOCFRAME IOVERLAY, 0, STATIC
        LOCFRAME DOVERLAY, 0, STATIC
        ARGFRAME ISTACK, 2, STACK
        ARGFRAME PSTACK, 0, STACK
        ARGFRAME XSTACK, 0, STACK
        ARGFRAME IOVERLAY, 0, STATIC
        ARGFRAME DOVERLAY, 0, STATIC
        FUNCALL halLcdInit, lcdControl
        LOCFRAME ISTACK, 2, STACK
        LOCFRAME PSTACK, 0, STACK
        LOCFRAME XSTACK, 0, STACK
        LOCFRAME IOVERLAY, 0, STATIC
        LOCFRAME DOVERLAY, 0, STATIC
        ARGFRAME ISTACK, 2, STACK
        ARGFRAME PSTACK, 0, STACK
        ARGFRAME XSTACK, 0, STACK
        ARGFRAME IOVERLAY, 0, STATIC
        ARGFRAME DOVERLAY, 0, STATIC
        FUNCALL halLcdInit, halMcuWaitMs
        LOCFRAME ISTACK, 2, STACK
        LOCFRAME PSTACK, 0, STACK
        LOCFRAME XSTACK, 0, STACK
        LOCFRAME IOVERLAY, 0, STATIC
        LOCFRAME DOVERLAY, 0, STATIC
        ARGFRAME ISTACK, 2, STACK
        ARGFRAME PSTACK, 0, STACK
        ARGFRAME XSTACK, 0, STACK
        ARGFRAME IOVERLAY, 0, STATIC
        ARGFRAME DOVERLAY, 0, STATIC
        FUNCALL halLcdInit, lcdControl
        LOCFRAME ISTACK, 2, STACK
        LOCFRAME PSTACK, 0, STACK
        LOCFRAME XSTACK, 0, STACK
        LOCFRAME IOVERLAY, 0, STATIC
        LOCFRAME DOVERLAY, 0, STATIC
        ARGFRAME ISTACK, 2, STACK
        ARGFRAME PSTACK, 0, STACK
        ARGFRAME XSTACK, 0, STACK
        ARGFRAME IOVERLAY, 0, STATIC
        ARGFRAME DOVERLAY, 0, STATIC
        FUNCALL halLcdInit, halMcuWaitMs
        LOCFRAME ISTACK, 2, STACK
        LOCFRAME PSTACK, 0, STACK
        LOCFRAME XSTACK, 0, STACK
        LOCFRAME IOVERLAY, 0, STATIC
        LOCFRAME DOVERLAY, 0, STATIC
        ARGFRAME ISTACK, 2, STACK
        ARGFRAME PSTACK, 0, STACK
        ARGFRAME XSTACK, 0, STACK
        ARGFRAME IOVERLAY, 0, STATIC
        ARGFRAME DOVERLAY, 0, STATIC
        FUNCALL halLcdInit, lcdControl
        LOCFRAME ISTACK, 2, STACK
        LOCFRAME PSTACK, 0, STACK
        LOCFRAME XSTACK, 0, STACK
        LOCFRAME IOVERLAY, 0, STATIC
        LOCFRAME DOVERLAY, 0, STATIC
        ARGFRAME ISTACK, 2, STACK
        ARGFRAME PSTACK, 0, STACK
        ARGFRAME XSTACK, 0, STACK
        ARGFRAME IOVERLAY, 0, STATIC
        ARGFRAME DOVERLAY, 0, STATIC
        FUNCALL halLcdInit, halMcuWaitMs
        LOCFRAME ISTACK, 2, STACK
        LOCFRAME PSTACK, 0, STACK
        LOCFRAME XSTACK, 0, STACK
        LOCFRAME IOVERLAY, 0, STATIC
        LOCFRAME DOVERLAY, 0, STATIC
        ARGFRAME ISTACK, 2, STACK
        ARGFRAME PSTACK, 0, STACK
        ARGFRAME XSTACK, 0, STACK
        ARGFRAME IOVERLAY, 0, STATIC
        ARGFRAME DOVERLAY, 0, STATIC
        FUNCALL halLcdInit, lcdControl
        LOCFRAME ISTACK, 2, STACK
        LOCFRAME PSTACK, 0, STACK
        LOCFRAME XSTACK, 0, STACK
        LOCFRAME IOVERLAY, 0, STATIC
        LOCFRAME DOVERLAY, 0, STATIC
        ARGFRAME ISTACK, 2, STACK
        ARGFRAME PSTACK, 0, STACK
        ARGFRAME XSTACK, 0, STACK
        ARGFRAME IOVERLAY, 0, STATIC
        ARGFRAME DOVERLAY, 0, STATIC
        FUNCALL halLcdInit, lcdControl
        LOCFRAME ISTACK, 2, STACK
        LOCFRAME PSTACK, 0, STACK
        LOCFRAME XSTACK, 0, STACK
        LOCFRAME IOVERLAY, 0, STATIC
        LOCFRAME DOVERLAY, 0, STATIC
        ARGFRAME ISTACK, 2, STACK
        ARGFRAME PSTACK, 0, STACK
        ARGFRAME XSTACK, 0, STACK
        ARGFRAME IOVERLAY, 0, STATIC
        ARGFRAME DOVERLAY, 0, STATIC
        FUNCALL halLcdInit, lcdControl
        LOCFRAME ISTACK, 2, STACK
        LOCFRAME PSTACK, 0, STACK
        LOCFRAME XSTACK, 0, STACK
        LOCFRAME IOVERLAY, 0, STATIC
        LOCFRAME DOVERLAY, 0, STATIC
        ARGFRAME ISTACK, 2, STACK
        ARGFRAME PSTACK, 0, STACK
        ARGFRAME XSTACK, 0, STACK
        ARGFRAME IOVERLAY, 0, STATIC
        ARGFRAME DOVERLAY, 0, STATIC
        FUNCALL halLcdInit, halMcuWaitMs
        LOCFRAME ISTACK, 2, STACK
        LOCFRAME PSTACK, 0, STACK
        LOCFRAME XSTACK, 0, STACK
        LOCFRAME IOVERLAY, 0, STATIC
        LOCFRAME DOVERLAY, 0, STATIC
        ARGFRAME ISTACK, 2, STACK
        ARGFRAME PSTACK, 0, STACK
        ARGFRAME XSTACK, 0, STACK
        ARGFRAME IOVERLAY, 0, STATIC
        ARGFRAME DOVERLAY, 0, STATIC
        FUNCALL halLcdInit, HalLcd_HW_Clear
        LOCFRAME ISTACK, 2, STACK
        LOCFRAME PSTACK, 0, STACK
        LOCFRAME XSTACK, 0, STACK
        LOCFRAME IOVERLAY, 0, STATIC
        LOCFRAME DOVERLAY, 0, STATIC
        ARGFRAME ISTACK, 2, STACK
        ARGFRAME PSTACK, 0, STACK
        ARGFRAME XSTACK, 0, STACK
        ARGFRAME IOVERLAY, 0, STATIC
        ARGFRAME DOVERLAY, 0, STATIC
        FUNCALL halLcdInit, lcdControl
        LOCFRAME ISTACK, 2, STACK
        LOCFRAME PSTACK, 0, STACK
        LOCFRAME XSTACK, 0, STACK
        LOCFRAME IOVERLAY, 0, STATIC
        LOCFRAME DOVERLAY, 0, STATIC
        ARGFRAME ISTACK, 2, STACK
        ARGFRAME PSTACK, 0, STACK
        ARGFRAME XSTACK, 0, STACK
        ARGFRAME IOVERLAY, 0, STATIC
        ARGFRAME DOVERLAY, 0, STATIC
        FUNCALL halLcdInit, HalLcdWriteString
        LOCFRAME ISTACK, 2, STACK
        LOCFRAME PSTACK, 0, STACK
        LOCFRAME XSTACK, 0, STACK
        LOCFRAME IOVERLAY, 0, STATIC
        LOCFRAME DOVERLAY, 0, STATIC
        ARGFRAME ISTACK, 2, STACK
        ARGFRAME PSTACK, 0, STACK
        ARGFRAME XSTACK, 0, STACK
        ARGFRAME IOVERLAY, 0, STATIC
        ARGFRAME DOVERLAY, 0, STATIC
        PUSH    DPL
        CFI DPL0 Frame(CFA_SP, 4)
        CFI CFA_SP SP+-4
        PUSH    DPH
        CFI DPH0 Frame(CFA_SP, 5)
        CFI CFA_SP SP+-5
        ; Saved register size: 2
        ; Auto size: 0
        ORL     0xfd,#0x40
        CLR     0xa0.0
        ; Setup parameters for call to function halMcuWaitMs
        MOV     R2,#0x1e
        LCALL   ?Subroutine0 & 0xFFFF
??CrossCallReturnLabel_0:
        ; Setup parameters for call to function lcdControl
        MOV     R1,#0x30
        LCALL   ??lcdControl?relay
        ; Setup parameters for call to function halMcuWaitMs
        MOV     R2,#0x2
        LCALL   ?Subroutine0 & 0xFFFF
??CrossCallReturnLabel_1:
        ; Setup parameters for call to function lcdControl
        LCALL   ?Subroutine5 & 0xFFFF
??CrossCallReturnLabel_22:
        ; Setup parameters for call to function lcdControl
        LCALL   ?Subroutine5 & 0xFFFF
??CrossCallReturnLabel_23:
        ; Setup parameters for call to function lcdControl
        MOV     R1,#0x10
        LCALL   ??lcdControl?relay
        ; Setup parameters for call to function lcdControl
        MOV     R1,#0x6
        LCALL   ??lcdControl?relay
        ; Setup parameters for call to function lcdControl
        MOV     R1,#0x1
        LCALL   ??Subroutine18_0 & 0xFFFF
??CrossCallReturnLabel_24:
        ; Setup parameters for call to function HalLcd_HW_Clear
        LCALL   ??HalLcd_HW_Clear?relay
        ; Setup parameters for call to function lcdControl
        MOV     R1,#0xc
        LCALL   ??lcdControl?relay
        ; Setup parameters for call to function HalLcdWriteString
        MOV     R1,#0x1
        MOV     R2,#(`?<Constant "TexasInstruments">` & 0xff)
        MOV     R3,#((`?<Constant "TexasInstruments">` >> 8) & 0xff)
        LCALL   ??HalLcdWriteString?relay
        LJMP    ??Subroutine13_0 & 0xFFFF
        CFI EndBlock cfiBlock49
        REQUIRE _A_P2
        REQUIRE P0DIR

        RSEG BANKED_CODE:CODE:NOROOT(0)
?Subroutine5:
        CFI Block cfiCond50 Using cfiCommon0
        CFI NoFunction
        CFI Conditional ??CrossCallReturnLabel_22
        CFI DPL0 Frame(CFA_SP, 4)
        CFI DPH0 Frame(CFA_SP, 5)
        CFI CFA_SP SP+-5
        CFI Block cfiCond51 Using cfiCommon0
        CFI (cfiCond51) NoFunction
        CFI (cfiCond51) Conditional ??CrossCallReturnLabel_23
        CFI (cfiCond51) DPL0 Frame(CFA_SP, 4)
        CFI (cfiCond51) DPH0 Frame(CFA_SP, 5)
        CFI (cfiCond51) CFA_SP SP+-5
        CFI Block cfiPicker52 Using cfiCommon1
        CFI (cfiPicker52) NoFunction
        CFI (cfiPicker52) Picker
        MOV     R1,#0x38
        CFI EndBlock cfiCond50
        CFI EndBlock cfiCond51
        CFI EndBlock cfiPicker52
        REQUIRE ??Subroutine18_0
        ; // Fall through to label ??Subroutine18_0

        RSEG BANKED_CODE:CODE:NOROOT(0)
??Subroutine18_0:
        CFI Block cfiCond53 Using cfiCommon0
        CFI NoFunction
        CFI Conditional ??CrossCallReturnLabel_24
        CFI DPL0 Frame(CFA_SP, 4)
        CFI DPH0 Frame(CFA_SP, 5)
        CFI CFA_SP SP+-5
        CFI Block cfiCond54 Using cfiCommon0
        CFI (cfiCond54) NoFunction
        CFI (cfiCond54) Conditional ??CrossCallReturnLabel_22
        CFI (cfiCond54) DPL0 Frame(CFA_SP, 4)
        CFI (cfiCond54) DPH0 Frame(CFA_SP, 5)
        CFI (cfiCond54) CFA_SP SP+-5
        CFI Block cfiCond55 Using cfiCommon0
        CFI (cfiCond55) NoFunction
        CFI (cfiCond55) Conditional ??CrossCallReturnLabel_23
        CFI (cfiCond55) DPL0 Frame(CFA_SP, 4)
        CFI (cfiCond55) DPH0 Frame(CFA_SP, 5)
        CFI (cfiCond55) CFA_SP SP+-5
        CFI Block cfiPicker56 Using cfiCommon1
        CFI (cfiPicker56) NoFunction
        CFI (cfiPicker56) Picker
        LCALL   ?Subroutine8 & 0xFFFF
??CrossCallReturnLabel_25:
        RET
        CFI EndBlock cfiCond53
        CFI EndBlock cfiCond54
        CFI EndBlock cfiCond55
        CFI EndBlock cfiPicker56

        RSEG BANKED_CODE:CODE:NOROOT(0)
?Subroutine0:
        CFI Block cfiCond57 Using cfiCommon0
        CFI NoFunction
        CFI Conditional ??CrossCallReturnLabel_0
        CFI DPL0 Frame(CFA_SP, 4)
        CFI DPH0 Frame(CFA_SP, 5)
        CFI CFA_SP SP+-5
        CFI Block cfiCond58 Using cfiCommon0
        CFI (cfiCond58) NoFunction
        CFI (cfiCond58) Conditional ??CrossCallReturnLabel_1
        CFI (cfiCond58) DPL0 Frame(CFA_SP, 4)
        CFI (cfiCond58) DPH0 Frame(CFA_SP, 5)
        CFI (cfiCond58) CFA_SP SP+-5
        CFI Block cfiPicker59 Using cfiCommon1
        CFI (cfiPicker59) NoFunction
        CFI (cfiPicker59) Picker
        MOV     R3,#0x0
        LCALL   ??halMcuWaitMs?relay
        ; Setup parameters for call to function lcdControl
        ; Setup parameters for call to function lcdControl
        MOV     R1,#0x30
        LCALL   ?Subroutine8 & 0xFFFF
??CrossCallReturnLabel_26:
        RET
        CFI EndBlock cfiCond57
        CFI EndBlock cfiCond58
        CFI EndBlock cfiPicker59

        RSEG BANKED_CODE:CODE:NOROOT(0)
?Subroutine8:
        CFI Block cfiCond60 Using cfiCommon0
        CFI NoFunction
        CFI Conditional ??CrossCallReturnLabel_25, ??CrossCallReturnLabel_22
        CFI DPL0 Frame(CFA_SP, 4)
        CFI DPH0 Frame(CFA_SP, 5)
        CFI CFA_SP SP+-5
        CFI Block cfiCond61 Using cfiCommon0
        CFI (cfiCond61) NoFunction
        CFI (cfiCond61) Conditional ??CrossCallReturnLabel_25, ??CrossCallReturnLabel_23
        CFI (cfiCond61) DPL0 Frame(CFA_SP, 4)
        CFI (cfiCond61) DPH0 Frame(CFA_SP, 5)
        CFI (cfiCond61) CFA_SP SP+-5
        CFI Block cfiCond62 Using cfiCommon0
        CFI (cfiCond62) NoFunction
        CFI (cfiCond62) Conditional ??CrossCallReturnLabel_25, ??CrossCallReturnLabel_24
        CFI (cfiCond62) DPL0 Frame(CFA_SP, 4)
        CFI (cfiCond62) DPH0 Frame(CFA_SP, 5)
        CFI (cfiCond62) CFA_SP SP+-5
        CFI Block cfiCond63 Using cfiCommon0
        CFI (cfiCond63) NoFunction
        CFI (cfiCond63) Conditional ??CrossCallReturnLabel_26, ??CrossCallReturnLabel_0
        CFI (cfiCond63) DPL0 Frame(CFA_SP, 4)
        CFI (cfiCond63) DPH0 Frame(CFA_SP, 5)
        CFI (cfiCond63) CFA_SP SP+-5
        CFI Block cfiCond64 Using cfiCommon0
        CFI (cfiCond64) NoFunction
        CFI (cfiCond64) Conditional ??CrossCallReturnLabel_26, ??CrossCallReturnLabel_1
        CFI (cfiCond64) DPL0 Frame(CFA_SP, 4)
        CFI (cfiCond64) DPH0 Frame(CFA_SP, 5)
        CFI (cfiCond64) CFA_SP SP+-5
        CFI Block cfiPicker65 Using cfiCommon1
        CFI (cfiPicker65) NoFunction
        CFI (cfiPicker65) Picker
        LCALL   ??lcdControl?relay
        ; Setup parameters for call to function halMcuWaitMs
        ; Setup parameters for call to function halMcuWaitMs
        ; Setup parameters for call to function halMcuWaitMs
        ; Setup parameters for call to function halMcuWaitMs
        ; Setup parameters for call to function halMcuWaitMs
        MOV     R2,#0x2
        MOV     R3,#0x0
        LCALL   ??halMcuWaitMs?relay
        RET
        CFI EndBlock cfiCond60
        CFI EndBlock cfiCond61
        CFI EndBlock cfiCond62
        CFI EndBlock cfiCond63
        CFI EndBlock cfiCond64
        CFI EndBlock cfiPicker65

        RSEG BANKED_CODE:CODE:NOROOT(0)
//  668 static void lcdControl(uint8 command)
lcdControl:
        CFI Block cfiBlock66 Using cfiCommon0
        CFI Function lcdControl
//  669 { 
        FUNCALL lcdControl, halMcuWaitUs
        LOCFRAME ISTACK, 2, STACK
        LOCFRAME PSTACK, 0, STACK
        LOCFRAME XSTACK, 0, STACK
        LOCFRAME IOVERLAY, 0, STATIC
        LOCFRAME DOVERLAY, 0, STATIC
        ARGFRAME ISTACK, 2, STACK
        ARGFRAME PSTACK, 0, STACK
        ARGFRAME XSTACK, 0, STACK
        ARGFRAME IOVERLAY, 0, STATIC
        ARGFRAME DOVERLAY, 0, STATIC
        FUNCALL lcdControl, halMcuWaitUs
        LOCFRAME ISTACK, 2, STACK
        LOCFRAME PSTACK, 0, STACK
        LOCFRAME XSTACK, 0, STACK
        LOCFRAME IOVERLAY, 0, STATIC
        LOCFRAME DOVERLAY, 0, STATIC
        ARGFRAME ISTACK, 2, STACK
        ARGFRAME PSTACK, 0, STACK
        ARGFRAME XSTACK, 0, STACK
        ARGFRAME IOVERLAY, 0, STATIC
        ARGFRAME DOVERLAY, 0, STATIC
        PUSH    DPL
        CFI DPL0 Frame(CFA_SP, 4)
        CFI CFA_SP SP+-4
        PUSH    DPH
        CFI DPH0 Frame(CFA_SP, 5)
        CFI CFA_SP SP+-5
        ; Saved register size: 2
        ; Auto size: 0
//  670     MCU_IO_DIR_OUTPUT(HAL_BOARD_IO_LCD_RS_PORT, HAL_BOARD_IO_LCD_RS_PIN);
        ORL     0xfd,#0x40
//  671     HAL_LCD_RS_CLR();
        CLR     0x80.6
//  672     HAL_LCD_DATA(command);
        LJMP    ?Subroutine9 & 0xFFFF
        CFI EndBlock cfiBlock66
        REQUIRE _A_P1
        REQUIRE _A_P2
        REQUIRE _A_P0
        REQUIRE P0DIR
//  673     HAL_LCD_EN_SET();
//  674     halMcuWaitUs(2);
//  675     HAL_LCD_EN_CLR();
//  676     halMcuWaitUs(80);
//  677     HAL_LCD_DATA(pLedData);
//  678 }
//  679 
//  680 /*******************************************************************************
//  681  * @fn      HalLcd_HW_Write
//  682  *
//  683  * @brief   Write 1 byte to the LCD
//  684  *
//  685  * @param   uint8 data - data to be written to the LCD
//  686  *
//  687  * @return  None
//  688  ******************************************************************************/
//  689 //-------------------------------------------------------------------
//  690 // @fn          lcdWrite
//  691 // @brief       Write character to display
//  692 // @param       uint8 ch - character to display
//  693 // @return      none
//  694 //-------------------------------------------------------------------

        RSEG BANKED_CODE:CODE:NOROOT(0)
//  695 static void lcdWrite(uint8 ch)
lcdWrite:
        CFI Block cfiBlock67 Using cfiCommon0
        CFI Function lcdWrite
//  696 {
        FUNCALL lcdWrite, halMcuWaitUs
        LOCFRAME ISTACK, 2, STACK
        LOCFRAME PSTACK, 0, STACK
        LOCFRAME XSTACK, 0, STACK
        LOCFRAME IOVERLAY, 0, STATIC
        LOCFRAME DOVERLAY, 0, STATIC
        ARGFRAME ISTACK, 2, STACK
        ARGFRAME PSTACK, 0, STACK
        ARGFRAME XSTACK, 0, STACK
        ARGFRAME IOVERLAY, 0, STATIC
        ARGFRAME DOVERLAY, 0, STATIC
        FUNCALL lcdWrite, halMcuWaitUs
        LOCFRAME ISTACK, 2, STACK
        LOCFRAME PSTACK, 0, STACK
        LOCFRAME XSTACK, 0, STACK
        LOCFRAME IOVERLAY, 0, STATIC
        LOCFRAME DOVERLAY, 0, STATIC
        ARGFRAME ISTACK, 2, STACK
        ARGFRAME PSTACK, 0, STACK
        ARGFRAME XSTACK, 0, STACK
        ARGFRAME IOVERLAY, 0, STATIC
        ARGFRAME DOVERLAY, 0, STATIC
        PUSH    DPL
        CFI DPL0 Frame(CFA_SP, 4)
        CFI CFA_SP SP+-4
        PUSH    DPH
        CFI DPH0 Frame(CFA_SP, 5)
        CFI CFA_SP SP+-5
        ; Saved register size: 2
        ; Auto size: 0
//  697     MCU_IO_DIR_OUTPUT(HAL_BOARD_IO_LCD_RS_PORT, HAL_BOARD_IO_LCD_RS_PIN);
        ORL     0xfd,#0x40
//  698     HAL_LCD_RS_SET();
        SETB    0x80.6
//  699     HAL_LCD_DATA(ch);
        LJMP    ?Subroutine9 & 0xFFFF
        CFI EndBlock cfiBlock67
        REQUIRE _A_P1
        REQUIRE _A_P2
        REQUIRE _A_P0
        REQUIRE P0DIR
//  700     HAL_LCD_EN_SET();
//  701     halMcuWaitUs(2);
//  702     HAL_LCD_EN_CLR();
//  703     halMcuWaitUs(80);
//  704     HAL_LCD_DATA(pLedData);
//  705 }

        RSEG BANKED_CODE:CODE:NOROOT(0)
?Subroutine6:
        CFI Block cfiCond68 Using cfiCommon0
        CFI NoFunction
        CFI Conditional ??CrossCallReturnLabel_5
        CFI DPL0 Frame(CFA_SP, 4)
        CFI DPH0 Frame(CFA_SP, 5)
        CFI CFA_SP SP+-5
        CFI Block cfiCond69 Using cfiCommon0
        CFI (cfiCond69) NoFunction
        CFI (cfiCond69) Conditional ??CrossCallReturnLabel_5
        CFI (cfiCond69) DPL0 Frame(CFA_SP, 4)
        CFI (cfiCond69) DPH0 Frame(CFA_SP, 5)
        CFI (cfiCond69) CFA_SP SP+-5
        CFI Block cfiPicker70 Using cfiCommon1
        CFI (cfiPicker70) NoFunction
        CFI (cfiPicker70) Picker
        MOV     0x90,R1
        SETB    0xa0.0
        ; Setup parameters for call to function halMcuWaitUs
        ; Setup parameters for call to function halMcuWaitUs
        MOV     R2,#0x2
        MOV     R3,#0x0
        LCALL   ??halMcuWaitUs?relay
        CLR     0xa0.0
        ; Setup parameters for call to function halMcuWaitUs
        ; Setup parameters for call to function halMcuWaitUs
        MOV     R2,#0x50
        MOV     R3,#0x0
        LCALL   ??halMcuWaitUs?relay
        MOV     DPTR,#pLedData
        MOVX    A,@DPTR
        MOV     0x90,A
        RET
        CFI EndBlock cfiCond68
        CFI EndBlock cfiCond69
        CFI EndBlock cfiPicker70
//  706 
//  707 /**************************************************************************************************
//  708  * @fn          HalLcd_HW_SetContrast
//  709  *
//  710  * @brief       Set display contrast
//  711  *
//  712  * @param       uint8 value - contrast value
//  713  *
//  714  * @return      none
//  715  **************************************************************************************************/

        RSEG BANKED_CODE:CODE:NOROOT(0)
//  716 void HalLcd_HW_SetContrast(uint8 value)
HalLcd_HW_SetContrast:
        CFI Block cfiBlock71 Using cfiCommon0
        CFI Function HalLcd_HW_SetContrast
//  717 {
        FUNCALL HalLcd_HW_SetContrast, lcdControl
        LOCFRAME ISTACK, 0, STACK
        LOCFRAME PSTACK, 0, STACK
        LOCFRAME XSTACK, 9, STACK
        LOCFRAME IOVERLAY, 0, STATIC
        LOCFRAME DOVERLAY, 0, STATIC
        ARGFRAME ISTACK, 0, STACK
        ARGFRAME PSTACK, 0, STACK
        ARGFRAME XSTACK, 9, STACK
        ARGFRAME IOVERLAY, 0, STATIC
        ARGFRAME DOVERLAY, 0, STATIC
        FUNCALL HalLcd_HW_SetContrast, lcdWrite
        LOCFRAME ISTACK, 0, STACK
        LOCFRAME PSTACK, 0, STACK
        LOCFRAME XSTACK, 9, STACK
        LOCFRAME IOVERLAY, 0, STATIC
        LOCFRAME DOVERLAY, 0, STATIC
        ARGFRAME ISTACK, 0, STACK
        ARGFRAME PSTACK, 0, STACK
        ARGFRAME XSTACK, 9, STACK
        ARGFRAME IOVERLAY, 0, STATIC
        ARGFRAME DOVERLAY, 0, STATIC
        MOV     A,#-0x9
        LCALL   ?BANKED_ENTER_XDATA
        CFI DPH0 load(1, XDATA, add(CFA_XSP16, literal(-1)))
        CFI DPL0 load(1, XDATA, add(CFA_XSP16, literal(-2)))
        CFI ?BRET_EXT load(1, XDATA, add(CFA_XSP16, literal(-3)))
        CFI ?RET_HIGH load(1, XDATA, add(CFA_XSP16, literal(-4)))
        CFI ?RET_LOW load(1, XDATA, add(CFA_XSP16, literal(-5)))
        CFI R7 load(1, XDATA, add(CFA_XSP16, literal(-6)))
        CFI V0 load(1, XDATA, add(CFA_XSP16, literal(-7)))
        CFI VB load(1, XDATA, add(CFA_XSP16, literal(-8)))
        CFI R6 load(1, XDATA, add(CFA_XSP16, literal(-9)))
        CFI CFA_SP SP+0
        CFI CFA_XSP16 add(XSP16, 9)
        ; Saved register size: 9
        ; Auto size: 0
        MOV     A,R1
        MOV     R6,A
//  718   SET_ICONRAM_ADDR(CONTRAST_CTRL_REGISTER);
        ; Setup parameters for call to function lcdControl
        MOV     R1,#0x50
        CFI EndBlock cfiBlock71
        REQUIRE ?Subroutine10
        ; // Fall through to label ?Subroutine10
//  719   lcdWrite(value);
//  720 }

        RSEG BANKED_CODE:CODE:NOROOT(0)
?Subroutine10:
        CFI Block cfiBlock72 Using cfiCommon0
        CFI NoFunction
        CFI CFA_SP SP+0
        CFI CFA_XSP16 add(XSP16, 9)
        CFI VB load(1, XDATA, add(CFA_XSP16, literal(-8)))
        CFI DPL0 load(1, XDATA, add(CFA_XSP16, literal(-2)))
        CFI DPH0 load(1, XDATA, add(CFA_XSP16, literal(-1)))
        CFI R6 load(1, XDATA, add(CFA_XSP16, literal(-9)))
        CFI R7 load(1, XDATA, add(CFA_XSP16, literal(-6)))
        CFI V0 load(1, XDATA, add(CFA_XSP16, literal(-7)))
        CFI ?BRET_EXT load(1, XDATA, add(CFA_XSP16, literal(-3)))
        CFI ?RET_HIGH load(1, XDATA, add(CFA_XSP16, literal(-4)))
        CFI ?RET_LOW load(1, XDATA, add(CFA_XSP16, literal(-5)))
        LCALL   ?Subroutine7 & 0xFFFF
??CrossCallReturnLabel_6:
        LJMP    ?BANKED_LEAVE_XDATA
        CFI EndBlock cfiBlock72
//  721 
//  722 /*******************************************************************************
//  723  * @fn      HalLcd_HW_Clear
//  724  *
//  725  * @brief   Clear the HW LCD
//  726  *
//  727  * @param   None
//  728  *
//  729  * @return  None
//  730  ******************************************************************************/

        RSEG BANKED_CODE:CODE:NOROOT(0)
//  731 void HalLcd_HW_Clear(void)
HalLcd_HW_Clear:
        CFI Block cfiBlock73 Using cfiCommon0
        CFI Function HalLcd_HW_Clear
//  732 {
        FUNCALL HalLcd_HW_Clear, lcdControl
        LOCFRAME ISTACK, 0, STACK
        LOCFRAME PSTACK, 0, STACK
        LOCFRAME XSTACK, 9, STACK
        LOCFRAME IOVERLAY, 0, STATIC
        LOCFRAME DOVERLAY, 0, STATIC
        ARGFRAME ISTACK, 0, STACK
        ARGFRAME PSTACK, 0, STACK
        ARGFRAME XSTACK, 9, STACK
        ARGFRAME IOVERLAY, 0, STATIC
        ARGFRAME DOVERLAY, 0, STATIC
        FUNCALL HalLcd_HW_Clear, lcdWrite
        LOCFRAME ISTACK, 0, STACK
        LOCFRAME PSTACK, 0, STACK
        LOCFRAME XSTACK, 9, STACK
        LOCFRAME IOVERLAY, 0, STATIC
        LOCFRAME DOVERLAY, 0, STATIC
        ARGFRAME ISTACK, 0, STACK
        ARGFRAME PSTACK, 0, STACK
        ARGFRAME XSTACK, 9, STACK
        ARGFRAME IOVERLAY, 0, STATIC
        ARGFRAME DOVERLAY, 0, STATIC
        FUNCALL HalLcd_HW_Clear, lcdControl
        LOCFRAME ISTACK, 0, STACK
        LOCFRAME PSTACK, 0, STACK
        LOCFRAME XSTACK, 9, STACK
        LOCFRAME IOVERLAY, 0, STATIC
        LOCFRAME DOVERLAY, 0, STATIC
        ARGFRAME ISTACK, 0, STACK
        ARGFRAME PSTACK, 0, STACK
        ARGFRAME XSTACK, 9, STACK
        ARGFRAME IOVERLAY, 0, STATIC
        ARGFRAME DOVERLAY, 0, STATIC
        FUNCALL HalLcd_HW_Clear, lcdWrite
        LOCFRAME ISTACK, 0, STACK
        LOCFRAME PSTACK, 0, STACK
        LOCFRAME XSTACK, 9, STACK
        LOCFRAME IOVERLAY, 0, STATIC
        LOCFRAME DOVERLAY, 0, STATIC
        ARGFRAME ISTACK, 0, STACK
        ARGFRAME PSTACK, 0, STACK
        ARGFRAME XSTACK, 9, STACK
        ARGFRAME IOVERLAY, 0, STATIC
        ARGFRAME DOVERLAY, 0, STATIC
        MOV     A,#-0x9
        LCALL   ?BANKED_ENTER_XDATA
        CFI DPH0 load(1, XDATA, add(CFA_XSP16, literal(-1)))
        CFI DPL0 load(1, XDATA, add(CFA_XSP16, literal(-2)))
        CFI ?BRET_EXT load(1, XDATA, add(CFA_XSP16, literal(-3)))
        CFI ?RET_HIGH load(1, XDATA, add(CFA_XSP16, literal(-4)))
        CFI ?RET_LOW load(1, XDATA, add(CFA_XSP16, literal(-5)))
        CFI R7 load(1, XDATA, add(CFA_XSP16, literal(-6)))
        CFI V0 load(1, XDATA, add(CFA_XSP16, literal(-7)))
        CFI VB load(1, XDATA, add(CFA_XSP16, literal(-8)))
        CFI R6 load(1, XDATA, add(CFA_XSP16, literal(-9)))
        CFI CFA_SP SP+0
        CFI CFA_XSP16 add(XSP16, 9)
        ; Saved register size: 9
        ; Auto size: 0
//  733     uint8 n;
//  734     SET_DISPLAY_LINE(LINE1);
        ; Setup parameters for call to function lcdControl
        MOV     R1,#-0x80
        LCALL   ??lcdControl?relay
//  735     for (n = 0; n < LCD_LINE_LENGTH; n++)
        MOV     R6,#0x10
//  736     {
//  737         lcdWrite(' ');
??HalLcd_HW_Clear_0:
        ; Setup parameters for call to function lcdWrite
        MOV     R1,#0x20
        LCALL   ??lcdWrite?relay
//  738     }
        DEC     R6
        MOV     A,R6
        JNZ     ??HalLcd_HW_Clear_0
//  739     SET_DISPLAY_LINE(LINE2);
        ; Setup parameters for call to function lcdControl
        MOV     R1,#-0x40
        LCALL   ??lcdControl?relay
//  740     for (n = 0; n < LCD_LINE_LENGTH; n++)
        MOV     R6,#0x10
//  741     {
//  742         lcdWrite(' ');
??HalLcd_HW_Clear_1:
        ; Setup parameters for call to function lcdWrite
        MOV     R1,#0x20
        LCALL   ??lcdWrite?relay
//  743     }
        DEC     R6
        MOV     A,R6
        JNZ     ??HalLcd_HW_Clear_1
//  744 }
        LJMP    ?Subroutine11 & 0xFFFF
        CFI EndBlock cfiBlock73
//  745 
//  746 /**************************************************************************************************
//  747  * @fn      HalLcd_HW_ClearAllSpecChars
//  748  *
//  749  * @brief   Clear all special chars
//  750  *
//  751  * @param   None
//  752  *
//  753  * @return  None
//  754  **************************************************************************************************/

        RSEG BANKED_CODE:CODE:NOROOT(0)
//  755 void HalLcd_HW_ClearAllSpecChars(void)
HalLcd_HW_ClearAllSpecChars:
        CFI Block cfiBlock74 Using cfiCommon0
        CFI Function HalLcd_HW_ClearAllSpecChars
//  756 {
        FUNCALL HalLcd_HW_ClearAllSpecChars, lcdControl
        LOCFRAME ISTACK, 0, STACK
        LOCFRAME PSTACK, 0, STACK
        LOCFRAME XSTACK, 9, STACK
        LOCFRAME IOVERLAY, 0, STATIC
        LOCFRAME DOVERLAY, 0, STATIC
        ARGFRAME ISTACK, 0, STACK
        ARGFRAME PSTACK, 0, STACK
        ARGFRAME XSTACK, 9, STACK
        ARGFRAME IOVERLAY, 0, STATIC
        ARGFRAME DOVERLAY, 0, STATIC
        FUNCALL HalLcd_HW_ClearAllSpecChars, lcdWrite
        LOCFRAME ISTACK, 0, STACK
        LOCFRAME PSTACK, 0, STACK
        LOCFRAME XSTACK, 9, STACK
        LOCFRAME IOVERLAY, 0, STATIC
        LOCFRAME DOVERLAY, 0, STATIC
        ARGFRAME ISTACK, 0, STACK
        ARGFRAME PSTACK, 0, STACK
        ARGFRAME XSTACK, 9, STACK
        ARGFRAME IOVERLAY, 0, STATIC
        ARGFRAME DOVERLAY, 0, STATIC
        MOV     A,#-0x9
        LCALL   ?BANKED_ENTER_XDATA
        CFI DPH0 load(1, XDATA, add(CFA_XSP16, literal(-1)))
        CFI DPL0 load(1, XDATA, add(CFA_XSP16, literal(-2)))
        CFI ?BRET_EXT load(1, XDATA, add(CFA_XSP16, literal(-3)))
        CFI ?RET_HIGH load(1, XDATA, add(CFA_XSP16, literal(-4)))
        CFI ?RET_LOW load(1, XDATA, add(CFA_XSP16, literal(-5)))
        CFI R7 load(1, XDATA, add(CFA_XSP16, literal(-6)))
        CFI V0 load(1, XDATA, add(CFA_XSP16, literal(-7)))
        CFI VB load(1, XDATA, add(CFA_XSP16, literal(-8)))
        CFI R6 load(1, XDATA, add(CFA_XSP16, literal(-9)))
        CFI CFA_SP SP+0
        CFI CFA_XSP16 add(XSP16, 9)
        ; Saved register size: 9
        ; Auto size: 0
//  757   uint8 n = 0;
//  758 
//  759   SET_GCRAM_CHAR(0);
        ; Setup parameters for call to function lcdControl
        MOV     R1,#0x40
        LCALL   ??lcdControl?relay
//  760   for (n = 0; n < (8 * 8); n++)
        MOV     R6,#0x40
//  761   {
//  762     lcdWrite(0x00);
??HalLcd_HW_ClearAllSpecChars_0:
        ; Setup parameters for call to function lcdWrite
        MOV     R1,#0x0
        LCALL   ??lcdWrite?relay
//  763   }
        DEC     R6
        MOV     A,R6
        JNZ     ??HalLcd_HW_ClearAllSpecChars_0
//  764 }
        LJMP    ?Subroutine11 & 0xFFFF
        CFI EndBlock cfiBlock74
//  765 
//  766 /*******************************************************************************
//  767  * @fn      HalLcd_HW_WriteChar
//  768  *
//  769  * @brief   Write one char to the display
//  770  *
//  771  * @param   uint8 line - line number that the char will be displayed
//  772  *          uint8 col - colum where the char will be displayed
//  773  *
//  774  * @return  None
//  775  ******************************************************************************/
//  776 /************************************************************
//  777  * @fn      halLcdWriteChar
//  778 ************************************************************/

        RSEG BANKED_CODE:CODE:NOROOT(0)
//  779 static void halLcdWriteChar(uint8 line, uint8 col, char text)
halLcdWriteChar:
        CFI Block cfiBlock75 Using cfiCommon0
        CFI Function halLcdWriteChar
//  780 {
        FUNCALL halLcdWriteChar, lcdControl
        LOCFRAME ISTACK, 0, STACK
        LOCFRAME PSTACK, 0, STACK
        LOCFRAME XSTACK, 9, STACK
        LOCFRAME IOVERLAY, 0, STATIC
        LOCFRAME DOVERLAY, 0, STATIC
        ARGFRAME ISTACK, 0, STACK
        ARGFRAME PSTACK, 0, STACK
        ARGFRAME XSTACK, 9, STACK
        ARGFRAME IOVERLAY, 0, STATIC
        ARGFRAME DOVERLAY, 0, STATIC
        FUNCALL halLcdWriteChar, lcdControl
        LOCFRAME ISTACK, 0, STACK
        LOCFRAME PSTACK, 0, STACK
        LOCFRAME XSTACK, 9, STACK
        LOCFRAME IOVERLAY, 0, STATIC
        LOCFRAME DOVERLAY, 0, STATIC
        ARGFRAME ISTACK, 0, STACK
        ARGFRAME PSTACK, 0, STACK
        ARGFRAME XSTACK, 9, STACK
        ARGFRAME IOVERLAY, 0, STATIC
        ARGFRAME DOVERLAY, 0, STATIC
        FUNCALL halLcdWriteChar, lcdWrite
        LOCFRAME ISTACK, 0, STACK
        LOCFRAME PSTACK, 0, STACK
        LOCFRAME XSTACK, 9, STACK
        LOCFRAME IOVERLAY, 0, STATIC
        LOCFRAME DOVERLAY, 0, STATIC
        ARGFRAME ISTACK, 0, STACK
        ARGFRAME PSTACK, 0, STACK
        ARGFRAME XSTACK, 9, STACK
        ARGFRAME IOVERLAY, 0, STATIC
        ARGFRAME DOVERLAY, 0, STATIC
        MOV     A,#-0x9
        LCALL   ?BANKED_ENTER_XDATA
        CFI DPH0 load(1, XDATA, add(CFA_XSP16, literal(-1)))
        CFI DPL0 load(1, XDATA, add(CFA_XSP16, literal(-2)))
        CFI ?BRET_EXT load(1, XDATA, add(CFA_XSP16, literal(-3)))
        CFI ?RET_HIGH load(1, XDATA, add(CFA_XSP16, literal(-4)))
        CFI ?RET_LOW load(1, XDATA, add(CFA_XSP16, literal(-5)))
        CFI R7 load(1, XDATA, add(CFA_XSP16, literal(-6)))
        CFI V0 load(1, XDATA, add(CFA_XSP16, literal(-7)))
        CFI VB load(1, XDATA, add(CFA_XSP16, literal(-8)))
        CFI R6 load(1, XDATA, add(CFA_XSP16, literal(-9)))
        CFI CFA_SP SP+0
        CFI CFA_XSP16 add(XSP16, 9)
        ; Saved register size: 9
        ; Auto size: 0
        MOV     A,R3
        MOV     R6,A
//  781     if (line == HAL_LCD_LINE_2)
        MOV     A,#0x2
        XRL     A,R1
        JNZ     ??halLcdWriteChar_0
//  782     {
//  783         SET_DISPLAY_LINE(LINE2 + col);
        ; Setup parameters for call to function lcdControl
        MOV     A,#0x40
        ADD     A,R2
        ORL     A,#0x80
        SJMP    ??halLcdWriteChar_1
//  784     }
//  785     else
//  786     {
//  787         SET_DISPLAY_LINE(LINE1 + col);
??halLcdWriteChar_0:
        ; Setup parameters for call to function lcdControl
        MOV     A,#-0x80
        ORL     A,R2
??halLcdWriteChar_1:
        MOV     R1,A
//  788     }
        SJMP    ?Subroutine10
        CFI EndBlock cfiBlock75
//  789     lcdWrite(text);
//  790 }

        RSEG BANKED_CODE:CODE:NOROOT(0)
?Subroutine7:
        CFI Block cfiCond76 Using cfiCommon0
        CFI NoFunction
        CFI Conditional ??CrossCallReturnLabel_6
        CFI R6 load(1, XDATA, add(CFA_XSP16, literal(-9)))
        CFI VB load(1, XDATA, add(CFA_XSP16, literal(-8)))
        CFI V0 load(1, XDATA, add(CFA_XSP16, literal(-7)))
        CFI R7 load(1, XDATA, add(CFA_XSP16, literal(-6)))
        CFI ?RET_LOW load(1, XDATA, add(CFA_XSP16, literal(-5)))
        CFI ?RET_HIGH load(1, XDATA, add(CFA_XSP16, literal(-4)))
        CFI ?BRET_EXT load(1, XDATA, add(CFA_XSP16, literal(-3)))
        CFI DPL0 load(1, XDATA, add(CFA_XSP16, literal(-2)))
        CFI DPH0 load(1, XDATA, add(CFA_XSP16, literal(-1)))
        CFI CFA_SP SP+0
        CFI CFA_XSP16 add(XSP16, 9)
        CFI Block cfiCond77 Using cfiCommon0
        CFI (cfiCond77) NoFunction
        CFI (cfiCond77) Conditional ??CrossCallReturnLabel_6
        CFI (cfiCond77) R6 load(1, XDATA, add(CFA_XSP16, literal(-9)))
        CFI (cfiCond77) VB load(1, XDATA, add(CFA_XSP16, literal(-8)))
        CFI (cfiCond77) V0 load(1, XDATA, add(CFA_XSP16, literal(-7)))
        CFI (cfiCond77) R7 load(1, XDATA, add(CFA_XSP16, literal(-6)))
        CFI (cfiCond77) ?RET_LOW load(1, XDATA, add(CFA_XSP16, literal(-5)))
        CFI (cfiCond77) ?RET_HIGH load(1, XDATA, add(CFA_XSP16, literal(-4)))
        CFI (cfiCond77) ?BRET_EXT load(1, XDATA, add(CFA_XSP16, literal(-3)))
        CFI (cfiCond77) DPL0 load(1, XDATA, add(CFA_XSP16, literal(-2)))
        CFI (cfiCond77) DPH0 load(1, XDATA, add(CFA_XSP16, literal(-1)))
        CFI (cfiCond77) CFA_SP SP+0
        CFI (cfiCond77) CFA_XSP16 add(XSP16, 9)
        CFI Block cfiPicker78 Using cfiCommon1
        CFI (cfiPicker78) NoFunction
        CFI (cfiPicker78) Picker
        LCALL   ??lcdControl?relay
        ; Setup parameters for call to function lcdWrite
        ; Setup parameters for call to function lcdWrite
        MOV     A,R6
        MOV     R1,A
        LCALL   ??lcdWrite?relay
        MOV     R7,#0x1
        RET
        CFI EndBlock cfiCond76
        CFI EndBlock cfiCond77
        CFI EndBlock cfiPicker78
//  791 
//  792 /**************************************************************************************************
//  793  * @fn          halLcdWriteLine
//  794  *
//  795  * @brief       Write one line on display
//  796  *
//  797  * @param       uint8 line - display line
//  798  *              char *pText - text buffer to write
//  799  *
//  800  * @return      none
//  801  **************************************************************************************************/

        RSEG BANKED_CODE:CODE:NOROOT(0)
//  802 void HalLcd_HW_WriteLine(uint8 line, const char *pText)
HalLcd_HW_WriteLine:
        CFI Block cfiBlock79 Using cfiCommon0
        CFI Function HalLcd_HW_WriteLine
//  803 {
        FUNCALL HalLcd_HW_WriteLine, osal_strlen
        LOCFRAME ISTACK, 0, STACK
        LOCFRAME PSTACK, 0, STACK
        LOCFRAME XSTACK, 11, STACK
        LOCFRAME IOVERLAY, 0, STATIC
        LOCFRAME DOVERLAY, 0, STATIC
        ARGFRAME ISTACK, 0, STACK
        ARGFRAME PSTACK, 0, STACK
        ARGFRAME XSTACK, 11, STACK
        ARGFRAME IOVERLAY, 0, STATIC
        ARGFRAME DOVERLAY, 0, STATIC
        FUNCALL HalLcd_HW_WriteLine, halLcdWriteChar
        LOCFRAME ISTACK, 0, STACK
        LOCFRAME PSTACK, 0, STACK
        LOCFRAME XSTACK, 11, STACK
        LOCFRAME IOVERLAY, 0, STATIC
        LOCFRAME DOVERLAY, 0, STATIC
        ARGFRAME ISTACK, 0, STACK
        ARGFRAME PSTACK, 0, STACK
        ARGFRAME XSTACK, 11, STACK
        ARGFRAME IOVERLAY, 0, STATIC
        ARGFRAME DOVERLAY, 0, STATIC
        FUNCALL HalLcd_HW_WriteLine, halLcdWriteChar
        LOCFRAME ISTACK, 0, STACK
        LOCFRAME PSTACK, 0, STACK
        LOCFRAME XSTACK, 11, STACK
        LOCFRAME IOVERLAY, 0, STATIC
        LOCFRAME DOVERLAY, 0, STATIC
        ARGFRAME ISTACK, 0, STACK
        ARGFRAME PSTACK, 0, STACK
        ARGFRAME XSTACK, 11, STACK
        ARGFRAME IOVERLAY, 0, STATIC
        ARGFRAME DOVERLAY, 0, STATIC
        MOV     A,#-0xb
        LCALL   ?BANKED_ENTER_XDATA
        CFI DPH0 load(1, XDATA, add(CFA_XSP16, literal(-1)))
        CFI DPL0 load(1, XDATA, add(CFA_XSP16, literal(-2)))
        CFI ?BRET_EXT load(1, XDATA, add(CFA_XSP16, literal(-3)))
        CFI ?RET_HIGH load(1, XDATA, add(CFA_XSP16, literal(-4)))
        CFI ?RET_LOW load(1, XDATA, add(CFA_XSP16, literal(-5)))
        CFI R7 load(1, XDATA, add(CFA_XSP16, literal(-6)))
        CFI V2 load(1, XDATA, add(CFA_XSP16, literal(-7)))
        CFI V1 load(1, XDATA, add(CFA_XSP16, literal(-8)))
        CFI V0 load(1, XDATA, add(CFA_XSP16, literal(-9)))
        CFI VB load(1, XDATA, add(CFA_XSP16, literal(-10)))
        CFI R6 load(1, XDATA, add(CFA_XSP16, literal(-11)))
        CFI CFA_SP SP+0
        CFI CFA_XSP16 add(XSP16, 11)
        ; Saved register size: 11
        ; Auto size: 0
        MOV     ?V0 + 1,R1
        MOV     A,R2
        MOV     R6,A
        MOV     A,R3
        MOV     R7,A
//  804   uint8 count;
//  805   uint8 totalLength = (uint8)osal_strlen( (char *)pText );
        ; Setup parameters for call to function osal_strlen
        LCALL   ??osal_strlen?relay
        MOV     A,R2
        MOV     ?V0 + 2,A
//  806 
//  807   /* Write the content first */
//  808   for (count=0; count<totalLength; count++)
        MOV     ?V0 + 0,#0x0
        SJMP    ??HalLcd_HW_WriteLine_0
//  809   {
//  810     halLcdWriteChar(line, count, (*(pText++)));
??HalLcd_HW_WriteLine_1:
        ; Setup parameters for call to function halLcdWriteChar
        MOV     DPL,R6
        MOV     DPH,R7
        MOVX    A,@DPTR
        MOV     R3,A
        MOV     R2,?V0 + 0
        MOV     R1,?V0 + 1
        LCALL   ??halLcdWriteChar?relay
        MOV     DPL,R6
        MOV     DPH,R7
        INC     DPTR
        MOV     R6,DPL
        MOV     R7,DPH
//  811   }
        INC     ?V0 + 0
??HalLcd_HW_WriteLine_0:
        MOV     A,?V0 + 0
        CLR     C
        SUBB    A,?V0 + 2
        JC      ??HalLcd_HW_WriteLine_1
//  812 
//  813   /* Write blank spaces to rest of the line */
//  814   for(count=totalLength; count<LCD_LINE_LENGTH;count++)
        MOV     ?V0 + 0,?V0 + 2
        SJMP    ??HalLcd_HW_WriteLine_2
//  815   {
//  816     halLcdWriteChar(line, count, ' ');
??HalLcd_HW_WriteLine_3:
        ; Setup parameters for call to function halLcdWriteChar
        MOV     R3,#0x20
        MOV     R2,?V0 + 0
        MOV     R1,?V0 + 1
        LCALL   ??halLcdWriteChar?relay
//  817   }
        INC     ?V0 + 0
??HalLcd_HW_WriteLine_2:
        MOV     A,?V0 + 0
        CLR     C
        SUBB    A,#0x10
        JC      ??HalLcd_HW_WriteLine_3
//  818 }
        MOV     R7,#0x3
        LJMP    ?BANKED_LEAVE_XDATA
        CFI EndBlock cfiBlock79
//  819 
//  820 /*******************************************************************************
//  821  * @fn      HalLcd_HW_WaitUs
//  822  *
//  823  * @brief   wait for x us. @ 32MHz MCU clock it takes 32 "nop"s for 1 us delay.
//  824  *
//  825  * @param   x us. range[0-65536]
//  826  *
//  827  * @return  None
//  828  ******************************************************************************/

        RSEG BANKED_CODE:CODE:NOROOT(0)
//  829 void HalLcd_HW_WaitUs(uint16 microSecs)
HalLcd_HW_WaitUs:
        CFI Block cfiBlock80 Using cfiCommon0
        CFI Function HalLcd_HW_WaitUs
//  830 {
        ; Saved register size: 0
        ; Auto size: 0
        SJMP    ??HalLcd_HW_WaitUs_0
//  831   while(microSecs--)
//  832   {
//  833     /* 32 NOPs == 1 usecs */
//  834     asm("nop"); asm("nop"); asm("nop"); asm("nop"); asm("nop");
??HalLcd_HW_WaitUs_1:
        nop
        nop
        nop
        nop
        nop
//  835     asm("nop"); asm("nop"); asm("nop"); asm("nop"); asm("nop");
        nop
        nop
        nop
        nop
        nop
//  836     asm("nop"); asm("nop"); asm("nop"); asm("nop"); asm("nop");
        nop
        nop
        nop
        nop
        nop
//  837     asm("nop"); asm("nop"); asm("nop"); asm("nop"); asm("nop");
        nop
        nop
        nop
        nop
        nop
//  838     asm("nop"); asm("nop"); asm("nop"); asm("nop"); asm("nop");
        nop
        nop
        nop
        nop
        nop
//  839     asm("nop"); asm("nop"); asm("nop"); asm("nop"); asm("nop");
        nop
        nop
        nop
        nop
        nop
//  840     asm("nop"); asm("nop");
        nop
        nop
//  841   }
??HalLcd_HW_WaitUs_0:
        MOV     A,R2
        MOV     R0,A
        MOV     A,R3
        MOV     R1,A
        MOV     A,#-0x1
        ADD     A,R0
        DEC     R2
        MOV     A,#-0x1
        ADDC    A,R1
        MOV     R3,A
        MOV     A,R0
        JNZ     ??HalLcd_HW_WaitUs_2
        MOV     A,R1
??HalLcd_HW_WaitUs_2:
        JNZ     ??HalLcd_HW_WaitUs_1
//  842 }
        LJMP    ?BRET
        CFI EndBlock cfiBlock80

        RSEG BANK_RELAYS:CODE:REORDER:NOROOT(0)
??HalLcdInit?relay:
        LCALL   ?BDISPATCH
        DATA
        DC24    HalLcdInit

        RSEG BANK_RELAYS:CODE:REORDER:NOROOT(0)
??HalLcdWriteString?relay:
        LCALL   ?BDISPATCH
        DATA
        DC24    HalLcdWriteString

        RSEG BANK_RELAYS:CODE:REORDER:NOROOT(0)
??HalLcdWriteValue?relay:
        LCALL   ?BDISPATCH
        DATA
        DC24    HalLcdWriteValue

        RSEG BANK_RELAYS:CODE:REORDER:NOROOT(0)
??HalLcdWriteScreen?relay:
        LCALL   ?BDISPATCH
        DATA
        DC24    HalLcdWriteScreen

        RSEG BANK_RELAYS:CODE:REORDER:NOROOT(0)
??HalLcdWriteStringValue?relay:
        LCALL   ?BDISPATCH
        DATA
        DC24    HalLcdWriteStringValue

        RSEG BANK_RELAYS:CODE:REORDER:NOROOT(0)
??HalLcdWriteStringValueValue?relay:
        LCALL   ?BDISPATCH
        DATA
        DC24    HalLcdWriteStringValueValue

        RSEG BANK_RELAYS:CODE:REORDER:NOROOT(0)
??HalLcdDisplayPercentBar?relay:
        LCALL   ?BDISPATCH
        DATA
        DC24    HalLcdDisplayPercentBar

        RSEG BANK_RELAYS:CODE:REORDER:NOROOT(0)
??halLcdInit?relay:
        LCALL   ?BDISPATCH
        DATA
        DC24    halLcdInit

        RSEG BANK_RELAYS:CODE:REORDER:NOROOT(0)
??lcdControl?relay:
        LCALL   ?BDISPATCH
        DATA
        DC24    lcdControl

        RSEG BANK_RELAYS:CODE:REORDER:NOROOT(0)
??lcdWrite?relay:
        LCALL   ?BDISPATCH
        DATA
        DC24    lcdWrite

        RSEG BANK_RELAYS:CODE:REORDER:NOROOT(0)
??HalLcd_HW_SetContrast?relay:
        LCALL   ?BDISPATCH
        DATA
        DC24    HalLcd_HW_SetContrast

        RSEG BANK_RELAYS:CODE:REORDER:NOROOT(0)
??HalLcd_HW_Clear?relay:
        LCALL   ?BDISPATCH
        DATA
        DC24    HalLcd_HW_Clear

        RSEG BANK_RELAYS:CODE:REORDER:NOROOT(0)
??HalLcd_HW_ClearAllSpecChars?relay:
        LCALL   ?BDISPATCH
        DATA
        DC24    HalLcd_HW_ClearAllSpecChars

        RSEG BANK_RELAYS:CODE:REORDER:NOROOT(0)
??halLcdWriteChar?relay:
        LCALL   ?BDISPATCH
        DATA
        DC24    halLcdWriteChar

        RSEG BANK_RELAYS:CODE:REORDER:NOROOT(0)
??HalLcd_HW_WriteLine?relay:
        LCALL   ?BDISPATCH
        DATA
        DC24    HalLcd_HW_WriteLine

        RSEG BANK_RELAYS:CODE:REORDER:NOROOT(0)
??HalLcd_HW_WaitUs?relay:
        LCALL   ?BDISPATCH
        DATA
        DC24    HalLcd_HW_WaitUs

        RSEG XDATA_ROM_C:CONST:REORDER:NOROOT(0)
        DATA
`?<Constant "[          ]  ">`:
        DB "[          ]  "

        RSEG XDATA_ROM_C:CONST:REORDER:NOROOT(0)
        DATA
`?<Constant "TexasInstruments">`:
        DB "TexasInstruments"

        END
//  843 
//  844 /**************************************************************************************************
//  845 **************************************************************************************************/
//  846 
//  847 
//  848 
// 
// 1 335 bytes in segment BANKED_CODE
//    96 bytes in segment BANK_RELAYS
// 1 536 bytes in segment CODE_C
//     4 bytes in segment SFR_AN
//    32 bytes in segment XDATA_ROM_C
//     3 bytes in segment XDATA_Z
// 
// 2 967 bytes of CODE  memory
//    32 bytes of CONST memory
//     0 bytes of DATA  memory (+ 4 bytes shared)
//     3 bytes of XDATA memory
//
//Errors: none
//Warnings: none
