###############################################################################
#                                                                             #
# IAR C/C++ Compiler V7.51A/W32 for 8051                07/Jun/2010  09:43:45 #
# Copyright 2004-2009 IAR Systems AB.                                         #
#                                                                             #
#    Core               =  plain                                              #
#    Code model         =  banked                                             #
#    Data model         =  large                                              #
#    Calling convention =  xdata reentrant                                    #
#    Constant location  =  data_rom                                           #
#    Dptr setup         =  1,16                                               #
#    Source file        =  D:\µ{¦¡¶}µo\TI Zigbee Z-Stack\ZStack-CC2530-2.3.0- #
#                          1.4.0\ZStack-CC2530-2.3.0-1.4.0\Components\stack\n #
#                          wk\nwk_globals.c                                   #
#    Command line       =  -f "D:\µ{¦¡¶}µo\TI Zigbee                          #
#                          Z-Stack\ZStack-CC2530-2.3.0-1.4.0\ZStack-CC2530-2. #
#                          3.0-1.4.0\Projects\zstack\Utilities\SerialApp\CC25 #
#                          30DB\..\..\..\Tools\CC2530DB\f8wEndev.cfg"         #
#                          (-DCPU32MHZ -DROOT=__near_func -DBLINK_LEDS) -f    #
#                          "D:\µ{¦¡¶}µo\TI Zigbee Z-Stack\ZStack-CC2530-2.3.0 #
#                          -1.4.0\ZStack-CC2530-2.3.0-1.4.0\Projects\zstack\U #
#                          tilities\SerialApp\CC2530DB\..\..\..\Tools\CC2530D #
#                          B\f8wConfig.cfg" (-DSECURE=0                       #
#                          -DZG_SECURE_DYNAMIC=0 -DREFLECTOR                  #
#                          -DDEFAULT_CHANLIST=0x00000800                      #
#                          -DZDAPP_CONFIG_PAN_ID=0xFFFF                       #
#                          -DNWK_START_DELAY=100 -DEXTENDED_JOINING_RANDOM_MA #
#                          SK=0x007F -DBEACON_REQUEST_DELAY=100               #
#                          -DBEACON_REQ_DELAY_MASK=0x00FF                     #
#                          -DROUTE_EXPIRY_TIME=30 -DAPSC_ACK_WAIT_DURATION_PO #
#                          LLED=3000 -DNWK_INDIRECT_MSG_TIMEOUT=7             #
#                          -DMAX_RREQ_ENTRIES=8 -DAPSC_MAX_FRAME_RETRIES=3    #
#                          -DNWK_MAX_DATA_RETRIES=2                           #
#                          -DMAX_POLL_FAILURE_RETRIES=2 -DMAX_BCAST=9         #
#                          -DAPS_MAX_GROUPS=16 -DMAX_RTG_ENTRIES=40           #
#                          -DNWK_MAX_BINDING_ENTRIES=4                        #
#                          -DMAX_BINDING_CLUSTER_IDS=4 "-DDEFAULT_KEY={0x01,  #
#                          0x03, 0x05, 0x07, 0x09, 0x0B, 0x0D, 0x0F, 0x00,    #
#                          0x02, 0x04, 0x06, 0x08, 0x0A, 0x0C, 0x0D}"         #
#                          -DMAC_MAX_FRAME_SIZE=116 "-DCONST=const __code"    #
#                          -DGENERIC=__generic -DRFD_RCVC_ALWAYS_ON=TRUE      #
#                          -DPOLL_RATE=1000 -DQUEUED_POLL_RATE=100            #
#                          -DRESPONSE_POLL_RATE=100) -DREJOIN_POLL_RATE=440   #
#                          "D:\µ{¦¡¶}µo\TI Zigbee Z-Stack\ZStack-CC2530-2.3.0 #
#                          -1.4.0\ZStack-CC2530-2.3.0-1.4.0\Components\stack\ #
#                          nwk\nwk_globals.c" -D NWK_AUTO_POLL -D             #
#                          HAL_UART=TRUE -D SERIAL_APP_PORT=0 -D              #
#                          LCD_SUPPORTED -D xPOWER_SAVING -lC                 #
#                          "D:\µ{¦¡¶}µo\TI Zigbee Z-Stack\ZStack-CC2530-2.3.0 #
#                          -1.4.0\ZStack-CC2530-2.3.0-1.4.0\Projects\zstack\U #
#                          tilities\SerialApp\CC2530DB\EndDeviceEB\List\"     #
#                          -lA "D:\µ{¦¡¶}µo\TI Zigbee                         #
#                          Z-Stack\ZStack-CC2530-2.3.0-1.4.0\ZStack-CC2530-2. #
#                          3.0-1.4.0\Projects\zstack\Utilities\SerialApp\CC25 #
#                          30DB\EndDeviceEB\List\" --diag_suppress            #
#                          Pe001,Pa010 -o "D:\µ{¦¡¶}µo\TI Zigbee              #
#                          Z-Stack\ZStack-CC2530-2.3.0-1.4.0\ZStack-CC2530-2. #
#                          3.0-1.4.0\Projects\zstack\Utilities\SerialApp\CC25 #
#                          30DB\EndDeviceEB\Obj\" -e --require_prototypes     #
#                          --debug --core=plain --dptr=16,1                   #
#                          --data_model=large --code_model=banked             #
#                          --calling_convention=xdata_reentrant               #
#                          --place_constants=data_rom --nr_virtual_regs 16    #
#                          -I "D:\µ{¦¡¶}µo\TI Zigbee                          #
#                          Z-Stack\ZStack-CC2530-2.3.0-1.4.0\ZStack-CC2530-2. #
#                          3.0-1.4.0\Projects\zstack\Utilities\SerialApp\CC25 #
#                          30DB\" -I "D:\µ{¦¡¶}µo\TI Zigbee                   #
#                          Z-Stack\ZStack-CC2530-2.3.0-1.4.0\ZStack-CC2530-2. #
#                          3.0-1.4.0\Projects\zstack\Utilities\SerialApp\CC25 #
#                          30DB\..\SOURCE\" -I "D:\µ{¦¡¶}µo\TI Zigbee         #
#                          Z-Stack\ZStack-CC2530-2.3.0-1.4.0\ZStack-CC2530-2. #
#                          3.0-1.4.0\Projects\zstack\Utilities\SerialApp\CC25 #
#                          30DB\..\..\..\ZMAIN\TI2530DB\" -I "D:\µ{¦¡¶}µo\TI  #
#                          Zigbee Z-Stack\ZStack-CC2530-2.3.0-1.4.0\ZStack-CC #
#                          2530-2.3.0-1.4.0\Projects\zstack\Utilities\SerialA #
#                          pp\CC2530DB\..\..\..\..\..\COMPONENTS\MT\" -I      #
#                          "D:\µ{¦¡¶}µo\TI Zigbee Z-Stack\ZStack-CC2530-2.3.0 #
#                          -1.4.0\ZStack-CC2530-2.3.0-1.4.0\Projects\zstack\U #
#                          tilities\SerialApp\CC2530DB\..\..\..\..\..\COMPONE #
#                          NTS\HAL\INCLUDE\" -I "D:\µ{¦¡¶}µo\TI Zigbee        #
#                          Z-Stack\ZStack-CC2530-2.3.0-1.4.0\ZStack-CC2530-2. #
#                          3.0-1.4.0\Projects\zstack\Utilities\SerialApp\CC25 #
#                          30DB\..\..\..\..\..\COMPONENTS\HAL\TARGET\CC2530EB #
#                          \" -I "D:\µ{¦¡¶}µo\TI Zigbee                       #
#                          Z-Stack\ZStack-CC2530-2.3.0-1.4.0\ZStack-CC2530-2. #
#                          3.0-1.4.0\Projects\zstack\Utilities\SerialApp\CC25 #
#                          30DB\..\..\..\..\..\COMPONENTS\OSAL\MCU\CCSOC\"    #
#                          -I "D:\µ{¦¡¶}µo\TI Zigbee                          #
#                          Z-Stack\ZStack-CC2530-2.3.0-1.4.0\ZStack-CC2530-2. #
#                          3.0-1.4.0\Projects\zstack\Utilities\SerialApp\CC25 #
#                          30DB\..\..\..\..\..\COMPONENTS\OSAL\INCLUDE\" -I   #
#                          "D:\µ{¦¡¶}µo\TI Zigbee Z-Stack\ZStack-CC2530-2.3.0 #
#                          -1.4.0\ZStack-CC2530-2.3.0-1.4.0\Projects\zstack\U #
#                          tilities\SerialApp\CC2530DB\..\..\..\..\..\COMPONE #
#                          NTS\STACK\AF\" -I "D:\µ{¦¡¶}µo\TI Zigbee           #
#                          Z-Stack\ZStack-CC2530-2.3.0-1.4.0\ZStack-CC2530-2. #
#                          3.0-1.4.0\Projects\zstack\Utilities\SerialApp\CC25 #
#                          30DB\..\..\..\..\..\COMPONENTS\STACK\NWK\" -I      #
#                          "D:\µ{¦¡¶}µo\TI Zigbee Z-Stack\ZStack-CC2530-2.3.0 #
#                          -1.4.0\ZStack-CC2530-2.3.0-1.4.0\Projects\zstack\U #
#                          tilities\SerialApp\CC2530DB\..\..\..\..\..\COMPONE #
#                          NTS\STACK\SEC\" -I "D:\µ{¦¡¶}µo\TI Zigbee          #
#                          Z-Stack\ZStack-CC2530-2.3.0-1.4.0\ZStack-CC2530-2. #
#                          3.0-1.4.0\Projects\zstack\Utilities\SerialApp\CC25 #
#                          30DB\..\..\..\..\..\COMPONENTS\STACK\SAPI\" -I     #
#                          "D:\µ{¦¡¶}µo\TI Zigbee Z-Stack\ZStack-CC2530-2.3.0 #
#                          -1.4.0\ZStack-CC2530-2.3.0-1.4.0\Projects\zstack\U #
#                          tilities\SerialApp\CC2530DB\..\..\..\..\..\COMPONE #
#                          NTS\STACK\SYS\" -I "D:\µ{¦¡¶}µo\TI Zigbee          #
#                          Z-Stack\ZStack-CC2530-2.3.0-1.4.0\ZStack-CC2530-2. #
#                          3.0-1.4.0\Projects\zstack\Utilities\SerialApp\CC25 #
#                          30DB\..\..\..\..\..\COMPONENTS\STACK\ZDO\" -I      #
#                          "D:\µ{¦¡¶}µo\TI Zigbee Z-Stack\ZStack-CC2530-2.3.0 #
#                          -1.4.0\ZStack-CC2530-2.3.0-1.4.0\Projects\zstack\U #
#                          tilities\SerialApp\CC2530DB\..\..\..\..\..\COMPONE #
#                          NTS\ZMAC\F8W\" -I "D:\µ{¦¡¶}µo\TI Zigbee           #
#                          Z-Stack\ZStack-CC2530-2.3.0-1.4.0\ZStack-CC2530-2. #
#                          3.0-1.4.0\Projects\zstack\Utilities\SerialApp\CC25 #
#                          30DB\..\..\..\..\..\COMPONENTS\ZMAC\" -I           #
#                          "D:\µ{¦¡¶}µo\TI Zigbee Z-Stack\ZStack-CC2530-2.3.0 #
#                          -1.4.0\ZStack-CC2530-2.3.0-1.4.0\Projects\zstack\U #
#                          tilities\SerialApp\CC2530DB\..\..\..\..\..\COMPONE #
#                          NTS\SERVICES\SADDR\" -I "D:\µ{¦¡¶}µo\TI Zigbee     #
#                          Z-Stack\ZStack-CC2530-2.3.0-1.4.0\ZStack-CC2530-2. #
#                          3.0-1.4.0\Projects\zstack\Utilities\SerialApp\CC25 #
#                          30DB\..\..\..\..\..\COMPONENTS\SERVICES\SDATA\"    #
#                          -I "D:\µ{¦¡¶}µo\TI Zigbee                          #
#                          Z-Stack\ZStack-CC2530-2.3.0-1.4.0\ZStack-CC2530-2. #
#                          3.0-1.4.0\Projects\zstack\Utilities\SerialApp\CC25 #
#                          30DB\..\..\..\..\..\COMPONENTS\MAC\INCLUDE\" -I    #
#                          "D:\µ{¦¡¶}µo\TI Zigbee Z-Stack\ZStack-CC2530-2.3.0 #
#                          -1.4.0\ZStack-CC2530-2.3.0-1.4.0\Projects\zstack\U #
#                          tilities\SerialApp\CC2530DB\..\..\..\..\..\COMPONE #
#                          NTS\MAC\HIGH_LEVEL\" -I "D:\µ{¦¡¶}µo\TI Zigbee     #
#                          Z-Stack\ZStack-CC2530-2.3.0-1.4.0\ZStack-CC2530-2. #
#                          3.0-1.4.0\Projects\zstack\Utilities\SerialApp\CC25 #
#                          30DB\..\..\..\..\..\COMPONENTS\MAC\LOW_LEVEL\srf04 #
#                          \" -I "D:\µ{¦¡¶}µo\TI Zigbee                       #
#                          Z-Stack\ZStack-CC2530-2.3.0-1.4.0\ZStack-CC2530-2. #
#                          3.0-1.4.0\Projects\zstack\Utilities\SerialApp\CC25 #
#                          30DB\..\..\..\..\..\COMPONENTS\MAC\LOW_LEVEL\srf04 #
#                          \SINGLE_CHIP\" -I "C:\IAR Systems\Embedded         #
#                          Workbench 5.3\8051\INC\" -I "C:\IAR                #
#                          Systems\Embedded Workbench 5.3\8051\INC\CLIB\"     #
#                          -Ohz                                               #
#    List file          =  D:\µ{¦¡¶}µo\TI Zigbee Z-Stack\ZStack-CC2530-2.3.0- #
#                          1.4.0\ZStack-CC2530-2.3.0-1.4.0\Projects\zstack\Ut #
#                          ilities\SerialApp\CC2530DB\EndDeviceEB\List\nwk_gl #
#                          obals.lst                                          #
#    Object file        =  D:\µ{¦¡¶}µo\TI Zigbee Z-Stack\ZStack-CC2530-2.3.0- #
#                          1.4.0\ZStack-CC2530-2.3.0-1.4.0\Projects\zstack\Ut #
#                          ilities\SerialApp\CC2530DB\EndDeviceEB\Obj\nwk_glo #
#                          bals.r51                                           #
#                                                                             #
#                                                                             #
###############################################################################

D:\µ{¦¡¶}µo\TI Zigbee Z-Stack\ZStack-CC2530-2.3.0-1.4.0\ZStack-CC2530-2.3.0-1.4.0\Components\stack\nwk\nwk_globals.c
      1          /**************************************************************************************************
      2            Filename:       nwk_globals.c
      3            Revised:        $Date: 2010-01-11 09:24:44 -0800 (Mon, 11 Jan 2010) $
      4            Revision:       $Revision: 21474 $
      5          
      6            Description:    User definable Network Parameters.
      7          
      8          
      9            Copyright 2004-2009 Texas Instruments Incorporated. All rights reserved.
     10          
     11            IMPORTANT: Your use of this Software is limited to those specific rights
     12            granted under the terms of a software license agreement between the user
     13            who downloaded the software, his/her employer (which must be your employer)
     14            and Texas Instruments Incorporated (the "License").  You may not use this
     15            Software unless you agree to abide by the terms of the License. The License
     16            limits your use, and you acknowledge, that the Software may not be modified,
     17            copied or distributed unless embedded on a Texas Instruments microcontroller
     18            or used solely and exclusively in conjunction with a Texas Instruments radio
     19            frequency transceiver, which is integrated into your product.  Other than for
     20            the foregoing purpose, you may not use, reproduce, copy, prepare derivative
     21            works of, modify, distribute, perform, display or sell this Software and/or
     22            its documentation for any purpose.
     23          
     24            YOU FURTHER ACKNOWLEDGE AND AGREE THAT THE SOFTWARE AND DOCUMENTATION ARE
     25            PROVIDED “AS IS?WITHOUT WARRANTY OF ANY KIND, EITHER EXPRESS OR IMPLIED, 
     26            INCLUDING WITHOUT LIMITATION, ANY WARRANTY OF MERCHANTABILITY, TITLE, 
     27            NON-INFRINGEMENT AND FITNESS FOR A PARTICULAR PURPOSE. IN NO EVENT SHALL
     28            TEXAS INSTRUMENTS OR ITS LICENSORS BE LIABLE OR OBLIGATED UNDER CONTRACT,
     29            NEGLIGENCE, STRICT LIABILITY, CONTRIBUTION, BREACH OF WARRANTY, OR OTHER
     30            LEGAL EQUITABLE THEORY ANY DIRECT OR INDIRECT DAMAGES OR EXPENSES
     31            INCLUDING BUT NOT LIMITED TO ANY INCIDENTAL, SPECIAL, INDIRECT, PUNITIVE
     32            OR CONSEQUENTIAL DAMAGES, LOST PROFITS OR LOST DATA, COST OF PROCUREMENT
     33            OF SUBSTITUTE GOODS, TECHNOLOGY, SERVICES, OR ANY CLAIMS BY THIRD PARTIES
     34            (INCLUDING BUT NOT LIMITED TO ANY DEFENSE THEREOF), OR OTHER SIMILAR COSTS.
     35          
     36            Should you have any questions regarding your right to use this Software,
     37            contact Texas Instruments Incorporated at www.TI.com. 
     38          **************************************************************************************************/
     39          
     40          /*********************************************************************
     41           * INCLUDES
     42           */
     43          #include "ZComdef.h"
     44          #include "OSAL.h"
     45          #include "AddrMgr.h"
     46          #include "AssocList.h"
     47          #include "BindingTable.h"
     48          #include "nwk_util.h"
     49          #include "nwk_globals.h"
     50          #include "APS.h"
     51          #include "ssp.h"
     52          #include "rtg.h"
     53          #include "ZDConfig.h"
     54          #include "ZGlobals.h"
     55          
     56          #if defined ( LCD_SUPPORTED )
     57            #include "OnBoard.h"
     58          #endif
     59          
     60          /* HAL */
     61          #include "hal_lcd.h"
     62          #include "hal_keypad.h"
     63          
     64          /*********************************************************************
     65           * MACROS
     66           */
     67          
     68          /*********************************************************************
     69           * CONSTANTS
     70           */
     71          
     72          // Maximums for the data buffer queue
     73          #define NWK_MAX_DATABUFS_WAITING    8     // Waiting to be sent to MAC
     74          #define NWK_MAX_DATABUFS_SCHEDULED  5     // Timed messages to be sent
     75          #define NWK_MAX_DATABUFS_CONFIRMED  5     // Held after MAC confirms
     76          #define NWK_MAX_DATABUFS_TOTAL      12    // Total number of buffers
     77          
     78          // 1-255 (0 -> 256) X RTG_TIMER_INTERVAL
     79          // A known shortcoming is that when a message is enqueued as "hold" for a
     80          // sleeping device, the timer tick may have counted down to 1, so that msg
     81          // will not be held as long as expected. If NWK_INDIRECT_MSG_TIMEOUT is set to 1
     82          // the hold time will vary randomly from 0 - CNT_RTG_TIMER ticks.
     83          // So the hold time will vary within this interval:
     84          // { (NWK_INDIRECT_MSG_TIMEOUT-1)*CNT_RTG_TIMER,
     85          //                                    NWK_INDIRECT_MSG_TIMEOUT*CNT_RTG_TIMER }
     86          #define NWK_INDIRECT_CNT_RTG_TMR    1
     87          // To hold msg for sleeping end devices for 30 secs:
     88          // #define CNT_RTG_TIMER            1
     89          // #define NWK_INDIRECT_MSG_TIMEOUT 30
     90          // To hold msg for sleeping end devices for 30 mins:
     91          // #define CNT_RTG_TIMER            60
     92          // #define NWK_INDIRECT_MSG_TIMEOUT 30
     93          // To hold msg for sleeping end devices for 30 days:
     94          // #define CNT_RTG_TIMER            60
     95          // #define NWK_INDIRECT_MSG_TIMEOUT (30 * 24 * 60)
     96          // Maximum msgs to hold per associated device.
     97          #define NWK_INDIRECT_MSG_MAX_PER    3
     98          // Maximum total msgs to hold for all associated devices.
     99          #define NWK_INDIRECT_MSG_MAX_ALL    \
    100                                      (NWK_MAX_DATABUFS_TOTAL - NWK_INDIRECT_MSG_MAX_PER)
    101          
    102          /*********************************************************************
    103           * TYPEDEFS
    104           */
    105          
    106          /*********************************************************************
    107           * NWK GLOBAL VARIABLES
    108           */
    109          
    110          // Variables for MAX list size

   \                                 In  segment CODE_C, align 1
    111          CONST uint16 gNWK_MAX_DEVICE_LIST = NWK_MAX_DEVICES;
   \                     gNWK_MAX_DEVICE_LIST:
   \   000000   1500         DW 21
    112          
    113          // Variables for MAX Sleeping End Devices

   \                                 In  segment CODE_C, align 1
    114          CONST uint8 gNWK_MAX_SLEEPING_END_DEVICES = NWK_MAX_DEVICES - NWK_MAX_ROUTERS;
   \                     gNWK_MAX_SLEEPING_END_DEVICES:
   \   000000   0F           DB 15
    115          
    116          // Variables for MAX data buffer levels

   \                                 In  segment CODE_C, align 1
    117          CONST uint8 gNWK_MAX_DATABUFS_WAITING = NWK_MAX_DATABUFS_WAITING;
   \                     gNWK_MAX_DATABUFS_WAITING:
   \   000000   08           DB 8

   \                                 In  segment CODE_C, align 1
    118          CONST uint8 gNWK_MAX_DATABUFS_SCHEDULED = NWK_MAX_DATABUFS_SCHEDULED;
   \                     gNWK_MAX_DATABUFS_SCHEDULED:
   \   000000   05           DB 5

   \                                 In  segment CODE_C, align 1
    119          CONST uint8 gNWK_MAX_DATABUFS_CONFIRMED = NWK_MAX_DATABUFS_CONFIRMED;
   \                     gNWK_MAX_DATABUFS_CONFIRMED:
   \   000000   05           DB 5

   \                                 In  segment CODE_C, align 1
    120          CONST uint8 gNWK_MAX_DATABUFS_TOTAL = NWK_MAX_DATABUFS_TOTAL;
   \                     gNWK_MAX_DATABUFS_TOTAL:
   \   000000   0C           DB 12
    121          

   \                                 In  segment CODE_C, align 1
    122          CONST uint8 gNWK_INDIRECT_CNT_RTG_TMR = NWK_INDIRECT_CNT_RTG_TMR;
   \                     gNWK_INDIRECT_CNT_RTG_TMR:
   \   000000   01           DB 1

   \                                 In  segment CODE_C, align 1
    123          CONST uint8 gNWK_INDIRECT_MSG_MAX_PER = NWK_INDIRECT_MSG_MAX_PER;
   \                     gNWK_INDIRECT_MSG_MAX_PER:
   \   000000   03           DB 3

   \                                 In  segment CODE_C, align 1
    124          CONST uint8 gNWK_INDIRECT_MSG_MAX_ALL = NWK_INDIRECT_MSG_MAX_ALL;
   \                     gNWK_INDIRECT_MSG_MAX_ALL:
   \   000000   09           DB 9
    125          
    126          // change this if using a different stack profile...
    127          // Cskip array

   \                                 In  segment XDATA_Z, align 1, keep-with-next
    128          uint16 *Cskip;
   \                     Cskip:
   \   000000                DS 2
   \   000002                REQUIRE __INIT_XDATA_Z
    129          
    130          #if ( STACK_PROFILE_ID == ZIGBEEPRO_PROFILE )
    131            uint8 CskipRtrs[1] = {0};
    132            uint8 CskipChldrn[1] = {0};
    133          #elif ( STACK_PROFILE_ID == HOME_CONTROLS )

   \                                 In  segment XDATA_I, align 1, keep-with-next
    134            uint8 CskipRtrs[MAX_NODE_DEPTH+1] = {6,6,6,6,6,0};
   \                     CskipRtrs:
   \   000000                DS 6
   \   000006                REQUIRE `?<Initializer for CskipRtrs>`
   \   000006                REQUIRE __INIT_XDATA_I

   \                                 In  segment XDATA_I, align 1, keep-with-next
    135            uint8 CskipChldrn[MAX_NODE_DEPTH+1] = {20,20,20,20,20,0};
   \                     CskipChldrn:
   \   000000                DS 6
   \   000006                REQUIRE `?<Initializer for CskipChldrn>`
   \   000006                REQUIRE __INIT_XDATA_I
    136          #elif ( STACK_PROFILE_ID == GENERIC_STAR )
    137            uint8 CskipRtrs[MAX_NODE_DEPTH+1] = {5,5,5,5,5,0};
    138            uint8 CskipChldrn[MAX_NODE_DEPTH+1] = {5,5,5,5,5,0};
    139          #elif ( STACK_PROFILE_ID == NETWORK_SPECIFIC )
    140            uint8 CskipRtrs[MAX_NODE_DEPTH+1] = {5,5,5,5,5,0};
    141            uint8 CskipChldrn[MAX_NODE_DEPTH+1] = {5,5,5,5,5,0};
    142          #endif // STACK_PROFILE_ID
    143          
    144          // Minimum lqi value that is required for association

   \                                 In  segment XDATA_I, align 1, keep-with-next
    145          uint8 gMIN_TREE_LINK_COST = MIN_LQI_COST_3;
   \                     gMIN_TREE_LINK_COST:
   \   000000                DS 1
   \   000001                REQUIRE `?<Initializer for gMIN_TREE_LINK_COST>`
   \   000001                REQUIRE __INIT_XDATA_I
    146          
    147          // Statically defined Associated Device List

   \                                 In  segment XDATA_Z, align 1, keep-with-next
    148          associated_devices_t AssociatedDevList[NWK_MAX_DEVICES];
   \                     AssociatedDevList:
   \   000000                DS 378
   \   00017A                REQUIRE __INIT_XDATA_Z
    149          

   \                                 In  segment CODE_C, align 1
    150          CONST uint8 gMAX_RTG_ENTRIES = MAX_RTG_ENTRIES;
   \                     gMAX_RTG_ENTRIES:
   \   000000   28           DB 40

   \                                 In  segment CODE_C, align 1
    151          CONST uint8 gMAX_RTG_SRC_ENTRIES = MAX_RTG_SRC_ENTRIES;
   \                     gMAX_RTG_SRC_ENTRIES:
   \   000000   0C           DB 12

   \                                 In  segment CODE_C, align 1
    152          CONST uint8 gMAX_RREQ_ENTRIES = MAX_RREQ_ENTRIES;
   \                     gMAX_RREQ_ENTRIES:
   \   000000   08           DB 8
    153          

   \                                 In  segment CODE_C, align 1
    154          CONST uint8 gMAX_NEIGHBOR_ENTRIES = MAX_NEIGHBOR_ENTRIES;
   \                     gMAX_NEIGHBOR_ENTRIES:
   \   000000   04           DB 4
    155          
    156           // Table of neighboring nodes (not including child nodes)

   \                                 In  segment XDATA_Z, align 1, keep-with-next
    157          neighborEntry_t neighborTable[MAX_NEIGHBOR_ENTRIES];
   \                     neighborTable:
   \   000000                DS 92
   \   00005C                REQUIRE __INIT_XDATA_Z
    158          

   \                                 In  segment CODE_C, align 1
    159          CONST uint8 gMAX_SOURCE_ROUTE = MAX_SOURCE_ROUTE;
   \                     gMAX_SOURCE_ROUTE:
   \   000000   0C           DB 12
    160          

   \                                 In  segment CODE_C, align 1
    161          CONST uint8 gMAX_BROADCAST_QUEUED = MAX_BROADCAST_QUEUED;
   \                     gMAX_BROADCAST_QUEUED:
   \   000000   0A           DB 10
    162          
    163          // Routing table

   \                                 In  segment XDATA_Z, align 1, keep-with-next
    164          rtgEntry_t rtgTable[MAX_RTG_ENTRIES];
   \                     rtgTable:
   \   000000                DS 280
   \   000118                REQUIRE __INIT_XDATA_Z
    165          
    166          #if defined ( ZIGBEE_SOURCE_ROUTING )
    167            rtgSrcEntry_t rtgSrcTable[MAX_RTG_SRC_ENTRIES];
    168            uint16 rtgSrcRelayList[MAX_SOURCE_ROUTE];
    169          #endif
    170          
    171          // Table of current RREQ packets in the network

   \                                 In  segment XDATA_Z, align 1, keep-with-next
    172          rtDiscEntry_t rtDiscTable[MAX_RREQ_ENTRIES];
   \                     rtDiscTable:
   \   000000                DS 64
   \   000040                REQUIRE __INIT_XDATA_Z
    173          
    174          // Table of data broadcast packets currently in circulation.

   \                                 In  segment XDATA_Z, align 1, keep-with-next
    175          bcastEntry_t bcastTable[MAX_BCAST];
   \                     bcastTable:
   \   000000                DS 72
   \   000048                REQUIRE __INIT_XDATA_Z
    176          
    177          // These 2 arrays are to be used as an array of struct { uint8, uint32 }.

   \                                 In  segment XDATA_Z, align 1, keep-with-next
    178          uint8 bcastHoldHandle[MAX_BCAST];
   \                     bcastHoldHandle:
   \   000000                DS 9
   \   000009                REQUIRE __INIT_XDATA_Z

   \                                 In  segment XDATA_Z, align 1, keep-with-next
    179          uint32 bcastHoldAckMask[MAX_BCAST];
   \                     bcastHoldAckMask:
   \   000000                DS 36
   \   000024                REQUIRE __INIT_XDATA_Z
    180          

   \                                 In  segment CODE_C, align 1
    181          CONST uint8 gMAX_BCAST = MAX_BCAST;
   \                     gMAX_BCAST:
   \   000000   09           DB 9
    182          
    183          // For tree addressing, this switch allows the allocation of a 
    184          // router address to an end device when end device address are 
    185          // all used up.  If this option is enabled, address space
    186          // could be limited.

   \                                 In  segment CODE_C, align 1
    187          CONST uint8 gNWK_TREE_ALLOCATE_ROUTERADDR_FOR_ENDDEVICE = FALSE;
   \                     gNWK_TREE_ALLOCATE_ROUTERADDR_FOR_ENDDEVICE:
   \   000000   00           DB 0
    188          
    189          #if defined ( ZIGBEE_STOCHASTIC_ADDRESSING )
    190          // number of link status periods after the last received address conflict report
    191          // (network status command)
    192          CONST uint8 gNWK_CONFLICTED_ADDR_EXPIRY_TIME = NWK_CONFLICTED_ADDR_EXPIRY_TIME;
    193          #endif
    194          
    195          #if defined ( ZIGBEE_FREQ_AGILITY )
    196          CONST uint8 gNWK_FREQ_AGILITY_ALL_MAC_ERRS = NWK_FREQ_AGILITY_ALL_MAC_ERRS;
    197          #endif
    198            
    199          /*********************************************************************
    200           * APS GLOBAL VARIABLES
    201           */
    202          
    203          // The Maximum number of binding records
    204          // This number is defined in BindingTable.h - change it there.

   \                                 In  segment CODE_C, align 1
    205          CONST uint16 gNWK_MAX_BINDING_ENTRIES = NWK_MAX_BINDING_ENTRIES;
   \                     gNWK_MAX_BINDING_ENTRIES:
   \   000000   0400         DW 4
    206          
    207          #if defined ( REFLECTOR )
    208            // The Maximum number of cluster IDs in a binding record
    209            // This number is defined in BindingTable.h - change it there.

   \                                 In  segment CODE_C, align 1
    210            CONST uint8 gMAX_BINDING_CLUSTER_IDS = MAX_BINDING_CLUSTER_IDS;
   \                     gMAX_BINDING_CLUSTER_IDS:
   \   000000   04           DB 4
    211          

   \                                 In  segment CODE_C, align 1
    212            CONST uint16 gBIND_REC_SIZE = sizeof( BindingEntry_t );
   \                     gBIND_REC_SIZE:
   \   000000   0E00         DW 14
    213          
    214            // Binding Table

   \                                 In  segment XDATA_Z, align 1, keep-with-next
    215            BindingEntry_t BindingTable[NWK_MAX_BINDING_ENTRIES];
   \                     BindingTable:
   \   000000                DS 56
   \   000038                REQUIRE __INIT_XDATA_Z
    216          #endif
    217          
    218          // Maximum number allowed in the groups table.

   \                                 In  segment CODE_C, align 1
    219          CONST uint8 gAPS_MAX_GROUPS = APS_MAX_GROUPS;
   \                     gAPS_MAX_GROUPS:
   \   000000   10           DB 16
    220          
    221          // APS End Device Broadcast Table
    222          #if ( ZG_BUILD_ENDDEVICE_TYPE )

   \                                 In  segment XDATA_Z, align 1, keep-with-next
    223            apsEndDeviceBroadcast_t apsEndDeviceBroadcastTable[APS_MAX_ENDDEVICE_BROADCAST_ENTRIES];
   \                     apsEndDeviceBroadcastTable:
   \   000000                DS 90
   \   00005A                REQUIRE __INIT_XDATA_Z

   \                                 In  segment XDATA_I, align 1, keep-with-next
    224            uint8 gAPS_MAX_ENDDEVICE_BROADCAST_ENTRIES = APS_MAX_ENDDEVICE_BROADCAST_ENTRIES;
   \                     gAPS_MAX_ENDDEVICE_BROADCAST_ENTRIES:
   \   000000                DS 1
   \   000001                REQUIRE `?<Initializer for gAPS_MAX_ENDDEVICE_BROADCAST`
   \   000001                REQUIRE __INIT_XDATA_I
    225          #endif
    226          
    227          /*********************************************************************
    228           * SECURITY GLOBAL VARIABLES
    229           */
    230          
    231          // This is the default pre-configured key,
    232          // change this to make a unique key
    233          // SEC_KEY_LEN is defined in ssp.h.

   \                                 In  segment CODE_C, align 1
    234          CONST uint8 defaultKey[SEC_KEY_LEN] =
   \                     defaultKey:
   \   000000   00010203     DB 0, 1, 2, 3, 4, 5, 6, 7, 8, 9, 10, 11, 12, 13, 14, 15
   \            04050607
   \            08090A0B
   \            0C0D0E0F
    235          {
    236          #if defined ( APP_TP ) || defined ( APP_TP2 )
    237            // Key for ZigBee Conformance Testing
    238            0xbb, 0xbb, 0xbb, 0xbb, 0xbb, 0xbb, 0xbb, 0xbb,
    239            0xaa, 0xaa, 0xaa, 0xaa, 0xaa, 0xaa, 0xaa, 0xaa
    240          #else
    241            // Key for In-House Testing
    242            0x00, 0x01, 0x02, 0x03, 0x04, 0x05, 0x06, 0x07,
    243            0x08, 0x09, 0x0A, 0x0B, 0x0C, 0x0D, 0x0E, 0x0F
    244          #endif
    245          };
    246          
    247          // This is the default pre-configured Trust Center Link key,
    248          // change this to make a unique key, SEC_KEY_LEN is defined in ssp.h.

   \                                 In  segment CODE_C, align 1
    249          CONST uint8 defaultTCLinkKey[SEC_KEY_LEN] =
   \                     defaultTCLinkKey:
   \   000000   56777777     DB 86, 119, 119, 119, 119, 119, 119, 119, 119, 119, 119, 119, 119, 119
   \            77777777
   \            77777777
   \            7777    
   \   00000E   7777         DB 119, 119
    250          {
    251            0x56, 0x77, 0x77, 0x77, 0x77, 0x77, 0x77, 0x77,
    252            0x77, 0x77, 0x77, 0x77, 0x77, 0x77, 0x77, 0x77
    253          };
    254          
    255          /*********************************************************************
    256           * STATUS STRINGS
    257           */
    258          #if defined ( LCD_SUPPORTED )

   \                                 In  segment XDATA_ROM_C, align 1
    259            const char PingStr[]         = "Ping Rcvd from";
   \                     PingStr:
   \   000000   50696E67     DB "Ping Rcvd from"
   \            20526376
   \            64206672
   \            6F6D00  

   \                                 In  segment XDATA_ROM_C, align 1
    260            const char AssocCnfStr[]     = "Assoc Cnf";
   \                     AssocCnfStr:
   \   000000   4173736F     DB "Assoc Cnf"
   \            6320436E
   \            6600    

   \                                 In  segment XDATA_ROM_C, align 1
    261            const char SuccessStr[]      = "Success";
   \                     SuccessStr:
   \   000000   53756363     DB "Success"
   \            65737300

   \                                 In  segment XDATA_ROM_C, align 1
    262            const char EndDeviceStr[]    = "EndDevice:";
   \                     EndDeviceStr:
   \   000000   456E6444     DB "EndDevice:"
   \            65766963
   \            653A00  

   \                                 In  segment XDATA_ROM_C, align 1
    263            const char ParentStr[]       = "Parent:";
   \                     ParentStr:
   \   000000   50617265     DB "Parent:"
   \            6E743A00

   \                                 In  segment XDATA_ROM_C, align 1
    264            const char ZigbeeCoordStr[]  = "ZigBee Coord";
   \                     ZigbeeCoordStr:
   \   000000   5A696742     DB "ZigBee Coord"
   \            65652043
   \            6F6F7264
   \            00      

   \                                 In  segment XDATA_ROM_C, align 1
    265            const char NetworkIDStr[]    = "Network ID:";
   \                     NetworkIDStr:
   \   000000   4E657477     DB "Network ID:"
   \            6F726B20
   \            49443A00

   \                                 In  segment XDATA_ROM_C, align 1
    266            const char RouterStr[]       = "Router:";
   \                     RouterStr:
   \   000000   526F7574     DB "Router:"
   \            65723A00

   \                                 In  segment XDATA_ROM_C, align 1
    267            const char OrphanRspStr[]    = "Orphan Response";
   \                     OrphanRspStr:
   \   000000   4F727068     DB "Orphan Response"
   \            616E2052
   \            6573706F
   \            6E736500

   \                                 In  segment XDATA_ROM_C, align 1
    268            const char SentStr[]         = "Sent";
   \                     SentStr:
   \   000000   53656E74     DB "Sent"
   \            00      

   \                                 In  segment XDATA_ROM_C, align 1
    269            const char FailedStr[]       = "Failed";
   \                     FailedStr:
   \   000000   4661696C     DB "Failed"
   \            656400  

   \                                 In  segment XDATA_ROM_C, align 1
    270            const char AssocRspFailStr[] = "Assoc Rsp fail";
   \                     AssocRspFailStr:
   \   000000   4173736F     DB "Assoc Rsp fail"
   \            63205273
   \            70206661
   \            696C00  

   \                                 In  segment XDATA_ROM_C, align 1
    271            const char AssocIndStr[]     = "Assoc Ind";
   \                     AssocIndStr:
   \   000000   4173736F     DB "Assoc Ind"
   \            6320496E
   \            6400    

   \                                 In  segment XDATA_ROM_C, align 1
    272            const char AssocCnfFailStr[] = "Assoc Cnf fail";
   \                     AssocCnfFailStr:
   \   000000   4173736F     DB "Assoc Cnf fail"
   \            6320436E
   \            66206661
   \            696C00  

   \                                 In  segment XDATA_ROM_C, align 1
    273            const char EnergyLevelStr[]  = "Energy Level";
   \                     EnergyLevelStr:
   \   000000   456E6572     DB "Energy Level"
   \            6779204C
   \            6576656C
   \            00      

   \                                 In  segment XDATA_ROM_C, align 1
    274            const char ScanFailedStr[]   = "Scan Failed";
   \                     ScanFailedStr:
   \   000000   5363616E     DB "Scan Failed"
   \            20466169
   \            6C656400
    275          #endif
    276          
    277          /*********************************************************************
    278           * @fn       nwk_globals_init()
    279           *
    280           * @brief
    281           *
    282           *   Initialize nwk layer globals.  These are the system defaults and
    283           *   should be changed by the user here.  The default definitions are
    284           *   defined in nwk.h or NLMEDE.h.
    285           *
    286           * @param   none
    287           *
    288           * @return  none
    289           */

   \                                 In  segment BANKED_CODE, align 1, keep-with-next
    290          void nwk_globals_init( void )
   \                     nwk_globals_init:
    291          {
   \   000000   C082         PUSH    DPL
   \   000002   C083         PUSH    DPH
   \   000004                ; Saved register size: 2
   \   000004                ; Auto size: 0
    292            AddrMgrInit( NWK_MAX_ADDRESSES );
   \   000004                ; Setup parameters for call to function AddrMgrInit
   \   000004   7A1A         MOV     R2,#0x1a
   \   000006   7B00         MOV     R3,#0x0
   \   000008   12....       LCALL   ??AddrMgrInit?relay
    293            
    294          #if !defined ( ZIGBEE_STOCHASTIC_ADDRESSING )
    295            if ( ZSTACK_ROUTER_BUILD )
    296            {
    297              // Initialize the Cskip Table
    298              Cskip = osal_mem_alloc(sizeof(uint16) *(MAX_NODE_DEPTH+1));
    299              RTG_FillCSkipTable(CskipChldrn, CskipRtrs, MAX_NODE_DEPTH, Cskip);
    300            }
    301          #endif
    302            
    303            // To compile out the Link Status Feature, set NWK_LINK_STATUS_PERIOD
    304            // to 0 (compiler flag).
    305            if ( ZSTACK_ROUTER_BUILD && NWK_LINK_STATUS_PERIOD )
    306            {
    307              NLME_InitLinkStatus();
    308            }
    309            
    310          #if defined ( ZIGBEE_FREQ_AGILITY )
    311            NwkFreqAgilityInit();
    312          #endif
    313          }
   \   00000B                REQUIRE ?Subroutine0
   \   00000B                ; // Fall through to label ?Subroutine0

   \                                 In  segment BANKED_CODE, align 1, keep-with-next
   \                     ?Subroutine0:
   \   000000   D083         POP     DPH
   \   000002   D082         POP     DPL
   \   000004   02....       LJMP    ?BRET
    314          
    315          /*********************************************************************
    316           * @fn       NIB_init()
    317           *
    318           * @brief
    319           *
    320           *   Initialize attribute values in NIB
    321           *
    322           * @param   none
    323           *
    324           * @return  none
    325           */

   \                                 In  segment BANKED_CODE, align 1, keep-with-next
    326          void NIB_init()
   \                     NIB_init:
    327          {
   \   000000   C082         PUSH    DPL
   \   000002   C083         PUSH    DPH
   \   000004                ; Saved register size: 2
   \   000004                ; Auto size: 0
    328            _NIB.SequenceNum = LO_UINT16(osal_rand());
   \   000004                ; Setup parameters for call to function osal_rand
   \   000004   12....       LCALL   ??osal_rand?relay
   \   000007   EA           MOV     A,R2
   \   000008   90....       MOV     DPTR,#_NIB
   \   00000B   F0           MOVX    @DPTR,A
    329          
    330            _NIB.nwkProtocolVersion = ZB_PROT_VERS;
   \   00000C   7402         MOV     A,#0x2
   \   00000E   90....       MOV     DPTR,#(_NIB + 17)
   \   000011   F0           MOVX    @DPTR,A
    331            _NIB.MaxDepth = MAX_NODE_DEPTH;
   \   000012   7405         MOV     A,#0x5
   \   000014   90....       MOV     DPTR,#(_NIB + 4)
   \   000017   F0           MOVX    @DPTR,A
    332          
    333          #if ( NWK_MODE == NWK_MODE_MESH )
    334            _NIB.beaconOrder = BEACON_ORDER_NO_BEACONS;
   \   000018   740F         MOV     A,#0xf
   \   00001A   90....       MOV     DPTR,#(_NIB + 40)
   \   00001D   F0           MOVX    @DPTR,A
    335            _NIB.superFrameOrder = BEACON_ORDER_NO_BEACONS;
   \   00001E   90....       MOV     DPTR,#(_NIB + 41)
   \   000021   F0           MOVX    @DPTR,A
    336          #endif
    337          
    338            // BROADCAST SETTINGS:
    339            // *******************
    340            //   Broadcast Delivery Time
    341            //     - set to multiples of 100ms 
    342            //     - should be 500ms more than the retry time
    343            //       -  "retry time" = PassiveAckTimeout * (MaxBroadcastRetries + 1)
    344            //   Passive Ack Timeout
    345            //     - set to multiples of 100ms 
    346            _NIB.BroadcastDeliveryTime = zgBcastDeliveryTime;
   \   000022   90....       MOV     DPTR,#zgBcastDeliveryTime
   \   000025   E0           MOVX    A,@DPTR
   \   000026   90....       MOV     DPTR,#(_NIB + 7)
   \   000029   F0           MOVX    @DPTR,A
    347            _NIB.PassiveAckTimeout     = zgPassiveAckTimeout;
   \   00002A   90....       MOV     DPTR,#zgPassiveAckTimeout
   \   00002D   E0           MOVX    A,@DPTR
   \   00002E   90....       MOV     DPTR,#(_NIB + 1)
   \   000031   F0           MOVX    @DPTR,A
    348            _NIB.MaxBroadcastRetries   = zgMaxBcastRetires;
   \   000032   90....       MOV     DPTR,#zgMaxBcastRetires
   \   000035   E0           MOVX    A,@DPTR
   \   000036   90....       MOV     DPTR,#(_NIB + 2)
   \   000039   F0           MOVX    @DPTR,A
    349          
    350            _NIB.ReportConstantCost = 0;
   \   00003A   E4           CLR     A
   \   00003B   90....       MOV     DPTR,#(_NIB + 8)
   \   00003E   F0           MOVX    @DPTR,A
    351            _NIB.RouteDiscRetries = 0;
   \   00003F   90....       MOV     DPTR,#(_NIB + 9)
   \   000042   F0           MOVX    @DPTR,A
    352            _NIB.SecureAllFrames = USE_NWK_SECURITY;
   \   000043   90....       MOV     DPTR,#(_NIB + 11)
   \   000046   F0           MOVX    @DPTR,A
    353            _NIB.nwkAllFresh = NWK_ALL_FRESH;
   \   000047   7401         MOV     A,#0x1
   \   000049   90....       MOV     DPTR,#(_NIB + 104)
   \   00004C   F0           MOVX    @DPTR,A
    354             
    355            if ( ZG_SECURE_ENABLED )
    356            {
    357              _NIB.SecurityLevel = SECURITY_LEVEL;
    358            }
    359            else
    360            {
    361              _NIB.SecurityLevel = 0;
   \   00004D   E4           CLR     A
   \   00004E   90....       MOV     DPTR,#(_NIB + 12)
   \   000051   F0           MOVX    @DPTR,A
    362            }
    363             
    364          #if defined ( ZIGBEEPRO )
    365            _NIB.SymLink = FALSE;
    366          #else
    367            _NIB.SymLink = TRUE;
   \   000052   7401         MOV     A,#0x1
   \   000054   90....       MOV     DPTR,#(_NIB + 13)
   \   000057   F0           MOVX    @DPTR,A
    368          #endif  
    369            
    370            _NIB.CapabilityInfo = ZDO_Config_Node_Descriptor.CapabilityFlags;
   \   000058   90....       MOV     DPTR,#(ZDO_Config_Node_Descriptor + 2)
   \   00005B   E0           MOVX    A,@DPTR
   \   00005C   90....       MOV     DPTR,#(_NIB + 14)
   \   00005F   F0           MOVX    @DPTR,A
    371          
    372            _NIB.TransactionPersistenceTime = zgIndirectMsgTimeout;
   \   000060   90....       MOV     DPTR,#zgIndirectMsgTimeout
   \   000063   E0           MOVX    A,@DPTR
   \   000064   90....       MOV     DPTR,#(_NIB + 15)
   \   000067   F0           MOVX    @DPTR,A
   \   000068   A3           INC     DPTR
   \   000069   E4           CLR     A
   \   00006A   F0           MOVX    @DPTR,A
    373          
    374            _NIB.RouteDiscoveryTime = 5;
   \   00006B   7405         MOV     A,#0x5
   \   00006D   90....       MOV     DPTR,#(_NIB + 18)
   \   000070   F0           MOVX    @DPTR,A
    375            _NIB.RouteExpiryTime = zgRouteExpiryTime;
   \   000071   90....       MOV     DPTR,#zgRouteExpiryTime
   \   000074   E0           MOVX    A,@DPTR
   \   000075   90....       MOV     DPTR,#(_NIB + 19)
   \   000078   F0           MOVX    @DPTR,A
    376          
    377            _NIB.nwkDevAddress = INVALID_NODE_ADDR;
   \   000079   90....       MOV     DPTR,#(_NIB + 20)
   \   00007C   74FE         MOV     A,#-0x2
   \   00007E   F0           MOVX    @DPTR,A
   \   00007F   A3           INC     DPTR
   \   000080   74FF         MOV     A,#-0x1
   \   000082   F0           MOVX    @DPTR,A
    378            _NIB.nwkLogicalChannel = 0;
   \   000083   E4           CLR     A
   \   000084   90....       MOV     DPTR,#(_NIB + 22)
   \   000087   F0           MOVX    @DPTR,A
    379            _NIB.nwkCoordAddress = INVALID_NODE_ADDR;
   \   000088   90....       MOV     DPTR,#(_NIB + 23)
   \   00008B   74FE         MOV     A,#-0x2
   \   00008D   F0           MOVX    @DPTR,A
   \   00008E   A3           INC     DPTR
   \   00008F   74FF         MOV     A,#-0x1
   \   000091   F0           MOVX    @DPTR,A
    380            osal_memset( _NIB.nwkCoordExtAddress, 0, Z_EXTADDR_LEN );
   \   000092                ; Setup parameters for call to function osal_memset
   \   000092   7C08         MOV     R4,#0x8
   \   000094   7D00         MOV     R5,#0x0
   \   000096   7900         MOV     R1,#0x0
   \   000098   7A..         MOV     R2,#((_NIB + 25) & 0xff)
   \   00009A   7B..         MOV     R3,#(((_NIB + 25) >> 8) & 0xff)
   \   00009C   12....       LCALL   ??osal_memset?relay
    381            _NIB.nwkPanId = INVALID_NODE_ADDR;
   \   00009F   90....       MOV     DPTR,#(_NIB + 33)
   \   0000A2   74FE         MOV     A,#-0x2
   \   0000A4   F0           MOVX    @DPTR,A
   \   0000A5   A3           INC     DPTR
   \   0000A6   74FF         MOV     A,#-0x1
   \   0000A8   F0           MOVX    @DPTR,A
    382          
    383            osal_cpyExtAddr( _NIB.extendedPANID, zgExtendedPANID );
   \   0000A9                ; Setup parameters for call to function sAddrExtCpy
   \   0000A9   7C..         MOV     R4,#(zgExtendedPANID & 0xff)
   \   0000AB   7D..         MOV     R5,#((zgExtendedPANID >> 8) & 0xff)
   \   0000AD   7A..         MOV     R2,#((_NIB + 53) & 0xff)
   \   0000AF   7B..         MOV     R3,#(((_NIB + 53) >> 8) & 0xff)
   \   0000B1   12....       LCALL   ??sAddrExtCpy?relay
    384             
    385            _NIB.nwkKeyLoaded = FALSE;
   \   0000B4   E4           CLR     A
   \   0000B5   90....       MOV     DPTR,#(_NIB + 61)
   \   0000B8   F0           MOVX    @DPTR,A
    386             
    387          #if defined ( ZIGBEE_STOCHASTIC_ADDRESSING )
    388            _NIB.nwkAddrAlloc  = NWK_ADDRESSING_STOCHASTIC;
    389            _NIB.nwkUniqueAddr = FALSE;
    390          #else
    391            _NIB.nwkAddrAlloc  = NWK_ADDRESSING_DISTRIBUTED;
   \   0000B9   90....       MOV     DPTR,#(_NIB + 96)
   \   0000BC   F0           MOVX    @DPTR,A
    392            _NIB.nwkUniqueAddr = TRUE;
   \   0000BD   7401         MOV     A,#0x1
   \   0000BF   90....       MOV     DPTR,#(_NIB + 97)
   \   0000C2   F0           MOVX    @DPTR,A
    393          #endif
    394          
    395            _NIB.nwkLinkStatusPeriod = NWK_LINK_STATUS_PERIOD; 
   \   0000C3   E4           CLR     A
   \   0000C4   90....       MOV     DPTR,#(_NIB + 98)
   \   0000C7   F0           MOVX    @DPTR,A
    396            _NIB.nwkRouterAgeLimit = NWK_ROUTE_AGE_LIMIT;
   \   0000C8   7403         MOV     A,#0x3
   \   0000CA   90....       MOV     DPTR,#(_NIB + 99)
   \   0000CD   F0           MOVX    @DPTR,A
    397           
    398            //MTO and source routing
    399            _NIB.nwkConcentratorDiscoveryTime = zgConcentratorDiscoveryTime;
   \   0000CE   90....       MOV     DPTR,#zgConcentratorDiscoveryTime
   \   0000D1   E0           MOVX    A,@DPTR
   \   0000D2   90....       MOV     DPTR,#(_NIB + 102)
   \   0000D5   F0           MOVX    @DPTR,A
    400            _NIB.nwkIsConcentrator = zgConcentratorEnable;
   \   0000D6   90....       MOV     DPTR,#zgConcentratorEnable
   \   0000D9   E0           MOVX    A,@DPTR
   \   0000DA   90....       MOV     DPTR,#(_NIB + 101)
   \   0000DD   F0           MOVX    @DPTR,A
    401            _NIB.nwkConcentratorRadius = zgConcentratorRadius;
   \   0000DE   90....       MOV     DPTR,#zgConcentratorRadius
   \   0000E1   E0           MOVX    A,@DPTR
   \   0000E2   90....       MOV     DPTR,#(_NIB + 103)
   \   0000E5   F0           MOVX    @DPTR,A
    402            _NIB.nwkSrcRtgExpiryTime = SRC_RTG_EXPIRY_TIME;
   \   0000E6   740A         MOV     A,#0xa
   \   0000E8   90....       MOV     DPTR,#(_NIB + 105)
   \   0000EB   F0           MOVX    @DPTR,A
    403          
    404          #if defined ( ZIGBEE_MULTICAST )
    405            _NIB.nwkUseMultiCast = TRUE;
    406          #else
    407            _NIB.nwkUseMultiCast = FALSE;
   \   0000EC   E4           CLR     A
   \   0000ED   90....       MOV     DPTR,#(_NIB + 100)
   \   0000F0   F0           MOVX    @DPTR,A
    408          #endif  
    409            _NIB.nwkManagerAddr = 0x0000;
   \   0000F1   90....       MOV     DPTR,#(_NIB + 106)
   \   0000F4   F0           MOVX    @DPTR,A
   \   0000F5   A3           INC     DPTR
   \   0000F6   F0           MOVX    @DPTR,A
    410            _NIB.nwkUpdateId = 0;
   \   0000F7   90....       MOV     DPTR,#(_NIB + 110)
   \   0000FA   F0           MOVX    @DPTR,A
    411            _NIB.nwkTotalTransmissions = 0;
   \   0000FB   90....       MOV     DPTR,#(_NIB + 108)
   \   0000FE   F0           MOVX    @DPTR,A
   \   0000FF   A3           INC     DPTR
   \   000100   F0           MOVX    @DPTR,A
    412          
    413            if ( ZSTACK_ROUTER_BUILD )
    414            {
    415          #if defined ( ZIGBEE_STOCHASTIC_ADDRESSING )
    416              NLME_InitStochasticAddressing();
    417          #else
    418              NLME_InitTreeAddressing();
    419          #endif
    420            }
    421          }
   \   000101   02....       LJMP    ?Subroutine0 & 0xFFFF
    422          
    423          /*********************************************************************
    424           * @fn       nwk_Status()
    425           *
    426           * @brief
    427           *
    428           *   Status report.
    429           *
    430           * @param   statusCode
    431           * @param   statusValue
    432           *
    433           * @return  none
    434           */

   \                                 In  segment BANKED_CODE, align 1, keep-with-next
    435          void nwk_Status( uint16 statusCode, uint16 statusValue )
   \                     nwk_Status:
    436          {
   \   000000   74F4         MOV     A,#-0xc
   \   000002   12....       LCALL   ?BANKED_ENTER_XDATA
   \   000005                ; Saved register size: 12
   \   000005                ; Auto size: 0
   \   000005   8C..         MOV     ?V0 + 2,R4
   \   000007   8D..         MOV     ?V0 + 3,R5
    437          #if defined ( LCD_SUPPORTED )
    438            switch ( statusCode )
   \   000009   8A..         MOV     ?V0 + 0,R2
   \   00000B   8B..         MOV     ?V0 + 1,R3
   \   00000D   78..         MOV     R0,#?V0 + 0
   \   00000F   12....       LCALL   ?US_SWITCH_SPARSE
   \                     `?<Jumptable for nwk_Status>_0`:
   \   000012   0000         DW        0
   \   000014   0500         DW        5
   \   000016   0200         DW        2
   \   000018   ....         DW        ??nwk_Status_0
   \   00001A   0300         DW        3
   \   00001C   ....         DW        ??nwk_Status_1
   \   00001E   0400         DW        4
   \   000020   ....         DW        ??nwk_Status_2
   \   000022   0310         DW        4099
   \   000024   ....         DW        ??nwk_Status_3
   \   000026   0410         DW        4100
   \   000028   ....         DW        ??nwk_Status_4
   \   00002A   ....         DW        ??nwk_Status_5
    439            {
    440              case NWK_STATUS_COORD_ADDR: // The state is coordinator addr
    441                if ( ZSTACK_ROUTER_BUILD )
    442                {
    443                  HalLcdWriteString( (char*)ZigbeeCoordStr, HAL_LCD_LINE_1 );
    444                  HalLcdWriteStringValue( (char*)NetworkIDStr, statusValue, 16, HAL_LCD_LINE_2 );
    445          
    446          /******************* Add to show the RSSI and Address on LCD ******************/
    447          //        HalLcdWriteString("Addr and RSSI   ", HAL_LCD_LINE_1);
    448          //        HalLcdWriteString("ID:        [   ]", HAL_LCD_LINE_2);
    449          //        HalLcdWriteString("ID:        [   ]", HAL_LCD_LINE_3);
    450                  //HalLcdWriteString("ID:        [   ]", HAL_LCD_LINE_4);
    451          /******************************************************************************/
    452                  BuzzerControl( BUZZER_BLIP );
    453                }
    454                break;
    455          
    456              case NWK_STATUS_ROUTER_ADDR: // The state is router addr
    457                if ( ZSTACK_ROUTER_BUILD )
    458                {
    459                  HalLcdWriteStringValue( (char*)RouterStr, statusValue, 16, HAL_LCD_LINE_1 );
    460                }
    461                break;
    462          
    463              case NWK_STATUS_ORPHAN_RSP:
    464                if ( ZSTACK_ROUTER_BUILD )
    465                {
    466                  if ( statusValue == ZSuccess )
    467                    HalLcdWriteScreen( (char*)OrphanRspStr, (char*)SentStr );
    468                  else
    469                    HalLcdWriteScreen( (char*)OrphanRspStr, (char*)FailedStr );
    470                }
    471                break;
    472          
    473              case NWK_ERROR_ASSOC_RSP:
    474                if ( ZSTACK_ROUTER_BUILD )
    475                {
    476                  HalLcdWriteString( (char*)AssocRspFailStr, HAL_LCD_LINE_1 );
    477                  HalLcdWriteValue( (uint32)(statusValue), 16, HAL_LCD_LINE_2 );
    478                }
    479                break;
    480                
    481              case NWK_STATUS_ED_ADDR: // The state is end-device addr
    482                if ( ZSTACK_END_DEVICE_BUILD )
    483                {
    484                  HalLcdWriteStringValue( (char*)EndDeviceStr, statusValue, 16, HAL_LCD_LINE_1 );
   \                     ??nwk_Status_1:
   \   00002C                ; Setup parameters for call to function HalLcdWriteStringValue
   \   00002C   75..01       MOV     ?V0 + 0,#0x1
   \   00002F   78..         MOV     R0,#?V0 + 0
   \   000031   12....       LCALL   ?PUSH_XSTACK_I_ONE
   \   000034   7910         MOV     R1,#0x10
   \   000036   7A..         MOV     R2,#(EndDeviceStr & 0xff)
   \   000038   7B..         MOV     R3,#((EndDeviceStr >> 8) & 0xff)
   \                     ??nwk_Status_6:
   \   00003A   12....       LCALL   ??HalLcdWriteStringValue?relay
   \                     ??nwk_Status_7:
   \   00003D   7401         MOV     A,#0x1
   \   00003F   12....       LCALL   ?DEALLOC_XSTACK8
   \   000042   8045         SJMP    ??nwk_Status_5
    485                }
    486                break;
    487          
    488              case NWK_STATUS_PARENT_ADDR: // The state is parent addr
    489                      HalLcdWriteStringValue( (char*)ParentStr, statusValue, 16, HAL_LCD_LINE_2 );
   \                     ??nwk_Status_2:
   \   000044                ; Setup parameters for call to function HalLcdWriteStringValue
   \   000044   75..02       MOV     ?V0 + 0,#0x2
   \   000047   78..         MOV     R0,#?V0 + 0
   \   000049   12....       LCALL   ?PUSH_XSTACK_I_ONE
   \   00004C   7910         MOV     R1,#0x10
   \   00004E   7A..         MOV     R2,#(ParentStr & 0xff)
   \   000050   7B..         MOV     R3,#((ParentStr >> 8) & 0xff)
   \   000052   80E6         SJMP    ??nwk_Status_6
    490                break;
    491          
    492              case NWK_STATUS_ASSOC_CNF:
    493                HalLcdWriteScreen( (char*)AssocCnfStr, (char*)SuccessStr );
   \                     ??nwk_Status_0:
   \   000054                ; Setup parameters for call to function HalLcdWriteScreen
   \   000054   7C..         MOV     R4,#(SuccessStr & 0xff)
   \   000056   7D..         MOV     R5,#((SuccessStr >> 8) & 0xff)
   \   000058   7A..         MOV     R2,#(AssocCnfStr & 0xff)
   \   00005A   7B..         MOV     R3,#((AssocCnfStr >> 8) & 0xff)
   \   00005C   8028         SJMP    ??nwk_Status_8
    494                break;
    495          
    496              case NWK_ERROR_ASSOC_CNF_DENIED:
    497                HalLcdWriteString((char*)AssocCnfFailStr, HAL_LCD_LINE_1 );
   \                     ??nwk_Status_3:
   \   00005E                ; Setup parameters for call to function HalLcdWriteString
   \   00005E   7901         MOV     R1,#0x1
   \   000060   7A..         MOV     R2,#(AssocCnfFailStr & 0xff)
   \   000062   7B..         MOV     R3,#((AssocCnfFailStr >> 8) & 0xff)
   \   000064   12....       LCALL   ??HalLcdWriteString?relay
    498                HalLcdWriteValue( (uint32)(statusValue), 16, HAL_LCD_LINE_2 );
   \   000067                ; Setup parameters for call to function HalLcdWriteValue
   \   000067   75..02       MOV     ?V0 + 0,#0x2
   \   00006A   78..         MOV     R0,#?V0 + 0
   \   00006C   12....       LCALL   ?PUSH_XSTACK_I_ONE
   \   00006F   7910         MOV     R1,#0x10
   \   000071   AA..         MOV     R2,?V0 + 2
   \   000073   AB..         MOV     R3,?V0 + 3
   \   000075   7C00         MOV     R4,#0x0
   \   000077   7D00         MOV     R5,#0x0
   \   000079   12....       LCALL   ??HalLcdWriteValue?relay
   \   00007C   80BF         SJMP    ??nwk_Status_7
    499                break;
    500          
    501              case NWK_ERROR_ENERGY_SCAN_FAILED: // The state is scan failed
    502                HalLcdWriteScreen( (char*)EnergyLevelStr, (char*)ScanFailedStr );
   \                     ??nwk_Status_4:
   \   00007E                ; Setup parameters for call to function HalLcdWriteScreen
   \   00007E   7C..         MOV     R4,#(ScanFailedStr & 0xff)
   \   000080   7D..         MOV     R5,#((ScanFailedStr >> 8) & 0xff)
   \   000082   7A..         MOV     R2,#(EnergyLevelStr & 0xff)
   \   000084   7B..         MOV     R3,#((EnergyLevelStr >> 8) & 0xff)
   \                     ??nwk_Status_8:
   \   000086   12....       LCALL   ??HalLcdWriteScreen?relay
    503                break;
    504            }
    505          #endif
    506          }
   \                     ??nwk_Status_5:
   \   000089   7F04         MOV     R7,#0x4
   \   00008B   02....       LJMP    ?BANKED_LEAVE_XDATA

   \                                 In  segment XDATA_ID, align 1, keep-with-next
   \                     `?<Initializer for CskipRtrs>`:
   \   000000   06060606     DB 6, 6, 6, 6, 6, 0
   \            0600    

   \                                 In  segment XDATA_ID, align 1, keep-with-next
   \                     `?<Initializer for CskipChldrn>`:
   \   000000   14141414     DB 20, 20, 20, 20, 20, 0
   \            1400    

   \                                 In  segment XDATA_ID, align 1, keep-with-next
   \                     `?<Initializer for gMIN_TREE_LINK_COST>`:
   \   000000   06           DB 6

   \                                 In  segment XDATA_ID, align 1, keep-with-next
   \                     `?<Initializer for gAPS_MAX_ENDDEVICE_BROADCAST`:
   \   000000   12           DB 18

   \                                 In  segment BANK_RELAYS, align 1
   \                     ??nwk_globals_init?relay:
   \   000000   12....       LCALL   ?BDISPATCH
   \   000003   ......       DC24    nwk_globals_init

   \                                 In  segment BANK_RELAYS, align 1
   \                     ??NIB_init?relay:
   \   000000   12....       LCALL   ?BDISPATCH
   \   000003   ......       DC24    NIB_init

   \                                 In  segment BANK_RELAYS, align 1
   \                     ??nwk_Status?relay:
   \   000000   12....       LCALL   ?BDISPATCH
   \   000003   ......       DC24    nwk_Status
    507          
    508          /*********************************************************************
    509          *********************************************************************/

   Maximum stack usage in bytes:

     Function                    ISTACK PSTACK XSTACK
     --------                    ------ ------ ------
     NIB_init                        2      0      0
       -> osal_rand                  4      0      0
       -> osal_memset                4      0      0
       -> sAddrExtCpy                4      0      0
     nwk_Status                      0      0     13
       -> HalLcdWriteStringValue     0      0     26
       -> HalLcdWriteStringValue     0      0     26
       -> HalLcdWriteScreen          0      0     24
       -> HalLcdWriteString          0      0     24
       -> HalLcdWriteValue           0      0     26
       -> HalLcdWriteScreen          0      0     24
     nwk_globals_init                2      0      0
       -> AddrMgrInit                4      0      0


   Segment part sizes:

     Function/Label                                 Bytes
     --------------                                 -----
     gNWK_MAX_DEVICE_LIST                              2
     gNWK_MAX_SLEEPING_END_DEVICES                     1
     gNWK_MAX_DATABUFS_WAITING                         1
     gNWK_MAX_DATABUFS_SCHEDULED                       1
     gNWK_MAX_DATABUFS_CONFIRMED                       1
     gNWK_MAX_DATABUFS_TOTAL                           1
     gNWK_INDIRECT_CNT_RTG_TMR                         1
     gNWK_INDIRECT_MSG_MAX_PER                         1
     gNWK_INDIRECT_MSG_MAX_ALL                         1
     Cskip                                             2
     CskipRtrs                                         6
     CskipChldrn                                       6
     gMIN_TREE_LINK_COST                               1
     AssociatedDevList                               378
     gMAX_RTG_ENTRIES                                  1
     gMAX_RTG_SRC_ENTRIES                              1
     gMAX_RREQ_ENTRIES                                 1
     gMAX_NEIGHBOR_ENTRIES                             1
     neighborTable                                    92
     gMAX_SOURCE_ROUTE                                 1
     gMAX_BROADCAST_QUEUED                             1
     rtgTable                                        280
     rtDiscTable                                      64
     bcastTable                                       72
     bcastHoldHandle                                   9
     bcastHoldAckMask                                 36
     gMAX_BCAST                                        1
     gNWK_TREE_ALLOCATE_ROUTERADDR_FOR_ENDDEVICE
                                                       1
     gNWK_MAX_BINDING_ENTRIES                          2
     gMAX_BINDING_CLUSTER_IDS                          1
     gBIND_REC_SIZE                                    2
     BindingTable                                     56
     gAPS_MAX_GROUPS                                   1
     apsEndDeviceBroadcastTable                       90
     gAPS_MAX_ENDDEVICE_BROADCAST_ENTRIES
                                                       1
     defaultKey                                       16
     defaultTCLinkKey                                 16
     PingStr                                          15
     AssocCnfStr                                      10
     SuccessStr                                        8
     EndDeviceStr                                     11
     ParentStr                                         8
     ZigbeeCoordStr                                   13
     NetworkIDStr                                     12
     RouterStr                                         8
     OrphanRspStr                                     16
     SentStr                                           5
     FailedStr                                         7
     AssocRspFailStr                                  15
     AssocIndStr                                      10
     AssocCnfFailStr                                  15
     EnergyLevelStr                                   13
     ScanFailedStr                                    12
     nwk_globals_init                                 11
     ?Subroutine0                                      7
     NIB_init                                        260
     nwk_Status                                      142
     ?<Initializer for CskipRtrs>                      6
     ?<Initializer for CskipChldrn>                    6
     ?<Initializer for gMIN_TREE_LINK_COST>            1
     ?<Initializer for gAPS_MAX_ENDDEVICE_BROADCAST    1
     ??nwk_globals_init?relay                          6
     ??NIB_init?relay                                  6
     ??nwk_Status?relay                                6

 
   420 bytes in segment BANKED_CODE
    18 bytes in segment BANK_RELAYS
    56 bytes in segment CODE_C
    14 bytes in segment XDATA_I
    14 bytes in segment XDATA_ID
   178 bytes in segment XDATA_ROM_C
 1 079 bytes in segment XDATA_Z
 
   508 bytes of CODE  memory
   178 bytes of CONST memory
 1 093 bytes of XDATA memory

Errors: none
Warnings: none
