###############################################################################
#                                                                             #
# IAR C/C++ Compiler V7.51A/W32 for 8051                19/Mar/2010  17:55:14 #
# Copyright 2004-2009 IAR Systems AB.                                         #
#                                                                             #
#    Core               =  plain                                              #
#    Code model         =  banked                                             #
#    Data model         =  large                                              #
#    Calling convention =  xdata reentrant                                    #
#    Constant location  =  data_rom                                           #
#    Dptr setup         =  1,16                                               #
#    Source file        =  D:\µ{¦¡¶}µo\TI Zigbee Z-Stack\ZStack-CC2530-2.3.0- #
#                          1.4.0\Components\hal\target\CC2530KB\hal_lcd.c     #
#    Command line       =  -f "D:\µ{¦¡¶}µo\TI Zigbee                          #
#                          Z-Stack\ZStack-CC2530-2.3.0-1.4.0\Projects\zstack\ #
#                          Samples\SampleApp\CC2530DB\..\..\..\Tools\CC2530DB #
#                          \f8wEndev.cfg" (-DCPU32MHZ -DROOT=__near_func      #
#                          -DBLINK_LEDS) -f "D:\µ{¦¡¶}µo\TI Zigbee            #
#                          Z-Stack\ZStack-CC2530-2.3.0-1.4.0\Projects\zstack\ #
#                          Samples\SampleApp\CC2530DB\..\..\..\Tools\CC2530DB #
#                          \f8wConfig.cfg" (-DSECURE=0 -DZG_SECURE_DYNAMIC=0  #
#                          -DREFLECTOR -DDEFAULT_CHANLIST=0x00000800          #
#                          -DZDAPP_CONFIG_PAN_ID=0xFFFF                       #
#                          -DNWK_START_DELAY=100 -DEXTENDED_JOINING_RANDOM_MA #
#                          SK=0x007F -DBEACON_REQUEST_DELAY=100               #
#                          -DBEACON_REQ_DELAY_MASK=0x00FF                     #
#                          -DROUTE_EXPIRY_TIME=30 -DAPSC_ACK_WAIT_DURATION_PO #
#                          LLED=3000 -DNWK_INDIRECT_MSG_TIMEOUT=7             #
#                          -DMAX_RREQ_ENTRIES=8 -DAPSC_MAX_FRAME_RETRIES=3    #
#                          -DNWK_MAX_DATA_RETRIES=2                           #
#                          -DMAX_POLL_FAILURE_RETRIES=2 -DMAX_BCAST=9         #
#                          -DAPS_MAX_GROUPS=16 -DMAX_RTG_ENTRIES=40           #
#                          -DNWK_MAX_BINDING_ENTRIES=4                        #
#                          -DMAX_BINDING_CLUSTER_IDS=4 "-DDEFAULT_KEY={0x01,  #
#                          0x03, 0x05, 0x07, 0x09, 0x0B, 0x0D, 0x0F, 0x00,    #
#                          0x02, 0x04, 0x06, 0x08, 0x0A, 0x0C, 0x0D}"         #
#                          -DMAC_MAX_FRAME_SIZE=116 "-DCONST=const __code"    #
#                          -DGENERIC=__generic -DRFD_RCVC_ALWAYS_ON=FALSE     #
#                          -DPOLL_RATE=1000 -DQUEUED_POLL_RATE=100            #
#                          -DRESPONSE_POLL_RATE=100) -DREJOIN_POLL_RATE=440   #
#                          "D:\µ{¦¡¶}µo\TI Zigbee Z-Stack\ZStack-CC2530-2.3.0 #
#                          -1.4.0\Components\hal\target\CC2530KB\hal_lcd.c"   #
#                          -D NWK_AUTO_POLL -D ZTOOL_P1 -D MT_TASK -D         #
#                          MT_SYS_FUNC -D MT_ZDO_FUNC -D LCD_SUPPORTED=DEBUG  #
#                          -lC "D:\µ{¦¡¶}µo\TI Zigbee                         #
#                          Z-Stack\ZStack-CC2530-2.3.0-1.4.0\Projects\zstack\ #
#                          Samples\SampleApp\CC2530DB\EndDeviceKB\List\" -lA  #
#                          "D:\µ{¦¡¶}µo\TI Zigbee Z-Stack\ZStack-CC2530-2.3.0 #
#                          -1.4.0\Projects\zstack\Samples\SampleApp\CC2530DB\ #
#                          EndDeviceKB\List\" --diag_suppress Pe001,Pa010 -o  #
#                          "D:\µ{¦¡¶}µo\TI Zigbee Z-Stack\ZStack-CC2530-2.3.0 #
#                          -1.4.0\Projects\zstack\Samples\SampleApp\CC2530DB\ #
#                          EndDeviceKB\Obj\" -e --require_prototypes --debug  #
#                          --core=plain --dptr=16,1 --data_model=large        #
#                          --code_model=banked --calling_convention=xdata_ree #
#                          ntrant --place_constants=data_rom                  #
#                          --nr_virtual_regs 16 -I "D:\µ{¦¡¶}µo\TI Zigbee     #
#                          Z-Stack\ZStack-CC2530-2.3.0-1.4.0\Projects\zstack\ #
#                          Samples\SampleApp\CC2530DB\" -I "D:\µ{¦¡¶}µo\TI    #
#                          Zigbee Z-Stack\ZStack-CC2530-2.3.0-1.4.0\Projects\ #
#                          zstack\Samples\SampleApp\CC2530DB\..\SOURCE\" -I   #
#                          "D:\µ{¦¡¶}µo\TI Zigbee Z-Stack\ZStack-CC2530-2.3.0 #
#                          -1.4.0\Projects\zstack\Samples\SampleApp\CC2530DB\ #
#                          ..\..\..\ZMAIN\TI2530DB\" -I "D:\µ{¦¡¶}µo\TI       #
#                          Zigbee Z-Stack\ZStack-CC2530-2.3.0-1.4.0\Projects\ #
#                          zstack\Samples\SampleApp\CC2530DB\..\..\..\..\..\C #
#                          OMPONENTS\MT\" -I "D:\µ{¦¡¶}µo\TI Zigbee           #
#                          Z-Stack\ZStack-CC2530-2.3.0-1.4.0\Projects\zstack\ #
#                          Samples\SampleApp\CC2530DB\..\..\..\..\..\COMPONEN #
#                          TS\HAL\INCLUDE\" -I "D:\µ{¦¡¶}µo\TI Zigbee         #
#                          Z-Stack\ZStack-CC2530-2.3.0-1.4.0\Projects\zstack\ #
#                          Samples\SampleApp\CC2530DB\..\..\..\..\..\COMPONEN #
#                          TS\HAL\TARGET\CC2530EB\" -I "D:\µ{¦¡¶}µo\TI        #
#                          Zigbee Z-Stack\ZStack-CC2530-2.3.0-1.4.0\Projects\ #
#                          zstack\Samples\SampleApp\CC2530DB\..\..\..\..\..\C #
#                          OMPONENTS\OSAL\MCU\CCSOC\" -I "D:\µ{¦¡¶}µo\TI      #
#                          Zigbee Z-Stack\ZStack-CC2530-2.3.0-1.4.0\Projects\ #
#                          zstack\Samples\SampleApp\CC2530DB\..\..\..\..\..\C #
#                          OMPONENTS\OSAL\INCLUDE\" -I "D:\µ{¦¡¶}µo\TI        #
#                          Zigbee Z-Stack\ZStack-CC2530-2.3.0-1.4.0\Projects\ #
#                          zstack\Samples\SampleApp\CC2530DB\..\..\..\..\..\C #
#                          OMPONENTS\STACK\AF\" -I "D:\µ{¦¡¶}µo\TI Zigbee     #
#                          Z-Stack\ZStack-CC2530-2.3.0-1.4.0\Projects\zstack\ #
#                          Samples\SampleApp\CC2530DB\..\..\..\..\..\COMPONEN #
#                          TS\STACK\NWK\" -I "D:\µ{¦¡¶}µo\TI Zigbee           #
#                          Z-Stack\ZStack-CC2530-2.3.0-1.4.0\Projects\zstack\ #
#                          Samples\SampleApp\CC2530DB\..\..\..\..\..\COMPONEN #
#                          TS\STACK\SEC\" -I "D:\µ{¦¡¶}µo\TI Zigbee           #
#                          Z-Stack\ZStack-CC2530-2.3.0-1.4.0\Projects\zstack\ #
#                          Samples\SampleApp\CC2530DB\..\..\..\..\..\COMPONEN #
#                          TS\STACK\SAPI\" -I "D:\µ{¦¡¶}µo\TI Zigbee          #
#                          Z-Stack\ZStack-CC2530-2.3.0-1.4.0\Projects\zstack\ #
#                          Samples\SampleApp\CC2530DB\..\..\..\..\..\COMPONEN #
#                          TS\STACK\SYS\" -I "D:\µ{¦¡¶}µo\TI Zigbee           #
#                          Z-Stack\ZStack-CC2530-2.3.0-1.4.0\Projects\zstack\ #
#                          Samples\SampleApp\CC2530DB\..\..\..\..\..\COMPONEN #
#                          TS\STACK\ZDO\" -I "D:\µ{¦¡¶}µo\TI Zigbee           #
#                          Z-Stack\ZStack-CC2530-2.3.0-1.4.0\Projects\zstack\ #
#                          Samples\SampleApp\CC2530DB\..\..\..\..\..\COMPONEN #
#                          TS\ZMAC\F8W\" -I "D:\µ{¦¡¶}µo\TI Zigbee            #
#                          Z-Stack\ZStack-CC2530-2.3.0-1.4.0\Projects\zstack\ #
#                          Samples\SampleApp\CC2530DB\..\..\..\..\..\COMPONEN #
#                          TS\ZMAC\" -I "D:\µ{¦¡¶}µo\TI Zigbee                #
#                          Z-Stack\ZStack-CC2530-2.3.0-1.4.0\Projects\zstack\ #
#                          Samples\SampleApp\CC2530DB\..\..\..\..\..\COMPONEN #
#                          TS\SERVICES\SADDR\" -I "D:\µ{¦¡¶}µo\TI Zigbee      #
#                          Z-Stack\ZStack-CC2530-2.3.0-1.4.0\Projects\zstack\ #
#                          Samples\SampleApp\CC2530DB\..\..\..\..\..\COMPONEN #
#                          TS\SERVICES\SDATA\" -I "D:\µ{¦¡¶}µo\TI Zigbee      #
#                          Z-Stack\ZStack-CC2530-2.3.0-1.4.0\Projects\zstack\ #
#                          Samples\SampleApp\CC2530DB\..\..\..\..\..\COMPONEN #
#                          TS\MAC\INCLUDE\" -I "D:\µ{¦¡¶}µo\TI Zigbee         #
#                          Z-Stack\ZStack-CC2530-2.3.0-1.4.0\Projects\zstack\ #
#                          Samples\SampleApp\CC2530DB\..\..\..\..\..\COMPONEN #
#                          TS\MAC\HIGH_LEVEL\" -I "D:\µ{¦¡¶}µo\TI Zigbee      #
#                          Z-Stack\ZStack-CC2530-2.3.0-1.4.0\Projects\zstack\ #
#                          Samples\SampleApp\CC2530DB\..\..\..\..\..\COMPONEN #
#                          TS\MAC\LOW_LEVEL\srf04\" -I "D:\µ{¦¡¶}µo\TI        #
#                          Zigbee Z-Stack\ZStack-CC2530-2.3.0-1.4.0\Projects\ #
#                          zstack\Samples\SampleApp\CC2530DB\..\..\..\..\..\C #
#                          OMPONENTS\MAC\LOW_LEVEL\srf04\SINGLE_CHIP\" -I     #
#                          "C:\IAR Systems\Embedded Workbench 5.3\8051\INC\"  #
#                          -I "C:\IAR Systems\Embedded Workbench              #
#                          5.3\8051\INC\CLIB\" -Ohz                           #
#    List file          =  D:\µ{¦¡¶}µo\TI Zigbee Z-Stack\ZStack-CC2530-2.3.0- #
#                          1.4.0\Projects\zstack\Samples\SampleApp\CC2530DB\E #
#                          ndDeviceKB\List\hal_lcd.lst                        #
#    Object file        =  D:\µ{¦¡¶}µo\TI Zigbee Z-Stack\ZStack-CC2530-2.3.0- #
#                          1.4.0\Projects\zstack\Samples\SampleApp\CC2530DB\E #
#                          ndDeviceKB\Obj\hal_lcd.r51                         #
#                                                                             #
#                                                                             #
###############################################################################

D:\µ{¦¡¶}µo\TI Zigbee Z-Stack\ZStack-CC2530-2.3.0-1.4.0\Components\hal\target\CC2530KB\hal_lcd.c
      1          /**************************************************************************************************
      2            Filename:       hal_lcd.c
      3            Revised:        $Date: 2009-11-09 20:03:17 -0800 (Mon, 09 Nov 2009) $
      4            Revision:       $Revision: 21106 $
      5          
      6            Description:    This file contains the interface to the HAL LCD Service.
      7          
      8          
      9            Copyright 2007 - 2009 Texas Instruments Incorporated. All rights reserved.
     10          
     11            IMPORTANT: Your use of this Software is limited to those specific rights
     12            granted under the terms of a software license agreement between the user
     13            who downloaded the software, his/her employer (which must be your employer)
     14            and Texas Instruments Incorporated (the "License").  You may not use this
     15            Software unless you agree to abide by the terms of the License. The License
     16            limits your use, and you acknowledge, that the Software may not be modified,
     17            copied or distributed unless embedded on a Texas Instruments microcontroller
     18            or used solely and exclusively in conjunction with a Texas Instruments radio
     19            frequency transceiver, which is integrated into your product.  Other than for
     20            the foregoing purpose, you may not use, reproduce, copy, prepare derivative
     21            works of, modify, distribute, perform, display or sell this Software and/or
     22            its documentation for any purpose.
     23          
     24            YOU FURTHER ACKNOWLEDGE AND AGREE THAT THE SOFTWARE AND DOCUMENTATION ARE
     25            PROVIDED “AS IS?WITHOUT WARRANTY OF ANY KIND, EITHER EXPRESS OR IMPLIED,
     26            INCLUDING WITHOUT LIMITATION, ANY WARRANTY OF MERCHANTABILITY, TITLE,
     27            NON-INFRINGEMENT AND FITNESS FOR A PARTICULAR PURPOSE. IN NO EVENT SHALL
     28            TEXAS INSTRUMENTS OR ITS LICENSORS BE LIABLE OR OBLIGATED UNDER CONTRACT,
     29            NEGLIGENCE, STRICT LIABILITY, CONTRIBUTION, BREACH OF WARRANTY, OR OTHER
     30            LEGAL EQUITABLE THEORY ANY DIRECT OR INDIRECT DAMAGES OR EXPENSES
     31            INCLUDING BUT NOT LIMITED TO ANY INCIDENTAL, SPECIAL, INDIRECT, PUNITIVE
     32            OR CONSEQUENTIAL DAMAGES, LOST PROFITS OR LOST DATA, COST OF PROCUREMENT
     33            OF SUBSTITUTE GOODS, TECHNOLOGY, SERVICES, OR ANY CLAIMS BY THIRD PARTIES
     34            (INCLUDING BUT NOT LIMITED TO ANY DEFENSE THEREOF), OR OTHER SIMILAR COSTS.
     35          
     36            Should you have any questions regarding your right to use this Software,
     37            contact Texas Instruments Incorporated at www.TI.com.
     38          **************************************************************************************************/
     39          
     40          /**************************************************************************************************
     41           *                                           INCLUDES
     42           **************************************************************************************************/
     43          #include "hal_types.h"
     44          #include "hal_lcd.h"

   \                                 In  segment SFR_AN, at 0x80
   \   union <unnamed> volatile __sfr _A_P0
   \                     _A_P0:
   \   000000                DS 1

   \                                 In  segment SFR_AN, at 0x90
   \   union <unnamed> volatile __sfr _A_P1
   \                     _A_P1:
   \   000000                DS 1

   \                                 In  segment SFR_AN, at 0xa0
   \   union <unnamed> volatile __sfr _A_P2
   \                     _A_P2:
   \   000000                DS 1

   \                                 In  segment SFR_AN, at 0xf3
   \   unsigned char volatile __sfr P0SEL
   \                     P0SEL:
   \   000000                DS 1

   \                                 In  segment SFR_AN, at 0xf4
   \   unsigned char volatile __sfr P1SEL
   \                     P1SEL:
   \   000000                DS 1

   \                                 In  segment SFR_AN, at 0xf5
   \   unsigned char volatile __sfr P2SEL
   \                     P2SEL:
   \   000000                DS 1

   \                                 In  segment SFR_AN, at 0xfd
   \   unsigned char volatile __sfr P0DIR
   \                     P0DIR:
   \   000000                DS 1

   \                                 In  segment SFR_AN, at 0xfe
   \   unsigned char volatile __sfr P1DIR
   \                     P1DIR:
   \   000000                DS 1

   \                                 In  segment SFR_AN, at 0xff
   \   unsigned char volatile __sfr P2DIR
   \                     P2DIR:
   \   000000                DS 1
     45          #include "hal_keypad.h"
     46          #include "OSAL.h"
     47          #include "OnBoard.h"
     48          //#include "hal_assert.h"
     49          #include <string.h>
     50          
     51          #if defined (ZTOOL_P1) || defined (ZTOOL_P2)
     52            #include "DebugTrace.h"
     53          #endif
     54          
     55          /*******************************************************************************
     56           *                                          CONSTANTS
     57           ******************************************************************************/
     58          /* LCD lines */
     59          #define LCD_LINE_COUNT       2
     60          #define LCD_LINE_LENGTH      16
     61          #define LCD_MAX_BUF          25
     62          
     63          /* LCD Control */
     64          #define HAL_LCD_EN_PORT      P2_0
     65          #define HAL_LCD_EN_PIN       BV(0)
     66          #define HAL_LCD_EN_DDR	     P2DIR
     67          #define HAL_LCD_EN_SEL	     P2SEL
     68          #define HAL_LCD_RS_PORT      P0_6
     69          #define HAL_LCD_RS_PIN       BV(6)
     70          #define HAL_LCD_RS_DDR	     P0DIR
     71          #define HAL_LCD_RS_SEL	     P0SEL
     72          #define HAL_LCD_DATA_PORT    P1
     73          #define HAL_LCD_DATA_DDR     P1DIR
     74          #define HAL_LCD_DATA_SEL     P1SEL
     75          
     76          /* LED Control */
     77          #define HAL_TURN_OFF_LED3()       st( LED3_SBIT = LED3_POLARITY (0); )
     78          #define HAL_TURN_OFF_LED4()       HAL_TURN_OFF_LED1()
     79          #define HAL_TURN_ON_LED1()        st( LED1_SBIT = LED1_POLARITY (1); )
     80          
     81          /* LCD Setting */
     82          #define HAL_LCD_EN_SET()               st(HAL_LCD_EN_PORT = 1;)
     83          #define HAL_LCD_EN_CLR()               st(HAL_LCD_EN_PORT = 0;)
     84          #define HAL_LCD_RS_SET()               st(HAL_LCD_RS_PORT = 1;)
     85          #define HAL_LCD_RS_CLR()               st(HAL_LCD_RS_PORT = 0;)
     86          #define HAL_LCD_DATA(val)              st(P1 = val;)
     87          
     88          /* Setting IO for output */
     89          #define HAL_LCD_EN_OUTPUT()		st(P2SEL &= ~BV(0); P2DIR |= BV(0);)
     90          #define HAL_LCD_RS_OUTPUT()		st(P0SEL &= ~BV(6); P0DIR |= BV(6);)
     91          #define HAL_LCD_DATA_OUTPUT()		st(P1SEL &= 0x00; P1DIR |= 0xFF;)
     92          
     93          /* Setting IO_DIR input, output */
     94          #define HAL_LCD_RS_DIR_INPUT()		st(P0DIR &= ~BV(6);)
     95          #define HAL_LCD_RS_DIR_OUTPUT()		st(P0DIR |= BV(6);)
     96          
     97          /**************Defines for HW LCD*****************/
     98          /* Function Set */
     99          #define DOT_5X10_OFF                    0x00
    100          #define DOT_5X10_ON                     0x04
    101          #define DUAL_LINE_OFF                   0x00
    102          #define DUAL_LINE_ON                    0x08
    103          #define BUS_8BIT_OFF                    0x00
    104          #define BUS_8BIT_ON                     0x10
    105          #define FUNCTION_SET(options)           lcdCommand(0x20 | (options))
    106          
    107          /* Display clear */
    108          #define DISPLAY_CLEAR()                 lcdCommand(0x01)
    109          
    110          /* Set display control */
    111          #define DISPLAY_CTRL_ON                 0x04
    112          #define DISPLAY_CTRL_OFF                0x00
    113          #define DISPLAY_CTRL_BLINK_ON           0x01
    114          #define DISPLAY_CTRL_BLINK_OFF          0x00
    115          #define DISPLAY_CTRL_CURSOR_ON          0x02
    116          #define DISPLAY_CTRL_CURSOR_OFF         0x00
    117          #define SET_DISPLAY_CTRL(options)       lcdCommand(0x08 | (options))
    118          
    119          /* Set enter mode */
    120          #define INCREMENT_ON                    0x02
    121          #define INCREMENT_OFF                   0x00
    122          #define DISPLAY_SHIFT_ON                0x01
    123          #define DISPLAY_SHIFT_OFF               0x00
    124          #define SET_ENTER_MODE(options)         lcdCommand(0x04 | (options))
    125          
    126          /* Set display control */
    127          #define SHITF_DISPLAY_ON                0x04
    128          #define SHITF_DISPLAY_OFF               0x00
    129          #define SHITF_RIGHT_ON                  0x02
    130          #define SHITF_RIGHT_OFF                 0x00
    131          #define SET_CURSOR_SHIFT(options)       lcdCommand(0x10 | (options))
    132          
    133          /* Set Display Start Line */
    134          #define LINE1                           0x00
    135          #define LINE2                           0x40
    136          #define SET_DISPLAY_LINE(line)          lcdCommand(0x80 | (line))
    137          
    138          /* Set DD/ CGRAM address */
    139          #define SET_DDRAM_ADDR(charIndex)       lcdCommand(0x80 | (charIndex))
    140          #define SET_GCRAM_CHAR(specIndex)       lcdCommand(0x40 | (specIndex))
    141          
    142          /* Set ICONRAM address */
    143          #define CONTRAST_CTRL_REGISTER          0x10
    144          #define SET_ICONRAM_ADDR(addr)          lcdCommand(0x40 | (addr))
    145          
    146          /*******************************************************************************
    147           *                                           MACROS
    148           ******************************************************************************/
    149          
    150          #define HAL_IO_SET(port, pin, val)        HAL_IO_SET_PREP(port, pin, val)
    151          #define HAL_IO_SET_PREP(port, pin, val)   st( P##port##_##pin## = val; )
    152          
    153          #define HAL_CONFIG_IO_OUTPUT(port, pin, val)      HAL_CONFIG_IO_OUTPUT_PREP(port, pin, val)
    154          #define HAL_CONFIG_IO_OUTPUT_PREP(port, pin, val) st( P##port##SEL &= ~BV(pin); \
    155                                                                P##port##_##pin## = val; \
    156                                                                P##port##DIR |= BV(pin); )
    157          
    158          #define HAL_CONFIG_IO_PERIPHERAL(port, pin)      HAL_CONFIG_IO_PERIPHERAL_PREP(port, pin)
    159          #define HAL_CONFIG_IO_PERIPHERAL_PREP(port, pin) st( P##port##SEL |= BV(pin); )
    160          
    161          /**************************************************************************************************
    162           *                                       GLOBAL VARIABLES
    163           **************************************************************************************************/

   \                                 In  segment XDATA_Z, align 1, keep-with-next
    164          static uint8 *Lcd_Line1;
   \                     Lcd_Line1:
   \   000000                DS 2
   \   000002                REQUIRE __INIT_XDATA_Z

   \                                 In  segment XDATA_Z, align 1, keep-with-next
    165          uint8 pLedData;
   \                     pLedData:
   \   000000                DS 1
   \   000001                REQUIRE __INIT_XDATA_Z
    166          
    167          /*******************************************************************************
    168           *                                       FUNCTIONS - API
    169           ******************************************************************************/
    170          #if (HAL_LCD == TRUE)
    171          void HalLcd_HW_WaitUs(uint16 i);
    172          void HalLcd_HW_Clear(void);
    173          void HalLcd_HW_ClearAllSpecChars(void);
    174          void HalLcd_HW_SetContrast(uint8 value);
    175          void HalLcd_HW_WriteLine(uint8 line, const char *pText);
    176          
    177          static void initLcd(void);
    178          static void lcdCommand(uint8 command);
    179          static void lcdData(uint8 ch);
    180          static void lcdUpdateChar(uint8 line, uint8 col, char ch);
    181          #endif //LCD
    182          
    183          /*******************************************************************************
    184           * @fn      HalLcdInit
    185           *
    186           * @brief   Initilize LCD Service
    187           *
    188           * @param   init - pointer to void that contains the initialized value
    189           *
    190           * @return  None
    191           ******************************************************************************/

   \                                 In  segment BANKED_CODE, align 1, keep-with-next
    192          void HalLcdInit(void)
   \                     HalLcdInit:
    193          {
   \   000000   C082         PUSH    DPL
   \   000002   C083         PUSH    DPH
   \   000004                ; Saved register size: 2
   \   000004                ; Auto size: 0
    194            Lcd_Line1 = NULL;
   \   000004   90....       MOV     DPTR,#Lcd_Line1
   \   000007   E4           CLR     A
   \   000008   F0           MOVX    @DPTR,A
   \   000009   A3           INC     DPTR
   \   00000A   F0           MOVX    @DPTR,A
    195          #if (HAL_LCD == TRUE)
    196            initLcd();
   \   00000B                ; Setup parameters for call to function initLcd
   \   00000B   12....       LCALL   ??initLcd?relay
    197          #endif
    198          }
   \   00000E   80..         SJMP    ??Subroutine13_0

   \                                 In  segment BANKED_CODE, align 1, keep-with-next
   \                     ??Subroutine13_0:
   \   000000   D083         POP     DPH
   \   000002   D082         POP     DPL
   \   000004   02....       LJMP    ?BRET
    199          
    200          /*************************************************************************************************
    201           *                    LCD EMULATION FUNCTIONS
    202           *
    203           * Some evaluation boards are equipped with Liquid Crystal Displays
    204           * (LCD) which may be used to display diagnostic information. These
    205           * functions provide LCD emulation, sending the diagnostic strings
    206           * to Z-Tool via the RS232 serial port. These functions are enabled
    207           * when the "LCD_SUPPORTED" compiler flag is placed in the makefile.
    208           *
    209           * Most applications update both lines (1 and 2) of the LCD whenever
    210           * text is posted to the device. This emulator assumes that line 1 is
    211           * updated first (saved locally) and the formatting and send operation
    212           * is triggered by receipt of line 2. Nothing will be transmitted if
    213           * only line 1 is updated.
    214           *
    215           *************************************************************************************************/
    216          
    217          /*******************************************************************************
    218           * @fn      HalLcdWriteString
    219           *
    220           * @brief   Write a string to the LCD
    221           *
    222           * @param   str    - pointer to the string that will be displayed
    223           *          option - display options
    224           *
    225           * @return  None
    226           ******************************************************************************/

   \                                 In  segment BANKED_CODE, align 1, keep-with-next
    227          void HalLcdWriteString ( char *str, uint8 option)
   \                     HalLcdWriteString:
    228          {
   \   000000   74E8         MOV     A,#-0x18
   \   000002   12....       LCALL   ?BANKED_ENTER_XDATA
   \   000005                ; Saved register size: 24
   \   000005                ; Auto size: 0
   \   000005   8A..         MOV     ?V0 + 14,R2
   \   000007   8B..         MOV     ?V0 + 15,R3
   \   000009   89..         MOV     ?V0 + 3,R1
    229          #if (HAL_LCD == TRUE)
    230          
    231            uint8 strLen = 0;
    232            uint8 totalLen = 0;
    233            uint8 *buf;
    234            uint8 tmpLen;
    235          
    236            if ( Lcd_Line1 == NULL )
   \   00000B   90....       MOV     DPTR,#Lcd_Line1
   \   00000E   E0           MOVX    A,@DPTR
   \   00000F   7002         JNZ     ??HalLcdWriteString_0
   \   000011   A3           INC     DPTR
   \   000012   E0           MOVX    A,@DPTR
   \                     ??HalLcdWriteString_0:
   \   000013   700F         JNZ     ??HalLcdWriteString_1
    237            {
    238              Lcd_Line1 = osal_mem_alloc( HAL_LCD_MAX_CHARS+1 );
   \   000015                ; Setup parameters for call to function osal_mem_alloc
   \   000015   7A11         MOV     R2,#0x11
   \   000017   7B00         MOV     R3,#0x0
   \   000019   12....       LCALL   ??osal_mem_alloc?relay
   \   00001C   90....       MOV     DPTR,#Lcd_Line1
   \   00001F   EA           MOV     A,R2
   \   000020   F0           MOVX    @DPTR,A
   \   000021   A3           INC     DPTR
   \   000022   EB           MOV     A,R3
   \   000023   F0           MOVX    @DPTR,A
    239            }
    240          
    241            strLen = (uint8)osal_strlen( (char*)str );
   \                     ??HalLcdWriteString_1:
   \   000024                ; Setup parameters for call to function osal_strlen
   \   000024   AA..         MOV     R2,?V0 + 14
   \   000026   AB..         MOV     R3,?V0 + 15
   \   000028   12....       LCALL   ??osal_strlen?relay
   \   00002B   EA           MOV     A,R2
   \   00002C   F5..         MOV     ?V0 + 4,A
    242          
    243            /* Check boundries */
    244            if ( strLen > HAL_LCD_MAX_CHARS )
   \   00002E   C3           CLR     C
   \   00002F   9411         SUBB    A,#0x11
   \   000031   4003         JC      ??HalLcdWriteString_2
    245              strLen = HAL_LCD_MAX_CHARS;
   \   000033   75..10       MOV     ?V0 + 4,#0x10
    246          
    247            if ( option == HAL_LCD_LINE_1 )
   \                     ??HalLcdWriteString_2:
   \   000036   85..82       MOV     DPL,?V0 + 4
   \   000039   8582..       MOV     ?V0 + 12,DPL
   \   00003C   85....       MOV     ?V0 + 0,?V0 + 14
   \   00003F   85....       MOV     ?V0 + 1,?V0 + 15
   \   000042   75..00       MOV     ?V0 + 2,#0x0
   \   000045   AE82         MOV     R6,DPL
   \   000047   7401         MOV     A,#0x1
   \   000049   65..         XRL     A,?V0 + 3
   \   00004B   702B         JNZ     ??HalLcdWriteString_3
    248            {
    249              /* Line 1 gets saved for later */
    250              osal_memcpy( Lcd_Line1, str, strLen );
   \   00004D                ; Setup parameters for call to function osal_memcpy
   \   00004D   78..         MOV     R0,#?V0 + 0
   \   00004F   12....       LCALL   ?PUSH_XSTACK_I_THREE
   \   000052   EE           MOV     A,R6
   \   000053   FC           MOV     R4,A
   \   000054   7D00         MOV     R5,#0x0
   \   000056   90....       MOV     DPTR,#Lcd_Line1
   \   000059   E0           MOVX    A,@DPTR
   \   00005A   FA           MOV     R2,A
   \   00005B   A3           INC     DPTR
   \   00005C   E0           MOVX    A,@DPTR
   \   00005D   FB           MOV     R3,A
   \   00005E   12....       LCALL   ??Subroutine15_0 & 0xFFFF
   \                     ??CrossCallReturnLabel_14:
   \   000061   12....       LCALL   ?DEALLOC_XSTACK8
    251              Lcd_Line1[strLen] = '\0';
   \   000064   90....       MOV     DPTR,#Lcd_Line1
   \   000067   E0           MOVX    A,@DPTR
   \   000068   25..         ADD     A,?V0 + 12
   \   00006A   FA           MOV     R2,A
   \   00006B   A3           INC     DPTR
   \   00006C   E0           MOVX    A,@DPTR
   \   00006D   3400         ADDC    A,#0x0
   \   00006F   8A82         MOV     DPL,R2
   \   000071   F583         MOV     DPH,A
   \   000073   E4           CLR     A
   \   000074   F0           MOVX    @DPTR,A
   \   000075   02....       LJMP    ??HalLcdWriteString_4 & 0xFFFF
    252            }
    253            else
    254            {
    255              /* Line 2 triggers action */
    256              tmpLen = (uint8)osal_strlen( (char*)Lcd_Line1 );
   \                     ??HalLcdWriteString_3:
   \   000078                ; Setup parameters for call to function osal_strlen
   \   000078   90....       MOV     DPTR,#Lcd_Line1
   \   00007B   E0           MOVX    A,@DPTR
   \   00007C   FA           MOV     R2,A
   \   00007D   A3           INC     DPTR
   \   00007E   E0           MOVX    A,@DPTR
   \   00007F   FB           MOV     R3,A
   \   000080   12....       LCALL   ??osal_strlen?relay
   \   000083   EA           MOV     A,R2
   \   000084   F5..         MOV     ?V0 + 6,A
    257              totalLen =  tmpLen + 1 + strLen + 1;
    258              buf = osal_mem_alloc( totalLen );
   \   000086                ; Setup parameters for call to function osal_mem_alloc
   \   000086   EE           MOV     A,R6
   \   000087   25..         ADD     A,?V0 + 6
   \   000089   2402         ADD     A,#0x2
   \   00008B   FA           MOV     R2,A
   \   00008C   7B00         MOV     R3,#0x0
   \   00008E   12....       LCALL   ??osal_mem_alloc?relay
   \   000091   8A..         MOV     ?V0 + 4,R2
   \   000093   8B..         MOV     ?V0 + 5,R3
    259              if ( buf != NULL )
   \   000095   EA           MOV     A,R2
   \   000096   7001         JNZ     ??HalLcdWriteString_5
   \   000098   EB           MOV     A,R3
   \                     ??HalLcdWriteString_5:
   \   000099   6067         JZ      ??HalLcdWriteString_4
    260              {
    261                /* Concatenate strings */
    262                osal_memcpy( buf, Lcd_Line1, tmpLen );
   \   00009B                ; Setup parameters for call to function osal_memcpy
   \   00009B   90....       MOV     DPTR,#Lcd_Line1
   \   00009E   E0           MOVX    A,@DPTR
   \   00009F   F5..         MOV     ?V0 + 8,A
   \   0000A1   A3           INC     DPTR
   \   0000A2   E0           MOVX    A,@DPTR
   \   0000A3   F5..         MOV     ?V0 + 9,A
   \   0000A5   75..00       MOV     ?V0 + 10,#0x0
   \   0000A8   78..         MOV     R0,#?V0 + 8
   \   0000AA   12....       LCALL   ?PUSH_XSTACK_I_THREE
   \   0000AD   AC..         MOV     R4,?V0 + 6
   \   0000AF   7D00         MOV     R5,#0x0
   \   0000B1   12....       LCALL   ??Subroutine15_0 & 0xFFFF
   \                     ??CrossCallReturnLabel_15:
   \   0000B4   12....       LCALL   ?DEALLOC_XSTACK8
    263                buf[tmpLen++] = ' ';
   \   0000B7   85....       MOV     ?V0 + 8,?V0 + 6
   \   0000BA   E5..         MOV     A,?V0 + 4
   \   0000BC   25..         ADD     A,?V0 + 8
   \   0000BE   F582         MOV     DPL,A
   \   0000C0   E5..         MOV     A,?V0 + 5
   \   0000C2   12....       LCALL   ??Subroutine14_0 & 0xFFFF
   \                     ??CrossCallReturnLabel_7:
   \   0000C5   05..         INC     ?V0 + 6
    264                osal_memcpy( &buf[tmpLen], str, strLen );
   \   0000C7                ; Setup parameters for call to function osal_memcpy
   \   0000C7   78..         MOV     R0,#?V0 + 0
   \   0000C9   12....       LCALL   ?PUSH_XSTACK_I_THREE
   \   0000CC   EE           MOV     A,R6
   \   0000CD   FC           MOV     R4,A
   \   0000CE   7D00         MOV     R5,#0x0
   \   0000D0   E5..         MOV     A,?V0 + 4
   \   0000D2   25..         ADD     A,?V0 + 6
   \   0000D4   FA           MOV     R2,A
   \   0000D5   E5..         MOV     A,?V0 + 5
   \   0000D7   3400         ADDC    A,#0x0
   \   0000D9   FB           MOV     R3,A
   \   0000DA   12....       LCALL   ??Subroutine15_0 & 0xFFFF
   \                     ??CrossCallReturnLabel_16:
   \   0000DD   12....       LCALL   ?DEALLOC_XSTACK8
    265                buf[tmpLen+strLen] = '\0';
   \   0000E0   EE           MOV     A,R6
   \   0000E1   25..         ADD     A,?V0 + 6
   \   0000E3   F8           MOV     R0,A
   \   0000E4   E4           CLR     A
   \   0000E5   3400         ADDC    A,#0x0
   \   0000E7   F9           MOV     R1,A
   \   0000E8   E5..         MOV     A,?V0 + 4
   \   0000EA   28           ADD     A,R0
   \   0000EB   F582         MOV     DPL,A
   \   0000ED   E5..         MOV     A,?V0 + 5
   \   0000EF   39           ADDC    A,R1
   \   0000F0   F583         MOV     DPH,A
   \   0000F2   E4           CLR     A
   \   0000F3   F0           MOVX    @DPTR,A
    266          
    267                /* Send it out */
    268          #if defined (ZTOOL_P1) || defined (ZTOOL_P2)
    269          
    270          #if defined(SERIAL_DEBUG_SUPPORTED)
    271                debug_str( (uint8*)buf );
   \   0000F4                ; Setup parameters for call to function debug_str
   \   0000F4   AA..         MOV     R2,?V0 + 4
   \   0000F6   AB..         MOV     R3,?V0 + 5
   \   0000F8   12....       LCALL   ??debug_str?relay
    272          #endif //LCD_SUPPORTED
    273          
    274          #endif //ZTOOL_P1
    275          
    276                /* Free mem */
    277                osal_mem_free( buf );
   \   0000FB                ; Setup parameters for call to function osal_mem_free
   \   0000FB   AA..         MOV     R2,?V0 + 4
   \   0000FD   AB..         MOV     R3,?V0 + 5
   \   0000FF   12....       LCALL   ??osal_mem_free?relay
    278              }
    279            }
    280          
    281            /* Display the string */
    282            HalLcd_HW_WriteLine (option, str);
   \                     ??HalLcdWriteString_4:
   \   000102                ; Setup parameters for call to function HalLcd_HW_WriteLine
   \   000102   AA..         MOV     R2,?V0 + 14
   \   000104   AB..         MOV     R3,?V0 + 15
   \   000106   A9..         MOV     R1,?V0 + 3
   \   000108   12....       LCALL   ??HalLcd_HW_WriteLine?relay
    283          
    284          #endif //HAL_LCD
    285          
    286          }
   \   00010B   7F10         MOV     R7,#0x10
   \   00010D   02....       LJMP    ?BANKED_LEAVE_XDATA

   \                                 In  segment BANKED_CODE, align 1, keep-with-next
   \                     ??Subroutine14_0:
   \   000000   3400         ADDC    A,#0x0
   \   000002   F583         MOV     DPH,A
   \   000004   7420         MOV     A,#0x20
   \   000006   F0           MOVX    @DPTR,A
   \   000007   22           RET

   \                                 In  segment BANKED_CODE, align 1, keep-with-next
   \                     ??Subroutine15_0:
   \   000000   12....       LCALL   ??osal_memcpy?relay
   \   000003   7403         MOV     A,#0x3
   \   000005   22           RET
    287          
    288          /**************************************************************************************************
    289           * @fn      HalLcdWriteValue
    290           *
    291           * @brief   Write a value to the LCD
    292           *
    293           * @param   value  - value that will be displayed
    294           *          radix  - 8, 10, 16
    295           *          option - display options
    296           *
    297           * @return  None
    298           **************************************************************************************************/

   \                                 In  segment BANKED_CODE, align 1, keep-with-next
    299          void HalLcdWriteValue ( uint32 value, const uint8 radix, uint8 option)
   \                     HalLcdWriteValue:
    300          {
   \   000000   74F2         MOV     A,#-0xe
   \   000002   12....       LCALL   ?BANKED_ENTER_XDATA
   \   000005                ; Saved register size: 14
   \   000005                ; Auto size: 25
   \   000005   74E7         MOV     A,#-0x19
   \   000007   12....       LCALL   ?ALLOC_XSTACK8
   \   00000A   7427         MOV     A,#0x27
   \   00000C   12....       LCALL   ?XSTACK_DISP0_8
   \   00000F   E0           MOVX    A,@DPTR
   \   000010   FE           MOV     R6,A
    301          #if (HAL_LCD == TRUE)
    302            uint8 buf[LCD_MAX_BUF];
    303          
    304            _ltoa( value, &buf[0], radix );
   \   000011                ; Setup parameters for call to function _ltoa
   \   000011   85..82       MOV     DPL,?XSP + 0
   \   000014   85..83       MOV     DPH,?XSP + 1
   \   000017   8582..       MOV     ?V0 + 4,DPL
   \   00001A   8583..       MOV     ?V0 + 5,DPH
   \   00001D   78..         MOV     R0,#?V0 + 4
   \   00001F   12....       LCALL   ?PUSH_XSTACK_I_TWO
   \   000022   12....       LCALL   ??Subroutine17_0 & 0xFFFF
   \                     ??CrossCallReturnLabel_21:
   \   000025   12....       LCALL   ?DEALLOC_XSTACK8
    305            HalLcdWriteString( (char*)buf, option );
   \   000028                ; Setup parameters for call to function HalLcdWriteString
   \   000028   EE           MOV     A,R6
   \   000029   F9           MOV     R1,A
   \   00002A   85..82       MOV     DPL,?XSP + 0
   \   00002D   85..83       MOV     DPH,?XSP + 1
   \   000030   AA82         MOV     R2,DPL
   \   000032   AB83         MOV     R3,DPH
   \   000034   12....       LCALL   ??HalLcdWriteString?relay
    306          #endif
    307          }
   \   000037   7419         MOV     A,#0x19
   \   000039   12....       LCALL   ?DEALLOC_XSTACK8
   \   00003C   7F06         MOV     R7,#0x6
   \   00003E   02....       LJMP    ?BANKED_LEAVE_XDATA

   \                                 In  segment BANKED_CODE, align 1, keep-with-next
   \                     ??Subroutine17_0:
   \   000000   12....       LCALL   ??_ltoa?relay
   \   000003   7402         MOV     A,#0x2
   \   000005   22           RET
    308          
    309          /**************************************************************************************************
    310           * @fn      HalLcdWriteScreen
    311           *
    312           * @brief   Write a value to the LCD
    313           *
    314           * @param   line1  - string that will be displayed on line 1
    315           *          line2  - string that will be displayed on line 2
    316           *
    317           * @return  None
    318           **************************************************************************************************/

   \                                 In  segment BANKED_CODE, align 1, keep-with-next
    319          void HalLcdWriteScreen( char *line1, char *line2 )
   \                     HalLcdWriteScreen:
    320          {
   \   000000   74F7         MOV     A,#-0x9
   \   000002   12....       LCALL   ?BANKED_ENTER_XDATA
   \   000005                ; Saved register size: 9
   \   000005                ; Auto size: 0
   \   000005   EC           MOV     A,R4
   \   000006   FE           MOV     R6,A
   \   000007   ED           MOV     A,R5
   \   000008   FF           MOV     R7,A
    321          #if (HAL_LCD == TRUE)
    322            HalLcdWriteString( line1, 1 );
   \   000009                ; Setup parameters for call to function HalLcdWriteString
   \   000009   7901         MOV     R1,#0x1
   \   00000B   12....       LCALL   ??HalLcdWriteString?relay
    323            HalLcdWriteString( line2, 2 );
   \   00000E                ; Setup parameters for call to function HalLcdWriteString
   \   00000E   7902         MOV     R1,#0x2
   \   000010   EE           MOV     A,R6
   \   000011   FA           MOV     R2,A
   \   000012   EF           MOV     A,R7
   \   000013   FB           MOV     R3,A
   \   000014   12....       LCALL   ??HalLcdWriteString?relay
    324          #endif
    325          }
   \   000017                REQUIRE ?Subroutine11
   \   000017                ; // Fall through to label ?Subroutine11

   \                                 In  segment BANKED_CODE, align 1, keep-with-next
   \                     ?Subroutine11:
   \   000000   7F01         MOV     R7,#0x1
   \   000002   02....       LJMP    ?BANKED_LEAVE_XDATA
    326          
    327          /**************************************************************************************************
    328           * @fn      HalLcdWriteStringValue
    329           *
    330           * @brief   Write a string followed by a value to the LCD
    331           *
    332           * @param   title  - Title that will be displayed before the value
    333           *          value  - value
    334           *          format - redix
    335           *          line   - line number
    336           *
    337           * @return  None
    338           **************************************************************************************************/

   \                                 In  segment BANKED_CODE, align 1, keep-with-next
    339          void HalLcdWriteStringValue( char *title, uint16 value, uint8 format, uint8 line )
   \                     HalLcdWriteStringValue:
    340          {
   \   000000   74EE         MOV     A,#-0x12
   \   000002   12....       LCALL   ?BANKED_ENTER_XDATA
   \   000005                ; Saved register size: 18
   \   000005                ; Auto size: 25
   \   000005   74E7         MOV     A,#-0x19
   \   000007   12....       LCALL   ?ALLOC_XSTACK8
   \   00000A   EA           MOV     A,R2
   \   00000B   FE           MOV     R6,A
   \   00000C   EB           MOV     A,R3
   \   00000D   FF           MOV     R7,A
   \   00000E   8C..         MOV     ?V0 + 6,R4
   \   000010   8D..         MOV     ?V0 + 7,R5
   \   000012   89..         MOV     ?V0 + 4,R1
   \   000014   742B         MOV     A,#0x2b
   \   000016   12....       LCALL   ?XSTACK_DISP0_8
   \   000019   E0           MOVX    A,@DPTR
   \   00001A   F5..         MOV     ?V0 + 3,A
    341          #if (HAL_LCD == TRUE)
    342            uint8 tmpLen;
    343            uint8 buf[LCD_MAX_BUF];
    344            uint32 err;
    345          
    346            tmpLen = (uint8)osal_strlen( (char*)title );
   \   00001C                ; Setup parameters for call to function osal_strlen
   \   00001C   12....       LCALL   ?Subroutine4 & 0xFFFF
    347            osal_memcpy( buf, title, tmpLen );
   \                     ??CrossCallReturnLabel_2:
   \   00001F                ; Setup parameters for call to function osal_memcpy
   \   00001F   8E..         MOV     ?V0 + 0,R6
   \   000021   8F..         MOV     ?V0 + 1,R7
   \   000023   75..00       MOV     ?V0 + 2,#0x0
   \   000026   78..         MOV     R0,#?V0 + 0
   \   000028   12....       LCALL   ?PUSH_XSTACK_I_THREE
   \   00002B   EA           MOV     A,R2
   \   00002C   FC           MOV     R4,A
   \   00002D   7D00         MOV     R5,#0x0
   \   00002F   7403         MOV     A,#0x3
   \   000031   12....       LCALL   ?XSTACK_DISP0_8
   \   000034   12....       LCALL   ?Subroutine2 & 0xFFFF
   \                     ??CrossCallReturnLabel_11:
   \   000037   12....       LCALL   ?DEALLOC_XSTACK8
    348            buf[tmpLen] = ' ';
   \   00003A   85..82       MOV     DPL,?XSP + 0
   \   00003D   85..83       MOV     DPH,?XSP + 1
   \   000040   E582         MOV     A,DPL
   \   000042   25..         ADD     A,?V0 + 8
   \   000044   12....       LCALL   ?Subroutine1 & 0xFFFF
    349            err = (uint32)(value);
    350            _ltoa( err, &buf[tmpLen+1], format );
   \                     ??CrossCallReturnLabel_8:
   \   000047                ; Setup parameters for call to function _ltoa
   \   000047   A3           INC     DPTR
   \   000048   8582..       MOV     ?V0 + 0,DPL
   \   00004B   8583..       MOV     ?V0 + 1,DPH
   \   00004E   78..         MOV     R0,#?V0 + 0
   \   000050   12....       LCALL   ?PUSH_XSTACK_I_TWO
   \   000053   A9..         MOV     R1,?V0 + 4
   \   000055   AA..         MOV     R2,?V0 + 6
   \   000057   AB..         MOV     R3,?V0 + 7
   \   000059   12....       LCALL   ??Subroutine16_0 & 0xFFFF
   \                     ??CrossCallReturnLabel_19:
   \   00005C   12....       LCALL   ?DEALLOC_XSTACK8
    351            HalLcdWriteString( (char*)buf, line );		
   \   00005F                ; Setup parameters for call to function HalLcdWriteString
   \   00005F   A9..         MOV     R1,?V0 + 3
   \   000061                REQUIRE ?Subroutine12
   \   000061                ; // Fall through to label ?Subroutine12
    352          #endif
    353          }

   \                                 In  segment BANKED_CODE, align 1, keep-with-next
   \                     ?Subroutine12:
   \   000000   85..82       MOV     DPL,?XSP + 0
   \   000003   85..83       MOV     DPH,?XSP + 1
   \   000006   AA82         MOV     R2,DPL
   \   000008   AB83         MOV     R3,DPH
   \   00000A   12....       LCALL   ??HalLcdWriteString?relay
   \   00000D   7419         MOV     A,#0x19
   \   00000F   12....       LCALL   ?DEALLOC_XSTACK8
   \   000012   7F0A         MOV     R7,#0xa
   \   000014   02....       LJMP    ?BANKED_LEAVE_XDATA

   \                                 In  segment BANKED_CODE, align 1, keep-with-next
   \                     ?Subroutine1:
   \   000000   F582         MOV     DPL,A
   \   000002   E583         MOV     A,DPH
   \   000004                REQUIRE ??Subroutine14_0
   \   000004                ; // Fall through to label ??Subroutine14_0

   \                                 In  segment BANKED_CODE, align 1, keep-with-next
   \                     ?Subroutine4:
   \   000000   12....       LCALL   ??osal_strlen?relay
   \   000003   EA           MOV     A,R2
   \   000004   F5..         MOV     ?V0 + 8,A
   \   000006   22           RET

   \                                 In  segment BANKED_CODE, align 1, keep-with-next
   \                     ?Subroutine2:
   \   000000   AA82         MOV     R2,DPL
   \   000002   AB83         MOV     R3,DPH
   \   000004                REQUIRE ??Subroutine15_0
   \   000004                ; // Fall through to label ??Subroutine15_0

   \                                 In  segment BANKED_CODE, align 1, keep-with-next
   \                     ??Subroutine16_0:
   \   000000   7C00         MOV     R4,#0x0
   \   000002   7D00         MOV     R5,#0x0
   \   000004                REQUIRE ??Subroutine17_0
   \   000004                ; // Fall through to label ??Subroutine17_0
    354          
    355          /**************************************************************************************************
    356           * @fn      HalLcdWriteStringValue
    357           *
    358           * @brief   Write a string followed by a value to the LCD
    359           *
    360           * @param   title   - Title that will be displayed before the value
    361           *          value1  - value #1
    362           *          format1 - redix of value #1
    363           *          value2  - value #2
    364           *          format2 - redix of value #2
    365           *          line    - line number
    366           *
    367           * @return  None
    368           **************************************************************************************************/

   \                                 In  segment BANKED_CODE, align 1, keep-with-next
    369          void HalLcdWriteStringValueValue( char *title, uint16 value1, uint8 format1,
   \                     HalLcdWriteStringValueValue:
    370                                            uint16 value2, uint8 format2, uint8 line )
    371          {
   \   000000   74EE         MOV     A,#-0x12
   \   000002   12....       LCALL   ?BANKED_ENTER_XDATA
   \   000005                ; Saved register size: 18
   \   000005                ; Auto size: 25
   \   000005   74E7         MOV     A,#-0x19
   \   000007   12....       LCALL   ?ALLOC_XSTACK8
   \   00000A   8A..         MOV     ?V0 + 4,R2
   \   00000C   8B..         MOV     ?V0 + 5,R3
   \   00000E   8C..         MOV     ?V0 + 0,R4
   \   000010   8D..         MOV     ?V0 + 1,R5
   \   000012   89..         MOV     ?V0 + 7,R1
   \   000014   742B         MOV     A,#0x2b
   \   000016   12....       LCALL   ?XSTACK_DISP0_8
   \   000019   E0           MOVX    A,@DPTR
   \   00001A   FE           MOV     R6,A
   \   00001B   A3           INC     DPTR
   \   00001C   E0           MOVX    A,@DPTR
   \   00001D   FF           MOV     R7,A
   \   00001E   742D         MOV     A,#0x2d
   \   000020   12....       LCALL   ?XSTACK_DISP0_8
   \   000023   E0           MOVX    A,@DPTR
   \   000024   F5..         MOV     ?V0 + 3,A
   \   000026   742E         MOV     A,#0x2e
   \   000028   12....       LCALL   ?XSTACK_DISP0_8
   \   00002B   E0           MOVX    A,@DPTR
   \   00002C   F5..         MOV     ?V0 + 2,A
    372          
    373          #if (HAL_LCD == TRUE)
    374          
    375            uint8 tmpLen;
    376            uint8 buf[LCD_MAX_BUF];
    377            uint32 err;
    378          
    379            tmpLen = (uint8)osal_strlen( (char*)title );
   \   00002E                ; Setup parameters for call to function osal_strlen
   \   00002E   12....       LCALL   ?Subroutine4 & 0xFFFF
    380            if ( tmpLen )
   \                     ??CrossCallReturnLabel_3:
   \   000031   6028         JZ      ??HalLcdWriteStringValueValue_0
    381            {
    382              osal_memcpy( buf, title, tmpLen );
   \   000033                ; Setup parameters for call to function osal_memcpy
   \   000033   75..00       MOV     ?V0 + 6,#0x0
   \   000036   78..         MOV     R0,#?V0 + 4
   \   000038   12....       LCALL   ?PUSH_XSTACK_I_THREE
   \   00003B   EA           MOV     A,R2
   \   00003C   F5..         MOV     ?V0 + 4,A
   \   00003E   FC           MOV     R4,A
   \   00003F   7D00         MOV     R5,#0x0
   \   000041   7403         MOV     A,#0x3
   \   000043   12....       LCALL   ?XSTACK_DISP0_8
   \   000046   12....       LCALL   ?Subroutine2 & 0xFFFF
   \                     ??CrossCallReturnLabel_12:
   \   000049   12....       LCALL   ?DEALLOC_XSTACK8
    383              buf[tmpLen++] = ' ';
   \   00004C   85..82       MOV     DPL,?XSP + 0
   \   00004F   85..83       MOV     DPH,?XSP + 1
   \   000052   E582         MOV     A,DPL
   \   000054   25..         ADD     A,?V0 + 4
   \   000056   12....       LCALL   ?Subroutine1 & 0xFFFF
    384            }
   \                     ??CrossCallReturnLabel_9:
   \   000059   05..         INC     ?V0 + 8
    385          
    386            err = (uint32)(value1);
    387            _ltoa( err, &buf[tmpLen], format1 );
   \                     ??HalLcdWriteStringValueValue_0:
   \   00005B                ; Setup parameters for call to function _ltoa
   \   00005B   85..82       MOV     DPL,?XSP + 0
   \   00005E   85..83       MOV     DPH,?XSP + 1
   \   000061   E582         MOV     A,DPL
   \   000063   25..         ADD     A,?V0 + 8
   \   000065   F5..         MOV     ?V0 + 4,A
   \   000067   E583         MOV     A,DPH
   \   000069   3400         ADDC    A,#0x0
   \   00006B   F5..         MOV     ?V0 + 5,A
   \   00006D   78..         MOV     R0,#?V0 + 4
   \   00006F   12....       LCALL   ?PUSH_XSTACK_I_TWO
   \   000072   A9..         MOV     R1,?V0 + 7
   \   000074   12....       LCALL   ?Subroutine3 & 0xFFFF
   \                     ??CrossCallReturnLabel_17:
   \   000077   12....       LCALL   ?DEALLOC_XSTACK8
    388            tmpLen = (uint8)osal_strlen( (char*)buf );
   \   00007A                ; Setup parameters for call to function osal_strlen
   \   00007A   85..82       MOV     DPL,?XSP + 0
   \   00007D   85..83       MOV     DPH,?XSP + 1
   \   000080   AA82         MOV     R2,DPL
   \   000082   AB83         MOV     R3,DPH
   \   000084   12....       LCALL   ?Subroutine4 & 0xFFFF
    389          
    390            buf[tmpLen++] = ',';
   \                     ??CrossCallReturnLabel_4:
   \   000087   F5..         MOV     ?V0 + 0,A
   \   000089   85..82       MOV     DPL,?XSP + 0
   \   00008C   85..83       MOV     DPH,?XSP + 1
   \   00008F   E582         MOV     A,DPL
   \   000091   25..         ADD     A,?V0 + 0
   \   000093   F582         MOV     DPL,A
   \   000095   E583         MOV     A,DPH
   \   000097   3400         ADDC    A,#0x0
   \   000099   F583         MOV     DPH,A
   \   00009B   742C         MOV     A,#0x2c
   \   00009D   F0           MOVX    @DPTR,A
   \   00009E   05..         INC     ?V0 + 8
    391            buf[tmpLen++] = ' ';
   \   0000A0   85....       MOV     ?V0 + 0,?V0 + 8
   \   0000A3   85..82       MOV     DPL,?XSP + 0
   \   0000A6   85..83       MOV     DPH,?XSP + 1
   \   0000A9   E582         MOV     A,DPL
   \   0000AB   25..         ADD     A,?V0 + 0
   \   0000AD   12....       LCALL   ?Subroutine1 & 0xFFFF
    392            err = (uint32)(value2);
    393            _ltoa( err, &buf[tmpLen], format2 );
   \                     ??CrossCallReturnLabel_10:
   \   0000B0                ; Setup parameters for call to function _ltoa
   \   0000B0   7401         MOV     A,#0x1
   \   0000B2   25..         ADD     A,?V0 + 8
   \   0000B4   F8           MOV     R0,A
   \   0000B5   85..82       MOV     DPL,?XSP + 0
   \   0000B8   85..83       MOV     DPH,?XSP + 1
   \   0000BB   E582         MOV     A,DPL
   \   0000BD   28           ADD     A,R0
   \   0000BE   F5..         MOV     ?V0 + 0,A
   \   0000C0   E583         MOV     A,DPH
   \   0000C2   3400         ADDC    A,#0x0
   \   0000C4   F5..         MOV     ?V0 + 1,A
   \   0000C6   78..         MOV     R0,#?V0 + 0
   \   0000C8   12....       LCALL   ?PUSH_XSTACK_I_TWO
   \   0000CB   A9..         MOV     R1,?V0 + 3
   \   0000CD   8E..         MOV     ?V0 + 0,R6
   \   0000CF   8F..         MOV     ?V0 + 1,R7
   \   0000D1   12....       LCALL   ?Subroutine3 & 0xFFFF
   \                     ??CrossCallReturnLabel_18:
   \   0000D4   12....       LCALL   ?DEALLOC_XSTACK8
    394          
    395            HalLcdWriteString( (char *)buf, line );		
   \   0000D7                ; Setup parameters for call to function HalLcdWriteString
   \   0000D7   A9..         MOV     R1,?V0 + 2
   \   0000D9   02....       LJMP    ?Subroutine12 & 0xFFFF
    396          
    397          #endif
    398          }

   \                                 In  segment BANKED_CODE, align 1, keep-with-next
   \                     ?Subroutine3:
   \   000000   AA..         MOV     R2,?V0 + 0
   \   000002   AB..         MOV     R3,?V0 + 1
   \   000004                REQUIRE ??Subroutine16_0
   \   000004                ; // Fall through to label ??Subroutine16_0
    399          
    400          /**************************************************************************************************
    401           * @fn      HalLcdDisplayPercentBar
    402           *
    403           * @brief   Display percentage bar on the LCD
    404           *
    405           * @param   title   -
    406           *          value   -
    407           *
    408           * @return  None
    409           **************************************************************************************************/

   \                                 In  segment BANKED_CODE, align 1, keep-with-next
    410          void HalLcdDisplayPercentBar( char *title, uint8 value )
   \                     HalLcdDisplayPercentBar:
    411          {
   \   000000   74F1         MOV     A,#-0xf
   \   000002   12....       LCALL   ?BANKED_ENTER_XDATA
   \   000005                ; Saved register size: 15
   \   000005                ; Auto size: 17
   \   000005   74EF         MOV     A,#-0x11
   \   000007   12....       LCALL   ?ALLOC_XSTACK8
   \   00000A   E9           MOV     A,R1
   \   00000B   FE           MOV     R6,A
    412          #if (HAL_LCD == TRUE)
    413          
    414            uint8 percent;
    415            uint8 leftOver;
    416            uint8 buf[17];
    417            uint32 err;
    418            uint8 x;
    419          
    420            /* Write the title: */
    421            HalLcdWriteString( title, HAL_LCD_LINE_1 );
   \   00000C                ; Setup parameters for call to function HalLcdWriteString
   \   00000C   7901         MOV     R1,#0x1
   \   00000E   12....       LCALL   ??HalLcdWriteString?relay
    422          
    423            if ( value > 100 )
   \   000011   EE           MOV     A,R6
   \   000012   C3           CLR     C
   \   000013   9465         SUBB    A,#0x65
   \   000015   4002         JC      ??HalLcdDisplayPercentBar_0
    424              value = 100;
   \   000017   7E64         MOV     R6,#0x64
    425          
    426            /* convert to blocks */
    427            percent = (uint8)(value / 10);
   \                     ??HalLcdDisplayPercentBar_0:
   \   000019   75F00A       MOV     B,#0xa
   \   00001C   EE           MOV     A,R6
   \   00001D   84           DIV     AB
   \   00001E   FF           MOV     R7,A
    428            leftOver = (uint8)(value % 10);
   \   00001F   EE           MOV     A,R6
   \   000020   75F00A       MOV     B,#0xa
   \   000023   84           DIV     AB
   \   000024   E5F0         MOV     A,B
   \   000026   F5..         MOV     ?V0 + 0,A
    429          
    430            /* Make window */
    431            osal_memcpy( buf, "[          ]  ", 15 );
   \   000028                ; Setup parameters for call to function osal_memcpy
   \   000028   75....       MOV     ?V0 + 4,#(`?<Constant "[          ]  ">` & 0xff)
   \   00002B   75....       MOV     ?V0 + 5,#((`?<Constant "[          ]  ">` >> 8) & 0xff)
   \   00002E   75..00       MOV     ?V0 + 6,#0x0
   \   000031   78..         MOV     R0,#?V0 + 4
   \   000033   12....       LCALL   ?PUSH_XSTACK_I_THREE
   \   000036   7C0F         MOV     R4,#0xf
   \   000038   7D00         MOV     R5,#0x0
   \   00003A   7403         MOV     A,#0x3
   \   00003C   12....       LCALL   ?XSTACK_DISP0_8
   \   00003F   12....       LCALL   ?Subroutine2 & 0xFFFF
   \                     ??CrossCallReturnLabel_13:
   \   000042   12....       LCALL   ?DEALLOC_XSTACK8
    432          
    433            for ( x = 0; x < percent; x ++ )
   \   000045   7A00         MOV     R2,#0x0
   \   000047   8004         SJMP    ??HalLcdDisplayPercentBar_1
    434            {
    435              buf[1+x] = '>';
   \                     ??HalLcdDisplayPercentBar_2:
   \   000049   743E         MOV     A,#0x3e
   \   00004B   F0           MOVX    @DPTR,A
    436            }
   \   00004C   0A           INC     R2
   \                     ??HalLcdDisplayPercentBar_1:
   \   00004D   8A..         MOV     ?V0 + 2,R2
   \   00004F   85..82       MOV     DPL,?XSP + 0
   \   000052   85..83       MOV     DPH,?XSP + 1
   \   000055   E582         MOV     A,DPL
   \   000057   25..         ADD     A,?V0 + 2
   \   000059   F582         MOV     DPL,A
   \   00005B   E583         MOV     A,DPH
   \   00005D   3400         ADDC    A,#0x0
   \   00005F   F583         MOV     DPH,A
   \   000061   A3           INC     DPTR
   \   000062   EA           MOV     A,R2
   \   000063   C3           CLR     C
   \   000064   9F           SUBB    A,R7
   \   000065   40E2         JC      ??HalLcdDisplayPercentBar_2
    437          
    438            if ( leftOver >= 5 )
   \   000067   E5..         MOV     A,?V0 + 0
   \   000069   C3           CLR     C
   \   00006A   9405         SUBB    A,#0x5
   \   00006C   4003         JC      ??HalLcdDisplayPercentBar_3
    439              buf[1+x] = '+';
   \   00006E   742B         MOV     A,#0x2b
   \   000070   F0           MOVX    @DPTR,A
    440          
    441            err = (uint32)value;
    442            _ltoa( err, (uint8*)&buf[13], 10 );
   \                     ??HalLcdDisplayPercentBar_3:
   \   000071                ; Setup parameters for call to function _ltoa
   \   000071   740D         MOV     A,#0xd
   \   000073   12....       LCALL   ?XSTACK_DISP0_8
   \   000076   8582..       MOV     ?V0 + 0,DPL
   \   000079   8583..       MOV     ?V0 + 1,DPH
   \   00007C   78..         MOV     R0,#?V0 + 0
   \   00007E   12....       LCALL   ?PUSH_XSTACK_I_TWO
   \   000081   790A         MOV     R1,#0xa
   \   000083   EE           MOV     A,R6
   \   000084   FA           MOV     R2,A
   \   000085   7B00         MOV     R3,#0x0
   \   000087   12....       LCALL   ??Subroutine16_0 & 0xFFFF
   \                     ??CrossCallReturnLabel_20:
   \   00008A   12....       LCALL   ?DEALLOC_XSTACK8
    443          
    444            HalLcdWriteString( (char*)buf, HAL_LCD_LINE_2 );
   \   00008D                ; Setup parameters for call to function HalLcdWriteString
   \   00008D   7902         MOV     R1,#0x2
   \   00008F   85..82       MOV     DPL,?XSP + 0
   \   000092   85..83       MOV     DPH,?XSP + 1
   \   000095   AA82         MOV     R2,DPL
   \   000097   AB83         MOV     R3,DPH
   \   000099   12....       LCALL   ??HalLcdWriteString?relay
    445          
    446          #endif
    447          
    448          }
   \   00009C   7411         MOV     A,#0x11
   \   00009E   12....       LCALL   ?DEALLOC_XSTACK8
   \   0000A1   7F07         MOV     R7,#0x7
   \   0000A3   02....       LJMP    ?BANKED_LEAVE_XDATA
    449          
    450          
    451          #if (HAL_LCD == TRUE)
    452          /**************************************************************************************************
    453           *                                    HARDWARE LCD
    454           **************************************************************************************************/
    455          
    456          /*******************************************************************************
    457           * @fn      initLcd
    458           *
    459           * @brief   Initilize HW LCD Driver.
    460           *
    461           * @param   None
    462           *
    463           * @return  None
    464           ******************************************************************************/

   \                                 In  segment BANKED_CODE, align 1, keep-with-next
    465          void initLcd(void)
   \                     initLcd:
    466          {   
   \   000000   C082         PUSH    DPL
   \   000002   C083         PUSH    DPH
   \   000004                ; Saved register size: 2
   \   000004                ; Auto size: 0
    467            
    468              // LCD Setting output
    469              HAL_LCD_EN_OUTPUT();
   \   000004   53F5FE       ANL     0xf5,#0xfe
   \   000007   43FF01       ORL     0xff,#0x1
    470              HAL_LCD_RS_OUTPUT();	
   \   00000A   53F3BF       ANL     0xf3,#0xbf
   \   00000D   43FD40       ORL     0xfd,#0x40
    471              HAL_LCD_DATA_OUTPUT();
   \   000010   E5F4         MOV     A,0xf4
   \   000012   75F400       MOV     0xf4,#0x0
   \   000015   E5FE         MOV     A,0xfe
   \   000017   75FEFF       MOV     0xfe,#-0x1
    472            
    473              // Perform the initialization sequence
    474              HAL_LCD_RS_DIR_OUTPUT();  
   \   00001A   43FD40       ORL     0xfd,#0x40
    475              HAL_LCD_EN_CLR();
   \   00001D   C2A0         CLR     0xa0.0
    476              halMcuWaitMs(30);
   \   00001F                ; Setup parameters for call to function halMcuWaitMs
   \   00001F   7A1E         MOV     R2,#0x1e
   \   000021   12....       LCALL   ?Subroutine0 & 0xFFFF
    477          
    478              FUNCTION_SET(BUS_8BIT_ON);
    479              halMcuWaitMs(2);
    480              FUNCTION_SET(BUS_8BIT_ON);
   \                     ??CrossCallReturnLabel_0:
   \   000024                ; Setup parameters for call to function lcdCommand
   \   000024   7930         MOV     R1,#0x30
   \   000026   12....       LCALL   ??lcdCommand?relay
    481              halMcuWaitMs(2);
   \   000029                ; Setup parameters for call to function halMcuWaitMs
   \   000029   7A02         MOV     R2,#0x2
   \   00002B   12....       LCALL   ?Subroutine0 & 0xFFFF
    482              FUNCTION_SET(BUS_8BIT_ON);
    483              halMcuWaitMs(2);
    484              FUNCTION_SET(BUS_8BIT_ON | DUAL_LINE_ON);
   \                     ??CrossCallReturnLabel_1:
   \   00002E                ; Setup parameters for call to function lcdCommand
   \   00002E   12....       LCALL   ?Subroutine5 & 0xFFFF
    485              halMcuWaitMs(2);
    486              FUNCTION_SET(BUS_8BIT_ON | DUAL_LINE_ON);
   \                     ??CrossCallReturnLabel_22:
   \   000031                ; Setup parameters for call to function lcdCommand
   \   000031   12....       LCALL   ?Subroutine5 & 0xFFFF
    487              halMcuWaitMs(2);
    488              SET_CURSOR_SHIFT(SHITF_DISPLAY_OFF);
   \                     ??CrossCallReturnLabel_23:
   \   000034                ; Setup parameters for call to function lcdCommand
   \   000034   7910         MOV     R1,#0x10
   \   000036   12....       LCALL   ??lcdCommand?relay
    489              SET_ENTER_MODE(INCREMENT_ON);
   \   000039                ; Setup parameters for call to function lcdCommand
   \   000039   7906         MOV     R1,#0x6
   \   00003B   12....       LCALL   ??lcdCommand?relay
    490              DISPLAY_CLEAR();
   \   00003E                ; Setup parameters for call to function lcdCommand
   \   00003E   7901         MOV     R1,#0x1
   \   000040   12....       LCALL   ??Subroutine18_0 & 0xFFFF
    491              halMcuWaitMs(2);
    492              // Clear the display
    493              HalLcd_HW_Clear();
   \                     ??CrossCallReturnLabel_24:
   \   000043                ; Setup parameters for call to function HalLcd_HW_Clear
   \   000043   12....       LCALL   ??HalLcd_HW_Clear?relay
    494              SET_DISPLAY_CTRL(DISPLAY_CTRL_ON | DISPLAY_CTRL_BLINK_OFF | DISPLAY_CTRL_CURSOR_OFF);
   \   000046                ; Setup parameters for call to function lcdCommand
   \   000046   790C         MOV     R1,#0xc
   \   000048   12....       LCALL   ??lcdCommand?relay
    495          }
   \   00004B   02....       LJMP    ??Subroutine13_0 & 0xFFFF
   \   00004E                REQUIRE _A_P2
   \   00004E                REQUIRE P0SEL
   \   00004E                REQUIRE P1SEL
   \   00004E                REQUIRE P2SEL
   \   00004E                REQUIRE P0DIR
   \   00004E                REQUIRE P1DIR
   \   00004E                REQUIRE P2DIR

   \                                 In  segment BANKED_CODE, align 1, keep-with-next
   \                     ?Subroutine5:
   \   000000   7938         MOV     R1,#0x38
   \   000002                REQUIRE ??Subroutine18_0
   \   000002                ; // Fall through to label ??Subroutine18_0

   \                                 In  segment BANKED_CODE, align 1, keep-with-next
   \                     ??Subroutine18_0:
   \   000000   12....       LCALL   ?Subroutine8 & 0xFFFF
   \                     ??CrossCallReturnLabel_25:
   \   000003   22           RET

   \                                 In  segment BANKED_CODE, align 1, keep-with-next
   \                     ?Subroutine0:
   \   000000   7B00         MOV     R3,#0x0
   \   000002   12....       LCALL   ??halMcuWaitMs?relay
   \   000005                ; Setup parameters for call to function lcdCommand
   \   000005                ; Setup parameters for call to function lcdCommand
   \   000005   7930         MOV     R1,#0x30
   \   000007   12....       LCALL   ?Subroutine8 & 0xFFFF
   \                     ??CrossCallReturnLabel_26:
   \   00000A   22           RET

   \                                 In  segment BANKED_CODE, align 1, keep-with-next
   \                     ?Subroutine8:
   \   000000   12....       LCALL   ??lcdCommand?relay
   \   000003                ; Setup parameters for call to function halMcuWaitMs
   \   000003                ; Setup parameters for call to function halMcuWaitMs
   \   000003                ; Setup parameters for call to function halMcuWaitMs
   \   000003                ; Setup parameters for call to function halMcuWaitMs
   \   000003                ; Setup parameters for call to function halMcuWaitMs
   \   000003   7A02         MOV     R2,#0x2
   \   000005   7B00         MOV     R3,#0x0
   \   000007   12....       LCALL   ??halMcuWaitMs?relay
   \   00000A   22           RET
    496          
    497          /*******************************************************************************
    498           * @fn      HalLcd_HW_Control
    499           *
    500           * @brief   Write 1 command to the LCD
    501           *
    502           * @param   uint8 cmd - command to be written to the LCD
    503           *
    504           * @return  None
    505           ******************************************************************************/
    506          //-------------------------------------------------------------------
    507          // @fn          lcdCommand
    508          // @brief       Send command to display
    509          // @param       uint8 command
    510          // @return      none
    511          //-------------------------------------------------------------------

   \                                 In  segment BANKED_CODE, align 1, keep-with-next
   \                     ?Subroutine9:
   \   000000   12....       LCALL   ?Subroutine6 & 0xFFFF
   \                     ??CrossCallReturnLabel_5:
   \   000003                REQUIRE ??Subroutine13_0
   \   000003                ; // Fall through to label ??Subroutine13_0

   \                                 In  segment BANKED_CODE, align 1, keep-with-next
    512          static void lcdCommand(uint8 command)
   \                     lcdCommand:
    513          {
   \   000000   C082         PUSH    DPL
   \   000002   C083         PUSH    DPH
   \   000004                ; Saved register size: 2
   \   000004                ; Auto size: 0
    514              HAL_LCD_RS_DIR_OUTPUT();
   \   000004   43FD40       ORL     0xfd,#0x40
    515              HAL_LCD_RS_CLR();
   \   000007   C286         CLR     0x80.6
    516              HAL_LCD_DATA(command);
   \   000009   02....       LJMP    ?Subroutine9 & 0xFFFF
   \   00000C                REQUIRE _A_P2
   \   00000C                REQUIRE _A_P1
   \   00000C                REQUIRE _A_P0
   \   00000C                REQUIRE P0DIR
    517              HAL_LCD_EN_SET();
    518              halMcuWaitUs(2);
    519              HAL_LCD_EN_CLR();
    520              halMcuWaitUs(80);
    521              HAL_LCD_DATA(pLedData);
    522          }

   \                                 In  segment BANKED_CODE, align 1, keep-with-next
   \                     ?Subroutine6:
   \   000000   8990         MOV     0x90,R1
   \   000002   D2A0         SETB    0xa0.0
   \   000004                ; Setup parameters for call to function halMcuWaitUs
   \   000004                ; Setup parameters for call to function halMcuWaitUs
   \   000004   7A02         MOV     R2,#0x2
   \   000006   7B00         MOV     R3,#0x0
   \   000008   12....       LCALL   ??halMcuWaitUs?relay
   \   00000B   C2A0         CLR     0xa0.0
   \   00000D                ; Setup parameters for call to function halMcuWaitUs
   \   00000D                ; Setup parameters for call to function halMcuWaitUs
   \   00000D   7A50         MOV     R2,#0x50
   \   00000F   7B00         MOV     R3,#0x0
   \   000011   12....       LCALL   ??halMcuWaitUs?relay
   \   000014   90....       MOV     DPTR,#pLedData
   \   000017   E0           MOVX    A,@DPTR
   \   000018   F590         MOV     0x90,A
   \   00001A   22           RET
    523          
    524          /*******************************************************************************
    525           * @fn      HalLcd_HW_Write
    526           *
    527           * @brief   Write 1 byte to the LCD
    528           *
    529           * @param   uint8 data - data to be written to the LCD
    530           *
    531           * @return  None
    532           ******************************************************************************/
    533          //-------------------------------------------------------------------
    534          // @fn          lcdData
    535          // @brief       Write character to display
    536          // @param       uint8 ch - character to display
    537          // @return      none
    538          //-------------------------------------------------------------------

   \                                 In  segment BANKED_CODE, align 1, keep-with-next
    539          static void lcdData(uint8 ch)
   \                     lcdData:
    540          {
   \   000000   C082         PUSH    DPL
   \   000002   C083         PUSH    DPH
   \   000004                ; Saved register size: 2
   \   000004                ; Auto size: 0
    541              HAL_LCD_RS_DIR_OUTPUT(); 
   \   000004   43FD40       ORL     0xfd,#0x40
    542              HAL_LCD_RS_SET();
   \   000007   D286         SETB    0x80.6
    543              HAL_LCD_DATA(ch);
   \   000009   02....       LJMP    ?Subroutine9 & 0xFFFF
   \   00000C                REQUIRE _A_P2
   \   00000C                REQUIRE _A_P1
   \   00000C                REQUIRE _A_P0
   \   00000C                REQUIRE P0DIR
    544              HAL_LCD_EN_SET();
    545              halMcuWaitUs(2);
    546              HAL_LCD_EN_CLR();
    547              halMcuWaitUs(80);
    548              HAL_LCD_DATA(pLedData);
    549          }
    550          
    551          /**************************************************************************************************
    552           * @fn          HalLcd_HW_SetContrast
    553           *
    554           * @brief       Set display contrast
    555           *
    556           * @param       uint8 value - contrast value
    557           *
    558           * @return      none
    559           **************************************************************************************************/

   \                                 In  segment BANKED_CODE, align 1, keep-with-next
    560          void HalLcd_HW_SetContrast(uint8 value)
   \                     HalLcd_HW_SetContrast:
    561          {
   \   000000   74F7         MOV     A,#-0x9
   \   000002   12....       LCALL   ?BANKED_ENTER_XDATA
   \   000005                ; Saved register size: 9
   \   000005                ; Auto size: 0
   \   000005   E9           MOV     A,R1
   \   000006   FE           MOV     R6,A
    562            SET_ICONRAM_ADDR(CONTRAST_CTRL_REGISTER);
   \   000007                ; Setup parameters for call to function lcdCommand
   \   000007   7950         MOV     R1,#0x50
   \   000009                REQUIRE ?Subroutine10
   \   000009                ; // Fall through to label ?Subroutine10
    563            lcdData(value);
    564          }

   \                                 In  segment BANKED_CODE, align 1, keep-with-next
   \                     ?Subroutine10:
   \   000000   12....       LCALL   ?Subroutine7 & 0xFFFF
   \                     ??CrossCallReturnLabel_6:
   \   000003   02....       LJMP    ?BANKED_LEAVE_XDATA

   \                                 In  segment BANKED_CODE, align 1, keep-with-next
   \                     ?Subroutine7:
   \   000000   12....       LCALL   ??lcdCommand?relay
   \   000003                ; Setup parameters for call to function lcdData
   \   000003                ; Setup parameters for call to function lcdData
   \   000003   EE           MOV     A,R6
   \   000004   F9           MOV     R1,A
   \   000005   12....       LCALL   ??lcdData?relay
   \   000008   7F01         MOV     R7,#0x1
   \   00000A   22           RET
    565          
    566          /*******************************************************************************
    567           * @fn      HalLcd_HW_Clear
    568           *
    569           * @brief   Clear the HW LCD
    570           *
    571           * @param   None
    572           *
    573           * @return  None
    574           ******************************************************************************/

   \                                 In  segment BANKED_CODE, align 1, keep-with-next
    575          void HalLcd_HW_Clear(void)
   \                     HalLcd_HW_Clear:
    576          {
   \   000000   74F7         MOV     A,#-0x9
   \   000002   12....       LCALL   ?BANKED_ENTER_XDATA
   \   000005                ; Saved register size: 9
   \   000005                ; Auto size: 0
    577              uint8 n;
    578              SET_DISPLAY_LINE(LINE1);
   \   000005                ; Setup parameters for call to function lcdCommand
   \   000005   7980         MOV     R1,#-0x80
   \   000007   12....       LCALL   ??lcdCommand?relay
    579              for (n = 0; n < LCD_LINE_LENGTH; n++)
   \   00000A   7E10         MOV     R6,#0x10
    580              {
    581                  lcdData(' ');
   \                     ??HalLcd_HW_Clear_0:
   \   00000C                ; Setup parameters for call to function lcdData
   \   00000C   7920         MOV     R1,#0x20
   \   00000E   12....       LCALL   ??lcdData?relay
    582              }
   \   000011   1E           DEC     R6
   \   000012   EE           MOV     A,R6
   \   000013   70F7         JNZ     ??HalLcd_HW_Clear_0
    583              SET_DISPLAY_LINE(LINE2);
   \   000015                ; Setup parameters for call to function lcdCommand
   \   000015   79C0         MOV     R1,#-0x40
   \   000017   12....       LCALL   ??lcdCommand?relay
    584              for (n = 0; n < LCD_LINE_LENGTH; n++)
   \   00001A   7E10         MOV     R6,#0x10
    585              {
    586                  lcdData(' ');
   \                     ??HalLcd_HW_Clear_1:
   \   00001C                ; Setup parameters for call to function lcdData
   \   00001C   7920         MOV     R1,#0x20
   \   00001E   12....       LCALL   ??lcdData?relay
    587              }
   \   000021   1E           DEC     R6
   \   000022   EE           MOV     A,R6
   \   000023   70F7         JNZ     ??HalLcd_HW_Clear_1
    588          }
   \   000025   02....       LJMP    ?Subroutine11 & 0xFFFF
    589          
    590          /**************************************************************************************************
    591           * @fn      HalLcd_HW_ClearAllSpecChars
    592           *
    593           * @brief   Clear all special chars
    594           *
    595           * @param   None
    596           *
    597           * @return  None
    598           **************************************************************************************************/

   \                                 In  segment BANKED_CODE, align 1, keep-with-next
    599          void HalLcd_HW_ClearAllSpecChars(void)
   \                     HalLcd_HW_ClearAllSpecChars:
    600          {
   \   000000   74F7         MOV     A,#-0x9
   \   000002   12....       LCALL   ?BANKED_ENTER_XDATA
   \   000005                ; Saved register size: 9
   \   000005                ; Auto size: 0
    601            uint8 n = 0;
    602          
    603            SET_GCRAM_CHAR(0);
   \   000005                ; Setup parameters for call to function lcdCommand
   \   000005   7940         MOV     R1,#0x40
   \   000007   12....       LCALL   ??lcdCommand?relay
    604            for (n = 0; n < (8 * 8); n++)
   \   00000A   7E40         MOV     R6,#0x40
    605            {
    606              lcdData(0x00);
   \                     ??HalLcd_HW_ClearAllSpecChars_0:
   \   00000C                ; Setup parameters for call to function lcdData
   \   00000C   7900         MOV     R1,#0x0
   \   00000E   12....       LCALL   ??lcdData?relay
    607            }
   \   000011   1E           DEC     R6
   \   000012   EE           MOV     A,R6
   \   000013   70F7         JNZ     ??HalLcd_HW_ClearAllSpecChars_0
    608          }
   \   000015   02....       LJMP    ?Subroutine11 & 0xFFFF
    609          
    610          /*******************************************************************************
    611           * @fn      HalLcd_HW_WriteChar
    612           *
    613           * @brief   Write one char to the display
    614           *
    615           * @param   uint8 line - line number that the char will be displayed
    616           *          uint8 col - colum where the char will be displayed
    617           *
    618           * @return  None
    619           ******************************************************************************/
    620          /************************************************************
    621           * @fn      HalLcd_HW_WriteChar
    622          ************************************************************/

   \                                 In  segment BANKED_CODE, align 1, keep-with-next
    623          static void lcdUpdateChar( uint8 line, uint8 col, char ch )
   \                     lcdUpdateChar:
    624          {
   \   000000   74F7         MOV     A,#-0x9
   \   000002   12....       LCALL   ?BANKED_ENTER_XDATA
   \   000005                ; Saved register size: 9
   \   000005                ; Auto size: 0
   \   000005   EB           MOV     A,R3
   \   000006   FE           MOV     R6,A
    625              if (line == HAL_LCD_LINE_2)
   \   000007   7402         MOV     A,#0x2
   \   000009   69           XRL     A,R1
   \   00000A   7007         JNZ     ??lcdUpdateChar_0
    626              {
    627                  SET_DISPLAY_LINE(LINE2 + col);
   \   00000C                ; Setup parameters for call to function lcdCommand
   \   00000C   7440         MOV     A,#0x40
   \   00000E   2A           ADD     A,R2
   \   00000F   4480         ORL     A,#0x80
   \   000011   8003         SJMP    ??lcdUpdateChar_1
    628              }
    629              else
    630              {
    631                  SET_DISPLAY_LINE(LINE1 + col);
   \                     ??lcdUpdateChar_0:
   \   000013                ; Setup parameters for call to function lcdCommand
   \   000013   7480         MOV     A,#-0x80
   \   000015   4A           ORL     A,R2
   \                     ??lcdUpdateChar_1:
   \   000016   F9           MOV     R1,A
    632              }
   \   000017   80..         SJMP    ?Subroutine10
    633              lcdData(ch);
    634          }
    635          
    636          /**************************************************************************************************
    637           * @fn          halLcdWriteLine
    638           *
    639           * @brief       Write one line on display
    640           *
    641           * @param       uint8 line - display line
    642           *              char *pText - text buffer to write
    643           *
    644           * @return      none
    645           **************************************************************************************************/

   \                                 In  segment BANKED_CODE, align 1, keep-with-next
    646          void HalLcd_HW_WriteLine(uint8 line, const char *pText)
   \                     HalLcd_HW_WriteLine:
    647          {
   \   000000   74F5         MOV     A,#-0xb
   \   000002   12....       LCALL   ?BANKED_ENTER_XDATA
   \   000005                ; Saved register size: 11
   \   000005                ; Auto size: 0
   \   000005   89..         MOV     ?V0 + 1,R1
   \   000007   EA           MOV     A,R2
   \   000008   FE           MOV     R6,A
   \   000009   EB           MOV     A,R3
   \   00000A   FF           MOV     R7,A
    648            uint8 count;
    649            uint8 totalLength = (uint8)osal_strlen( (char *)pText );
   \   00000B                ; Setup parameters for call to function osal_strlen
   \   00000B   12....       LCALL   ??osal_strlen?relay
   \   00000E   EA           MOV     A,R2
   \   00000F   F5..         MOV     ?V0 + 2,A
    650          
    651            /* Write the content first */
    652            for (count=0; count<totalLength; count++)
   \   000011   75..00       MOV     ?V0 + 0,#0x0
   \   000014   8018         SJMP    ??HalLcd_HW_WriteLine_0
    653            {
    654              lcdUpdateChar(line, count, (*(pText++)));
   \                     ??HalLcd_HW_WriteLine_1:
   \   000016                ; Setup parameters for call to function lcdUpdateChar
   \   000016   8E82         MOV     DPL,R6
   \   000018   8F83         MOV     DPH,R7
   \   00001A   E0           MOVX    A,@DPTR
   \   00001B   FB           MOV     R3,A
   \   00001C   AA..         MOV     R2,?V0 + 0
   \   00001E   A9..         MOV     R1,?V0 + 1
   \   000020   12....       LCALL   ??lcdUpdateChar?relay
   \   000023   8E82         MOV     DPL,R6
   \   000025   8F83         MOV     DPH,R7
   \   000027   A3           INC     DPTR
   \   000028   AE82         MOV     R6,DPL
   \   00002A   AF83         MOV     R7,DPH
    655            }
   \   00002C   05..         INC     ?V0 + 0
   \                     ??HalLcd_HW_WriteLine_0:
   \   00002E   E5..         MOV     A,?V0 + 0
   \   000030   C3           CLR     C
   \   000031   95..         SUBB    A,?V0 + 2
   \   000033   40E1         JC      ??HalLcd_HW_WriteLine_1
    656          
    657            /* Write blank spaces to rest of the line */
    658            for(count=totalLength; count<LCD_LINE_LENGTH;count++)
   \   000035   85....       MOV     ?V0 + 0,?V0 + 2
   \   000038   800B         SJMP    ??HalLcd_HW_WriteLine_2
    659            {
    660              lcdUpdateChar(line, count, ' ');
   \                     ??HalLcd_HW_WriteLine_3:
   \   00003A                ; Setup parameters for call to function lcdUpdateChar
   \   00003A   7B20         MOV     R3,#0x20
   \   00003C   AA..         MOV     R2,?V0 + 0
   \   00003E   A9..         MOV     R1,?V0 + 1
   \   000040   12....       LCALL   ??lcdUpdateChar?relay
    661            }
   \   000043   05..         INC     ?V0 + 0
   \                     ??HalLcd_HW_WriteLine_2:
   \   000045   E5..         MOV     A,?V0 + 0
   \   000047   C3           CLR     C
   \   000048   9410         SUBB    A,#0x10
   \   00004A   40EE         JC      ??HalLcd_HW_WriteLine_3
    662          }
   \   00004C   7F03         MOV     R7,#0x3
   \   00004E   02....       LJMP    ?BANKED_LEAVE_XDATA
    663          
    664          /*******************************************************************************
    665           * @fn      HalLcd_HW_WaitUs
    666           *
    667           * @brief   wait for x us. @ 32MHz MCU clock it takes 32 "nop"s for 1 us delay.
    668           *
    669           * @param   x us. range[0-65536]
    670           *
    671           * @return  None
    672           ******************************************************************************/

   \                                 In  segment BANKED_CODE, align 1, keep-with-next
    673          void HalLcd_HW_WaitUs(uint16 microSecs)
   \                     HalLcd_HW_WaitUs:
    674          {
   \   000000                ; Saved register size: 0
   \   000000                ; Auto size: 0
   \   000000   8020         SJMP    ??HalLcd_HW_WaitUs_0
    675            while(microSecs--)
    676            {
    677              /* 32 NOPs == 1 usecs */
    678              asm("nop"); asm("nop"); asm("nop"); asm("nop"); asm("nop");
   \                     ??HalLcd_HW_WaitUs_1:
   \   000002   00           nop
   \   000003   00           nop
   \   000004   00           nop
   \   000005   00           nop
   \   000006   00           nop
    679              asm("nop"); asm("nop"); asm("nop"); asm("nop"); asm("nop");
   \   000007   00           nop
   \   000008   00           nop
   \   000009   00           nop
   \   00000A   00           nop
   \   00000B   00           nop
    680              asm("nop"); asm("nop"); asm("nop"); asm("nop"); asm("nop");
   \   00000C   00           nop
   \   00000D   00           nop
   \   00000E   00           nop
   \   00000F   00           nop
   \   000010   00           nop
    681              asm("nop"); asm("nop"); asm("nop"); asm("nop"); asm("nop");
   \   000011   00           nop
   \   000012   00           nop
   \   000013   00           nop
   \   000014   00           nop
   \   000015   00           nop
    682              asm("nop"); asm("nop"); asm("nop"); asm("nop"); asm("nop");
   \   000016   00           nop
   \   000017   00           nop
   \   000018   00           nop
   \   000019   00           nop
   \   00001A   00           nop
    683              asm("nop"); asm("nop"); asm("nop"); asm("nop"); asm("nop");
   \   00001B   00           nop
   \   00001C   00           nop
   \   00001D   00           nop
   \   00001E   00           nop
   \   00001F   00           nop
    684              asm("nop"); asm("nop");
   \   000020   00           nop
   \   000021   00           nop
    685            }
   \                     ??HalLcd_HW_WaitUs_0:
   \   000022   EA           MOV     A,R2
   \   000023   F8           MOV     R0,A
   \   000024   EB           MOV     A,R3
   \   000025   F9           MOV     R1,A
   \   000026   74FF         MOV     A,#-0x1
   \   000028   28           ADD     A,R0
   \   000029   1A           DEC     R2
   \   00002A   74FF         MOV     A,#-0x1
   \   00002C   39           ADDC    A,R1
   \   00002D   FB           MOV     R3,A
   \   00002E   E8           MOV     A,R0
   \   00002F   7001         JNZ     ??HalLcd_HW_WaitUs_2
   \   000031   E9           MOV     A,R1
   \                     ??HalLcd_HW_WaitUs_2:
   \   000032   70CE         JNZ     ??HalLcd_HW_WaitUs_1
    686          }
   \   000034   02....       LJMP    ?BRET

   \                                 In  segment BANK_RELAYS, align 1
   \                     ??HalLcdInit?relay:
   \   000000   12....       LCALL   ?BDISPATCH
   \   000003   ......       DC24    HalLcdInit

   \                                 In  segment BANK_RELAYS, align 1
   \                     ??HalLcdWriteString?relay:
   \   000000   12....       LCALL   ?BDISPATCH
   \   000003   ......       DC24    HalLcdWriteString

   \                                 In  segment BANK_RELAYS, align 1
   \                     ??HalLcdWriteValue?relay:
   \   000000   12....       LCALL   ?BDISPATCH
   \   000003   ......       DC24    HalLcdWriteValue

   \                                 In  segment BANK_RELAYS, align 1
   \                     ??HalLcdWriteScreen?relay:
   \   000000   12....       LCALL   ?BDISPATCH
   \   000003   ......       DC24    HalLcdWriteScreen

   \                                 In  segment BANK_RELAYS, align 1
   \                     ??HalLcdWriteStringValue?relay:
   \   000000   12....       LCALL   ?BDISPATCH
   \   000003   ......       DC24    HalLcdWriteStringValue

   \                                 In  segment BANK_RELAYS, align 1
   \                     ??HalLcdWriteStringValueValue?relay:
   \   000000   12....       LCALL   ?BDISPATCH
   \   000003   ......       DC24    HalLcdWriteStringValueValue

   \                                 In  segment BANK_RELAYS, align 1
   \                     ??HalLcdDisplayPercentBar?relay:
   \   000000   12....       LCALL   ?BDISPATCH
   \   000003   ......       DC24    HalLcdDisplayPercentBar

   \                                 In  segment BANK_RELAYS, align 1
   \                     ??initLcd?relay:
   \   000000   12....       LCALL   ?BDISPATCH
   \   000003   ......       DC24    initLcd

   \                                 In  segment BANK_RELAYS, align 1
   \                     ??lcdCommand?relay:
   \   000000   12....       LCALL   ?BDISPATCH
   \   000003   ......       DC24    lcdCommand

   \                                 In  segment BANK_RELAYS, align 1
   \                     ??lcdData?relay:
   \   000000   12....       LCALL   ?BDISPATCH
   \   000003   ......       DC24    lcdData

   \                                 In  segment BANK_RELAYS, align 1
   \                     ??HalLcd_HW_SetContrast?relay:
   \   000000   12....       LCALL   ?BDISPATCH
   \   000003   ......       DC24    HalLcd_HW_SetContrast

   \                                 In  segment BANK_RELAYS, align 1
   \                     ??HalLcd_HW_Clear?relay:
   \   000000   12....       LCALL   ?BDISPATCH
   \   000003   ......       DC24    HalLcd_HW_Clear

   \                                 In  segment BANK_RELAYS, align 1
   \                     ??HalLcd_HW_ClearAllSpecChars?relay:
   \   000000   12....       LCALL   ?BDISPATCH
   \   000003   ......       DC24    HalLcd_HW_ClearAllSpecChars

   \                                 In  segment BANK_RELAYS, align 1
   \                     ??lcdUpdateChar?relay:
   \   000000   12....       LCALL   ?BDISPATCH
   \   000003   ......       DC24    lcdUpdateChar

   \                                 In  segment BANK_RELAYS, align 1
   \                     ??HalLcd_HW_WriteLine?relay:
   \   000000   12....       LCALL   ?BDISPATCH
   \   000003   ......       DC24    HalLcd_HW_WriteLine

   \                                 In  segment BANK_RELAYS, align 1
   \                     ??HalLcd_HW_WaitUs?relay:
   \   000000   12....       LCALL   ?BDISPATCH
   \   000003   ......       DC24    HalLcd_HW_WaitUs

   \                                 In  segment XDATA_ROM_C, align 1
   \                     `?<Constant "[          ]  ">`:
   \   000000   5B202020     DB "[          ]  "
   \            20202020
   \            2020205D
   \            202000  
    687          
    688          #endif
    689          /**************************************************************************************************
    690          **************************************************************************************************/
    691          
    692          
    693          

   Maximum stack usage in bytes:

     Function                    ISTACK PSTACK XSTACK
     --------                    ------ ------ ------
     HalLcdDisplayPercentBar         1      0     35
       -> HalLcdWriteString          0      0     64
       -> osal_memcpy                0      0     70
       -> _ltoa                      0      0     68
       -> HalLcdWriteString          0      0     64
     HalLcdInit                      2      0      0
       -> initLcd                    4      0      0
     HalLcdWriteScreen               0      0      9
       -> HalLcdWriteString          0      0     18
       -> HalLcdWriteString          0      0     18
     HalLcdWriteString               1      0     70
       -> osal_mem_alloc             0      0     48
       -> osal_strlen                0      0     48
       -> osal_memcpy                0      0     54
       -> osal_strlen                0      0     48
       -> osal_mem_alloc             0      0     48
       -> osal_memcpy                0      0     54
       -> osal_memcpy                0      0     54
       -> debug_str                  0      0     48
       -> osal_mem_free              0      0     48
       -> HalLcd_HW_WriteLine        0      0     48
     HalLcdWriteStringValue          1      0     47
       -> osal_strlen                0      0     86
       -> osal_memcpy                0      0     92
       -> _ltoa                      0      0     90
       -> HalLcdWriteString          0      0     86
     HalLcdWriteStringValueValue     1      0     50
       -> osal_strlen                0      0     86
       -> osal_memcpy                0      0     92
       -> _ltoa                      0      0     90
       -> osal_strlen                0      0     86
       -> _ltoa                      0      0     90
       -> HalLcdWriteString          0      0     86
     HalLcdWriteValue                0      0     42
       -> _ltoa                      0      0     82
       -> HalLcdWriteString          0      0     78
     HalLcd_HW_Clear                 0      0      9
       -> lcdCommand                 0      0     18
       -> lcdData                    0      0     18
       -> lcdCommand                 0      0     18
       -> lcdData                    0      0     18
     HalLcd_HW_ClearAllSpecChars     0      0      9
       -> lcdCommand                 0      0     18
       -> lcdData                    0      0     18
     HalLcd_HW_SetContrast           0      0      9
       -> lcdCommand                 0      0     18
       -> lcdData                    0      0     18
     HalLcd_HW_WaitUs                0      0      0
     HalLcd_HW_WriteLine             0      0     35
       -> osal_strlen                0      0     22
       -> lcdUpdateChar              0      0     22
       -> lcdUpdateChar              0      0     22
     initLcd                         2      0      0
       -> halMcuWaitMs               4      0      0
       -> lcdCommand                 4      0      0
       -> halMcuWaitMs               4      0      0
       -> lcdCommand                 4      0      0
       -> halMcuWaitMs               4      0      0
       -> lcdCommand                 4      0      0
       -> halMcuWaitMs               4      0      0
       -> lcdCommand                 4      0      0
       -> halMcuWaitMs               4      0      0
       -> lcdCommand                 4      0      0
       -> halMcuWaitMs               4      0      0
       -> lcdCommand                 4      0      0
       -> lcdCommand                 4      0      0
       -> lcdCommand                 4      0      0
       -> halMcuWaitMs               4      0      0
       -> HalLcd_HW_Clear            4      0      0
       -> lcdCommand                 4      0      0
     lcdCommand                      2      0      9
       -> halMcuWaitUs               4      0      0
       -> halMcuWaitUs               4      0      0
     lcdData                         2      0      9
       -> halMcuWaitUs               4      0      0
       -> halMcuWaitUs               4      0      0
     lcdUpdateChar                   0      0     20
       -> lcdCommand                 0      0     18
       -> lcdCommand                 0      0     18
       -> lcdData                    0      0     18


   Segment part sizes:

     Function/Label                      Bytes
     --------------                      -----
     _A_P0                                  1
     _A_P1                                  1
     _A_P2                                  1
     P0SEL                                  1
     P1SEL                                  1
     P2SEL                                  1
     P0DIR                                  1
     P1DIR                                  1
     P2DIR                                  1
     Lcd_Line1                              2
     pLedData                               1
     HalLcdInit                            16
     ??Subroutine13_0                       7
     HalLcdWriteString                    272
     ??Subroutine14_0                       8
     ??Subroutine15_0                       6
     HalLcdWriteValue                      65
     ??Subroutine17_0                       6
     HalLcdWriteScreen                     23
     ?Subroutine11                          5
     HalLcdWriteStringValue                97
     ?Subroutine12                         23
     ?Subroutine1                           4
     ?Subroutine4                           7
     ?Subroutine2                           4
     ??Subroutine16_0                       4
     HalLcdWriteStringValueValue          220
     ?Subroutine3                           4
     HalLcdDisplayPercentBar              166
     initLcd                               78
     ?Subroutine5                           2
     ??Subroutine18_0                       4
     ?Subroutine0                          11
     ?Subroutine8                          11
     ?Subroutine9                           3
     lcdCommand                            12
     ?Subroutine6                          27
     lcdData                               12
     HalLcd_HW_SetContrast                  9
     ?Subroutine10                          6
     ?Subroutine7                          11
     HalLcd_HW_Clear                       40
     HalLcd_HW_ClearAllSpecChars           24
     lcdUpdateChar                         25
     HalLcd_HW_WriteLine                   81
     HalLcd_HW_WaitUs                      55
     ??HalLcdInit?relay                     6
     ??HalLcdWriteString?relay              6
     ??HalLcdWriteValue?relay               6
     ??HalLcdWriteScreen?relay              6
     ??HalLcdWriteStringValue?relay         6
     ??HalLcdWriteStringValueValue?relay    6
     ??HalLcdDisplayPercentBar?relay        6
     ??initLcd?relay                        6
     ??lcdCommand?relay                     6
     ??lcdData?relay                        6
     ??HalLcd_HW_SetContrast?relay          6
     ??HalLcd_HW_Clear?relay                6
     ??HalLcd_HW_ClearAllSpecChars?relay    6
     ??lcdUpdateChar?relay                  6
     ??HalLcd_HW_WriteLine?relay            6
     ??HalLcd_HW_WaitUs?relay               6
     ?<Constant "[          ]  ">          15

 
 1 348 bytes in segment BANKED_CODE
    96 bytes in segment BANK_RELAYS
     9 bytes in segment SFR_AN
    15 bytes in segment XDATA_ROM_C
     3 bytes in segment XDATA_Z
 
 1 444 bytes of CODE  memory
    15 bytes of CONST memory
     0 bytes of DATA  memory (+ 9 bytes shared)
     3 bytes of XDATA memory

Errors: none
Warnings: none
