///////////////////////////////////////////////////////////////////////////////
//                                                                            /
// IAR C/C++ Compiler V7.51A/W32 for 8051               11/Mar/2010  14:46:29 /
// Copyright 2004-2009 IAR Systems AB.                                        /
//                                                                            /
//    Core               =  plain                                             /
//    Code model         =  banked                                            /
//    Data model         =  large                                             /
//    Calling convention =  xdata reentrant                                   /
//    Constant location  =  data_rom                                          /
//    Dptr setup         =  1,16                                              /
//    Source file        =  D:\µ{¦¡¶}µo\TI Zigbee Z-Stack\ZStack-CC2530-2.3.0 /
//                          -1.4.0\Components\hal\target\CC2530KB\hal_kit1_lc /
//                          d.c                                               /
//    Command line       =  -f "D:\µ{¦¡¶}µo\TI Zigbee                         /
//                          Z-Stack\ZStack-CC2530-2.3.0-1.4.0\Projects\zstack /
//                          \HomeAutomation\SampleSwitch\CC2530DB\..\..\..\To /
//                          ols\CC2530DB\f8wCoord.cfg" (-DCPU32MHZ            /
//                          -DROOT=__near_func -DMAC_CFG_APP_PENDING_QUEUE=TR /
//                          UE -DZDO_COORDINATOR -DRTR_NWK -DBLINK_LEDS) -f   /
//                          "D:\µ{¦¡¶}µo\TI Zigbee Z-Stack\ZStack-CC2530-2.3. /
//                          0-1.4.0\Projects\zstack\HomeAutomation\SampleSwit /
//                          ch\CC2530DB\..\..\..\Tools\CC2530DB\f8wConfig.cfg /
//                          " (-DSECURE=0 -DZG_SECURE_DYNAMIC=0 -DREFLECTOR   /
//                          -DDEFAULT_CHANLIST=0x00000800                     /
//                          -DZDAPP_CONFIG_PAN_ID=0xFFFF                      /
//                          -DNWK_START_DELAY=100 -DEXTENDED_JOINING_RANDOM_M /
//                          ASK=0x007F -DBEACON_REQUEST_DELAY=100             /
//                          -DBEACON_REQ_DELAY_MASK=0x00FF                    /
//                          -DROUTE_EXPIRY_TIME=30 -DAPSC_ACK_WAIT_DURATION_P /
//                          OLLED=3000 -DNWK_INDIRECT_MSG_TIMEOUT=7           /
//                          -DMAX_RREQ_ENTRIES=8 -DAPSC_MAX_FRAME_RETRIES=3   /
//                          -DNWK_MAX_DATA_RETRIES=2                          /
//                          -DMAX_POLL_FAILURE_RETRIES=2 -DMAX_BCAST=9        /
//                          -DAPS_MAX_GROUPS=16 -DMAX_RTG_ENTRIES=40          /
//                          -DNWK_MAX_BINDING_ENTRIES=4                       /
//                          -DMAX_BINDING_CLUSTER_IDS=4                       /
//                          "-DDEFAULT_KEY={0x01, 0x03, 0x05, 0x07, 0x09,     /
//                          0x0B, 0x0D, 0x0F, 0x00, 0x02, 0x04, 0x06, 0x08,   /
//                          0x0A, 0x0C, 0x0D}" -DMAC_MAX_FRAME_SIZE=116       /
//                          "-DCONST=const __code" -DGENERIC=__generic        /
//                          -DRFD_RCVC_ALWAYS_ON=FALSE -DPOLL_RATE=1000       /
//                          -DQUEUED_POLL_RATE=100 -DRESPONSE_POLL_RATE=100   /
//                          -DREJOIN_POLL_RATE=440) -f "D:\µ{¦¡¶}µo\TI        /
//                          Zigbee Z-Stack\ZStack-CC2530-2.3.0-1.4.0\Projects /
//                          \zstack\HomeAutomation\SampleSwitch\CC2530DB\..\. /
//                          .\..\Tools\CC2530DB\f8wZCL.cfg" (-DZCL_READ       /
//                          -DZCL_WRITE -DZCL_BASIC -DZCL_IDENTIFY            /
//                          -DZCL_ON_OFF -DZCL_KEY_ESTABLISH                  /
//                          -DZCL_LOAD_CONTROL -DZCL_SIMPLE_METERING          /
//                          -DZCL_PRICING) -DZCL_MESSAGE "D:\µ{¦¡¶}µo\TI      /
//                          Zigbee Z-Stack\ZStack-CC2530-2.3.0-1.4.0\Componen /
//                          ts\hal\target\CC2530KB\hal_kit1_lcd.c" -D         /
//                          ZTOOL_P1 -D MT_TASK -D MT_APP_FUNC -D             /
//                          MT_SYS_FUNC -D MT_ZDO_FUNC -D                     /
//                          LCD_SUPPORTED=DEBUG -lC "D:\µ{¦¡¶}µo\TI Zigbee    /
//                          Z-Stack\ZStack-CC2530-2.3.0-1.4.0\Projects\zstack /
//                          \HomeAutomation\SampleSwitch\CC2530DB\Coordinator /
//                          KB\List\" -lA "D:\µ{¦¡¶}µo\TI Zigbee              /
//                          Z-Stack\ZStack-CC2530-2.3.0-1.4.0\Projects\zstack /
//                          \HomeAutomation\SampleSwitch\CC2530DB\Coordinator /
//                          KB\List\" --diag_suppress Pe001,Pa010 -o          /
//                          "D:\µ{¦¡¶}µo\TI Zigbee Z-Stack\ZStack-CC2530-2.3. /
//                          0-1.4.0\Projects\zstack\HomeAutomation\SampleSwit /
//                          ch\CC2530DB\CoordinatorKB\Obj\" -e                /
//                          --require_prototypes --debug --core=plain         /
//                          --dptr=16,1 --data_model=large                    /
//                          --code_model=banked --calling_convention=xdata_re /
//                          entrant --place_constants=data_rom                /
//                          --nr_virtual_regs 16 -I "D:\µ{¦¡¶}µo\TI Zigbee    /
//                          Z-Stack\ZStack-CC2530-2.3.0-1.4.0\Projects\zstack /
//                          \HomeAutomation\SampleSwitch\CC2530DB\" -I        /
//                          "D:\µ{¦¡¶}µo\TI Zigbee Z-Stack\ZStack-CC2530-2.3. /
//                          0-1.4.0\Projects\zstack\HomeAutomation\SampleSwit /
//                          ch\CC2530DB\..\SOURCE\" -I "D:\µ{¦¡¶}µo\TI        /
//                          Zigbee Z-Stack\ZStack-CC2530-2.3.0-1.4.0\Projects /
//                          \zstack\HomeAutomation\SampleSwitch\CC2530DB\..\. /
//                          .\SOURCE\" -I "D:\µ{¦¡¶}µo\TI Zigbee              /
//                          Z-Stack\ZStack-CC2530-2.3.0-1.4.0\Projects\zstack /
//                          \HomeAutomation\SampleSwitch\CC2530DB\..\..\..\ZM /
//                          AIN\TI2530DB\" -I "D:\µ{¦¡¶}µo\TI Zigbee          /
//                          Z-Stack\ZStack-CC2530-2.3.0-1.4.0\Projects\zstack /
//                          \HomeAutomation\SampleSwitch\CC2530DB\..\..\..\.. /
//                          \..\COMPONENTS\MT\" -I "D:\µ{¦¡¶}µo\TI Zigbee     /
//                          Z-Stack\ZStack-CC2530-2.3.0-1.4.0\Projects\zstack /
//                          \HomeAutomation\SampleSwitch\CC2530DB\..\..\..\.. /
//                          \..\COMPONENTS\HAL\INCLUDE\" -I "D:\µ{¦¡¶}µo\TI   /
//                          Zigbee Z-Stack\ZStack-CC2530-2.3.0-1.4.0\Projects /
//                          \zstack\HomeAutomation\SampleSwitch\CC2530DB\..\. /
//                          .\..\..\..\COMPONENTS\HAL\TARGET\CC2530EB\" -I    /
//                          "D:\µ{¦¡¶}µo\TI Zigbee Z-Stack\ZStack-CC2530-2.3. /
//                          0-1.4.0\Projects\zstack\HomeAutomation\SampleSwit /
//                          ch\CC2530DB\..\..\..\..\..\COMPONENTS\OSAL\MCU\CC /
//                          SOC\" -I "D:\µ{¦¡¶}µo\TI Zigbee                   /
//                          Z-Stack\ZStack-CC2530-2.3.0-1.4.0\Projects\zstack /
//                          \HomeAutomation\SampleSwitch\CC2530DB\..\..\..\.. /
//                          \..\COMPONENTS\OSAL\INCLUDE\" -I "D:\µ{¦¡¶}µo\TI  /
//                          Zigbee Z-Stack\ZStack-CC2530-2.3.0-1.4.0\Projects /
//                          \zstack\HomeAutomation\SampleSwitch\CC2530DB\..\. /
//                          .\..\..\..\COMPONENTS\STACK\AF\" -I               /
//                          "D:\µ{¦¡¶}µo\TI Zigbee Z-Stack\ZStack-CC2530-2.3. /
//                          0-1.4.0\Projects\zstack\HomeAutomation\SampleSwit /
//                          ch\CC2530DB\..\..\..\..\..\COMPONENTS\STACK\NWK\" /
//                           -I "D:\µ{¦¡¶}µo\TI Zigbee                        /
//                          Z-Stack\ZStack-CC2530-2.3.0-1.4.0\Projects\zstack /
//                          \HomeAutomation\SampleSwitch\CC2530DB\..\..\..\.. /
//                          \..\COMPONENTS\STACK\SEC\" -I "D:\µ{¦¡¶}µo\TI     /
//                          Zigbee Z-Stack\ZStack-CC2530-2.3.0-1.4.0\Projects /
//                          \zstack\HomeAutomation\SampleSwitch\CC2530DB\..\. /
//                          .\..\..\..\COMPONENTS\STACK\SAPI\" -I             /
//                          "D:\µ{¦¡¶}µo\TI Zigbee Z-Stack\ZStack-CC2530-2.3. /
//                          0-1.4.0\Projects\zstack\HomeAutomation\SampleSwit /
//                          ch\CC2530DB\..\..\..\..\..\COMPONENTS\STACK\SYS\" /
//                           -I "D:\µ{¦¡¶}µo\TI Zigbee                        /
//                          Z-Stack\ZStack-CC2530-2.3.0-1.4.0\Projects\zstack /
//                          \HomeAutomation\SampleSwitch\CC2530DB\..\..\..\.. /
//                          \..\COMPONENTS\STACK\ZCL\" -I "D:\µ{¦¡¶}µo\TI     /
//                          Zigbee Z-Stack\ZStack-CC2530-2.3.0-1.4.0\Projects /
//                          \zstack\HomeAutomation\SampleSwitch\CC2530DB\..\. /
//                          .\..\..\..\COMPONENTS\STACK\ZDO\" -I              /
//                          "D:\µ{¦¡¶}µo\TI Zigbee Z-Stack\ZStack-CC2530-2.3. /
//                          0-1.4.0\Projects\zstack\HomeAutomation\SampleSwit /
//                          ch\CC2530DB\..\..\..\..\..\COMPONENTS\ZMAC\F8W\"  /
//                          -I "D:\µ{¦¡¶}µo\TI Zigbee                         /
//                          Z-Stack\ZStack-CC2530-2.3.0-1.4.0\Projects\zstack /
//                          \HomeAutomation\SampleSwitch\CC2530DB\..\..\..\.. /
//                          \..\COMPONENTS\ZMAC\" -I "D:\µ{¦¡¶}µo\TI Zigbee   /
//                          Z-Stack\ZStack-CC2530-2.3.0-1.4.0\Projects\zstack /
//                          \HomeAutomation\SampleSwitch\CC2530DB\..\..\..\.. /
//                          \..\COMPONENTS\SERVICES\SADDR\" -I                /
//                          "D:\µ{¦¡¶}µo\TI Zigbee Z-Stack\ZStack-CC2530-2.3. /
//                          0-1.4.0\Projects\zstack\HomeAutomation\SampleSwit /
//                          ch\CC2530DB\..\..\..\..\..\COMPONENTS\SERVICES\SD /
//                          ATA\" -I "D:\µ{¦¡¶}µo\TI Zigbee                   /
//                          Z-Stack\ZStack-CC2530-2.3.0-1.4.0\Projects\zstack /
//                          \HomeAutomation\SampleSwitch\CC2530DB\..\..\..\.. /
//                          \..\COMPONENTS\MAC\INCLUDE\" -I "D:\µ{¦¡¶}µo\TI   /
//                          Zigbee Z-Stack\ZStack-CC2530-2.3.0-1.4.0\Projects /
//                          \zstack\HomeAutomation\SampleSwitch\CC2530DB\..\. /
//                          .\..\..\..\COMPONENTS\MAC\HIGH_LEVEL\" -I         /
//                          "D:\µ{¦¡¶}µo\TI Zigbee Z-Stack\ZStack-CC2530-2.3. /
//                          0-1.4.0\Projects\zstack\HomeAutomation\SampleSwit /
//                          ch\CC2530DB\..\..\..\..\..\COMPONENTS\MAC\LOW_LEV /
//                          EL\srf04\" -I "D:\µ{¦¡¶}µo\TI Zigbee              /
//                          Z-Stack\ZStack-CC2530-2.3.0-1.4.0\Projects\zstack /
//                          \HomeAutomation\SampleSwitch\CC2530DB\..\..\..\.. /
//                          \..\COMPONENTS\MAC\LOW_LEVEL\srf04\SINGLE_CHIP\"  /
//                          -I "C:\Program Files\IAR Systems\Embedded         /
//                          Workbench 5.3\8051\INC\" -I "C:\Program           /
//                          Files\IAR Systems\Embedded Workbench              /
//                          5.3\8051\INC\CLIB\" -Ohz                          /
//    List file          =  D:\µ{¦¡¶}µo\TI Zigbee Z-Stack\ZStack-CC2530-2.3.0 /
//                          -1.4.0\Projects\zstack\HomeAutomation\SampleSwitc /
//                          h\CC2530DB\CoordinatorKB\List\hal_kit1_lcd.s51    /
//                                                                            /
//                                                                            /
///////////////////////////////////////////////////////////////////////////////

        NAME hal_kit1_lcd

        RTMODEL "__calling_convention", "xdata_reentrant"
        RTMODEL "__code_model", "banked"
        RTMODEL "__core", "plain"
        RTMODEL "__data_model", "large"
        RTMODEL "__dptr_size", "16"
        RTMODEL "__extended_stack", "disabled"
        RTMODEL "__location_for_constants", "data"
        RTMODEL "__number_of_dptrs", "1"
        RTMODEL "__rt_version", "1"

        RSEG DOVERLAY:DATA:NOROOT(0)
        RSEG IOVERLAY:IDATA:NOROOT(0)
        RSEG ISTACK:IDATA:NOROOT(0)
        RSEG PSTACK:XDATA:NOROOT(0)
        RSEG XSTACK:XDATA:NOROOT(0)

        EXTERN ??HalLcdWriteString?relay
        EXTERN ??HalLcd_HW_Clear?relay
        EXTERN ??HalLcd_HW_WriteLine?relay
        EXTERN ??halLcdWriteChar?relay
        EXTERN ??lcdControl?relay
        EXTERN ??lcdWrite?relay
        EXTERN ?ALLOC_XSTACK8
        EXTERN ?BANKED_ENTER_XDATA
        EXTERN ?BANKED_LEAVE_XDATA
        EXTERN ?BDISPATCH
        EXTERN ?BRET
        EXTERN ?DEALLOC_XSTACK8
        EXTERN ?PUSH_XSTACK_I_THREE
        EXTERN ?PUSH_XSTACK_I_TWO
        EXTERN ?V0
        EXTERN ?XSP
        EXTERN ?XSTACK_DISP0_8
        EXTERN __INIT_XDATA_Z

        PUBLIC ??HalLcdDisplayPercentBar?relay
        FUNCTION ??HalLcdDisplayPercentBar?relay,0203H
        PUBLIC ??HalLcdInit?relay
        FUNCTION ??HalLcdInit?relay,0203H
        PUBLIC ??HalLcdWriteScreen?relay
        FUNCTION ??HalLcdWriteScreen?relay,0203H
        PUBLIC ??HalLcdWriteString?relay
        FUNCTION ??HalLcdWriteString?relay,0203H
        PUBLIC ??HalLcdWriteStringValue?relay
        FUNCTION ??HalLcdWriteStringValue?relay,0203H
        PUBLIC ??HalLcdWriteStringValueValue?relay
        FUNCTION ??HalLcdWriteStringValueValue?relay,0203H
        PUBLIC ??HalLcdWriteValue?relay
        FUNCTION ??HalLcdWriteValue?relay,0203H
        PUBLIC ??HalLcd_HW_Clear?relay
        FUNCTION ??HalLcd_HW_Clear?relay,0203H
        PUBLIC ??HalLcd_HW_ClearAllSpecChars?relay
        FUNCTION ??HalLcd_HW_ClearAllSpecChars?relay,0203H
        PUBLIC ??HalLcd_HW_SetContrast?relay
        FUNCTION ??HalLcd_HW_SetContrast?relay,0203H
        PUBLIC ??HalLcd_HW_WaitUs?relay
        FUNCTION ??HalLcd_HW_WaitUs?relay,0203H
        PUBLIC ??HalLcd_HW_WriteLine?relay
        FUNCTION ??HalLcd_HW_WriteLine?relay,0203H
        FUNCTION ??halLcdWriteChar?relay,0203H
        FUNCTION ??lcdControl?relay,0203H
        FUNCTION ??lcdWrite?relay,0203H
        PUBLIC Font16x8
        PUBLIC HalLcdDisplayPercentBar
        FUNCTION HalLcdDisplayPercentBar,021203H
        ARGFRAME XSTACK, 0, STACK
        LOCFRAME ISTACK, 1, STACK
        LOCFRAME XSTACK, 35, STACK
        PUBLIC HalLcdInit
        FUNCTION HalLcdInit,021203H
        ARGFRAME XSTACK, 0, STACK
        LOCFRAME ISTACK, 2, STACK
        PUBLIC HalLcdWriteScreen
        FUNCTION HalLcdWriteScreen,021203H
        ARGFRAME XSTACK, 0, STACK
        LOCFRAME XSTACK, 9, STACK
        PUBLIC HalLcdWriteString
        FUNCTION HalLcdWriteString,021203H
        ARGFRAME XSTACK, 43, STACK
        ARGFRAME IOVERLAY, 0, STATIC
        ARGFRAME DOVERLAY, 0, STATIC
        LOCFRAME ISTACK, 1, STACK
        LOCFRAME XSTACK, 27, STACK
        PUBLIC HalLcdWriteStringValue
        FUNCTION HalLcdWriteStringValue,021203H
        ARGFRAME XSTACK, 1, STACK
        LOCFRAME ISTACK, 1, STACK
        LOCFRAME XSTACK, 46, STACK
        PUBLIC HalLcdWriteStringValueValue
        FUNCTION HalLcdWriteStringValueValue,021203H
        ARGFRAME XSTACK, 4, STACK
        LOCFRAME ISTACK, 1, STACK
        LOCFRAME XSTACK, 46, STACK
        PUBLIC HalLcdWriteValue
        FUNCTION HalLcdWriteValue,021203H
        ARGFRAME XSTACK, 1, STACK
        LOCFRAME XSTACK, 41, STACK
        PUBLIC HalLcd_HW_Clear
        FUNCTION HalLcd_HW_Clear,021203H
        ARGFRAME XSTACK, 0, STACK
        ARGFRAME IOVERLAY, 0, STATIC
        ARGFRAME DOVERLAY, 0, STATIC
        LOCFRAME XSTACK, 9, STACK
        PUBLIC HalLcd_HW_ClearAllSpecChars
        FUNCTION HalLcd_HW_ClearAllSpecChars,021203H
        ARGFRAME XSTACK, 0, STACK
        LOCFRAME XSTACK, 9, STACK
        PUBLIC HalLcd_HW_SetContrast
        FUNCTION HalLcd_HW_SetContrast,021203H
        ARGFRAME XSTACK, 0, STACK
        LOCFRAME XSTACK, 9, STACK
        PUBLIC HalLcd_HW_WaitUs
        FUNCTION HalLcd_HW_WaitUs,080203H
        ARGFRAME XSTACK, 0, STACK
        PUBLIC HalLcd_HW_WriteLine
        FUNCTION HalLcd_HW_WriteLine,021203H
        ARGFRAME XSTACK, 24, STACK
        ARGFRAME IOVERLAY, 0, STATIC
        ARGFRAME DOVERLAY, 0, STATIC
        LOCFRAME XSTACK, 11, STACK
        PUBWEAK P0DIR
        PUBWEAK _A_P0
        PUBWEAK _A_P1
        PUBWEAK _A_P2
        FUNCTION halLcdWriteChar,021203H
        ARGFRAME XSTACK, 11, STACK
        ARGFRAME IOVERLAY, 0, STATIC
        ARGFRAME DOVERLAY, 0, STATIC
        LOCFRAME XSTACK, 9, STACK
        FUNCTION lcdControl,021203H
        ARGFRAME XSTACK, 9, STACK
        ARGFRAME IOVERLAY, 0, STATIC
        ARGFRAME DOVERLAY, 0, STATIC
        LOCFRAME ISTACK, 2, STACK
        FUNCTION lcdWrite,021203H
        ARGFRAME XSTACK, 9, STACK
        ARGFRAME IOVERLAY, 0, STATIC
        ARGFRAME DOVERLAY, 0, STATIC
        LOCFRAME ISTACK, 2, STACK
        PUBLIC pLedData
        
        CFI Names cfiNames0
        CFI StackFrame CFA_SP SP IDATA
        CFI StackFrame CFA_PSP16 PSP16 XDATA
        CFI StackFrame CFA_XSP16 XSP16 XDATA
        CFI StaticOverlayFrame CFA_IOVERLAY IOVERLAY
        CFI StaticOverlayFrame CFA_DOVERLAY DOVERLAY
        CFI Resource `PSW.CY`:1, `B.BR0`:1, `B.BR1`:1, `B.BR2`:1, `B.BR3`:1
        CFI Resource `B.BR4`:1, `B.BR5`:1, `B.BR6`:1, `B.BR7`:1, `VB.BR8`:1
        CFI Resource `VB.BR9`:1, `VB.BR10`:1, `VB.BR11`:1, `VB.BR12`:1
        CFI Resource `VB.BR13`:1, `VB.BR14`:1, `VB.BR15`:1, VB:8, B:8, A:8
        CFI Resource PSW:8, DPL0:8, DPH0:8, R0:8, R1:8, R2:8, R3:8, R4:8, R5:8
        CFI Resource R6:8, R7:8, V0:8, V1:8, V2:8, V3:8, V4:8, V5:8, V6:8, V7:8
        CFI Resource V8:8, V9:8, V10:8, V11:8, V12:8, V13:8, V14:8, V15:8, SP:8
        CFI Resource PSPH:8, PSPL:8, PSP16:16, XSPH:8, XSPL:8, XSP16:16
        CFI VirtualResource ?RET:24
        CFI Resource ?BRET_EXT:8
        CFI VirtualResource ?RET_HIGH:8, ?RET_LOW:8
        CFI ResourceParts PSP16 PSPH, PSPL
        CFI ResourceParts XSP16 XSPH, XSPL
        CFI ResourceParts ?RET ?BRET_EXT, ?RET_HIGH, ?RET_LOW
        CFI EndNames cfiNames0
        
        CFI Common cfiCommon0 Using cfiNames0
        CFI CodeAlign 1
        CFI DataAlign -1
        CFI ReturnAddress ?RET CODE
        CFI CFA_DOVERLAY Used
        CFI CFA_IOVERLAY Used
        CFI CFA_SP SP+-3
        CFI CFA_PSP16 PSP16+0
        CFI CFA_XSP16 XSP16+0
        CFI `PSW.CY` SameValue
        CFI `B.BR0` SameValue
        CFI `B.BR1` SameValue
        CFI `B.BR2` SameValue
        CFI `B.BR3` SameValue
        CFI `B.BR4` SameValue
        CFI `B.BR5` SameValue
        CFI `B.BR6` SameValue
        CFI `B.BR7` SameValue
        CFI `VB.BR8` SameValue
        CFI `VB.BR9` SameValue
        CFI `VB.BR10` SameValue
        CFI `VB.BR11` SameValue
        CFI `VB.BR12` SameValue
        CFI `VB.BR13` SameValue
        CFI `VB.BR14` SameValue
        CFI `VB.BR15` SameValue
        CFI VB SameValue
        CFI B Undefined
        CFI A Undefined
        CFI PSW SameValue
        CFI DPL0 SameValue
        CFI DPH0 SameValue
        CFI R0 Undefined
        CFI R1 Undefined
        CFI R2 Undefined
        CFI R3 Undefined
        CFI R4 Undefined
        CFI R5 Undefined
        CFI R6 SameValue
        CFI R7 SameValue
        CFI V0 SameValue
        CFI V1 SameValue
        CFI V2 SameValue
        CFI V3 SameValue
        CFI V4 SameValue
        CFI V5 SameValue
        CFI V6 SameValue
        CFI V7 SameValue
        CFI V8 SameValue
        CFI V9 SameValue
        CFI V10 SameValue
        CFI V11 SameValue
        CFI V12 SameValue
        CFI V13 SameValue
        CFI V14 SameValue
        CFI V15 SameValue
        CFI PSPH Undefined
        CFI PSPL Undefined
        CFI XSPH Undefined
        CFI XSPL Undefined
        CFI ?RET Concat
        CFI ?BRET_EXT Frame(CFA_SP, 3)
        CFI ?RET_HIGH Frame(CFA_SP, 2)
        CFI ?RET_LOW Frame(CFA_SP, 1)
        CFI EndCommon cfiCommon0
        
        
        CFI Common cfiCommon1 Using cfiNames0
        CFI CodeAlign 1
        CFI DataAlign -1
        CFI ReturnAddress ?RET CODE
        CFI CFA_DOVERLAY Used
        CFI CFA_IOVERLAY Used
        CFI CFA_SP SP+-2
        CFI CFA_PSP16 PSP16+0
        CFI CFA_XSP16 XSP16+0
        CFI `PSW.CY` SameValue
        CFI `B.BR0` SameValue
        CFI `B.BR1` SameValue
        CFI `B.BR2` SameValue
        CFI `B.BR3` SameValue
        CFI `B.BR4` SameValue
        CFI `B.BR5` SameValue
        CFI `B.BR6` SameValue
        CFI `B.BR7` SameValue
        CFI `VB.BR8` SameValue
        CFI `VB.BR9` SameValue
        CFI `VB.BR10` SameValue
        CFI `VB.BR11` SameValue
        CFI `VB.BR12` SameValue
        CFI `VB.BR13` SameValue
        CFI `VB.BR14` SameValue
        CFI `VB.BR15` SameValue
        CFI VB SameValue
        CFI B SameValue
        CFI A SameValue
        CFI PSW SameValue
        CFI DPL0 SameValue
        CFI DPH0 SameValue
        CFI R0 SameValue
        CFI R1 SameValue
        CFI R2 SameValue
        CFI R3 SameValue
        CFI R4 SameValue
        CFI R5 SameValue
        CFI R6 SameValue
        CFI R7 SameValue
        CFI V0 SameValue
        CFI V1 SameValue
        CFI V2 SameValue
        CFI V3 SameValue
        CFI V4 SameValue
        CFI V5 SameValue
        CFI V6 SameValue
        CFI V7 SameValue
        CFI V8 SameValue
        CFI V9 SameValue
        CFI V10 SameValue
        CFI V11 SameValue
        CFI V12 SameValue
        CFI V13 SameValue
        CFI V14 SameValue
        CFI V15 SameValue
        CFI PSPH Undefined
        CFI PSPL Undefined
        CFI XSPH Undefined
        CFI XSPL Undefined
        CFI ?RET Concat
        CFI ?BRET_EXT SameValue
        CFI ?RET_HIGH Frame(CFA_SP, 2)
        CFI ?RET_LOW Frame(CFA_SP, 1)
        CFI EndCommon cfiCommon1
        
halMcuWaitMs        SYMBOL "halMcuWaitMs"
osal_mem_alloc      SYMBOL "osal_mem_alloc"
osal_strlen         SYMBOL "osal_strlen"
osal_memcpy         SYMBOL "osal_memcpy"
debug_str           SYMBOL "debug_str"
osal_mem_free       SYMBOL "osal_mem_free"
_ltoa               SYMBOL "_ltoa"
halMcuWaitUs        SYMBOL "halMcuWaitUs"
??_ltoa?relay       SYMBOL "?relay", _ltoa
??debug_str?relay   SYMBOL "?relay", debug_str
??halMcuWaitMs?relay SYMBOL "?relay", halMcuWaitMs
??halMcuWaitUs?relay SYMBOL "?relay", halMcuWaitUs
??osal_mem_alloc?relay SYMBOL "?relay", osal_mem_alloc
??osal_mem_free?relay SYMBOL "?relay", osal_mem_free
??osal_memcpy?relay SYMBOL "?relay", osal_memcpy
??osal_strlen?relay SYMBOL "?relay", osal_strlen
HalLcdDisplayPercentBar SYMBOL "HalLcdDisplayPercentBar"
??HalLcdDisplayPercentBar?relay SYMBOL "?relay", HalLcdDisplayPercentBar
HalLcdInit          SYMBOL "HalLcdInit"
??HalLcdInit?relay  SYMBOL "?relay", HalLcdInit
HalLcdWriteScreen   SYMBOL "HalLcdWriteScreen"
??HalLcdWriteScreen?relay SYMBOL "?relay", HalLcdWriteScreen
HalLcdWriteString   SYMBOL "HalLcdWriteString"
??HalLcdWriteString?relay SYMBOL "?relay", HalLcdWriteString
HalLcdWriteStringValue SYMBOL "HalLcdWriteStringValue"
??HalLcdWriteStringValue?relay SYMBOL "?relay", HalLcdWriteStringValue
HalLcdWriteStringValueValue SYMBOL "HalLcdWriteStringValueValue"
??HalLcdWriteStringValueValue?relay SYMBOL "?relay", HalLcdWriteStringValueValue
HalLcdWriteValue    SYMBOL "HalLcdWriteValue"
??HalLcdWriteValue?relay SYMBOL "?relay", HalLcdWriteValue
HalLcd_HW_Clear     SYMBOL "HalLcd_HW_Clear"
??HalLcd_HW_Clear?relay SYMBOL "?relay", HalLcd_HW_Clear
HalLcd_HW_ClearAllSpecChars SYMBOL "HalLcd_HW_ClearAllSpecChars"
??HalLcd_HW_ClearAllSpecChars?relay SYMBOL "?relay", HalLcd_HW_ClearAllSpecChars
HalLcd_HW_SetContrast SYMBOL "HalLcd_HW_SetContrast"
??HalLcd_HW_SetContrast?relay SYMBOL "?relay", HalLcd_HW_SetContrast
HalLcd_HW_WaitUs    SYMBOL "HalLcd_HW_WaitUs"
??HalLcd_HW_WaitUs?relay SYMBOL "?relay", HalLcd_HW_WaitUs
HalLcd_HW_WriteLine SYMBOL "HalLcd_HW_WriteLine"
??HalLcd_HW_WriteLine?relay SYMBOL "?relay", HalLcd_HW_WriteLine

        EXTERN halMcuWaitMs
        FUNCTION halMcuWaitMs,0202H
        ARGFRAME ISTACK, 2, STACK
        ARGFRAME PSTACK, 0, STACK
        ARGFRAME XSTACK, 0, STACK
        ARGFRAME IOVERLAY, 0, STATIC
        ARGFRAME DOVERLAY, 0, STATIC
        EXTERN osal_mem_alloc
        FUNCTION osal_mem_alloc,0202H
        ARGFRAME ISTACK, 0, STACK
        ARGFRAME PSTACK, 0, STACK
        ARGFRAME XSTACK, 24, STACK
        ARGFRAME IOVERLAY, 0, STATIC
        ARGFRAME DOVERLAY, 0, STATIC
        EXTERN osal_strlen
        FUNCTION osal_strlen,0202H
        ARGFRAME ISTACK, 0, STACK
        ARGFRAME PSTACK, 0, STACK
        ARGFRAME XSTACK, 43, STACK
        ARGFRAME IOVERLAY, 0, STATIC
        ARGFRAME DOVERLAY, 0, STATIC
        EXTERN osal_memcpy
        FUNCTION osal_memcpy,0202H
        ARGFRAME ISTACK, 0, STACK
        ARGFRAME PSTACK, 0, STACK
        ARGFRAME XSTACK, 46, STACK
        ARGFRAME IOVERLAY, 0, STATIC
        ARGFRAME DOVERLAY, 0, STATIC
        EXTERN debug_str
        FUNCTION debug_str,0202H
        ARGFRAME ISTACK, 0, STACK
        ARGFRAME PSTACK, 0, STACK
        ARGFRAME XSTACK, 24, STACK
        ARGFRAME IOVERLAY, 0, STATIC
        ARGFRAME DOVERLAY, 0, STATIC
        EXTERN osal_mem_free
        FUNCTION osal_mem_free,0202H
        ARGFRAME ISTACK, 0, STACK
        ARGFRAME PSTACK, 0, STACK
        ARGFRAME XSTACK, 24, STACK
        ARGFRAME IOVERLAY, 0, STATIC
        ARGFRAME DOVERLAY, 0, STATIC
        EXTERN _ltoa
        FUNCTION _ltoa,0202H
        ARGFRAME ISTACK, 0, STACK
        ARGFRAME PSTACK, 0, STACK
        ARGFRAME XSTACK, 45, STACK
        ARGFRAME IOVERLAY, 0, STATIC
        ARGFRAME DOVERLAY, 0, STATIC
        EXTERN halMcuWaitUs
        FUNCTION halMcuWaitUs,0202H
        ARGFRAME ISTACK, 2, STACK
        ARGFRAME PSTACK, 0, STACK
        ARGFRAME XSTACK, 0, STACK
        ARGFRAME IOVERLAY, 0, STATIC
        ARGFRAME DOVERLAY, 0, STATIC
        EXTERN ??_ltoa?relay
        FUNCTION ??_ltoa?relay,00H
        EXTERN ??debug_str?relay
        FUNCTION ??debug_str?relay,00H
        EXTERN ??halMcuWaitMs?relay
        FUNCTION ??halMcuWaitMs?relay,00H
        EXTERN ??halMcuWaitUs?relay
        FUNCTION ??halMcuWaitUs?relay,00H
        EXTERN ??osal_mem_alloc?relay
        FUNCTION ??osal_mem_alloc?relay,00H
        EXTERN ??osal_mem_free?relay
        FUNCTION ??osal_mem_free?relay,00H
        EXTERN ??osal_memcpy?relay
        FUNCTION ??osal_memcpy?relay,00H
        EXTERN ??osal_strlen?relay
        FUNCTION ??osal_strlen?relay,00H

// D:\µ{¦¡¶}µo\TI Zigbee Z-Stack\ZStack-CC2530-2.3.0-1.4.0\Components\hal\target\CC2530KB\hal_kit1_lcd.c
//    1 /**************************************************************************************************
//    2   Filename:       hal_lcd.c
//    3   Revised:        $Date: 2009-11-09 20:03:17 -0800 (Mon, 09 Nov 2009) $
//    4   Revision:       $Revision: 21106 $
//    5 
//    6   Description:    This file contains the interface to the HAL LCD Service.
//    7 
//    8 
//    9   Copyright 2007 - 2009 Texas Instruments Incorporated. All rights reserved.
//   10 
//   11   IMPORTANT: Your use of this Software is limited to those specific rights
//   12   granted under the terms of a software license agreement between the user
//   13   who downloaded the software, his/her employer (which must be your employer)
//   14   and Texas Instruments Incorporated (the "License").  You may not use this
//   15   Software unless you agree to abide by the terms of the License. The License
//   16   limits your use, and you acknowledge, that the Software may not be modified,
//   17   copied or distributed unless embedded on a Texas Instruments microcontroller
//   18   or used solely and exclusively in conjunction with a Texas Instruments radio
//   19   frequency transceiver, which is integrated into your product.  Other than for
//   20   the foregoing purpose, you may not use, reproduce, copy, prepare derivative
//   21   works of, modify, distribute, perform, display or sell this Software and/or
//   22   its documentation for any purpose.
//   23 
//   24   YOU FURTHER ACKNOWLEDGE AND AGREE THAT THE SOFTWARE AND DOCUMENTATION ARE
//   25   PROVIDED “AS IS?WITHOUT WARRANTY OF ANY KIND, EITHER EXPRESS OR IMPLIED,
//   26   INCLUDING WITHOUT LIMITATION, ANY WARRANTY OF MERCHANTABILITY, TITLE,
//   27   NON-INFRINGEMENT AND FITNESS FOR A PARTICULAR PURPOSE. IN NO EVENT SHALL
//   28   TEXAS INSTRUMENTS OR ITS LICENSORS BE LIABLE OR OBLIGATED UNDER CONTRACT,
//   29   NEGLIGENCE, STRICT LIABILITY, CONTRIBUTION, BREACH OF WARRANTY, OR OTHER
//   30   LEGAL EQUITABLE THEORY ANY DIRECT OR INDIRECT DAMAGES OR EXPENSES
//   31   INCLUDING BUT NOT LIMITED TO ANY INCIDENTAL, SPECIAL, INDIRECT, PUNITIVE
//   32   OR CONSEQUENTIAL DAMAGES, LOST PROFITS OR LOST DATA, COST OF PROCUREMENT
//   33   OF SUBSTITUTE GOODS, TECHNOLOGY, SERVICES, OR ANY CLAIMS BY THIRD PARTIES
//   34   (INCLUDING BUT NOT LIMITED TO ANY DEFENSE THEREOF), OR OTHER SIMILAR COSTS.
//   35 
//   36   Should you have any questions regarding your right to use this Software,
//   37   contact Texas Instruments Incorporated at www.TI.com.
//   38 **************************************************************************************************/
//   39 
//   40 /**************************************************************************************************
//   41  *                                           INCLUDES
//   42  **************************************************************************************************/
//   43 #include "hal_types.h"
//   44 #include "hal_kit1_lcd.h"

        ASEGN SFR_AN:DATA:NOROOT,080H
// union <unnamed> volatile __sfr _A_P0
_A_P0:
        DS 1

        ASEGN SFR_AN:DATA:NOROOT,090H
// union <unnamed> volatile __sfr _A_P1
_A_P1:
        DS 1

        ASEGN SFR_AN:DATA:NOROOT,0a0H
// union <unnamed> volatile __sfr _A_P2
_A_P2:
        DS 1

        ASEGN SFR_AN:DATA:NOROOT,0fdH
// unsigned char volatile __sfr P0DIR
P0DIR:
        DS 1
//   45 #include "OSAL.h"
//   46 #include "OnBoard.h"
//   47 #include "hal_keypad.h"
//   48 #include <string.h>
//   49 
//   50 #if defined (ZTOOL_P1) || defined (ZTOOL_P2)
//   51   #include "DebugTrace.h"
//   52 #endif
//   53 
//   54 //-------------------------------------------------------------------
//   55 // English Font  16 x 8   ASCII 32 ~ 127
//   56 //-------------------------------------------------------------------

        RSEG CODE_C:CODE:REORDER:NOROOT(0)
        DATA
//   57 __code const uint8 Font16x8[]={
Font16x8:
        DB 0, 0, 0, 0, 0, 0, 0, 0, 0, 0, 0, 0, 0, 0, 0, 0, 0, 0, 112, 248, 248
        DB 112, 0, 0, 0, 0, 0, 13, 13, 0, 0, 0, 0, 28, 60, 0, 0, 0, 60, 28, 0
        DB 0, 0, 0, 0, 0, 0, 0, 0, 32, 248, 248, 32, 248, 248, 32, 0, 2, 15, 15
        DB 2, 15, 15, 2, 0, 112, 248, 136, 142, 142, 152, 48, 0, 6, 12, 8, 56
        DB 56, 15, 7, 0, 96, 96, 0, 0, 128, 192, 96, 0, 8, 12, 6, 3, 1, 12, 12
        DB 0, 0, 176, 248, 200, 120, 176, 128, 0, 7, 15, 8, 9, 7, 15, 8, 0, 32
        DB 60, 28, 0, 0, 0, 0, 0, 0, 0, 0, 0, 0, 0, 0, 0, 0, 224, 240, 24, 8, 0
        DB 0, 0, 0, 3, 7, 12, 8, 0, 0, 0, 0, 0, 8, 24, 240, 224, 0, 0, 0, 0, 8
        DB 12, 7, 3, 0, 128, 160, 224, 192, 192, 224, 160, 128, 0, 2, 3, 1, 1
        DB 3, 2, 0, 128, 128, 128, 240, 240, 128, 128, 128, 0, 0, 0, 7, 7, 0, 0
        DB 0, 0, 0, 0, 0, 0, 0, 0, 0, 0, 0, 16, 30, 14, 0, 0, 0, 128, 128, 128
        DB 128, 128, 128, 128, 0, 0, 0, 0, 0, 0, 0, 0, 0, 0, 0, 0, 0, 0, 0, 0
        DB 0, 0, 0, 0, 12, 12, 0, 0, 0, 0, 0, 0, 128, 192, 96, 48, 24, 0, 6, 3
        DB 1, 0, 0, 0, 0, 0, 240, 248, 136, 200, 104, 248, 240, 0, 7, 15, 9, 8
        DB 8, 15, 7, 0, 0, 32, 48, 248, 248, 0, 0, 0, 0, 8, 8, 15, 15, 8, 8, 0
        DB 16, 24, 8, 136, 200, 120, 48, 0, 12, 14, 11, 9, 8, 12, 12, 0, 16, 24
        DB 136, 136, 136, 248, 112, 0, 4, 12, 8, 8, 8, 15, 7, 0, 128, 192, 96
        DB 48, 248, 248, 0, 0, 1, 1, 1, 9, 15, 15, 9, 0, 248, 248, 136, 136
        DB 136, 136, 8, 0, 4, 12, 8, 8, 8, 15, 7, 0, 224, 240, 152, 136, 136
        DB 128, 0, 0, 7, 15, 8, 8, 8, 15, 7, 0, 24, 24, 8, 136, 200, 120, 56, 0
        DB 0, 0, 15, 15, 0, 0, 0, 0, 112, 248, 136, 136, 136, 248, 112, 0, 7
        DB 15, 8, 8, 8, 15, 7, 0, 112, 248, 136, 136, 136, 248, 240, 0, 0, 8, 8
        DB 8, 12, 7, 3, 0, 0, 0, 48, 48, 0, 0, 0, 0, 0, 0, 6, 6, 0, 0, 0, 0, 0
        DB 0, 48, 48, 0, 0, 0, 0, 0, 8, 14, 6, 0, 0, 0, 0, 128, 192, 96, 48, 24
        DB 8, 0, 0, 0, 1, 3, 6, 12, 8, 0, 0, 64, 64, 64, 64, 64, 64, 0, 0, 2, 2
        DB 2, 2, 2, 2, 0, 0, 8, 24, 48, 96, 192, 128, 0, 0, 8, 12, 6, 3, 1, 0
        DB 0, 0, 48, 56, 8, 136, 200, 120, 48, 0, 0, 0, 0, 13, 13, 0, 0, 0, 240
        DB 248, 8, 200, 200, 248, 240, 0, 7, 15, 8, 11, 11, 11, 1, 0, 192, 224
        DB 48, 24, 48, 224, 192, 0, 15, 15, 1, 1, 1, 15, 15, 0, 8, 248, 248
        DB 136, 136, 248, 112, 0, 8, 15, 15, 8, 8, 15, 7, 0, 224, 240, 24, 8, 8
        DB 24, 48, 0, 3, 7, 12, 8, 8, 12, 6, 0, 8, 248, 248, 8, 24, 240, 224, 0
        DB 8, 15, 15, 8, 12, 7, 3, 0, 8, 248, 248, 136, 200, 24, 56, 0, 8, 15
        DB 15, 8, 9, 12, 14, 0, 8, 248, 248, 136, 200, 24, 56, 0, 8, 15, 15, 8
        DB 1, 0, 0, 0, 224, 240, 24, 8, 8, 24, 48, 0, 3, 7, 12, 9, 9, 7, 15, 0
        DB 248, 248, 128, 128, 128, 248, 248, 0, 15, 15, 0, 0, 0, 15, 15, 0, 0
        DB 8, 248, 248, 8, 0, 0, 0, 0, 8, 15, 15, 8, 0, 0, 0, 0, 0, 0, 8, 248
        DB 248, 8, 0, 6, 14, 8, 8, 15, 7, 0, 0, 8, 248, 248, 128, 224, 120, 24
        DB 0, 8, 15, 15, 0, 3, 15, 12, 0, 8, 248, 248, 8, 0, 0, 0, 0, 8, 15, 15
        DB 8, 8, 12, 14, 0, 248, 248, 48, 96, 48, 248, 248, 0, 15, 15, 0, 0, 0
        DB 15, 15, 0, 248, 248, 112, 224, 192, 248, 248, 0, 15, 15, 0, 0, 1, 15
        DB 15, 0, 224, 240, 24, 8, 24, 240, 224, 0, 3, 7, 12, 8, 12, 7, 3, 0, 8
        DB 248, 248, 136, 136, 248, 112, 0, 8, 15, 15, 8, 0, 0, 0, 0, 240, 248
        DB 8, 8, 8, 248, 240, 0, 3, 7, 4, 7, 30, 31, 19, 0, 8, 248, 248, 136
        DB 136, 248, 112, 0, 8, 15, 15, 0, 1, 15, 14, 0, 48, 120, 200, 136, 136
        DB 56, 48, 0, 6, 14, 8, 8, 9, 15, 6, 24, 8, 8, 248, 248, 8, 8, 24, 0, 0
        DB 8, 15, 15, 8, 0, 0, 0, 248, 248, 0, 0, 0, 248, 248, 0, 7, 15, 8, 8
        DB 8, 15, 7, 0, 248, 248, 0, 0, 0, 248, 248, 0, 1, 3, 6, 12, 6, 3, 1, 0
        DB 248, 248, 0, 0, 0, 248, 248, 0, 15, 15, 6, 3, 6, 15, 15, 0, 56, 120
        DB 192, 128, 192, 120, 56, 0, 14, 15, 1, 0, 1, 15, 14, 0, 56, 120, 192
        DB 128, 192, 120, 56, 0, 0, 8, 15, 15, 15, 8, 0, 0, 56, 24, 136, 200
        DB 104, 56, 24, 0, 14, 15, 9, 8, 8, 12, 14, 0, 0, 248, 248, 8, 8, 0, 0
        DB 0, 0, 15, 15, 8, 8, 0, 0, 0, 56, 112, 224, 192, 128, 0, 0, 0, 0, 0
        DB 0, 1, 3, 7, 14, 0, 0, 8, 8, 248, 248, 0, 0, 0, 0, 8, 8, 15, 15, 0, 0
        DB 0, 16, 24, 12, 6, 12, 24, 16, 0, 0, 0, 0, 0, 0, 0, 0, 0, 0, 0, 0, 0
        DB 0, 0, 0, 0, 32, 32, 32, 32, 32, 32, 0, 0, 0, 0, 6, 14, 8, 0, 0, 0, 0
        DB 0, 0, 0, 0, 0, 0, 0, 0, 64, 64, 64, 192, 128, 0, 0, 6, 15, 9, 9, 7
        DB 15, 8, 0, 8, 248, 248, 64, 192, 128, 0, 0, 8, 15, 7, 8, 8, 15, 7, 0
        DB 128, 192, 64, 64, 64, 192, 128, 0, 7, 15, 8, 8, 8, 12, 4, 0, 0, 128
        DB 192, 72, 248, 248, 0, 0, 7, 15, 8, 8, 7, 15, 8, 0, 128, 192, 64, 64
        DB 64, 192, 128, 0, 7, 15, 9, 9, 9, 13, 5, 0, 128, 240, 248, 136, 152
        DB 48, 0, 0, 8, 15, 15, 8, 0, 0, 0, 0, 128, 192, 64, 64, 128, 192, 64
        DB 0, 19, 55, 36, 36, 63, 31, 0, 0, 8, 248, 248, 128, 64, 192, 128, 0
        DB 8, 15, 15, 0, 0, 15, 15, 0, 0, 0, 64, 216, 216, 0, 0, 0, 0, 0, 8, 15
        DB 15, 8, 0, 0, 0, 0, 0, 64, 216, 216, 0, 0, 24, 56, 32, 32, 63, 31, 0
        DB 0, 8, 248, 248, 0, 128, 192, 64, 0, 8, 15, 15, 1, 3, 14, 12, 0, 0, 0
        DB 8, 248, 248, 0, 0, 0, 0, 0, 8, 15, 15, 8, 0, 0, 128, 192, 128, 128
        DB 128, 192, 128, 0, 15, 15, 0, 15, 0, 15, 15, 0, 64, 192, 128, 64, 64
        DB 192, 128, 0, 0, 15, 15, 0, 0, 15, 15, 0, 128, 192, 64, 64, 64, 192
        DB 128, 0, 7, 15, 8, 8, 8, 15, 7, 0, 64, 192, 128, 64, 64, 192, 128, 0
        DB 32, 63, 63, 36, 4, 7, 3, 0, 128, 192, 64, 64, 128, 192, 64, 0, 3, 7
        DB 4, 36, 63, 63, 32, 0, 64, 192, 128, 192, 64, 192, 128, 0, 8, 15, 15
        DB 8, 0, 1, 1, 0, 128, 192, 64, 64, 64, 192, 128, 0, 4, 13, 9, 11, 10
        DB 14, 4, 0, 64, 64, 240, 248, 64, 64, 0, 0, 0, 0, 7, 15, 8, 12, 4, 0
        DB 192, 192, 0, 0, 192, 192, 0, 0, 7, 15, 8, 8, 7, 15, 8, 0, 192, 192
        DB 0, 0, 0, 192, 192, 0, 1, 3, 6, 12, 6, 3, 1, 0, 192, 192, 0, 0, 0
        DB 192, 192, 0, 7, 15, 12, 6, 12, 15, 7, 0, 64, 192, 128, 0, 128, 192
        DB 64, 0, 8, 12, 7, 3, 7, 12, 8, 0, 192, 192, 0, 0, 0, 192, 192, 0, 3
        DB 39, 36, 36, 52, 31, 15, 0, 192, 192, 64, 64, 192, 192, 64, 0, 8, 12
        DB 14, 11, 9, 12, 12, 0, 128, 128, 240, 120, 8, 8, 0, 0, 0, 0, 7, 15, 8
        DB 8, 0, 0, 0, 0, 120, 120, 0, 0, 0, 0, 0, 0, 15, 15, 0, 0, 0, 0, 8, 8
        DB 120, 240, 128, 128, 0, 0, 8, 8, 15, 7, 0, 0, 0, 0, 16, 24, 8, 24, 16
        DB 24, 8, 0, 0, 0, 0, 0, 0, 0, 0, 0, 0, 0, 14, 10, 14, 0, 0, 0, 0, 0, 0
        DB 0, 0, 0, 0
//   58     //   - 32
//   59     0x00,0x00,0x00,0x00,0x00,0x00,0x00,0x00,0x00,0x00,0x00,0x00,0x00,0x00,0x00,0x00,
//   60     // ! - 33
//   61     0x00,0x00,0x70,0xF8,0xF8,0x70,0x00,0x00,0x00,0x00,0x00,0x0D,0x0D,0x00,0x00,0x00,
//   62     // " - 34
//   63     0x00,0x1C,0x3C,0x00,0x00,0x00,0x3C,0x1C,0x00,0x00,0x00,0x00,0x00,0x00,0x00,0x00,
//   64     // # - 35
//   65     0x00,0x20,0xF8,0xF8,0x20,0xF8,0xF8,0x20,0x00,0x02,0x0F,0x0F,0x02,0x0F,0x0F,0x02,
//   66     // $ - 36
//   67     0x00,0x70,0xF8,0x88,0x8E,0x8E,0x98,0x30,0x00,0x06,0x0C,0x08,0x38,0x38,0x0F,0x07,
//   68     // % - 37
//   69     0x00,0x60,0x60,0x00,0x00,0x80,0xC0,0x60,0x00,0x08,0x0C,0x06,0x03,0x01,0x0C,0x0C,
//   70     // & - 38
//   71     0x00,0x00,0xB0,0xF8,0xC8,0x78,0xB0,0x80,0x00,0x07,0x0F,0x08,0x09,0x07,0x0F,0x08,
//   72     // ' - 39
//   73     0x00,0x20,0x3C,0x1C,0x00,0x00,0x00,0x00,0x00,0x00,0x00,0x00,0x00,0x00,0x00,0x00,
//   74     // ( - 40
//   75     0x00,0x00,0xE0,0xF0,0x18,0x08,0x00,0x00,0x00,0x00,0x03,0x07,0x0C,0x08,0x00,0x00,
//   76     // ) - 41
//   77     0x00,0x00,0x00,0x08,0x18,0xF0,0xE0,0x00,0x00,0x00,0x00,0x08,0x0C,0x07,0x03,0x00,
//   78     // * - 42
//   79     0x80,0xA0,0xE0,0xC0,0xC0,0xE0,0xA0,0x80,0x00,0x02,0x03,0x01,0x01,0x03,0x02,0x00,
//   80     // + - 43
//   81     0x80,0x80,0x80,0xF0,0xF0,0x80,0x80,0x80,0x00,0x00,0x00,0x07,0x07,0x00,0x00,0x00,
//   82     // , - 44
//   83     0x00,0x00,0x00,0x00,0x00,0x00,0x00,0x00,0x00,0x00,0x10,0x1E,0x0E,0x00,0x00,0x00,
//   84     // - - 45
//   85     0x80,0x80,0x80,0x80,0x80,0x80,0x80,0x00,0x00,0x00,0x00,0x00,0x00,0x00,0x00,0x00,
//   86     // . - 46
//   87     0x00,0x00,0x00,0x00,0x00,0x00,0x00,0x00,0x00,0x00,0x00,0x0C,0x0C,0x00,0x00,0x00,
//   88     // / - 47
//   89     0x00,0x00,0x00,0x80,0xC0,0x60,0x30,0x18,0x00,0x06,0x03,0x01,0x00,0x00,0x00,0x00,
//   90     // 0 - 48
//   91     0x00,0xF0,0xF8,0x88,0xC8,0x68,0xF8,0xF0,0x00,0x07,0x0F,0x09,0x08,0x08,0x0F,0x07,
//   92     // 1 - 49
//   93     0x00,0x00,0x20,0x30,0xF8,0xF8,0x00,0x00,0x00,0x00,0x08,0x08,0x0F,0x0F,0x08,0x08,
//   94     // 2 - 50
//   95     0x00,0x10,0x18,0x08,0x88,0xC8,0x78,0x30,0x00,0x0C,0x0E,0x0B,0x09,0x08,0x0C,0x0C,
//   96     // 3 - 51
//   97     0x00,0x10,0x18,0x88,0x88,0x88,0xF8,0x70,0x00,0x04,0x0C,0x08,0x08,0x08,0x0F,0x07,
//   98     // 4 - 52
//   99     0x00,0x80,0xC0,0x60,0x30,0xF8,0xF8,0x00,0x00,0x01,0x01,0x01,0x09,0x0F,0x0F,0x09,
//  100     // 5 - 53
//  101     0x00,0xF8,0xF8,0x88,0x88,0x88,0x88,0x08,0x00,0x04,0x0C,0x08,0x08,0x08,0x0F,0x07,
//  102     // 6 - 54
//  103     0x00,0xE0,0xF0,0x98,0x88,0x88,0x80,0x00,0x00,0x07,0x0F,0x08,0x08,0x08,0x0F,0x07,
//  104     // 7 - 55
//  105     0x00,0x18,0x18,0x08,0x88,0xC8,0x78,0x38,0x00,0x00,0x00,0x0F,0x0F,0x00,0x00,0x00,
//  106     // 8 - 56
//  107     0x00,0x70,0xF8,0x88,0x88,0x88,0xF8,0x70,0x00,0x07,0x0F,0x08,0x08,0x08,0x0F,0x07,
//  108     // 9 - 57
//  109     0x00,0x70,0xF8,0x88,0x88,0x88,0xF8,0xF0,0x00,0x00,0x08,0x08,0x08,0x0C,0x07,0x03,
//  110     // : - 58
//  111     0x00,0x00,0x00,0x30,0x30,0x00,0x00,0x00,0x00,0x00,0x00,0x06,0x06,0x00,0x00,0x00,
//  112     // ; - 59
//  113     0x00,0x00,0x00,0x30,0x30,0x00,0x00,0x00,0x00,0x00,0x08,0x0E,0x06,0x00,0x00,0x00,
//  114     // < - 60
//  115     0x00,0x80,0xC0,0x60,0x30,0x18,0x08,0x00,0x00,0x00,0x01,0x03,0x06,0x0C,0x08,0x00,
//  116     // = - 61
//  117     0x00,0x40,0x40,0x40,0x40,0x40,0x40,0x00,0x00,0x02,0x02,0x02,0x02,0x02,0x02,0x00,
//  118     // > - 62
//  119     0x00,0x08,0x18,0x30,0x60,0xC0,0x80,0x00,0x00,0x08,0x0C,0x06,0x03,0x01,0x00,0x00,
//  120     // ? - 63
//  121     0x00,0x30,0x38,0x08,0x88,0xC8,0x78,0x30,0x00,0x00,0x00,0x00,0x0D,0x0D,0x00,0x00,
//  122     // @ - 64
//  123     0x00,0xF0,0xF8,0x08,0xC8,0xC8,0xF8,0xF0,0x00,0x07,0x0F,0x08,0x0B,0x0B,0x0B,0x01,
//  124     // A - 65
//  125     0x00,0xC0,0xE0,0x30,0x18,0x30,0xE0,0xC0,0x00,0x0F,0x0F,0x01,0x01,0x01,0x0F,0x0F,
//  126     // B - 66
//  127     0x00,0x08,0xF8,0xF8,0x88,0x88,0xF8,0x70,0x00,0x08,0x0F,0x0F,0x08,0x08,0x0F,0x07,
//  128     // C - 67
//  129     0x00,0xE0,0xF0,0x18,0x08,0x08,0x18,0x30,0x00,0x03,0x07,0x0C,0x08,0x08,0x0C,0x06,
//  130     // D - 68
//  131     0x00,0x08,0xF8,0xF8,0x08,0x18,0xF0,0xE0,0x00,0x08,0x0F,0x0F,0x08,0x0C,0x07,0x03,
//  132     // E - 69
//  133     0x00,0x08,0xF8,0xF8,0x88,0xC8,0x18,0x38,0x00,0x08,0x0F,0x0F,0x08,0x09,0x0C,0x0E,
//  134     // F - 70
//  135     0x00,0x08,0xF8,0xF8,0x88,0xC8,0x18,0x38,0x00,0x08,0x0F,0x0F,0x08,0x01,0x00,0x00,
//  136     // G - 71
//  137     0x00,0xE0,0xF0,0x18,0x08,0x08,0x18,0x30,0x00,0x03,0x07,0x0C,0x09,0x09,0x07,0x0F,
//  138     // H - 72
//  139     0x00,0xF8,0xF8,0x80,0x80,0x80,0xF8,0xF8,0x00,0x0F,0x0F,0x00,0x00,0x00,0x0F,0x0F,
//  140     // I - 73
//  141     0x00,0x00,0x08,0xF8,0xF8,0x08,0x00,0x00,0x00,0x00,0x08,0x0F,0x0F,0x08,0x00,0x00,
//  142     // J - 74
//  143     0x00,0x00,0x00,0x00,0x08,0xF8,0xF8,0x08,0x00,0x06,0x0E,0x08,0x08,0x0F,0x07,0x00,
//  144     // K - 75
//  145     0x00,0x08,0xF8,0xF8,0x80,0xE0,0x78,0x18,0x00,0x08,0x0F,0x0F,0x00,0x03,0x0F,0x0C,
//  146     // L - 76
//  147     0x00,0x08,0xF8,0xF8,0x08,0x00,0x00,0x00,0x00,0x08,0x0F,0x0F,0x08,0x08,0x0C,0x0E,
//  148     // M - 77
//  149     0x00,0xF8,0xF8,0x30,0x60,0x30,0xF8,0xF8,0x00,0x0F,0x0F,0x00,0x00,0x00,0x0F,0x0F,
//  150     // N - 78
//  151     0x00,0xF8,0xF8,0x70,0xE0,0xC0,0xF8,0xF8,0x00,0x0F,0x0F,0x00,0x00,0x01,0x0F,0x0F,
//  152     // O - 79
//  153     0x00,0xE0,0xF0,0x18,0x08,0x18,0xF0,0xE0,0x00,0x03,0x07,0x0C,0x08,0x0C,0x07,0x03,
//  154     // P - 80
//  155     0x00,0x08,0xF8,0xF8,0x88,0x88,0xF8,0x70,0x00,0x08,0x0F,0x0F,0x08,0x00,0x00,0x00,
//  156     // Q - 81
//  157     0x00,0xF0,0xF8,0x08,0x08,0x08,0xF8,0xF0,0x00,0x03,0x07,0x04,0x07,0x1E,0x1F,0x13,
//  158     // R - 82
//  159     0x00,0x08,0xF8,0xF8,0x88,0x88,0xF8,0x70,0x00,0x08,0x0F,0x0F,0x00,0x01,0x0F,0x0E,
//  160     // S - 83
//  161     0x00,0x30,0x78,0xC8,0x88,0x88,0x38,0x30,0x00,0x06,0x0E,0x08,0x08,0x09,0x0F,0x06,
//  162     // T - 84
//  163     0x18,0x08,0x08,0xF8,0xF8,0x08,0x08,0x18,0x00,0x00,0x08,0x0F,0x0F,0x08,0x00,0x00,
//  164     // U - 85
//  165     0x00,0xF8,0xF8,0x00,0x00,0x00,0xF8,0xF8,0x00,0x07,0x0F,0x08,0x08,0x08,0x0F,0x07,
//  166     // V - 86
//  167     0x00,0xF8,0xF8,0x00,0x00,0x00,0xF8,0xF8,0x00,0x01,0x03,0x06,0x0C,0x06,0x03,0x01,
//  168     // W - 87
//  169     0x00,0xF8,0xF8,0x00,0x00,0x00,0xF8,0xF8,0x00,0x0F,0x0F,0x06,0x03,0x06,0x0F,0x0F,
//  170     // X - 88
//  171     0x00,0x38,0x78,0xC0,0x80,0xC0,0x78,0x38,0x00,0x0E,0x0F,0x01,0x00,0x01,0x0F,0x0E,
//  172     // Y - 89
//  173     0x00,0x38,0x78,0xC0,0x80,0xC0,0x78,0x38,0x00,0x00,0x08,0x0F,0x0F,0x0F,0x08,0x00,
//  174     // Z - 90
//  175     0x00,0x38,0x18,0x88,0xC8,0x68,0x38,0x18,0x00,0x0E,0x0F,0x09,0x08,0x08,0x0C,0x0E,
//  176     // [ - 91
//  177     0x00,0x00,0xF8,0xF8,0x08,0x08,0x00,0x00,0x00,0x00,0x0F,0x0F,0x08,0x08,0x00,0x00,
//  178     // \ - 92
//  179     0x00,0x38,0x70,0xE0,0xC0,0x80,0x00,0x00,0x00,0x00,0x00,0x00,0x01,0x03,0x07,0x0E,
//  180     // ] - 93
//  181     0x00,0x00,0x08,0x08,0xF8,0xF8,0x00,0x00,0x00,0x00,0x08,0x08,0x0F,0x0F,0x00,0x00,
//  182     // ^ - 94
//  183     0x00,0x10,0x18,0x0C,0x06,0x0C,0x18,0x10,0x00,0x00,0x00,0x00,0x00,0x00,0x00,0x00,
//  184     // _ - 95
//  185     0x00,0x00,0x00,0x00,0x00,0x00,0x00,0x00,0x00,0x20,0x20,0x20,0x20,0x20,0x20,0x00,
//  186     // ` - 96
//  187     0x00,0x00,0x00,0x06,0x0E,0x08,0x00,0x00,0x00,0x00,0x00,0x00,0x00,0x00,0x00,0x00,
//  188     // a - 97
//  189     0x00,0x00,0x40,0x40,0x40,0xC0,0x80,0x00,0x00,0x06,0x0F,0x09,0x09,0x07,0x0F,0x08,
//  190     // b - 98
//  191     0x00,0x08,0xF8,0xF8,0x40,0xC0,0x80,0x00,0x00,0x08,0x0F,0x07,0x08,0x08,0x0F,0x07,
//  192     // c - 99
//  193     0x00,0x80,0xC0,0x40,0x40,0x40,0xC0,0x80,0x00,0x07,0x0F,0x08,0x08,0x08,0x0C,0x04,
//  194     // d - 100
//  195     0x00,0x00,0x80,0xC0,0x48,0xF8,0xF8,0x00,0x00,0x07,0x0F,0x08,0x08,0x07,0x0F,0x08,
//  196     // e - 101
//  197     0x00,0x80,0xC0,0x40,0x40,0x40,0xC0,0x80,0x00,0x07,0x0F,0x09,0x09,0x09,0x0D,0x05,
//  198     // f - 102
//  199     0x00,0x80,0xF0,0xF8,0x88,0x98,0x30,0x00,0x00,0x08,0x0F,0x0F,0x08,0x00,0x00,0x00,
//  200     // g - 103
//  201     0x00,0x80,0xC0,0x40,0x40,0x80,0xC0,0x40,0x00,0x13,0x37,0x24,0x24,0x3F,0x1F,0x00,
//  202     // h - 104
//  203     0x00,0x08,0xF8,0xF8,0x80,0x40,0xC0,0x80,0x00,0x08,0x0F,0x0F,0x00,0x00,0x0F,0x0F,
//  204     // i - 105
//  205     0x00,0x00,0x00,0x40,0xD8,0xD8,0x00,0x00,0x00,0x00,0x00,0x08,0x0F,0x0F,0x08,0x00,
//  206     // j - 106
//  207     0x00,0x00,0x00,0x00,0x40,0xD8,0xD8,0x00,0x00,0x18,0x38,0x20,0x20,0x3F,0x1F,0x00,
//  208     // k - 107
//  209     0x00,0x08,0xF8,0xF8,0x00,0x80,0xC0,0x40,0x00,0x08,0x0F,0x0F,0x01,0x03,0x0E,0x0C,
//  210     // l - 108
//  211     0x00,0x00,0x00,0x08,0xF8,0xF8,0x00,0x00,0x00,0x00,0x00,0x08,0x0F,0x0F,0x08,0x00,
//  212     // m - 109
//  213     0x00,0x80,0xC0,0x80,0x80,0x80,0xC0,0x80,0x00,0x0F,0x0F,0x00,0x0F,0x00,0x0F,0x0F,
//  214     // n - 110
//  215     0x00,0x40,0xC0,0x80,0x40,0x40,0xC0,0x80,0x00,0x00,0x0F,0x0F,0x00,0x00,0x0F,0x0F,
//  216     // o - 111
//  217     0x00,0x80,0xC0,0x40,0x40,0x40,0xC0,0x80,0x00,0x07,0x0F,0x08,0x08,0x08,0x0F,0x07,
//  218     // p - 112
//  219     0x00,0x40,0xC0,0x80,0x40,0x40,0xC0,0x80,0x00,0x20,0x3F,0x3F,0x24,0x04,0x07,0x03,
//  220     // q - 113
//  221     0x00,0x80,0xC0,0x40,0x40,0x80,0xC0,0x40,0x00,0x03,0x07,0x04,0x24,0x3F,0x3F,0x20,
//  222     // r - 114
//  223     0x00,0x40,0xC0,0x80,0xC0,0x40,0xC0,0x80,0x00,0x08,0x0F,0x0F,0x08,0x00,0x01,0x01,
//  224     // s - 115
//  225     0x00,0x80,0xC0,0x40,0x40,0x40,0xC0,0x80,0x00,0x04,0x0D,0x09,0x0B,0x0A,0x0E,0x04,
//  226     // t - 116
//  227     0x00,0x40,0x40,0xF0,0xF8,0x40,0x40,0x00,0x00,0x00,0x00,0x07,0x0F,0x08,0x0C,0x04,
//  228     // u - 117
//  229     0x00,0xC0,0xC0,0x00,0x00,0xC0,0xC0,0x00,0x00,0x07,0x0F,0x08,0x08,0x07,0x0F,0x08,
//  230     // v - 118
//  231     0x00,0xC0,0xC0,0x00,0x00,0x00,0xC0,0xC0,0x00,0x01,0x03,0x06,0x0C,0x06,0x03,0x01,
//  232     // w - 119
//  233     0x00,0xC0,0xC0,0x00,0x00,0x00,0xC0,0xC0,0x00,0x07,0x0F,0x0C,0x06,0x0C,0x0F,0x07,
//  234     // x - 120
//  235     0x00,0x40,0xC0,0x80,0x00,0x80,0xC0,0x40,0x00,0x08,0x0C,0x07,0x03,0x07,0x0C,0x08,
//  236     // y - 121
//  237     0x00,0xC0,0xC0,0x00,0x00,0x00,0xC0,0xC0,0x00,0x03,0x27,0x24,0x24,0x34,0x1F,0x0F,
//  238     // z - 122
//  239     0x00,0xC0,0xC0,0x40,0x40,0xC0,0xC0,0x40,0x00,0x08,0x0C,0x0E,0x0B,0x09,0x0C,0x0C,
//  240     // { - 123
//  241     0x00,0x80,0x80,0xF0,0x78,0x08,0x08,0x00,0x00,0x00,0x00,0x07,0x0F,0x08,0x08,0x00,
//  242     // | - 124
//  243     0x00,0x00,0x00,0x78,0x78,0x00,0x00,0x00,0x00,0x00,0x00,0x0F,0x0F,0x00,0x00,0x00,
//  244     // } - 125
//  245     0x00,0x08,0x08,0x78,0xF0,0x80,0x80,0x00,0x00,0x08,0x08,0x0F,0x07,0x00,0x00,0x00,
//  246     // ~ - 126
//  247     0x00,0x10,0x18,0x08,0x18,0x10,0x18,0x08,0x00,0x00,0x00,0x00,0x00,0x00,0x00,0x00,
//  248     // d - 127
//  249     0x00,0x00,0x00,0x0E,0x0A,0x0E,0x00,0x00,0x00,0x00,0x00,0x00,0x00,0x00,0x00,0x00
//  250    
//  251     };
//  252 
//  253 /*******************************************************************************
//  254  *                                          CONSTANTS
//  255  ******************************************************************************/
//  256 /* LCD lines */
//  257 #define LCD_LINE_COUNT       2
//  258 #define LCD_LINE_LENGTH      16
//  259 #define LCD_MAX_BUF          25
//  260 /* LCD Control */
//  261 #define LCD_EN_SBIT          P2_0
//  262 #define LCD_EN_BV            BV(0)
//  263 #define LCD_EN_DDR           P2DIR
//  264 #define LCD_EN_ACTHIGH       ACTIVE_HIGH
//  265 #define LCD_EN_ACTLOW        ACTIVE_LOW
//  266 #define LCD_RS_SBIT          P0_6
//  267 #define LCD_RS_BV            BV(6)
//  268 #define LCD_RS_DDR           P0DIR
//  269 #define LCD_RS_ACTHIGH       ACTIVE_HIGH
//  270 #define LCD_RS_ACTLOW        ACTIVE_LOW
//  271 #define LCD_DATA_SBIT        P1
//  272 
//  273 /***************** LCD Setting ******************/
//  274 //LCD Enable setting
//  275 #define HAL_LCD_EN_SET()     st(LCD_EN_SBIT = LCD_EN_ACTHIGH(1);)
//  276 #define HAL_LCD_EN_CLR()     st(LCD_EN_SBIT = LCD_EN_ACTLOW(0);)
//  277 //LCD RS setting
//  278 #define HAL_LCD_RS_SET()     st(LCD_RS_SBIT = LCD_RS_ACTHIGH(1);)
//  279 #define HAL_LCD_RS_CLR()     st(LCD_RS_SBIT = LCD_RS_ACTLOW(0);)
//  280 //P1 Port data setting
//  281 #define HAL_LCD_DATA(val)    st(P1 = val;)
//  282 //LCD setting port input, output
//  283 #define LCD_RS_DIR_INPUT()   st(P0DIR &= ~BV(6);)
//  284 #define LCD_RS_DIR_OUTPUT()  st(P0DIR |= ~BV(6);)
//  285 
//  286 /************** Constant and Defines ****************/
//  287 // Function Set 
//  288 #define DOT_5X10_OFF                    0x00
//  289 #define DOT_5X10_ON                     0x04
//  290 #define DUAL_LINE_OFF                   0x00
//  291 #define DUAL_LINE_ON                    0x08
//  292 #define BUS_8BIT_OFF                    0x00
//  293 #define BUS_8BIT_ON                     0x10
//  294 #define FUNCTION_SET(options)           lcdControl(0x20 | (options))
//  295 
//  296 // Display clear
//  297 #define DISPLAY_CLEAR()                 lcdControl(0x01)
//  298 
//  299 // Set display control
//  300 #define DISPLAY_CTRL_ON                 0x04
//  301 #define DISPLAY_CTRL_OFF                0x00
//  302 #define DISPLAY_CTRL_BLINK_ON           0x01
//  303 #define DISPLAY_CTRL_BLINK_OFF          0x00
//  304 #define DISPLAY_CTRL_CURSOR_ON          0x02
//  305 #define DISPLAY_CTRL_CURSOR_OFF         0x00
//  306 #define SET_DISPLAY_CTRL(options)       lcdControl(0x08 | (options))
//  307 
//  308 // Set enter mode
//  309 #define INCREMENT_ON                    0x02
//  310 #define INCREMENT_OFF                   0x00
//  311 #define DISPLAY_SHIFT_ON                0x01
//  312 #define DISPLAY_SHIFT_OFF               0x00
//  313 #define SET_ENTER_MODE(options)         lcdControl(0x04 | (options))
//  314 
//  315 // Set display control
//  316 #define SHITF_DISPLAY_ON                0x04
//  317 #define SHITF_DISPLAY_OFF               0x00
//  318 #define SHITF_RIGHT_ON                  0x02
//  319 #define SHITF_RIGHT_OFF                 0x00
//  320 #define SET_CURSOR_SHIFT(options)       lcdControl(0x10 | (options))
//  321 
//  322 // Set Display Start Line
//  323 #define LINE1                           0x00
//  324 #define LINE2                           0x40
//  325 #define SET_DISPLAY_LINE(line)          lcdControl(0x80 | (line))
//  326 
//  327 /* Set DD/ CGRAM address */
//  328 #define SET_DDRAM_ADDR(charIndex)       lcdControl(0x80 | (charIndex))
//  329 #define SET_GCRAM_CHAR(specIndex)       lcdControl(0x40 | (specIndex))
//  330 
//  331 /* Set ICONRAM address */
//  332 #define CONTRAST_CTRL_REGISTER          0x10
//  333 #define SET_ICONRAM_ADDR(addr)          lcdControl(0x40 | (addr))
//  334 
//  335 /*******************************************************************************
//  336  *                                           MACROS
//  337  ******************************************************************************/
//  338 //#define HAL_IO_SET(port, pin, val)        HAL_IO_SET_PREP(port, pin, val)
//  339 //#define HAL_IO_SET_PREP(port, pin, val)   st( P##port##_##pin## = val; )
//  340 //
//  341 //#define HAL_CONFIG_IO_OUTPUT(port, pin, val)      HAL_CONFIG_IO_OUTPUT_PREP(port, pin, val)
//  342 //#define HAL_CONFIG_IO_OUTPUT_PREP(port, pin, val) st( P##port##SEL &= ~BV(pin); P##port##_##pin## = val; P##port##DIR |= BV(pin); )
//  343 //
//  344 //#define HAL_CONFIG_IO_PERIPHERAL(port, pin)      HAL_CONFIG_IO_PERIPHERAL_PREP(port, pin)
//  345 //#define HAL_CONFIG_IO_PERIPHERAL_PREP(port, pin) st( P##port##SEL |= BV(pin); )
//  346 
//  347 /**************************************************************************************************
//  348  *                                       GLOBAL VARIABLES
//  349  **************************************************************************************************/

        RSEG XDATA_Z:XDATA:NOROOT(0)
//  350 static uint8 *Lcd_Line1;
Lcd_Line1:
        DS 2
        REQUIRE __INIT_XDATA_Z

        RSEG XDATA_Z:XDATA:NOROOT(0)
//  351 uint8 pLedData;
pLedData:
        DS 1
        REQUIRE __INIT_XDATA_Z
//  352 //static char pLcdLineBuffer[LCD_LINE_LENGTH];
//  353 
//  354 /*******************************************************************************
//  355  *                                       FUNCTIONS - API
//  356  ******************************************************************************/
//  357 #if (HAL_LCD == TRUE)
//  358 void HalLcd_HW_WaitUs(uint16 i);
//  359 void HalLcd_HW_Clear(void);  
//  360 void HalLcd_HW_ClearAllSpecChars(void);
//  361 void HalLcd_HW_SetContrast(uint8 value);
//  362 void HalLcd_HW_WriteLine(uint8 line, const char *pText);
//  363 //MCU-KIT1
//  364 static void halLcdInit(void);
//  365 static void lcdControl(uint8 command); // MCU-KIT2 lcdCommand
//  366 static void lcdWrite(uint8 ch);        // MCU-KIT2 lcdData
//  367 static void halLcdWriteChar(uint8 line, uint8 col, char text); //MCU-KIT2 lcdUpdataChar
//  368 #endif //LCD
//  369 
//  370 /*******************************************************************************
//  371  * @fn      HalLcdInit
//  372  *
//  373  * @brief   Initilize LCD Service
//  374  *
//  375  * @param   init - pointer to void that contains the initialized value
//  376  *
//  377  * @return  None
//  378  ******************************************************************************/

        RSEG BANKED_CODE:CODE:NOROOT(0)
//  379 void HalLcdInit(void)
HalLcdInit:
        CFI Block cfiBlock0 Using cfiCommon0
        CFI Function HalLcdInit
//  380 {
        FUNCALL HalLcdInit, halMcuWaitMs
        LOCFRAME ISTACK, 2, STACK
        LOCFRAME PSTACK, 0, STACK
        LOCFRAME XSTACK, 0, STACK
        LOCFRAME IOVERLAY, 0, STATIC
        LOCFRAME DOVERLAY, 0, STATIC
        ARGFRAME ISTACK, 2, STACK
        ARGFRAME PSTACK, 0, STACK
        ARGFRAME XSTACK, 0, STACK
        ARGFRAME IOVERLAY, 0, STATIC
        ARGFRAME DOVERLAY, 0, STATIC
        FUNCALL HalLcdInit, lcdControl
        LOCFRAME ISTACK, 2, STACK
        LOCFRAME PSTACK, 0, STACK
        LOCFRAME XSTACK, 0, STACK
        LOCFRAME IOVERLAY, 0, STATIC
        LOCFRAME DOVERLAY, 0, STATIC
        ARGFRAME ISTACK, 2, STACK
        ARGFRAME PSTACK, 0, STACK
        ARGFRAME XSTACK, 0, STACK
        ARGFRAME IOVERLAY, 0, STATIC
        ARGFRAME DOVERLAY, 0, STATIC
        FUNCALL HalLcdInit, halMcuWaitMs
        LOCFRAME ISTACK, 2, STACK
        LOCFRAME PSTACK, 0, STACK
        LOCFRAME XSTACK, 0, STACK
        LOCFRAME IOVERLAY, 0, STATIC
        LOCFRAME DOVERLAY, 0, STATIC
        ARGFRAME ISTACK, 2, STACK
        ARGFRAME PSTACK, 0, STACK
        ARGFRAME XSTACK, 0, STACK
        ARGFRAME IOVERLAY, 0, STATIC
        ARGFRAME DOVERLAY, 0, STATIC
        FUNCALL HalLcdInit, lcdControl
        LOCFRAME ISTACK, 2, STACK
        LOCFRAME PSTACK, 0, STACK
        LOCFRAME XSTACK, 0, STACK
        LOCFRAME IOVERLAY, 0, STATIC
        LOCFRAME DOVERLAY, 0, STATIC
        ARGFRAME ISTACK, 2, STACK
        ARGFRAME PSTACK, 0, STACK
        ARGFRAME XSTACK, 0, STACK
        ARGFRAME IOVERLAY, 0, STATIC
        ARGFRAME DOVERLAY, 0, STATIC
        FUNCALL HalLcdInit, halMcuWaitMs
        LOCFRAME ISTACK, 2, STACK
        LOCFRAME PSTACK, 0, STACK
        LOCFRAME XSTACK, 0, STACK
        LOCFRAME IOVERLAY, 0, STATIC
        LOCFRAME DOVERLAY, 0, STATIC
        ARGFRAME ISTACK, 2, STACK
        ARGFRAME PSTACK, 0, STACK
        ARGFRAME XSTACK, 0, STACK
        ARGFRAME IOVERLAY, 0, STATIC
        ARGFRAME DOVERLAY, 0, STATIC
        FUNCALL HalLcdInit, lcdControl
        LOCFRAME ISTACK, 2, STACK
        LOCFRAME PSTACK, 0, STACK
        LOCFRAME XSTACK, 0, STACK
        LOCFRAME IOVERLAY, 0, STATIC
        LOCFRAME DOVERLAY, 0, STATIC
        ARGFRAME ISTACK, 2, STACK
        ARGFRAME PSTACK, 0, STACK
        ARGFRAME XSTACK, 0, STACK
        ARGFRAME IOVERLAY, 0, STATIC
        ARGFRAME DOVERLAY, 0, STATIC
        FUNCALL HalLcdInit, halMcuWaitMs
        LOCFRAME ISTACK, 2, STACK
        LOCFRAME PSTACK, 0, STACK
        LOCFRAME XSTACK, 0, STACK
        LOCFRAME IOVERLAY, 0, STATIC
        LOCFRAME DOVERLAY, 0, STATIC
        ARGFRAME ISTACK, 2, STACK
        ARGFRAME PSTACK, 0, STACK
        ARGFRAME XSTACK, 0, STACK
        ARGFRAME IOVERLAY, 0, STATIC
        ARGFRAME DOVERLAY, 0, STATIC
        FUNCALL HalLcdInit, lcdControl
        LOCFRAME ISTACK, 2, STACK
        LOCFRAME PSTACK, 0, STACK
        LOCFRAME XSTACK, 0, STACK
        LOCFRAME IOVERLAY, 0, STATIC
        LOCFRAME DOVERLAY, 0, STATIC
        ARGFRAME ISTACK, 2, STACK
        ARGFRAME PSTACK, 0, STACK
        ARGFRAME XSTACK, 0, STACK
        ARGFRAME IOVERLAY, 0, STATIC
        ARGFRAME DOVERLAY, 0, STATIC
        FUNCALL HalLcdInit, halMcuWaitMs
        LOCFRAME ISTACK, 2, STACK
        LOCFRAME PSTACK, 0, STACK
        LOCFRAME XSTACK, 0, STACK
        LOCFRAME IOVERLAY, 0, STATIC
        LOCFRAME DOVERLAY, 0, STATIC
        ARGFRAME ISTACK, 2, STACK
        ARGFRAME PSTACK, 0, STACK
        ARGFRAME XSTACK, 0, STACK
        ARGFRAME IOVERLAY, 0, STATIC
        ARGFRAME DOVERLAY, 0, STATIC
        FUNCALL HalLcdInit, lcdControl
        LOCFRAME ISTACK, 2, STACK
        LOCFRAME PSTACK, 0, STACK
        LOCFRAME XSTACK, 0, STACK
        LOCFRAME IOVERLAY, 0, STATIC
        LOCFRAME DOVERLAY, 0, STATIC
        ARGFRAME ISTACK, 2, STACK
        ARGFRAME PSTACK, 0, STACK
        ARGFRAME XSTACK, 0, STACK
        ARGFRAME IOVERLAY, 0, STATIC
        ARGFRAME DOVERLAY, 0, STATIC
        FUNCALL HalLcdInit, halMcuWaitMs
        LOCFRAME ISTACK, 2, STACK
        LOCFRAME PSTACK, 0, STACK
        LOCFRAME XSTACK, 0, STACK
        LOCFRAME IOVERLAY, 0, STATIC
        LOCFRAME DOVERLAY, 0, STATIC
        ARGFRAME ISTACK, 2, STACK
        ARGFRAME PSTACK, 0, STACK
        ARGFRAME XSTACK, 0, STACK
        ARGFRAME IOVERLAY, 0, STATIC
        ARGFRAME DOVERLAY, 0, STATIC
        FUNCALL HalLcdInit, lcdControl
        LOCFRAME ISTACK, 2, STACK
        LOCFRAME PSTACK, 0, STACK
        LOCFRAME XSTACK, 0, STACK
        LOCFRAME IOVERLAY, 0, STATIC
        LOCFRAME DOVERLAY, 0, STATIC
        ARGFRAME ISTACK, 2, STACK
        ARGFRAME PSTACK, 0, STACK
        ARGFRAME XSTACK, 0, STACK
        ARGFRAME IOVERLAY, 0, STATIC
        ARGFRAME DOVERLAY, 0, STATIC
        FUNCALL HalLcdInit, lcdControl
        LOCFRAME ISTACK, 2, STACK
        LOCFRAME PSTACK, 0, STACK
        LOCFRAME XSTACK, 0, STACK
        LOCFRAME IOVERLAY, 0, STATIC
        LOCFRAME DOVERLAY, 0, STATIC
        ARGFRAME ISTACK, 2, STACK
        ARGFRAME PSTACK, 0, STACK
        ARGFRAME XSTACK, 0, STACK
        ARGFRAME IOVERLAY, 0, STATIC
        ARGFRAME DOVERLAY, 0, STATIC
        FUNCALL HalLcdInit, lcdControl
        LOCFRAME ISTACK, 2, STACK
        LOCFRAME PSTACK, 0, STACK
        LOCFRAME XSTACK, 0, STACK
        LOCFRAME IOVERLAY, 0, STATIC
        LOCFRAME DOVERLAY, 0, STATIC
        ARGFRAME ISTACK, 2, STACK
        ARGFRAME PSTACK, 0, STACK
        ARGFRAME XSTACK, 0, STACK
        ARGFRAME IOVERLAY, 0, STATIC
        ARGFRAME DOVERLAY, 0, STATIC
        FUNCALL HalLcdInit, halMcuWaitMs
        LOCFRAME ISTACK, 2, STACK
        LOCFRAME PSTACK, 0, STACK
        LOCFRAME XSTACK, 0, STACK
        LOCFRAME IOVERLAY, 0, STATIC
        LOCFRAME DOVERLAY, 0, STATIC
        ARGFRAME ISTACK, 2, STACK
        ARGFRAME PSTACK, 0, STACK
        ARGFRAME XSTACK, 0, STACK
        ARGFRAME IOVERLAY, 0, STATIC
        ARGFRAME DOVERLAY, 0, STATIC
        FUNCALL HalLcdInit, HalLcd_HW_Clear
        LOCFRAME ISTACK, 2, STACK
        LOCFRAME PSTACK, 0, STACK
        LOCFRAME XSTACK, 0, STACK
        LOCFRAME IOVERLAY, 0, STATIC
        LOCFRAME DOVERLAY, 0, STATIC
        ARGFRAME ISTACK, 2, STACK
        ARGFRAME PSTACK, 0, STACK
        ARGFRAME XSTACK, 0, STACK
        ARGFRAME IOVERLAY, 0, STATIC
        ARGFRAME DOVERLAY, 0, STATIC
        FUNCALL HalLcdInit, lcdControl
        LOCFRAME ISTACK, 2, STACK
        LOCFRAME PSTACK, 0, STACK
        LOCFRAME XSTACK, 0, STACK
        LOCFRAME IOVERLAY, 0, STATIC
        LOCFRAME DOVERLAY, 0, STATIC
        ARGFRAME ISTACK, 2, STACK
        ARGFRAME PSTACK, 0, STACK
        ARGFRAME XSTACK, 0, STACK
        ARGFRAME IOVERLAY, 0, STATIC
        ARGFRAME DOVERLAY, 0, STATIC
        PUSH    DPL
        CFI DPL0 Frame(CFA_SP, 4)
        CFI CFA_SP SP+-4
        PUSH    DPH
        CFI DPH0 Frame(CFA_SP, 5)
        CFI CFA_SP SP+-5
        ; Saved register size: 2
        ; Auto size: 0
//  381   Lcd_Line1 = NULL;
        MOV     DPTR,#Lcd_Line1
        CLR     A
        MOVX    @DPTR,A
        INC     DPTR
        MOVX    @DPTR,A
//  382 #if (HAL_LCD == TRUE)
//  383   halLcdInit();
        ORL     0xfd,#0xbf
        MOV     A,0xfd
        SETB    0xa0.0
        ; Setup parameters for call to function halMcuWaitMs
        MOV     R2,#0x1e
        LCALL   ?Subroutine1 & 0xFFFF
??CrossCallReturnLabel_0:
        ; Setup parameters for call to function lcdControl
        MOV     R1,#0x30
        LCALL   ??lcdControl?relay
        ; Setup parameters for call to function halMcuWaitMs
        MOV     R2,#0x2
        LCALL   ?Subroutine1 & 0xFFFF
??CrossCallReturnLabel_1:
        ; Setup parameters for call to function lcdControl
        LCALL   ?Subroutine2 & 0xFFFF
??CrossCallReturnLabel_7:
        ; Setup parameters for call to function lcdControl
        LCALL   ?Subroutine2 & 0xFFFF
??CrossCallReturnLabel_8:
        ; Setup parameters for call to function lcdControl
        MOV     R1,#0x10
        LCALL   ??lcdControl?relay
        ; Setup parameters for call to function lcdControl
        MOV     R1,#0x6
        LCALL   ??lcdControl?relay
        ; Setup parameters for call to function lcdControl
        MOV     R1,#0x1
        LCALL   ??Subroutine13_0 & 0xFFFF
??CrossCallReturnLabel_9:
        ; Setup parameters for call to function HalLcd_HW_Clear
        LCALL   ??HalLcd_HW_Clear?relay
        ; Setup parameters for call to function lcdControl
        MOV     R1,#0xc
        LCALL   ??lcdControl?relay
//  384 #endif
//  385 }
        LJMP    ??Subroutine18_0 & 0xFFFF
        CFI EndBlock cfiBlock0
        REQUIRE _A_P2
        REQUIRE P0DIR

        RSEG BANKED_CODE:CODE:NOROOT(0)
?Subroutine2:
        CFI Block cfiCond1 Using cfiCommon0
        CFI NoFunction
        CFI Conditional ??CrossCallReturnLabel_7
        CFI DPL0 Frame(CFA_SP, 4)
        CFI DPH0 Frame(CFA_SP, 5)
        CFI CFA_SP SP+-5
        CFI Block cfiCond2 Using cfiCommon0
        CFI (cfiCond2) NoFunction
        CFI (cfiCond2) Conditional ??CrossCallReturnLabel_8
        CFI (cfiCond2) DPL0 Frame(CFA_SP, 4)
        CFI (cfiCond2) DPH0 Frame(CFA_SP, 5)
        CFI (cfiCond2) CFA_SP SP+-5
        CFI Block cfiPicker3 Using cfiCommon1
        CFI (cfiPicker3) NoFunction
        CFI (cfiPicker3) Picker
        MOV     R1,#0x38
        CFI EndBlock cfiCond1
        CFI EndBlock cfiCond2
        CFI EndBlock cfiPicker3
        REQUIRE ??Subroutine13_0
        ; // Fall through to label ??Subroutine13_0

        RSEG BANKED_CODE:CODE:NOROOT(0)
??Subroutine13_0:
        CFI Block cfiCond4 Using cfiCommon0
        CFI NoFunction
        CFI Conditional ??CrossCallReturnLabel_9
        CFI DPL0 Frame(CFA_SP, 4)
        CFI DPH0 Frame(CFA_SP, 5)
        CFI CFA_SP SP+-5
        CFI Block cfiCond5 Using cfiCommon0
        CFI (cfiCond5) NoFunction
        CFI (cfiCond5) Conditional ??CrossCallReturnLabel_7
        CFI (cfiCond5) DPL0 Frame(CFA_SP, 4)
        CFI (cfiCond5) DPH0 Frame(CFA_SP, 5)
        CFI (cfiCond5) CFA_SP SP+-5
        CFI Block cfiCond6 Using cfiCommon0
        CFI (cfiCond6) NoFunction
        CFI (cfiCond6) Conditional ??CrossCallReturnLabel_8
        CFI (cfiCond6) DPL0 Frame(CFA_SP, 4)
        CFI (cfiCond6) DPH0 Frame(CFA_SP, 5)
        CFI (cfiCond6) CFA_SP SP+-5
        CFI Block cfiPicker7 Using cfiCommon1
        CFI (cfiPicker7) NoFunction
        CFI (cfiPicker7) Picker
        LCALL   ?Subroutine8 & 0xFFFF
??CrossCallReturnLabel_10:
        RET
        CFI EndBlock cfiCond4
        CFI EndBlock cfiCond5
        CFI EndBlock cfiCond6
        CFI EndBlock cfiPicker7

        RSEG BANKED_CODE:CODE:NOROOT(0)
?Subroutine1:
        CFI Block cfiCond8 Using cfiCommon0
        CFI NoFunction
        CFI Conditional ??CrossCallReturnLabel_0
        CFI DPL0 Frame(CFA_SP, 4)
        CFI DPH0 Frame(CFA_SP, 5)
        CFI CFA_SP SP+-5
        CFI Block cfiCond9 Using cfiCommon0
        CFI (cfiCond9) NoFunction
        CFI (cfiCond9) Conditional ??CrossCallReturnLabel_1
        CFI (cfiCond9) DPL0 Frame(CFA_SP, 4)
        CFI (cfiCond9) DPH0 Frame(CFA_SP, 5)
        CFI (cfiCond9) CFA_SP SP+-5
        CFI Block cfiPicker10 Using cfiCommon1
        CFI (cfiPicker10) NoFunction
        CFI (cfiPicker10) Picker
        MOV     R3,#0x0
        LCALL   ??halMcuWaitMs?relay
        ; Setup parameters for call to function lcdControl
        ; Setup parameters for call to function lcdControl
        MOV     R1,#0x30
        LCALL   ?Subroutine8 & 0xFFFF
??CrossCallReturnLabel_11:
        RET
        CFI EndBlock cfiCond8
        CFI EndBlock cfiCond9
        CFI EndBlock cfiPicker10

        RSEG BANKED_CODE:CODE:NOROOT(0)
?Subroutine8:
        CFI Block cfiCond11 Using cfiCommon0
        CFI NoFunction
        CFI Conditional ??CrossCallReturnLabel_10, ??CrossCallReturnLabel_7
        CFI DPL0 Frame(CFA_SP, 4)
        CFI DPH0 Frame(CFA_SP, 5)
        CFI CFA_SP SP+-5
        CFI Block cfiCond12 Using cfiCommon0
        CFI (cfiCond12) NoFunction
        CFI (cfiCond12) Conditional ??CrossCallReturnLabel_10, ??CrossCallReturnLabel_8
        CFI (cfiCond12) DPL0 Frame(CFA_SP, 4)
        CFI (cfiCond12) DPH0 Frame(CFA_SP, 5)
        CFI (cfiCond12) CFA_SP SP+-5
        CFI Block cfiCond13 Using cfiCommon0
        CFI (cfiCond13) NoFunction
        CFI (cfiCond13) Conditional ??CrossCallReturnLabel_10, ??CrossCallReturnLabel_9
        CFI (cfiCond13) DPL0 Frame(CFA_SP, 4)
        CFI (cfiCond13) DPH0 Frame(CFA_SP, 5)
        CFI (cfiCond13) CFA_SP SP+-5
        CFI Block cfiCond14 Using cfiCommon0
        CFI (cfiCond14) NoFunction
        CFI (cfiCond14) Conditional ??CrossCallReturnLabel_11, ??CrossCallReturnLabel_0
        CFI (cfiCond14) DPL0 Frame(CFA_SP, 4)
        CFI (cfiCond14) DPH0 Frame(CFA_SP, 5)
        CFI (cfiCond14) CFA_SP SP+-5
        CFI Block cfiCond15 Using cfiCommon0
        CFI (cfiCond15) NoFunction
        CFI (cfiCond15) Conditional ??CrossCallReturnLabel_11, ??CrossCallReturnLabel_1
        CFI (cfiCond15) DPL0 Frame(CFA_SP, 4)
        CFI (cfiCond15) DPH0 Frame(CFA_SP, 5)
        CFI (cfiCond15) CFA_SP SP+-5
        CFI Block cfiPicker16 Using cfiCommon1
        CFI (cfiPicker16) NoFunction
        CFI (cfiPicker16) Picker
        LCALL   ??lcdControl?relay
        ; Setup parameters for call to function halMcuWaitMs
        ; Setup parameters for call to function halMcuWaitMs
        ; Setup parameters for call to function halMcuWaitMs
        ; Setup parameters for call to function halMcuWaitMs
        ; Setup parameters for call to function halMcuWaitMs
        MOV     R2,#0x2
        MOV     R3,#0x0
        LCALL   ??halMcuWaitMs?relay
        RET
        CFI EndBlock cfiCond11
        CFI EndBlock cfiCond12
        CFI EndBlock cfiCond13
        CFI EndBlock cfiCond14
        CFI EndBlock cfiCond15
        CFI EndBlock cfiPicker16
//  386 
//  387 /*************************************************************************************************
//  388  *                    LCD EMULATION FUNCTIONS
//  389  *
//  390  * Some evaluation boards are equipped with Liquid Crystal Displays
//  391  * (LCD) which may be used to display diagnostic information. These
//  392  * functions provide LCD emulation, sending the diagnostic strings
//  393  * to Z-Tool via the RS232 serial port. These functions are enabled
//  394  * when the "LCD_SUPPORTED" compiler flag is placed in the makefile.
//  395  *
//  396  * Most applications update both lines (1 and 2) of the LCD whenever
//  397  * text is posted to the device. This emulator assumes that line 1 is
//  398  * updated first (saved locally) and the formatting and send operation
//  399  * is triggered by receipt of line 2. Nothing will be transmitted if
//  400  * only line 1 is updated.
//  401  *
//  402  *************************************************************************************************/
//  403 
//  404 /*******************************************************************************
//  405  * @fn      HalLcdWriteString
//  406  *
//  407  * @brief   Write a string to the LCD
//  408  *
//  409  * @param   str    - pointer to the string that will be displayed
//  410  *          option - display options
//  411  *
//  412  * @return  None
//  413  ******************************************************************************/

        RSEG BANKED_CODE:CODE:NOROOT(0)
//  414 void HalLcdWriteString ( char *str, uint8 option)
HalLcdWriteString:
        CFI Block cfiBlock17 Using cfiCommon0
        CFI Function HalLcdWriteString
//  415 {
        FUNCALL HalLcdWriteString, osal_mem_alloc
        LOCFRAME ISTACK, 0, STACK
        LOCFRAME PSTACK, 0, STACK
        LOCFRAME XSTACK, 24, STACK
        LOCFRAME IOVERLAY, 0, STATIC
        LOCFRAME DOVERLAY, 0, STATIC
        ARGFRAME ISTACK, 0, STACK
        ARGFRAME PSTACK, 0, STACK
        ARGFRAME XSTACK, 24, STACK
        ARGFRAME IOVERLAY, 0, STATIC
        ARGFRAME DOVERLAY, 0, STATIC
        FUNCALL HalLcdWriteString, osal_strlen
        LOCFRAME ISTACK, 0, STACK
        LOCFRAME PSTACK, 0, STACK
        LOCFRAME XSTACK, 24, STACK
        LOCFRAME IOVERLAY, 0, STATIC
        LOCFRAME DOVERLAY, 0, STATIC
        ARGFRAME ISTACK, 0, STACK
        ARGFRAME PSTACK, 0, STACK
        ARGFRAME XSTACK, 24, STACK
        ARGFRAME IOVERLAY, 0, STATIC
        ARGFRAME DOVERLAY, 0, STATIC
        FUNCALL HalLcdWriteString, osal_memcpy
        LOCFRAME ISTACK, 0, STACK
        LOCFRAME PSTACK, 0, STACK
        LOCFRAME XSTACK, 27, STACK
        LOCFRAME IOVERLAY, 0, STATIC
        LOCFRAME DOVERLAY, 0, STATIC
        ARGFRAME ISTACK, 0, STACK
        ARGFRAME PSTACK, 0, STACK
        ARGFRAME XSTACK, 27, STACK
        ARGFRAME IOVERLAY, 0, STATIC
        ARGFRAME DOVERLAY, 0, STATIC
        FUNCALL HalLcdWriteString, osal_strlen
        LOCFRAME ISTACK, 0, STACK
        LOCFRAME PSTACK, 0, STACK
        LOCFRAME XSTACK, 24, STACK
        LOCFRAME IOVERLAY, 0, STATIC
        LOCFRAME DOVERLAY, 0, STATIC
        ARGFRAME ISTACK, 0, STACK
        ARGFRAME PSTACK, 0, STACK
        ARGFRAME XSTACK, 24, STACK
        ARGFRAME IOVERLAY, 0, STATIC
        ARGFRAME DOVERLAY, 0, STATIC
        FUNCALL HalLcdWriteString, osal_mem_alloc
        LOCFRAME ISTACK, 0, STACK
        LOCFRAME PSTACK, 0, STACK
        LOCFRAME XSTACK, 24, STACK
        LOCFRAME IOVERLAY, 0, STATIC
        LOCFRAME DOVERLAY, 0, STATIC
        ARGFRAME ISTACK, 0, STACK
        ARGFRAME PSTACK, 0, STACK
        ARGFRAME XSTACK, 24, STACK
        ARGFRAME IOVERLAY, 0, STATIC
        ARGFRAME DOVERLAY, 0, STATIC
        FUNCALL HalLcdWriteString, osal_memcpy
        LOCFRAME ISTACK, 0, STACK
        LOCFRAME PSTACK, 0, STACK
        LOCFRAME XSTACK, 27, STACK
        LOCFRAME IOVERLAY, 0, STATIC
        LOCFRAME DOVERLAY, 0, STATIC
        ARGFRAME ISTACK, 0, STACK
        ARGFRAME PSTACK, 0, STACK
        ARGFRAME XSTACK, 27, STACK
        ARGFRAME IOVERLAY, 0, STATIC
        ARGFRAME DOVERLAY, 0, STATIC
        FUNCALL HalLcdWriteString, osal_memcpy
        LOCFRAME ISTACK, 0, STACK
        LOCFRAME PSTACK, 0, STACK
        LOCFRAME XSTACK, 27, STACK
        LOCFRAME IOVERLAY, 0, STATIC
        LOCFRAME DOVERLAY, 0, STATIC
        ARGFRAME ISTACK, 0, STACK
        ARGFRAME PSTACK, 0, STACK
        ARGFRAME XSTACK, 27, STACK
        ARGFRAME IOVERLAY, 0, STATIC
        ARGFRAME DOVERLAY, 0, STATIC
        FUNCALL HalLcdWriteString, debug_str
        LOCFRAME ISTACK, 0, STACK
        LOCFRAME PSTACK, 0, STACK
        LOCFRAME XSTACK, 24, STACK
        LOCFRAME IOVERLAY, 0, STATIC
        LOCFRAME DOVERLAY, 0, STATIC
        ARGFRAME ISTACK, 0, STACK
        ARGFRAME PSTACK, 0, STACK
        ARGFRAME XSTACK, 24, STACK
        ARGFRAME IOVERLAY, 0, STATIC
        ARGFRAME DOVERLAY, 0, STATIC
        FUNCALL HalLcdWriteString, osal_mem_free
        LOCFRAME ISTACK, 0, STACK
        LOCFRAME PSTACK, 0, STACK
        LOCFRAME XSTACK, 24, STACK
        LOCFRAME IOVERLAY, 0, STATIC
        LOCFRAME DOVERLAY, 0, STATIC
        ARGFRAME ISTACK, 0, STACK
        ARGFRAME PSTACK, 0, STACK
        ARGFRAME XSTACK, 24, STACK
        ARGFRAME IOVERLAY, 0, STATIC
        ARGFRAME DOVERLAY, 0, STATIC
        FUNCALL HalLcdWriteString, HalLcd_HW_WriteLine
        LOCFRAME ISTACK, 0, STACK
        LOCFRAME PSTACK, 0, STACK
        LOCFRAME XSTACK, 24, STACK
        LOCFRAME IOVERLAY, 0, STATIC
        LOCFRAME DOVERLAY, 0, STATIC
        ARGFRAME ISTACK, 0, STACK
        ARGFRAME PSTACK, 0, STACK
        ARGFRAME XSTACK, 24, STACK
        ARGFRAME IOVERLAY, 0, STATIC
        ARGFRAME DOVERLAY, 0, STATIC
        MOV     A,#-0x18
        LCALL   ?BANKED_ENTER_XDATA
        CFI DPH0 load(1, XDATA, add(CFA_XSP16, literal(-1)))
        CFI DPL0 load(1, XDATA, add(CFA_XSP16, literal(-2)))
        CFI ?BRET_EXT load(1, XDATA, add(CFA_XSP16, literal(-3)))
        CFI ?RET_HIGH load(1, XDATA, add(CFA_XSP16, literal(-4)))
        CFI ?RET_LOW load(1, XDATA, add(CFA_XSP16, literal(-5)))
        CFI R7 load(1, XDATA, add(CFA_XSP16, literal(-6)))
        CFI V15 load(1, XDATA, add(CFA_XSP16, literal(-7)))
        CFI V14 load(1, XDATA, add(CFA_XSP16, literal(-8)))
        CFI V13 load(1, XDATA, add(CFA_XSP16, literal(-9)))
        CFI V12 load(1, XDATA, add(CFA_XSP16, literal(-10)))
        CFI V11 load(1, XDATA, add(CFA_XSP16, literal(-11)))
        CFI V10 load(1, XDATA, add(CFA_XSP16, literal(-12)))
        CFI V9 load(1, XDATA, add(CFA_XSP16, literal(-13)))
        CFI V8 load(1, XDATA, add(CFA_XSP16, literal(-14)))
        CFI V7 load(1, XDATA, add(CFA_XSP16, literal(-15)))
        CFI V6 load(1, XDATA, add(CFA_XSP16, literal(-16)))
        CFI V5 load(1, XDATA, add(CFA_XSP16, literal(-17)))
        CFI V4 load(1, XDATA, add(CFA_XSP16, literal(-18)))
        CFI V3 load(1, XDATA, add(CFA_XSP16, literal(-19)))
        CFI V2 load(1, XDATA, add(CFA_XSP16, literal(-20)))
        CFI V1 load(1, XDATA, add(CFA_XSP16, literal(-21)))
        CFI V0 load(1, XDATA, add(CFA_XSP16, literal(-22)))
        CFI VB load(1, XDATA, add(CFA_XSP16, literal(-23)))
        CFI R6 load(1, XDATA, add(CFA_XSP16, literal(-24)))
        CFI CFA_SP SP+0
        CFI CFA_XSP16 add(XSP16, 24)
        ; Saved register size: 24
        ; Auto size: 0
        MOV     ?V0 + 14,R2
        MOV     ?V0 + 15,R3
        MOV     ?V0 + 3,R1
//  416 #if (HAL_LCD == TRUE)
//  417 
//  418   uint8 strLen = 0;
//  419   uint8 totalLen = 0;
//  420   uint8 *buf;
//  421   uint8 tmpLen;
//  422 
//  423   if ( Lcd_Line1 == NULL )
        MOV     DPTR,#Lcd_Line1
        MOVX    A,@DPTR
        JNZ     ??HalLcdWriteString_0
        INC     DPTR
        MOVX    A,@DPTR
??HalLcdWriteString_0:
        JNZ     ??HalLcdWriteString_1
//  424   {
//  425     Lcd_Line1 = osal_mem_alloc( LCD_LINE_LENGTH+1 );
        ; Setup parameters for call to function osal_mem_alloc
        MOV     R2,#0x11
        MOV     R3,#0x0
        LCALL   ??osal_mem_alloc?relay
        MOV     DPTR,#Lcd_Line1
        MOV     A,R2
        MOVX    @DPTR,A
        INC     DPTR
        MOV     A,R3
        MOVX    @DPTR,A
//  426     //HalLcdWriteString( "TexasInstruments", 1 );
//  427   }
//  428 
//  429   strLen = (uint8)osal_strlen( (char*)str );
??HalLcdWriteString_1:
        ; Setup parameters for call to function osal_strlen
        MOV     R2,?V0 + 14
        MOV     R3,?V0 + 15
        LCALL   ??osal_strlen?relay
        MOV     A,R2
        MOV     ?V0 + 4,A
//  430 
//  431   /* Check boundries */
//  432   if ( strLen > LCD_LINE_LENGTH )
        CLR     C
        SUBB    A,#0x11
        JC      ??HalLcdWriteString_2
//  433     strLen = LCD_LINE_LENGTH;
        MOV     ?V0 + 4,#0x10
//  434 
//  435   if ( option == HAL_LCD_LINE_1 )
??HalLcdWriteString_2:
        MOV     DPL,?V0 + 4
        MOV     ?V0 + 12,DPL
        MOV     ?V0 + 0,?V0 + 14
        MOV     ?V0 + 1,?V0 + 15
        MOV     ?V0 + 2,#0x0
        MOV     R6,DPL
        MOV     A,#0x1
        XRL     A,?V0 + 3
        JNZ     ??HalLcdWriteString_3
//  436   {
//  437     /* Line 1 gets saved for later */
//  438     osal_memcpy( Lcd_Line1, str, strLen );
        ; Setup parameters for call to function osal_memcpy
        MOV     R0,#?V0 + 0
        LCALL   ?PUSH_XSTACK_I_THREE
        CFI CFA_XSP16 add(XSP16, 27)
        MOV     A,R6
        MOV     R4,A
        MOV     R5,#0x0
        MOV     DPTR,#Lcd_Line1
        MOVX    A,@DPTR
        MOV     R2,A
        INC     DPTR
        MOVX    A,@DPTR
        MOV     R3,A
        LCALL   ??Subroutine15_0 & 0xFFFF
??CrossCallReturnLabel_19:
        LCALL   ?DEALLOC_XSTACK8
        CFI CFA_XSP16 add(XSP16, 24)
//  439     Lcd_Line1[strLen] = '\0';
        MOV     DPTR,#Lcd_Line1
        MOVX    A,@DPTR
        ADD     A,?V0 + 12
        MOV     R2,A
        INC     DPTR
        MOVX    A,@DPTR
        ADDC    A,#0x0
        MOV     DPL,R2
        MOV     DPH,A
        CLR     A
        MOVX    @DPTR,A
        LJMP    ??HalLcdWriteString_4 & 0xFFFF
//  440   }
//  441   else
//  442   {
//  443     /* Line 2 triggers action */
//  444     tmpLen = (uint8)osal_strlen( (char*)Lcd_Line1 );
??HalLcdWriteString_3:
        ; Setup parameters for call to function osal_strlen
        MOV     DPTR,#Lcd_Line1
        MOVX    A,@DPTR
        MOV     R2,A
        INC     DPTR
        MOVX    A,@DPTR
        MOV     R3,A
        LCALL   ??osal_strlen?relay
        MOV     A,R2
        MOV     ?V0 + 6,A
//  445     totalLen =  tmpLen + 1 + strLen + 1;
//  446     buf = osal_mem_alloc( totalLen );
        ; Setup parameters for call to function osal_mem_alloc
        MOV     A,R6
        ADD     A,?V0 + 6
        ADD     A,#0x2
        MOV     R2,A
        MOV     R3,#0x0
        LCALL   ??osal_mem_alloc?relay
        MOV     ?V0 + 4,R2
        MOV     ?V0 + 5,R3
//  447     if ( buf != NULL )
        MOV     A,R2
        JNZ     ??HalLcdWriteString_5
        MOV     A,R3
??HalLcdWriteString_5:
        JZ      ??HalLcdWriteString_4
//  448     {
//  449       /* Concatenate strings */
//  450       osal_memcpy( buf, Lcd_Line1, tmpLen );
        ; Setup parameters for call to function osal_memcpy
        MOV     DPTR,#Lcd_Line1
        MOVX    A,@DPTR
        MOV     ?V0 + 8,A
        INC     DPTR
        MOVX    A,@DPTR
        MOV     ?V0 + 9,A
        MOV     ?V0 + 10,#0x0
        MOV     R0,#?V0 + 8
        LCALL   ?PUSH_XSTACK_I_THREE
        CFI CFA_XSP16 add(XSP16, 27)
        MOV     R4,?V0 + 6
        MOV     R5,#0x0
        LCALL   ??Subroutine15_0 & 0xFFFF
??CrossCallReturnLabel_20:
        LCALL   ?DEALLOC_XSTACK8
        CFI CFA_XSP16 add(XSP16, 24)
//  451       buf[tmpLen++] = ' ';
        MOV     ?V0 + 8,?V0 + 6
        MOV     A,?V0 + 4
        ADD     A,?V0 + 8
        MOV     DPL,A
        MOV     A,?V0 + 5
        LCALL   ??Subroutine14_0 & 0xFFFF
??CrossCallReturnLabel_12:
        INC     ?V0 + 6
//  452       osal_memcpy( &buf[tmpLen], str, strLen );
        ; Setup parameters for call to function osal_memcpy
        MOV     R0,#?V0 + 0
        LCALL   ?PUSH_XSTACK_I_THREE
        CFI CFA_XSP16 add(XSP16, 27)
        MOV     A,R6
        MOV     R4,A
        MOV     R5,#0x0
        MOV     A,?V0 + 4
        ADD     A,?V0 + 6
        MOV     R2,A
        MOV     A,?V0 + 5
        ADDC    A,#0x0
        MOV     R3,A
        LCALL   ??Subroutine15_0 & 0xFFFF
??CrossCallReturnLabel_21:
        LCALL   ?DEALLOC_XSTACK8
        CFI CFA_XSP16 add(XSP16, 24)
//  453       buf[tmpLen+strLen] = '\0';
        MOV     A,R6
        ADD     A,?V0 + 6
        MOV     R0,A
        CLR     A
        ADDC    A,#0x0
        MOV     R1,A
        MOV     A,?V0 + 4
        ADD     A,R0
        MOV     DPL,A
        MOV     A,?V0 + 5
        ADDC    A,R1
        MOV     DPH,A
        CLR     A
        MOVX    @DPTR,A
//  454 
//  455       /* Send it out */
//  456 #if defined (ZTOOL_P1) || defined (ZTOOL_P2)
//  457 
//  458 #if defined(SERIAL_DEBUG_SUPPORTED)
//  459       debug_str( (uint8*)buf );
        ; Setup parameters for call to function debug_str
        MOV     R2,?V0 + 4
        MOV     R3,?V0 + 5
        LCALL   ??debug_str?relay
//  460 #endif //LCD_SUPPORTED
//  461 
//  462 #endif //ZTOOL_P1
//  463 
//  464       /* Free mem */
//  465       osal_mem_free( buf );
        ; Setup parameters for call to function osal_mem_free
        MOV     R2,?V0 + 4
        MOV     R3,?V0 + 5
        LCALL   ??osal_mem_free?relay
//  466     }
//  467   }
//  468 
//  469   /* Display the string */
//  470   HalLcd_HW_WriteLine (option, str);
??HalLcdWriteString_4:
        ; Setup parameters for call to function HalLcd_HW_WriteLine
        MOV     R2,?V0 + 14
        MOV     R3,?V0 + 15
        MOV     R1,?V0 + 3
        LCALL   ??HalLcd_HW_WriteLine?relay
//  471 
//  472 #endif //HAL_LCD
//  473 
//  474 }
        MOV     R7,#0x10
        LJMP    ?BANKED_LEAVE_XDATA
        CFI EndBlock cfiBlock17
//  475 
//  476 /**************************************************************************************************
//  477  * @fn      HalLcdWriteValue
//  478  *
//  479  * @brief   Write a value to the LCD
//  480  *
//  481  * @param   value  - value that will be displayed
//  482  *          radix  - 8, 10, 16
//  483  *          option - display options
//  484  *
//  485  * @return  None
//  486  **************************************************************************************************/

        RSEG BANKED_CODE:CODE:NOROOT(0)
//  487 void HalLcdWriteValue ( uint32 value, const uint8 radix, uint8 option)
HalLcdWriteValue:
        CFI Block cfiBlock18 Using cfiCommon0
        CFI Function HalLcdWriteValue
//  488 {
        FUNCALL HalLcdWriteValue, _ltoa
        LOCFRAME ISTACK, 0, STACK
        LOCFRAME PSTACK, 0, STACK
        LOCFRAME XSTACK, 41, STACK
        LOCFRAME IOVERLAY, 0, STATIC
        LOCFRAME DOVERLAY, 0, STATIC
        ARGFRAME ISTACK, 0, STACK
        ARGFRAME PSTACK, 0, STACK
        ARGFRAME XSTACK, 41, STACK
        ARGFRAME IOVERLAY, 0, STATIC
        ARGFRAME DOVERLAY, 0, STATIC
        FUNCALL HalLcdWriteValue, HalLcdWriteString
        LOCFRAME ISTACK, 0, STACK
        LOCFRAME PSTACK, 0, STACK
        LOCFRAME XSTACK, 39, STACK
        LOCFRAME IOVERLAY, 0, STATIC
        LOCFRAME DOVERLAY, 0, STATIC
        ARGFRAME ISTACK, 0, STACK
        ARGFRAME PSTACK, 0, STACK
        ARGFRAME XSTACK, 39, STACK
        ARGFRAME IOVERLAY, 0, STATIC
        ARGFRAME DOVERLAY, 0, STATIC
        MOV     A,#-0xe
        LCALL   ?BANKED_ENTER_XDATA
        CFI DPH0 load(1, XDATA, add(CFA_XSP16, literal(-1)))
        CFI DPL0 load(1, XDATA, add(CFA_XSP16, literal(-2)))
        CFI ?BRET_EXT load(1, XDATA, add(CFA_XSP16, literal(-3)))
        CFI ?RET_HIGH load(1, XDATA, add(CFA_XSP16, literal(-4)))
        CFI ?RET_LOW load(1, XDATA, add(CFA_XSP16, literal(-5)))
        CFI R7 load(1, XDATA, add(CFA_XSP16, literal(-6)))
        CFI V5 load(1, XDATA, add(CFA_XSP16, literal(-7)))
        CFI V4 load(1, XDATA, add(CFA_XSP16, literal(-8)))
        CFI V3 load(1, XDATA, add(CFA_XSP16, literal(-9)))
        CFI V2 load(1, XDATA, add(CFA_XSP16, literal(-10)))
        CFI V1 load(1, XDATA, add(CFA_XSP16, literal(-11)))
        CFI V0 load(1, XDATA, add(CFA_XSP16, literal(-12)))
        CFI VB load(1, XDATA, add(CFA_XSP16, literal(-13)))
        CFI R6 load(1, XDATA, add(CFA_XSP16, literal(-14)))
        CFI CFA_SP SP+0
        CFI CFA_XSP16 add(XSP16, 14)
        ; Saved register size: 14
        ; Auto size: 25
        MOV     A,#-0x19
        LCALL   ?ALLOC_XSTACK8
        CFI CFA_XSP16 add(XSP16, 39)
        MOV     A,#0x27
        LCALL   ?XSTACK_DISP0_8
        MOVX    A,@DPTR
        MOV     R6,A
//  489 #if (HAL_LCD == TRUE)
//  490   uint8 buf[LCD_MAX_BUF];
//  491 
//  492   _ltoa( value, &buf[0], radix );
        ; Setup parameters for call to function _ltoa
        MOV     DPL,?XSP + 0
        MOV     DPH,?XSP + 1
        MOV     ?V0 + 4,DPL
        MOV     ?V0 + 5,DPH
        MOV     R0,#?V0 + 4
        LCALL   ?PUSH_XSTACK_I_TWO
        CFI CFA_XSP16 add(XSP16, 41)
        LCALL   ??Subroutine17_0 & 0xFFFF
??CrossCallReturnLabel_26:
        LCALL   ?DEALLOC_XSTACK8
        CFI CFA_XSP16 add(XSP16, 39)
//  493   HalLcdWriteString( (char*)buf, option );
        ; Setup parameters for call to function HalLcdWriteString
        MOV     A,R6
        MOV     R1,A
        MOV     DPL,?XSP + 0
        MOV     DPH,?XSP + 1
        MOV     R2,DPL
        MOV     R3,DPH
        LCALL   ??HalLcdWriteString?relay
//  494 #endif
//  495 }
        MOV     A,#0x19
        LCALL   ?DEALLOC_XSTACK8
        CFI CFA_XSP16 add(XSP16, 14)
        MOV     R7,#0x6
        LJMP    ?BANKED_LEAVE_XDATA
        CFI EndBlock cfiBlock18
//  496 
//  497 /**************************************************************************************************
//  498  * @fn      HalLcdWriteScreen
//  499  *
//  500  * @brief   Write a value to the LCD
//  501  *
//  502  * @param   line1  - string that will be displayed on line 1
//  503  *          line2  - string that will be displayed on line 2
//  504  *
//  505  * @return  None
//  506  **************************************************************************************************/

        RSEG BANKED_CODE:CODE:NOROOT(0)
//  507 void HalLcdWriteScreen( char *line1, char *line2 )
HalLcdWriteScreen:
        CFI Block cfiBlock19 Using cfiCommon0
        CFI Function HalLcdWriteScreen
//  508 {
        FUNCALL HalLcdWriteScreen, HalLcdWriteString
        LOCFRAME ISTACK, 0, STACK
        LOCFRAME PSTACK, 0, STACK
        LOCFRAME XSTACK, 9, STACK
        LOCFRAME IOVERLAY, 0, STATIC
        LOCFRAME DOVERLAY, 0, STATIC
        ARGFRAME ISTACK, 0, STACK
        ARGFRAME PSTACK, 0, STACK
        ARGFRAME XSTACK, 9, STACK
        ARGFRAME IOVERLAY, 0, STATIC
        ARGFRAME DOVERLAY, 0, STATIC
        FUNCALL HalLcdWriteScreen, HalLcdWriteString
        LOCFRAME ISTACK, 0, STACK
        LOCFRAME PSTACK, 0, STACK
        LOCFRAME XSTACK, 9, STACK
        LOCFRAME IOVERLAY, 0, STATIC
        LOCFRAME DOVERLAY, 0, STATIC
        ARGFRAME ISTACK, 0, STACK
        ARGFRAME PSTACK, 0, STACK
        ARGFRAME XSTACK, 9, STACK
        ARGFRAME IOVERLAY, 0, STATIC
        ARGFRAME DOVERLAY, 0, STATIC
        MOV     A,#-0x9
        LCALL   ?BANKED_ENTER_XDATA
        CFI DPH0 load(1, XDATA, add(CFA_XSP16, literal(-1)))
        CFI DPL0 load(1, XDATA, add(CFA_XSP16, literal(-2)))
        CFI ?BRET_EXT load(1, XDATA, add(CFA_XSP16, literal(-3)))
        CFI ?RET_HIGH load(1, XDATA, add(CFA_XSP16, literal(-4)))
        CFI ?RET_LOW load(1, XDATA, add(CFA_XSP16, literal(-5)))
        CFI R7 load(1, XDATA, add(CFA_XSP16, literal(-6)))
        CFI V0 load(1, XDATA, add(CFA_XSP16, literal(-7)))
        CFI VB load(1, XDATA, add(CFA_XSP16, literal(-8)))
        CFI R6 load(1, XDATA, add(CFA_XSP16, literal(-9)))
        CFI CFA_SP SP+0
        CFI CFA_XSP16 add(XSP16, 9)
        ; Saved register size: 9
        ; Auto size: 0
        MOV     A,R4
        MOV     R6,A
        MOV     A,R5
        MOV     R7,A
//  509 #if (HAL_LCD == TRUE)
//  510   HalLcdWriteString( line1, 1 );
        ; Setup parameters for call to function HalLcdWriteString
        MOV     R1,#0x1
        LCALL   ??HalLcdWriteString?relay
//  511   HalLcdWriteString( line2, 2 );
        ; Setup parameters for call to function HalLcdWriteString
        MOV     R1,#0x2
        MOV     A,R6
        MOV     R2,A
        MOV     A,R7
        MOV     R3,A
        LCALL   ??HalLcdWriteString?relay
        CFI EndBlock cfiBlock19
//  512 #endif
//  513 }
        REQUIRE ?Subroutine11
        ; // Fall through to label ?Subroutine11

        RSEG BANKED_CODE:CODE:NOROOT(0)
?Subroutine11:
        CFI Block cfiBlock20 Using cfiCommon0
        CFI NoFunction
        CFI CFA_SP SP+0
        CFI CFA_XSP16 add(XSP16, 9)
        CFI VB load(1, XDATA, add(CFA_XSP16, literal(-8)))
        CFI DPL0 load(1, XDATA, add(CFA_XSP16, literal(-2)))
        CFI DPH0 load(1, XDATA, add(CFA_XSP16, literal(-1)))
        CFI R6 load(1, XDATA, add(CFA_XSP16, literal(-9)))
        CFI R7 load(1, XDATA, add(CFA_XSP16, literal(-6)))
        CFI V0 load(1, XDATA, add(CFA_XSP16, literal(-7)))
        CFI ?BRET_EXT load(1, XDATA, add(CFA_XSP16, literal(-3)))
        CFI ?RET_HIGH load(1, XDATA, add(CFA_XSP16, literal(-4)))
        CFI ?RET_LOW load(1, XDATA, add(CFA_XSP16, literal(-5)))
        MOV     R7,#0x1
        LJMP    ?BANKED_LEAVE_XDATA
        CFI EndBlock cfiBlock20
//  514 
//  515 /**************************************************************************************************
//  516  * @fn      HalLcdWriteStringValue
//  517  *
//  518  * @brief   Write a string followed by a value to the LCD
//  519  *
//  520  * @param   title  - Title that will be displayed before the value
//  521  *          value  - value
//  522  *          format - redix
//  523  *          line   - line number
//  524  *
//  525  * @return  None
//  526  **************************************************************************************************/

        RSEG BANKED_CODE:CODE:NOROOT(0)
//  527 void HalLcdWriteStringValue( char *title, uint16 value, uint8 format, uint8 line )
HalLcdWriteStringValue:
        CFI Block cfiBlock21 Using cfiCommon0
        CFI Function HalLcdWriteStringValue
//  528 {
        FUNCALL HalLcdWriteStringValue, osal_strlen
        LOCFRAME ISTACK, 0, STACK
        LOCFRAME PSTACK, 0, STACK
        LOCFRAME XSTACK, 43, STACK
        LOCFRAME IOVERLAY, 0, STATIC
        LOCFRAME DOVERLAY, 0, STATIC
        ARGFRAME ISTACK, 0, STACK
        ARGFRAME PSTACK, 0, STACK
        ARGFRAME XSTACK, 43, STACK
        ARGFRAME IOVERLAY, 0, STATIC
        ARGFRAME DOVERLAY, 0, STATIC
        FUNCALL HalLcdWriteStringValue, osal_memcpy
        LOCFRAME ISTACK, 0, STACK
        LOCFRAME PSTACK, 0, STACK
        LOCFRAME XSTACK, 46, STACK
        LOCFRAME IOVERLAY, 0, STATIC
        LOCFRAME DOVERLAY, 0, STATIC
        ARGFRAME ISTACK, 0, STACK
        ARGFRAME PSTACK, 0, STACK
        ARGFRAME XSTACK, 46, STACK
        ARGFRAME IOVERLAY, 0, STATIC
        ARGFRAME DOVERLAY, 0, STATIC
        FUNCALL HalLcdWriteStringValue, _ltoa
        LOCFRAME ISTACK, 0, STACK
        LOCFRAME PSTACK, 0, STACK
        LOCFRAME XSTACK, 45, STACK
        LOCFRAME IOVERLAY, 0, STATIC
        LOCFRAME DOVERLAY, 0, STATIC
        ARGFRAME ISTACK, 0, STACK
        ARGFRAME PSTACK, 0, STACK
        ARGFRAME XSTACK, 45, STACK
        ARGFRAME IOVERLAY, 0, STATIC
        ARGFRAME DOVERLAY, 0, STATIC
        FUNCALL HalLcdWriteStringValue, HalLcdWriteString
        LOCFRAME ISTACK, 0, STACK
        LOCFRAME PSTACK, 0, STACK
        LOCFRAME XSTACK, 43, STACK
        LOCFRAME IOVERLAY, 0, STATIC
        LOCFRAME DOVERLAY, 0, STATIC
        ARGFRAME ISTACK, 0, STACK
        ARGFRAME PSTACK, 0, STACK
        ARGFRAME XSTACK, 43, STACK
        ARGFRAME IOVERLAY, 0, STATIC
        ARGFRAME DOVERLAY, 0, STATIC
        MOV     A,#-0x12
        LCALL   ?BANKED_ENTER_XDATA
        CFI DPH0 load(1, XDATA, add(CFA_XSP16, literal(-1)))
        CFI DPL0 load(1, XDATA, add(CFA_XSP16, literal(-2)))
        CFI ?BRET_EXT load(1, XDATA, add(CFA_XSP16, literal(-3)))
        CFI ?RET_HIGH load(1, XDATA, add(CFA_XSP16, literal(-4)))
        CFI ?RET_LOW load(1, XDATA, add(CFA_XSP16, literal(-5)))
        CFI R7 load(1, XDATA, add(CFA_XSP16, literal(-6)))
        CFI V9 load(1, XDATA, add(CFA_XSP16, literal(-7)))
        CFI V8 load(1, XDATA, add(CFA_XSP16, literal(-8)))
        CFI V7 load(1, XDATA, add(CFA_XSP16, literal(-9)))
        CFI V6 load(1, XDATA, add(CFA_XSP16, literal(-10)))
        CFI V5 load(1, XDATA, add(CFA_XSP16, literal(-11)))
        CFI V4 load(1, XDATA, add(CFA_XSP16, literal(-12)))
        CFI V3 load(1, XDATA, add(CFA_XSP16, literal(-13)))
        CFI V2 load(1, XDATA, add(CFA_XSP16, literal(-14)))
        CFI V1 load(1, XDATA, add(CFA_XSP16, literal(-15)))
        CFI V0 load(1, XDATA, add(CFA_XSP16, literal(-16)))
        CFI VB load(1, XDATA, add(CFA_XSP16, literal(-17)))
        CFI R6 load(1, XDATA, add(CFA_XSP16, literal(-18)))
        CFI CFA_SP SP+0
        CFI CFA_XSP16 add(XSP16, 18)
        ; Saved register size: 18
        ; Auto size: 25
        MOV     A,#-0x19
        LCALL   ?ALLOC_XSTACK8
        CFI CFA_XSP16 add(XSP16, 43)
        MOV     A,R2
        MOV     R6,A
        MOV     A,R3
        MOV     R7,A
        MOV     ?V0 + 6,R4
        MOV     ?V0 + 7,R5
        MOV     ?V0 + 4,R1
        MOV     A,#0x2b
        LCALL   ?XSTACK_DISP0_8
        MOVX    A,@DPTR
        MOV     ?V0 + 3,A
//  529 #if (HAL_LCD == TRUE)
//  530   uint8 tmpLen;
//  531   uint8 buf[LCD_MAX_BUF];
//  532   uint32 err;
//  533 
//  534   tmpLen = (uint8)osal_strlen( (char*)title );
        ; Setup parameters for call to function osal_strlen
        LCALL   ?Subroutine7 & 0xFFFF
//  535   osal_memcpy( buf, title, tmpLen );
??CrossCallReturnLabel_2:
        ; Setup parameters for call to function osal_memcpy
        MOV     ?V0 + 0,R6
        MOV     ?V0 + 1,R7
        MOV     ?V0 + 2,#0x0
        MOV     R0,#?V0 + 0
        LCALL   ?PUSH_XSTACK_I_THREE
        CFI CFA_XSP16 add(XSP16, 46)
        MOV     A,R2
        MOV     R4,A
        MOV     R5,#0x0
        MOV     A,#0x3
        LCALL   ?XSTACK_DISP0_8
        LCALL   ?Subroutine4 & 0xFFFF
??CrossCallReturnLabel_16:
        LCALL   ?DEALLOC_XSTACK8
        CFI CFA_XSP16 add(XSP16, 43)
//  536   buf[tmpLen] = ' ';
        MOV     DPL,?XSP + 0
        MOV     DPH,?XSP + 1
        MOV     A,DPL
        ADD     A,?V0 + 8
        LCALL   ?Subroutine3 & 0xFFFF
//  537   err = (uint32)(value);
//  538   _ltoa( err, &buf[tmpLen+1], format );
??CrossCallReturnLabel_13:
        ; Setup parameters for call to function _ltoa
        INC     DPTR
        MOV     ?V0 + 0,DPL
        MOV     ?V0 + 1,DPH
        MOV     R0,#?V0 + 0
        LCALL   ?PUSH_XSTACK_I_TWO
        CFI CFA_XSP16 add(XSP16, 45)
        MOV     R1,?V0 + 4
        MOV     R2,?V0 + 6
        MOV     R3,?V0 + 7
        LCALL   ??Subroutine16_0 & 0xFFFF
??CrossCallReturnLabel_24:
        LCALL   ?DEALLOC_XSTACK8
        CFI CFA_XSP16 add(XSP16, 43)
//  539   HalLcdWriteString( (char*)buf, line );		
        ; Setup parameters for call to function HalLcdWriteString
        MOV     R1,?V0 + 3
        CFI EndBlock cfiBlock21
        REQUIRE ?Subroutine12
        ; // Fall through to label ?Subroutine12
//  540 #endif
//  541 }

        RSEG BANKED_CODE:CODE:NOROOT(0)
?Subroutine12:
        CFI Block cfiBlock22 Using cfiCommon0
        CFI NoFunction
        CFI CFA_SP SP+0
        CFI CFA_XSP16 add(XSP16, 43)
        CFI VB load(1, XDATA, add(CFA_XSP16, literal(-17)))
        CFI DPL0 load(1, XDATA, add(CFA_XSP16, literal(-2)))
        CFI DPH0 load(1, XDATA, add(CFA_XSP16, literal(-1)))
        CFI R6 load(1, XDATA, add(CFA_XSP16, literal(-18)))
        CFI R7 load(1, XDATA, add(CFA_XSP16, literal(-6)))
        CFI V0 load(1, XDATA, add(CFA_XSP16, literal(-16)))
        CFI V1 load(1, XDATA, add(CFA_XSP16, literal(-15)))
        CFI V2 load(1, XDATA, add(CFA_XSP16, literal(-14)))
        CFI V3 load(1, XDATA, add(CFA_XSP16, literal(-13)))
        CFI V4 load(1, XDATA, add(CFA_XSP16, literal(-12)))
        CFI V5 load(1, XDATA, add(CFA_XSP16, literal(-11)))
        CFI V6 load(1, XDATA, add(CFA_XSP16, literal(-10)))
        CFI V7 load(1, XDATA, add(CFA_XSP16, literal(-9)))
        CFI V8 load(1, XDATA, add(CFA_XSP16, literal(-8)))
        CFI V9 load(1, XDATA, add(CFA_XSP16, literal(-7)))
        CFI ?BRET_EXT load(1, XDATA, add(CFA_XSP16, literal(-3)))
        CFI ?RET_HIGH load(1, XDATA, add(CFA_XSP16, literal(-4)))
        CFI ?RET_LOW load(1, XDATA, add(CFA_XSP16, literal(-5)))
        MOV     DPL,?XSP + 0
        MOV     DPH,?XSP + 1
        MOV     R2,DPL
        MOV     R3,DPH
        LCALL   ??HalLcdWriteString?relay
        MOV     A,#0x19
        LCALL   ?DEALLOC_XSTACK8
        CFI CFA_XSP16 add(XSP16, 18)
        MOV     R7,#0xa
        LJMP    ?BANKED_LEAVE_XDATA
        CFI EndBlock cfiBlock22

        RSEG BANKED_CODE:CODE:NOROOT(0)
?Subroutine3:
        CFI Block cfiCond23 Using cfiCommon0
        CFI NoFunction
        CFI Conditional ??CrossCallReturnLabel_13
        CFI R6 load(1, XDATA, add(CFA_XSP16, literal(-18)))
        CFI VB load(1, XDATA, add(CFA_XSP16, literal(-17)))
        CFI V0 load(1, XDATA, add(CFA_XSP16, literal(-16)))
        CFI V1 load(1, XDATA, add(CFA_XSP16, literal(-15)))
        CFI V2 load(1, XDATA, add(CFA_XSP16, literal(-14)))
        CFI V3 load(1, XDATA, add(CFA_XSP16, literal(-13)))
        CFI V4 load(1, XDATA, add(CFA_XSP16, literal(-12)))
        CFI V5 load(1, XDATA, add(CFA_XSP16, literal(-11)))
        CFI V6 load(1, XDATA, add(CFA_XSP16, literal(-10)))
        CFI V7 load(1, XDATA, add(CFA_XSP16, literal(-9)))
        CFI V8 load(1, XDATA, add(CFA_XSP16, literal(-8)))
        CFI V9 load(1, XDATA, add(CFA_XSP16, literal(-7)))
        CFI R7 load(1, XDATA, add(CFA_XSP16, literal(-6)))
        CFI ?RET_LOW load(1, XDATA, add(CFA_XSP16, literal(-5)))
        CFI ?RET_HIGH load(1, XDATA, add(CFA_XSP16, literal(-4)))
        CFI ?BRET_EXT load(1, XDATA, add(CFA_XSP16, literal(-3)))
        CFI DPL0 load(1, XDATA, add(CFA_XSP16, literal(-2)))
        CFI DPH0 load(1, XDATA, add(CFA_XSP16, literal(-1)))
        CFI CFA_SP SP+0
        CFI CFA_XSP16 add(XSP16, 43)
        CFI Block cfiCond24 Using cfiCommon0
        CFI (cfiCond24) NoFunction
        CFI (cfiCond24) Conditional ??CrossCallReturnLabel_14
        CFI (cfiCond24) R6 load(1, XDATA, add(CFA_XSP16, literal(-18)))
        CFI (cfiCond24) VB load(1, XDATA, add(CFA_XSP16, literal(-17)))
        CFI (cfiCond24) V0 load(1, XDATA, add(CFA_XSP16, literal(-16)))
        CFI (cfiCond24) V1 load(1, XDATA, add(CFA_XSP16, literal(-15)))
        CFI (cfiCond24) V2 load(1, XDATA, add(CFA_XSP16, literal(-14)))
        CFI (cfiCond24) V3 load(1, XDATA, add(CFA_XSP16, literal(-13)))
        CFI (cfiCond24) V4 load(1, XDATA, add(CFA_XSP16, literal(-12)))
        CFI (cfiCond24) V5 load(1, XDATA, add(CFA_XSP16, literal(-11)))
        CFI (cfiCond24) V6 load(1, XDATA, add(CFA_XSP16, literal(-10)))
        CFI (cfiCond24) V7 load(1, XDATA, add(CFA_XSP16, literal(-9)))
        CFI (cfiCond24) V8 load(1, XDATA, add(CFA_XSP16, literal(-8)))
        CFI (cfiCond24) V9 load(1, XDATA, add(CFA_XSP16, literal(-7)))
        CFI (cfiCond24) R7 load(1, XDATA, add(CFA_XSP16, literal(-6)))
        CFI (cfiCond24) ?RET_LOW load(1, XDATA, add(CFA_XSP16, literal(-5)))
        CFI (cfiCond24) ?RET_HIGH load(1, XDATA, add(CFA_XSP16, literal(-4)))
        CFI (cfiCond24) ?BRET_EXT load(1, XDATA, add(CFA_XSP16, literal(-3)))
        CFI (cfiCond24) DPL0 load(1, XDATA, add(CFA_XSP16, literal(-2)))
        CFI (cfiCond24) DPH0 load(1, XDATA, add(CFA_XSP16, literal(-1)))
        CFI (cfiCond24) CFA_SP SP+0
        CFI (cfiCond24) CFA_XSP16 add(XSP16, 43)
        CFI Block cfiCond25 Using cfiCommon0
        CFI (cfiCond25) NoFunction
        CFI (cfiCond25) Conditional ??CrossCallReturnLabel_15
        CFI (cfiCond25) R6 load(1, XDATA, add(CFA_XSP16, literal(-18)))
        CFI (cfiCond25) VB load(1, XDATA, add(CFA_XSP16, literal(-17)))
        CFI (cfiCond25) V0 load(1, XDATA, add(CFA_XSP16, literal(-16)))
        CFI (cfiCond25) V1 load(1, XDATA, add(CFA_XSP16, literal(-15)))
        CFI (cfiCond25) V2 load(1, XDATA, add(CFA_XSP16, literal(-14)))
        CFI (cfiCond25) V3 load(1, XDATA, add(CFA_XSP16, literal(-13)))
        CFI (cfiCond25) V4 load(1, XDATA, add(CFA_XSP16, literal(-12)))
        CFI (cfiCond25) V5 load(1, XDATA, add(CFA_XSP16, literal(-11)))
        CFI (cfiCond25) V6 load(1, XDATA, add(CFA_XSP16, literal(-10)))
        CFI (cfiCond25) V7 load(1, XDATA, add(CFA_XSP16, literal(-9)))
        CFI (cfiCond25) V8 load(1, XDATA, add(CFA_XSP16, literal(-8)))
        CFI (cfiCond25) V9 load(1, XDATA, add(CFA_XSP16, literal(-7)))
        CFI (cfiCond25) R7 load(1, XDATA, add(CFA_XSP16, literal(-6)))
        CFI (cfiCond25) ?RET_LOW load(1, XDATA, add(CFA_XSP16, literal(-5)))
        CFI (cfiCond25) ?RET_HIGH load(1, XDATA, add(CFA_XSP16, literal(-4)))
        CFI (cfiCond25) ?BRET_EXT load(1, XDATA, add(CFA_XSP16, literal(-3)))
        CFI (cfiCond25) DPL0 load(1, XDATA, add(CFA_XSP16, literal(-2)))
        CFI (cfiCond25) DPH0 load(1, XDATA, add(CFA_XSP16, literal(-1)))
        CFI (cfiCond25) CFA_SP SP+0
        CFI (cfiCond25) CFA_XSP16 add(XSP16, 43)
        CFI Block cfiPicker26 Using cfiCommon1
        CFI (cfiPicker26) NoFunction
        CFI (cfiPicker26) Picker
        MOV     DPL,A
        MOV     A,DPH
        CFI EndBlock cfiCond23
        CFI EndBlock cfiCond24
        CFI EndBlock cfiCond25
        CFI EndBlock cfiPicker26
        REQUIRE ??Subroutine14_0
        ; // Fall through to label ??Subroutine14_0

        RSEG BANKED_CODE:CODE:NOROOT(0)
??Subroutine14_0:
        CFI Block cfiCond27 Using cfiCommon0
        CFI NoFunction
        CFI Conditional ??CrossCallReturnLabel_12
        CFI R6 load(1, XDATA, add(CFA_XSP16, literal(-24)))
        CFI VB load(1, XDATA, add(CFA_XSP16, literal(-23)))
        CFI V0 load(1, XDATA, add(CFA_XSP16, literal(-22)))
        CFI V1 load(1, XDATA, add(CFA_XSP16, literal(-21)))
        CFI V2 load(1, XDATA, add(CFA_XSP16, literal(-20)))
        CFI V3 load(1, XDATA, add(CFA_XSP16, literal(-19)))
        CFI V4 load(1, XDATA, add(CFA_XSP16, literal(-18)))
        CFI V5 load(1, XDATA, add(CFA_XSP16, literal(-17)))
        CFI V6 load(1, XDATA, add(CFA_XSP16, literal(-16)))
        CFI V7 load(1, XDATA, add(CFA_XSP16, literal(-15)))
        CFI V8 load(1, XDATA, add(CFA_XSP16, literal(-14)))
        CFI V9 load(1, XDATA, add(CFA_XSP16, literal(-13)))
        CFI V10 load(1, XDATA, add(CFA_XSP16, literal(-12)))
        CFI V11 load(1, XDATA, add(CFA_XSP16, literal(-11)))
        CFI V12 load(1, XDATA, add(CFA_XSP16, literal(-10)))
        CFI V13 load(1, XDATA, add(CFA_XSP16, literal(-9)))
        CFI V14 load(1, XDATA, add(CFA_XSP16, literal(-8)))
        CFI V15 load(1, XDATA, add(CFA_XSP16, literal(-7)))
        CFI R7 load(1, XDATA, add(CFA_XSP16, literal(-6)))
        CFI ?RET_LOW load(1, XDATA, add(CFA_XSP16, literal(-5)))
        CFI ?RET_HIGH load(1, XDATA, add(CFA_XSP16, literal(-4)))
        CFI ?BRET_EXT load(1, XDATA, add(CFA_XSP16, literal(-3)))
        CFI DPL0 load(1, XDATA, add(CFA_XSP16, literal(-2)))
        CFI DPH0 load(1, XDATA, add(CFA_XSP16, literal(-1)))
        CFI CFA_SP SP+0
        CFI CFA_XSP16 add(XSP16, 24)
        CFI Block cfiCond28 Using cfiCommon0
        CFI (cfiCond28) NoFunction
        CFI (cfiCond28) Conditional ??CrossCallReturnLabel_13
        CFI (cfiCond28) R6 load(1, XDATA, add(CFA_XSP16, literal(-18)))
        CFI (cfiCond28) VB load(1, XDATA, add(CFA_XSP16, literal(-17)))
        CFI (cfiCond28) V0 load(1, XDATA, add(CFA_XSP16, literal(-16)))
        CFI (cfiCond28) V1 load(1, XDATA, add(CFA_XSP16, literal(-15)))
        CFI (cfiCond28) V2 load(1, XDATA, add(CFA_XSP16, literal(-14)))
        CFI (cfiCond28) V3 load(1, XDATA, add(CFA_XSP16, literal(-13)))
        CFI (cfiCond28) V4 load(1, XDATA, add(CFA_XSP16, literal(-12)))
        CFI (cfiCond28) V5 load(1, XDATA, add(CFA_XSP16, literal(-11)))
        CFI (cfiCond28) V6 load(1, XDATA, add(CFA_XSP16, literal(-10)))
        CFI (cfiCond28) V7 load(1, XDATA, add(CFA_XSP16, literal(-9)))
        CFI (cfiCond28) V8 load(1, XDATA, add(CFA_XSP16, literal(-8)))
        CFI (cfiCond28) V9 load(1, XDATA, add(CFA_XSP16, literal(-7)))
        CFI (cfiCond28) R7 load(1, XDATA, add(CFA_XSP16, literal(-6)))
        CFI (cfiCond28) ?RET_LOW load(1, XDATA, add(CFA_XSP16, literal(-5)))
        CFI (cfiCond28) ?RET_HIGH load(1, XDATA, add(CFA_XSP16, literal(-4)))
        CFI (cfiCond28) ?BRET_EXT load(1, XDATA, add(CFA_XSP16, literal(-3)))
        CFI (cfiCond28) DPL0 load(1, XDATA, add(CFA_XSP16, literal(-2)))
        CFI (cfiCond28) DPH0 load(1, XDATA, add(CFA_XSP16, literal(-1)))
        CFI (cfiCond28) CFA_SP SP+0
        CFI (cfiCond28) CFA_XSP16 add(XSP16, 43)
        CFI Block cfiCond29 Using cfiCommon0
        CFI (cfiCond29) NoFunction
        CFI (cfiCond29) Conditional ??CrossCallReturnLabel_14
        CFI (cfiCond29) R6 load(1, XDATA, add(CFA_XSP16, literal(-18)))
        CFI (cfiCond29) VB load(1, XDATA, add(CFA_XSP16, literal(-17)))
        CFI (cfiCond29) V0 load(1, XDATA, add(CFA_XSP16, literal(-16)))
        CFI (cfiCond29) V1 load(1, XDATA, add(CFA_XSP16, literal(-15)))
        CFI (cfiCond29) V2 load(1, XDATA, add(CFA_XSP16, literal(-14)))
        CFI (cfiCond29) V3 load(1, XDATA, add(CFA_XSP16, literal(-13)))
        CFI (cfiCond29) V4 load(1, XDATA, add(CFA_XSP16, literal(-12)))
        CFI (cfiCond29) V5 load(1, XDATA, add(CFA_XSP16, literal(-11)))
        CFI (cfiCond29) V6 load(1, XDATA, add(CFA_XSP16, literal(-10)))
        CFI (cfiCond29) V7 load(1, XDATA, add(CFA_XSP16, literal(-9)))
        CFI (cfiCond29) V8 load(1, XDATA, add(CFA_XSP16, literal(-8)))
        CFI (cfiCond29) V9 load(1, XDATA, add(CFA_XSP16, literal(-7)))
        CFI (cfiCond29) R7 load(1, XDATA, add(CFA_XSP16, literal(-6)))
        CFI (cfiCond29) ?RET_LOW load(1, XDATA, add(CFA_XSP16, literal(-5)))
        CFI (cfiCond29) ?RET_HIGH load(1, XDATA, add(CFA_XSP16, literal(-4)))
        CFI (cfiCond29) ?BRET_EXT load(1, XDATA, add(CFA_XSP16, literal(-3)))
        CFI (cfiCond29) DPL0 load(1, XDATA, add(CFA_XSP16, literal(-2)))
        CFI (cfiCond29) DPH0 load(1, XDATA, add(CFA_XSP16, literal(-1)))
        CFI (cfiCond29) CFA_SP SP+0
        CFI (cfiCond29) CFA_XSP16 add(XSP16, 43)
        CFI Block cfiCond30 Using cfiCommon0
        CFI (cfiCond30) NoFunction
        CFI (cfiCond30) Conditional ??CrossCallReturnLabel_15
        CFI (cfiCond30) R6 load(1, XDATA, add(CFA_XSP16, literal(-18)))
        CFI (cfiCond30) VB load(1, XDATA, add(CFA_XSP16, literal(-17)))
        CFI (cfiCond30) V0 load(1, XDATA, add(CFA_XSP16, literal(-16)))
        CFI (cfiCond30) V1 load(1, XDATA, add(CFA_XSP16, literal(-15)))
        CFI (cfiCond30) V2 load(1, XDATA, add(CFA_XSP16, literal(-14)))
        CFI (cfiCond30) V3 load(1, XDATA, add(CFA_XSP16, literal(-13)))
        CFI (cfiCond30) V4 load(1, XDATA, add(CFA_XSP16, literal(-12)))
        CFI (cfiCond30) V5 load(1, XDATA, add(CFA_XSP16, literal(-11)))
        CFI (cfiCond30) V6 load(1, XDATA, add(CFA_XSP16, literal(-10)))
        CFI (cfiCond30) V7 load(1, XDATA, add(CFA_XSP16, literal(-9)))
        CFI (cfiCond30) V8 load(1, XDATA, add(CFA_XSP16, literal(-8)))
        CFI (cfiCond30) V9 load(1, XDATA, add(CFA_XSP16, literal(-7)))
        CFI (cfiCond30) R7 load(1, XDATA, add(CFA_XSP16, literal(-6)))
        CFI (cfiCond30) ?RET_LOW load(1, XDATA, add(CFA_XSP16, literal(-5)))
        CFI (cfiCond30) ?RET_HIGH load(1, XDATA, add(CFA_XSP16, literal(-4)))
        CFI (cfiCond30) ?BRET_EXT load(1, XDATA, add(CFA_XSP16, literal(-3)))
        CFI (cfiCond30) DPL0 load(1, XDATA, add(CFA_XSP16, literal(-2)))
        CFI (cfiCond30) DPH0 load(1, XDATA, add(CFA_XSP16, literal(-1)))
        CFI (cfiCond30) CFA_SP SP+0
        CFI (cfiCond30) CFA_XSP16 add(XSP16, 43)
        CFI Block cfiPicker31 Using cfiCommon1
        CFI (cfiPicker31) NoFunction
        CFI (cfiPicker31) Picker
        ADDC    A,#0x0
        MOV     DPH,A
        MOV     A,#0x20
        MOVX    @DPTR,A
        RET
        CFI EndBlock cfiCond27
        CFI EndBlock cfiCond28
        CFI EndBlock cfiCond29
        CFI EndBlock cfiCond30
        CFI EndBlock cfiPicker31
//  542 
//  543 /**************************************************************************************************
//  544  * @fn      HalLcdWriteStringValue
//  545  *
//  546  * @brief   Write a string followed by a value to the LCD
//  547  *
//  548  * @param   title   - Title that will be displayed before the value
//  549  *          value1  - value #1
//  550  *          format1 - redix of value #1
//  551  *          value2  - value #2
//  552  *          format2 - redix of value #2
//  553  *          line    - line number
//  554  *
//  555  * @return  None
//  556  **************************************************************************************************/

        RSEG BANKED_CODE:CODE:NOROOT(0)
//  557 void HalLcdWriteStringValueValue( char *title, uint16 value1, uint8 format1,
HalLcdWriteStringValueValue:
        CFI Block cfiBlock32 Using cfiCommon0
        CFI Function HalLcdWriteStringValueValue
//  558                                   uint16 value2, uint8 format2, uint8 line )
//  559 {
        FUNCALL HalLcdWriteStringValueValue, osal_strlen
        LOCFRAME ISTACK, 0, STACK
        LOCFRAME PSTACK, 0, STACK
        LOCFRAME XSTACK, 43, STACK
        LOCFRAME IOVERLAY, 0, STATIC
        LOCFRAME DOVERLAY, 0, STATIC
        ARGFRAME ISTACK, 0, STACK
        ARGFRAME PSTACK, 0, STACK
        ARGFRAME XSTACK, 43, STACK
        ARGFRAME IOVERLAY, 0, STATIC
        ARGFRAME DOVERLAY, 0, STATIC
        FUNCALL HalLcdWriteStringValueValue, osal_memcpy
        LOCFRAME ISTACK, 0, STACK
        LOCFRAME PSTACK, 0, STACK
        LOCFRAME XSTACK, 46, STACK
        LOCFRAME IOVERLAY, 0, STATIC
        LOCFRAME DOVERLAY, 0, STATIC
        ARGFRAME ISTACK, 0, STACK
        ARGFRAME PSTACK, 0, STACK
        ARGFRAME XSTACK, 46, STACK
        ARGFRAME IOVERLAY, 0, STATIC
        ARGFRAME DOVERLAY, 0, STATIC
        FUNCALL HalLcdWriteStringValueValue, _ltoa
        LOCFRAME ISTACK, 0, STACK
        LOCFRAME PSTACK, 0, STACK
        LOCFRAME XSTACK, 45, STACK
        LOCFRAME IOVERLAY, 0, STATIC
        LOCFRAME DOVERLAY, 0, STATIC
        ARGFRAME ISTACK, 0, STACK
        ARGFRAME PSTACK, 0, STACK
        ARGFRAME XSTACK, 45, STACK
        ARGFRAME IOVERLAY, 0, STATIC
        ARGFRAME DOVERLAY, 0, STATIC
        FUNCALL HalLcdWriteStringValueValue, osal_strlen
        LOCFRAME ISTACK, 0, STACK
        LOCFRAME PSTACK, 0, STACK
        LOCFRAME XSTACK, 43, STACK
        LOCFRAME IOVERLAY, 0, STATIC
        LOCFRAME DOVERLAY, 0, STATIC
        ARGFRAME ISTACK, 0, STACK
        ARGFRAME PSTACK, 0, STACK
        ARGFRAME XSTACK, 43, STACK
        ARGFRAME IOVERLAY, 0, STATIC
        ARGFRAME DOVERLAY, 0, STATIC
        FUNCALL HalLcdWriteStringValueValue, _ltoa
        LOCFRAME ISTACK, 0, STACK
        LOCFRAME PSTACK, 0, STACK
        LOCFRAME XSTACK, 45, STACK
        LOCFRAME IOVERLAY, 0, STATIC
        LOCFRAME DOVERLAY, 0, STATIC
        ARGFRAME ISTACK, 0, STACK
        ARGFRAME PSTACK, 0, STACK
        ARGFRAME XSTACK, 45, STACK
        ARGFRAME IOVERLAY, 0, STATIC
        ARGFRAME DOVERLAY, 0, STATIC
        FUNCALL HalLcdWriteStringValueValue, HalLcdWriteString
        LOCFRAME ISTACK, 0, STACK
        LOCFRAME PSTACK, 0, STACK
        LOCFRAME XSTACK, 43, STACK
        LOCFRAME IOVERLAY, 0, STATIC
        LOCFRAME DOVERLAY, 0, STATIC
        ARGFRAME ISTACK, 0, STACK
        ARGFRAME PSTACK, 0, STACK
        ARGFRAME XSTACK, 43, STACK
        ARGFRAME IOVERLAY, 0, STATIC
        ARGFRAME DOVERLAY, 0, STATIC
        MOV     A,#-0x12
        LCALL   ?BANKED_ENTER_XDATA
        CFI DPH0 load(1, XDATA, add(CFA_XSP16, literal(-1)))
        CFI DPL0 load(1, XDATA, add(CFA_XSP16, literal(-2)))
        CFI ?BRET_EXT load(1, XDATA, add(CFA_XSP16, literal(-3)))
        CFI ?RET_HIGH load(1, XDATA, add(CFA_XSP16, literal(-4)))
        CFI ?RET_LOW load(1, XDATA, add(CFA_XSP16, literal(-5)))
        CFI R7 load(1, XDATA, add(CFA_XSP16, literal(-6)))
        CFI V9 load(1, XDATA, add(CFA_XSP16, literal(-7)))
        CFI V8 load(1, XDATA, add(CFA_XSP16, literal(-8)))
        CFI V7 load(1, XDATA, add(CFA_XSP16, literal(-9)))
        CFI V6 load(1, XDATA, add(CFA_XSP16, literal(-10)))
        CFI V5 load(1, XDATA, add(CFA_XSP16, literal(-11)))
        CFI V4 load(1, XDATA, add(CFA_XSP16, literal(-12)))
        CFI V3 load(1, XDATA, add(CFA_XSP16, literal(-13)))
        CFI V2 load(1, XDATA, add(CFA_XSP16, literal(-14)))
        CFI V1 load(1, XDATA, add(CFA_XSP16, literal(-15)))
        CFI V0 load(1, XDATA, add(CFA_XSP16, literal(-16)))
        CFI VB load(1, XDATA, add(CFA_XSP16, literal(-17)))
        CFI R6 load(1, XDATA, add(CFA_XSP16, literal(-18)))
        CFI CFA_SP SP+0
        CFI CFA_XSP16 add(XSP16, 18)
        ; Saved register size: 18
        ; Auto size: 25
        MOV     A,#-0x19
        LCALL   ?ALLOC_XSTACK8
        CFI CFA_XSP16 add(XSP16, 43)
        MOV     ?V0 + 4,R2
        MOV     ?V0 + 5,R3
        MOV     ?V0 + 0,R4
        MOV     ?V0 + 1,R5
        MOV     ?V0 + 7,R1
        MOV     A,#0x2b
        LCALL   ?XSTACK_DISP0_8
        MOVX    A,@DPTR
        MOV     R6,A
        INC     DPTR
        MOVX    A,@DPTR
        MOV     R7,A
        MOV     A,#0x2d
        LCALL   ?XSTACK_DISP0_8
        MOVX    A,@DPTR
        MOV     ?V0 + 3,A
        MOV     A,#0x2e
        LCALL   ?XSTACK_DISP0_8
        MOVX    A,@DPTR
        MOV     ?V0 + 2,A
//  560 
//  561 #if (HAL_LCD == TRUE)
//  562 
//  563   uint8 tmpLen;
//  564   uint8 buf[LCD_MAX_BUF];
//  565   uint32 err;
//  566 
//  567   tmpLen = (uint8)osal_strlen( (char*)title );
        ; Setup parameters for call to function osal_strlen
        LCALL   ?Subroutine7 & 0xFFFF
//  568   if ( tmpLen )
??CrossCallReturnLabel_3:
        JZ      ??HalLcdWriteStringValueValue_0
//  569   {
//  570     osal_memcpy( buf, title, tmpLen );
        ; Setup parameters for call to function osal_memcpy
        MOV     ?V0 + 6,#0x0
        MOV     R0,#?V0 + 4
        LCALL   ?PUSH_XSTACK_I_THREE
        CFI CFA_XSP16 add(XSP16, 46)
        MOV     A,R2
        MOV     ?V0 + 4,A
        MOV     R4,A
        MOV     R5,#0x0
        MOV     A,#0x3
        LCALL   ?XSTACK_DISP0_8
        LCALL   ?Subroutine4 & 0xFFFF
??CrossCallReturnLabel_17:
        LCALL   ?DEALLOC_XSTACK8
        CFI CFA_XSP16 add(XSP16, 43)
//  571     buf[tmpLen++] = ' ';
        MOV     DPL,?XSP + 0
        MOV     DPH,?XSP + 1
        MOV     A,DPL
        ADD     A,?V0 + 4
        LCALL   ?Subroutine3 & 0xFFFF
//  572   }
??CrossCallReturnLabel_14:
        INC     ?V0 + 8
//  573 
//  574   err = (uint32)(value1);
//  575   _ltoa( err, &buf[tmpLen], format1 );
??HalLcdWriteStringValueValue_0:
        ; Setup parameters for call to function _ltoa
        MOV     DPL,?XSP + 0
        MOV     DPH,?XSP + 1
        MOV     A,DPL
        ADD     A,?V0 + 8
        MOV     ?V0 + 4,A
        MOV     A,DPH
        ADDC    A,#0x0
        MOV     ?V0 + 5,A
        MOV     R0,#?V0 + 4
        LCALL   ?PUSH_XSTACK_I_TWO
        CFI CFA_XSP16 add(XSP16, 45)
        MOV     R1,?V0 + 7
        LCALL   ?Subroutine5 & 0xFFFF
??CrossCallReturnLabel_22:
        LCALL   ?DEALLOC_XSTACK8
        CFI CFA_XSP16 add(XSP16, 43)
//  576   tmpLen = (uint8)osal_strlen( (char*)buf );
        ; Setup parameters for call to function osal_strlen
        MOV     DPL,?XSP + 0
        MOV     DPH,?XSP + 1
        MOV     R2,DPL
        MOV     R3,DPH
        LCALL   ?Subroutine7 & 0xFFFF
//  577 
//  578   buf[tmpLen++] = ',';
??CrossCallReturnLabel_4:
        MOV     ?V0 + 0,A
        MOV     DPL,?XSP + 0
        MOV     DPH,?XSP + 1
        MOV     A,DPL
        ADD     A,?V0 + 0
        MOV     DPL,A
        MOV     A,DPH
        ADDC    A,#0x0
        MOV     DPH,A
        MOV     A,#0x2c
        MOVX    @DPTR,A
        INC     ?V0 + 8
//  579   buf[tmpLen++] = ' ';
        MOV     ?V0 + 0,?V0 + 8
        MOV     DPL,?XSP + 0
        MOV     DPH,?XSP + 1
        MOV     A,DPL
        ADD     A,?V0 + 0
        LCALL   ?Subroutine3 & 0xFFFF
//  580   err = (uint32)(value2);
//  581   _ltoa( err, &buf[tmpLen], format2 );
??CrossCallReturnLabel_15:
        ; Setup parameters for call to function _ltoa
        MOV     A,#0x1
        ADD     A,?V0 + 8
        MOV     R0,A
        MOV     DPL,?XSP + 0
        MOV     DPH,?XSP + 1
        MOV     A,DPL
        ADD     A,R0
        MOV     ?V0 + 0,A
        MOV     A,DPH
        ADDC    A,#0x0
        MOV     ?V0 + 1,A
        MOV     R0,#?V0 + 0
        LCALL   ?PUSH_XSTACK_I_TWO
        CFI CFA_XSP16 add(XSP16, 45)
        MOV     R1,?V0 + 3
        MOV     ?V0 + 0,R6
        MOV     ?V0 + 1,R7
        LCALL   ?Subroutine5 & 0xFFFF
??CrossCallReturnLabel_23:
        LCALL   ?DEALLOC_XSTACK8
        CFI CFA_XSP16 add(XSP16, 43)
//  582 
//  583   HalLcdWriteString( (char *)buf, line );		
        ; Setup parameters for call to function HalLcdWriteString
        MOV     R1,?V0 + 2
        LJMP    ?Subroutine12 & 0xFFFF
        CFI EndBlock cfiBlock32
//  584 
//  585 #endif
//  586 }

        RSEG BANKED_CODE:CODE:NOROOT(0)
?Subroutine7:
        CFI Block cfiCond33 Using cfiCommon0
        CFI NoFunction
        CFI Conditional ??CrossCallReturnLabel_2
        CFI R6 load(1, XDATA, add(CFA_XSP16, literal(-18)))
        CFI VB load(1, XDATA, add(CFA_XSP16, literal(-17)))
        CFI V0 load(1, XDATA, add(CFA_XSP16, literal(-16)))
        CFI V1 load(1, XDATA, add(CFA_XSP16, literal(-15)))
        CFI V2 load(1, XDATA, add(CFA_XSP16, literal(-14)))
        CFI V3 load(1, XDATA, add(CFA_XSP16, literal(-13)))
        CFI V4 load(1, XDATA, add(CFA_XSP16, literal(-12)))
        CFI V5 load(1, XDATA, add(CFA_XSP16, literal(-11)))
        CFI V6 load(1, XDATA, add(CFA_XSP16, literal(-10)))
        CFI V7 load(1, XDATA, add(CFA_XSP16, literal(-9)))
        CFI V8 load(1, XDATA, add(CFA_XSP16, literal(-8)))
        CFI V9 load(1, XDATA, add(CFA_XSP16, literal(-7)))
        CFI R7 load(1, XDATA, add(CFA_XSP16, literal(-6)))
        CFI ?RET_LOW load(1, XDATA, add(CFA_XSP16, literal(-5)))
        CFI ?RET_HIGH load(1, XDATA, add(CFA_XSP16, literal(-4)))
        CFI ?BRET_EXT load(1, XDATA, add(CFA_XSP16, literal(-3)))
        CFI DPL0 load(1, XDATA, add(CFA_XSP16, literal(-2)))
        CFI DPH0 load(1, XDATA, add(CFA_XSP16, literal(-1)))
        CFI CFA_SP SP+0
        CFI CFA_XSP16 add(XSP16, 43)
        CFI Block cfiCond34 Using cfiCommon0
        CFI (cfiCond34) NoFunction
        CFI (cfiCond34) Conditional ??CrossCallReturnLabel_3
        CFI (cfiCond34) R6 load(1, XDATA, add(CFA_XSP16, literal(-18)))
        CFI (cfiCond34) VB load(1, XDATA, add(CFA_XSP16, literal(-17)))
        CFI (cfiCond34) V0 load(1, XDATA, add(CFA_XSP16, literal(-16)))
        CFI (cfiCond34) V1 load(1, XDATA, add(CFA_XSP16, literal(-15)))
        CFI (cfiCond34) V2 load(1, XDATA, add(CFA_XSP16, literal(-14)))
        CFI (cfiCond34) V3 load(1, XDATA, add(CFA_XSP16, literal(-13)))
        CFI (cfiCond34) V4 load(1, XDATA, add(CFA_XSP16, literal(-12)))
        CFI (cfiCond34) V5 load(1, XDATA, add(CFA_XSP16, literal(-11)))
        CFI (cfiCond34) V6 load(1, XDATA, add(CFA_XSP16, literal(-10)))
        CFI (cfiCond34) V7 load(1, XDATA, add(CFA_XSP16, literal(-9)))
        CFI (cfiCond34) V8 load(1, XDATA, add(CFA_XSP16, literal(-8)))
        CFI (cfiCond34) V9 load(1, XDATA, add(CFA_XSP16, literal(-7)))
        CFI (cfiCond34) R7 load(1, XDATA, add(CFA_XSP16, literal(-6)))
        CFI (cfiCond34) ?RET_LOW load(1, XDATA, add(CFA_XSP16, literal(-5)))
        CFI (cfiCond34) ?RET_HIGH load(1, XDATA, add(CFA_XSP16, literal(-4)))
        CFI (cfiCond34) ?BRET_EXT load(1, XDATA, add(CFA_XSP16, literal(-3)))
        CFI (cfiCond34) DPL0 load(1, XDATA, add(CFA_XSP16, literal(-2)))
        CFI (cfiCond34) DPH0 load(1, XDATA, add(CFA_XSP16, literal(-1)))
        CFI (cfiCond34) CFA_SP SP+0
        CFI (cfiCond34) CFA_XSP16 add(XSP16, 43)
        CFI Block cfiCond35 Using cfiCommon0
        CFI (cfiCond35) NoFunction
        CFI (cfiCond35) Conditional ??CrossCallReturnLabel_4
        CFI (cfiCond35) R6 load(1, XDATA, add(CFA_XSP16, literal(-18)))
        CFI (cfiCond35) VB load(1, XDATA, add(CFA_XSP16, literal(-17)))
        CFI (cfiCond35) V0 load(1, XDATA, add(CFA_XSP16, literal(-16)))
        CFI (cfiCond35) V1 load(1, XDATA, add(CFA_XSP16, literal(-15)))
        CFI (cfiCond35) V2 load(1, XDATA, add(CFA_XSP16, literal(-14)))
        CFI (cfiCond35) V3 load(1, XDATA, add(CFA_XSP16, literal(-13)))
        CFI (cfiCond35) V4 load(1, XDATA, add(CFA_XSP16, literal(-12)))
        CFI (cfiCond35) V5 load(1, XDATA, add(CFA_XSP16, literal(-11)))
        CFI (cfiCond35) V6 load(1, XDATA, add(CFA_XSP16, literal(-10)))
        CFI (cfiCond35) V7 load(1, XDATA, add(CFA_XSP16, literal(-9)))
        CFI (cfiCond35) V8 load(1, XDATA, add(CFA_XSP16, literal(-8)))
        CFI (cfiCond35) V9 load(1, XDATA, add(CFA_XSP16, literal(-7)))
        CFI (cfiCond35) R7 load(1, XDATA, add(CFA_XSP16, literal(-6)))
        CFI (cfiCond35) ?RET_LOW load(1, XDATA, add(CFA_XSP16, literal(-5)))
        CFI (cfiCond35) ?RET_HIGH load(1, XDATA, add(CFA_XSP16, literal(-4)))
        CFI (cfiCond35) ?BRET_EXT load(1, XDATA, add(CFA_XSP16, literal(-3)))
        CFI (cfiCond35) DPL0 load(1, XDATA, add(CFA_XSP16, literal(-2)))
        CFI (cfiCond35) DPH0 load(1, XDATA, add(CFA_XSP16, literal(-1)))
        CFI (cfiCond35) CFA_SP SP+0
        CFI (cfiCond35) CFA_XSP16 add(XSP16, 43)
        CFI Block cfiPicker36 Using cfiCommon1
        CFI (cfiPicker36) NoFunction
        CFI (cfiPicker36) Picker
        LCALL   ??osal_strlen?relay
        MOV     A,R2
        MOV     ?V0 + 8,A
        RET
        CFI EndBlock cfiCond33
        CFI EndBlock cfiCond34
        CFI EndBlock cfiCond35
        CFI EndBlock cfiPicker36

        RSEG BANKED_CODE:CODE:NOROOT(0)
?Subroutine4:
        CFI Block cfiCond37 Using cfiCommon0
        CFI NoFunction
        CFI Conditional ??CrossCallReturnLabel_16
        CFI R6 load(1, XDATA, add(CFA_XSP16, literal(-18)))
        CFI VB load(1, XDATA, add(CFA_XSP16, literal(-17)))
        CFI V0 load(1, XDATA, add(CFA_XSP16, literal(-16)))
        CFI V1 load(1, XDATA, add(CFA_XSP16, literal(-15)))
        CFI V2 load(1, XDATA, add(CFA_XSP16, literal(-14)))
        CFI V3 load(1, XDATA, add(CFA_XSP16, literal(-13)))
        CFI V4 load(1, XDATA, add(CFA_XSP16, literal(-12)))
        CFI V5 load(1, XDATA, add(CFA_XSP16, literal(-11)))
        CFI V6 load(1, XDATA, add(CFA_XSP16, literal(-10)))
        CFI V7 load(1, XDATA, add(CFA_XSP16, literal(-9)))
        CFI V8 load(1, XDATA, add(CFA_XSP16, literal(-8)))
        CFI V9 load(1, XDATA, add(CFA_XSP16, literal(-7)))
        CFI R7 load(1, XDATA, add(CFA_XSP16, literal(-6)))
        CFI ?RET_LOW load(1, XDATA, add(CFA_XSP16, literal(-5)))
        CFI ?RET_HIGH load(1, XDATA, add(CFA_XSP16, literal(-4)))
        CFI ?BRET_EXT load(1, XDATA, add(CFA_XSP16, literal(-3)))
        CFI DPL0 load(1, XDATA, add(CFA_XSP16, literal(-2)))
        CFI DPH0 load(1, XDATA, add(CFA_XSP16, literal(-1)))
        CFI CFA_SP SP+0
        CFI CFA_XSP16 add(XSP16, 46)
        CFI Block cfiCond38 Using cfiCommon0
        CFI (cfiCond38) NoFunction
        CFI (cfiCond38) Conditional ??CrossCallReturnLabel_17
        CFI (cfiCond38) R6 load(1, XDATA, add(CFA_XSP16, literal(-18)))
        CFI (cfiCond38) VB load(1, XDATA, add(CFA_XSP16, literal(-17)))
        CFI (cfiCond38) V0 load(1, XDATA, add(CFA_XSP16, literal(-16)))
        CFI (cfiCond38) V1 load(1, XDATA, add(CFA_XSP16, literal(-15)))
        CFI (cfiCond38) V2 load(1, XDATA, add(CFA_XSP16, literal(-14)))
        CFI (cfiCond38) V3 load(1, XDATA, add(CFA_XSP16, literal(-13)))
        CFI (cfiCond38) V4 load(1, XDATA, add(CFA_XSP16, literal(-12)))
        CFI (cfiCond38) V5 load(1, XDATA, add(CFA_XSP16, literal(-11)))
        CFI (cfiCond38) V6 load(1, XDATA, add(CFA_XSP16, literal(-10)))
        CFI (cfiCond38) V7 load(1, XDATA, add(CFA_XSP16, literal(-9)))
        CFI (cfiCond38) V8 load(1, XDATA, add(CFA_XSP16, literal(-8)))
        CFI (cfiCond38) V9 load(1, XDATA, add(CFA_XSP16, literal(-7)))
        CFI (cfiCond38) R7 load(1, XDATA, add(CFA_XSP16, literal(-6)))
        CFI (cfiCond38) ?RET_LOW load(1, XDATA, add(CFA_XSP16, literal(-5)))
        CFI (cfiCond38) ?RET_HIGH load(1, XDATA, add(CFA_XSP16, literal(-4)))
        CFI (cfiCond38) ?BRET_EXT load(1, XDATA, add(CFA_XSP16, literal(-3)))
        CFI (cfiCond38) DPL0 load(1, XDATA, add(CFA_XSP16, literal(-2)))
        CFI (cfiCond38) DPH0 load(1, XDATA, add(CFA_XSP16, literal(-1)))
        CFI (cfiCond38) CFA_SP SP+0
        CFI (cfiCond38) CFA_XSP16 add(XSP16, 46)
        CFI Block cfiCond39 Using cfiCommon0
        CFI (cfiCond39) NoFunction
        CFI (cfiCond39) Conditional ??CrossCallReturnLabel_18
        CFI (cfiCond39) R6 load(1, XDATA, add(CFA_XSP16, literal(-15)))
        CFI (cfiCond39) VB load(1, XDATA, add(CFA_XSP16, literal(-14)))
        CFI (cfiCond39) V0 load(1, XDATA, add(CFA_XSP16, literal(-13)))
        CFI (cfiCond39) V1 load(1, XDATA, add(CFA_XSP16, literal(-12)))
        CFI (cfiCond39) V2 load(1, XDATA, add(CFA_XSP16, literal(-11)))
        CFI (cfiCond39) V3 load(1, XDATA, add(CFA_XSP16, literal(-10)))
        CFI (cfiCond39) V4 load(1, XDATA, add(CFA_XSP16, literal(-9)))
        CFI (cfiCond39) V5 load(1, XDATA, add(CFA_XSP16, literal(-8)))
        CFI (cfiCond39) V6 load(1, XDATA, add(CFA_XSP16, literal(-7)))
        CFI (cfiCond39) R7 load(1, XDATA, add(CFA_XSP16, literal(-6)))
        CFI (cfiCond39) ?RET_LOW load(1, XDATA, add(CFA_XSP16, literal(-5)))
        CFI (cfiCond39) ?RET_HIGH load(1, XDATA, add(CFA_XSP16, literal(-4)))
        CFI (cfiCond39) ?BRET_EXT load(1, XDATA, add(CFA_XSP16, literal(-3)))
        CFI (cfiCond39) DPL0 load(1, XDATA, add(CFA_XSP16, literal(-2)))
        CFI (cfiCond39) DPH0 load(1, XDATA, add(CFA_XSP16, literal(-1)))
        CFI (cfiCond39) CFA_SP SP+0
        CFI (cfiCond39) CFA_XSP16 add(XSP16, 35)
        CFI Block cfiPicker40 Using cfiCommon1
        CFI (cfiPicker40) NoFunction
        CFI (cfiPicker40) Picker
        MOV     R2,DPL
        MOV     R3,DPH
        CFI EndBlock cfiCond37
        CFI EndBlock cfiCond38
        CFI EndBlock cfiCond39
        CFI EndBlock cfiPicker40
        REQUIRE ??Subroutine15_0
        ; // Fall through to label ??Subroutine15_0

        RSEG BANKED_CODE:CODE:NOROOT(0)
??Subroutine15_0:
        CFI Block cfiCond41 Using cfiCommon0
        CFI NoFunction
        CFI Conditional ??CrossCallReturnLabel_19
        CFI R6 load(1, XDATA, add(CFA_XSP16, literal(-24)))
        CFI VB load(1, XDATA, add(CFA_XSP16, literal(-23)))
        CFI V0 load(1, XDATA, add(CFA_XSP16, literal(-22)))
        CFI V1 load(1, XDATA, add(CFA_XSP16, literal(-21)))
        CFI V2 load(1, XDATA, add(CFA_XSP16, literal(-20)))
        CFI V3 load(1, XDATA, add(CFA_XSP16, literal(-19)))
        CFI V4 load(1, XDATA, add(CFA_XSP16, literal(-18)))
        CFI V5 load(1, XDATA, add(CFA_XSP16, literal(-17)))
        CFI V6 load(1, XDATA, add(CFA_XSP16, literal(-16)))
        CFI V7 load(1, XDATA, add(CFA_XSP16, literal(-15)))
        CFI V8 load(1, XDATA, add(CFA_XSP16, literal(-14)))
        CFI V9 load(1, XDATA, add(CFA_XSP16, literal(-13)))
        CFI V10 load(1, XDATA, add(CFA_XSP16, literal(-12)))
        CFI V11 load(1, XDATA, add(CFA_XSP16, literal(-11)))
        CFI V12 load(1, XDATA, add(CFA_XSP16, literal(-10)))
        CFI V13 load(1, XDATA, add(CFA_XSP16, literal(-9)))
        CFI V14 load(1, XDATA, add(CFA_XSP16, literal(-8)))
        CFI V15 load(1, XDATA, add(CFA_XSP16, literal(-7)))
        CFI R7 load(1, XDATA, add(CFA_XSP16, literal(-6)))
        CFI ?RET_LOW load(1, XDATA, add(CFA_XSP16, literal(-5)))
        CFI ?RET_HIGH load(1, XDATA, add(CFA_XSP16, literal(-4)))
        CFI ?BRET_EXT load(1, XDATA, add(CFA_XSP16, literal(-3)))
        CFI DPL0 load(1, XDATA, add(CFA_XSP16, literal(-2)))
        CFI DPH0 load(1, XDATA, add(CFA_XSP16, literal(-1)))
        CFI CFA_SP SP+0
        CFI CFA_XSP16 add(XSP16, 27)
        CFI Block cfiCond42 Using cfiCommon0
        CFI (cfiCond42) NoFunction
        CFI (cfiCond42) Conditional ??CrossCallReturnLabel_20
        CFI (cfiCond42) R6 load(1, XDATA, add(CFA_XSP16, literal(-24)))
        CFI (cfiCond42) VB load(1, XDATA, add(CFA_XSP16, literal(-23)))
        CFI (cfiCond42) V0 load(1, XDATA, add(CFA_XSP16, literal(-22)))
        CFI (cfiCond42) V1 load(1, XDATA, add(CFA_XSP16, literal(-21)))
        CFI (cfiCond42) V2 load(1, XDATA, add(CFA_XSP16, literal(-20)))
        CFI (cfiCond42) V3 load(1, XDATA, add(CFA_XSP16, literal(-19)))
        CFI (cfiCond42) V4 load(1, XDATA, add(CFA_XSP16, literal(-18)))
        CFI (cfiCond42) V5 load(1, XDATA, add(CFA_XSP16, literal(-17)))
        CFI (cfiCond42) V6 load(1, XDATA, add(CFA_XSP16, literal(-16)))
        CFI (cfiCond42) V7 load(1, XDATA, add(CFA_XSP16, literal(-15)))
        CFI (cfiCond42) V8 load(1, XDATA, add(CFA_XSP16, literal(-14)))
        CFI (cfiCond42) V9 load(1, XDATA, add(CFA_XSP16, literal(-13)))
        CFI (cfiCond42) V10 load(1, XDATA, add(CFA_XSP16, literal(-12)))
        CFI (cfiCond42) V11 load(1, XDATA, add(CFA_XSP16, literal(-11)))
        CFI (cfiCond42) V12 load(1, XDATA, add(CFA_XSP16, literal(-10)))
        CFI (cfiCond42) V13 load(1, XDATA, add(CFA_XSP16, literal(-9)))
        CFI (cfiCond42) V14 load(1, XDATA, add(CFA_XSP16, literal(-8)))
        CFI (cfiCond42) V15 load(1, XDATA, add(CFA_XSP16, literal(-7)))
        CFI (cfiCond42) R7 load(1, XDATA, add(CFA_XSP16, literal(-6)))
        CFI (cfiCond42) ?RET_LOW load(1, XDATA, add(CFA_XSP16, literal(-5)))
        CFI (cfiCond42) ?RET_HIGH load(1, XDATA, add(CFA_XSP16, literal(-4)))
        CFI (cfiCond42) ?BRET_EXT load(1, XDATA, add(CFA_XSP16, literal(-3)))
        CFI (cfiCond42) DPL0 load(1, XDATA, add(CFA_XSP16, literal(-2)))
        CFI (cfiCond42) DPH0 load(1, XDATA, add(CFA_XSP16, literal(-1)))
        CFI (cfiCond42) CFA_SP SP+0
        CFI (cfiCond42) CFA_XSP16 add(XSP16, 27)
        CFI Block cfiCond43 Using cfiCommon0
        CFI (cfiCond43) NoFunction
        CFI (cfiCond43) Conditional ??CrossCallReturnLabel_21
        CFI (cfiCond43) R6 load(1, XDATA, add(CFA_XSP16, literal(-24)))
        CFI (cfiCond43) VB load(1, XDATA, add(CFA_XSP16, literal(-23)))
        CFI (cfiCond43) V0 load(1, XDATA, add(CFA_XSP16, literal(-22)))
        CFI (cfiCond43) V1 load(1, XDATA, add(CFA_XSP16, literal(-21)))
        CFI (cfiCond43) V2 load(1, XDATA, add(CFA_XSP16, literal(-20)))
        CFI (cfiCond43) V3 load(1, XDATA, add(CFA_XSP16, literal(-19)))
        CFI (cfiCond43) V4 load(1, XDATA, add(CFA_XSP16, literal(-18)))
        CFI (cfiCond43) V5 load(1, XDATA, add(CFA_XSP16, literal(-17)))
        CFI (cfiCond43) V6 load(1, XDATA, add(CFA_XSP16, literal(-16)))
        CFI (cfiCond43) V7 load(1, XDATA, add(CFA_XSP16, literal(-15)))
        CFI (cfiCond43) V8 load(1, XDATA, add(CFA_XSP16, literal(-14)))
        CFI (cfiCond43) V9 load(1, XDATA, add(CFA_XSP16, literal(-13)))
        CFI (cfiCond43) V10 load(1, XDATA, add(CFA_XSP16, literal(-12)))
        CFI (cfiCond43) V11 load(1, XDATA, add(CFA_XSP16, literal(-11)))
        CFI (cfiCond43) V12 load(1, XDATA, add(CFA_XSP16, literal(-10)))
        CFI (cfiCond43) V13 load(1, XDATA, add(CFA_XSP16, literal(-9)))
        CFI (cfiCond43) V14 load(1, XDATA, add(CFA_XSP16, literal(-8)))
        CFI (cfiCond43) V15 load(1, XDATA, add(CFA_XSP16, literal(-7)))
        CFI (cfiCond43) R7 load(1, XDATA, add(CFA_XSP16, literal(-6)))
        CFI (cfiCond43) ?RET_LOW load(1, XDATA, add(CFA_XSP16, literal(-5)))
        CFI (cfiCond43) ?RET_HIGH load(1, XDATA, add(CFA_XSP16, literal(-4)))
        CFI (cfiCond43) ?BRET_EXT load(1, XDATA, add(CFA_XSP16, literal(-3)))
        CFI (cfiCond43) DPL0 load(1, XDATA, add(CFA_XSP16, literal(-2)))
        CFI (cfiCond43) DPH0 load(1, XDATA, add(CFA_XSP16, literal(-1)))
        CFI (cfiCond43) CFA_SP SP+0
        CFI (cfiCond43) CFA_XSP16 add(XSP16, 27)
        CFI Block cfiCond44 Using cfiCommon0
        CFI (cfiCond44) NoFunction
        CFI (cfiCond44) Conditional ??CrossCallReturnLabel_16
        CFI (cfiCond44) R6 load(1, XDATA, add(CFA_XSP16, literal(-18)))
        CFI (cfiCond44) VB load(1, XDATA, add(CFA_XSP16, literal(-17)))
        CFI (cfiCond44) V0 load(1, XDATA, add(CFA_XSP16, literal(-16)))
        CFI (cfiCond44) V1 load(1, XDATA, add(CFA_XSP16, literal(-15)))
        CFI (cfiCond44) V2 load(1, XDATA, add(CFA_XSP16, literal(-14)))
        CFI (cfiCond44) V3 load(1, XDATA, add(CFA_XSP16, literal(-13)))
        CFI (cfiCond44) V4 load(1, XDATA, add(CFA_XSP16, literal(-12)))
        CFI (cfiCond44) V5 load(1, XDATA, add(CFA_XSP16, literal(-11)))
        CFI (cfiCond44) V6 load(1, XDATA, add(CFA_XSP16, literal(-10)))
        CFI (cfiCond44) V7 load(1, XDATA, add(CFA_XSP16, literal(-9)))
        CFI (cfiCond44) V8 load(1, XDATA, add(CFA_XSP16, literal(-8)))
        CFI (cfiCond44) V9 load(1, XDATA, add(CFA_XSP16, literal(-7)))
        CFI (cfiCond44) R7 load(1, XDATA, add(CFA_XSP16, literal(-6)))
        CFI (cfiCond44) ?RET_LOW load(1, XDATA, add(CFA_XSP16, literal(-5)))
        CFI (cfiCond44) ?RET_HIGH load(1, XDATA, add(CFA_XSP16, literal(-4)))
        CFI (cfiCond44) ?BRET_EXT load(1, XDATA, add(CFA_XSP16, literal(-3)))
        CFI (cfiCond44) DPL0 load(1, XDATA, add(CFA_XSP16, literal(-2)))
        CFI (cfiCond44) DPH0 load(1, XDATA, add(CFA_XSP16, literal(-1)))
        CFI (cfiCond44) CFA_SP SP+0
        CFI (cfiCond44) CFA_XSP16 add(XSP16, 46)
        CFI Block cfiCond45 Using cfiCommon0
        CFI (cfiCond45) NoFunction
        CFI (cfiCond45) Conditional ??CrossCallReturnLabel_17
        CFI (cfiCond45) R6 load(1, XDATA, add(CFA_XSP16, literal(-18)))
        CFI (cfiCond45) VB load(1, XDATA, add(CFA_XSP16, literal(-17)))
        CFI (cfiCond45) V0 load(1, XDATA, add(CFA_XSP16, literal(-16)))
        CFI (cfiCond45) V1 load(1, XDATA, add(CFA_XSP16, literal(-15)))
        CFI (cfiCond45) V2 load(1, XDATA, add(CFA_XSP16, literal(-14)))
        CFI (cfiCond45) V3 load(1, XDATA, add(CFA_XSP16, literal(-13)))
        CFI (cfiCond45) V4 load(1, XDATA, add(CFA_XSP16, literal(-12)))
        CFI (cfiCond45) V5 load(1, XDATA, add(CFA_XSP16, literal(-11)))
        CFI (cfiCond45) V6 load(1, XDATA, add(CFA_XSP16, literal(-10)))
        CFI (cfiCond45) V7 load(1, XDATA, add(CFA_XSP16, literal(-9)))
        CFI (cfiCond45) V8 load(1, XDATA, add(CFA_XSP16, literal(-8)))
        CFI (cfiCond45) V9 load(1, XDATA, add(CFA_XSP16, literal(-7)))
        CFI (cfiCond45) R7 load(1, XDATA, add(CFA_XSP16, literal(-6)))
        CFI (cfiCond45) ?RET_LOW load(1, XDATA, add(CFA_XSP16, literal(-5)))
        CFI (cfiCond45) ?RET_HIGH load(1, XDATA, add(CFA_XSP16, literal(-4)))
        CFI (cfiCond45) ?BRET_EXT load(1, XDATA, add(CFA_XSP16, literal(-3)))
        CFI (cfiCond45) DPL0 load(1, XDATA, add(CFA_XSP16, literal(-2)))
        CFI (cfiCond45) DPH0 load(1, XDATA, add(CFA_XSP16, literal(-1)))
        CFI (cfiCond45) CFA_SP SP+0
        CFI (cfiCond45) CFA_XSP16 add(XSP16, 46)
        CFI Block cfiCond46 Using cfiCommon0
        CFI (cfiCond46) NoFunction
        CFI (cfiCond46) Conditional ??CrossCallReturnLabel_18
        CFI (cfiCond46) R6 load(1, XDATA, add(CFA_XSP16, literal(-15)))
        CFI (cfiCond46) VB load(1, XDATA, add(CFA_XSP16, literal(-14)))
        CFI (cfiCond46) V0 load(1, XDATA, add(CFA_XSP16, literal(-13)))
        CFI (cfiCond46) V1 load(1, XDATA, add(CFA_XSP16, literal(-12)))
        CFI (cfiCond46) V2 load(1, XDATA, add(CFA_XSP16, literal(-11)))
        CFI (cfiCond46) V3 load(1, XDATA, add(CFA_XSP16, literal(-10)))
        CFI (cfiCond46) V4 load(1, XDATA, add(CFA_XSP16, literal(-9)))
        CFI (cfiCond46) V5 load(1, XDATA, add(CFA_XSP16, literal(-8)))
        CFI (cfiCond46) V6 load(1, XDATA, add(CFA_XSP16, literal(-7)))
        CFI (cfiCond46) R7 load(1, XDATA, add(CFA_XSP16, literal(-6)))
        CFI (cfiCond46) ?RET_LOW load(1, XDATA, add(CFA_XSP16, literal(-5)))
        CFI (cfiCond46) ?RET_HIGH load(1, XDATA, add(CFA_XSP16, literal(-4)))
        CFI (cfiCond46) ?BRET_EXT load(1, XDATA, add(CFA_XSP16, literal(-3)))
        CFI (cfiCond46) DPL0 load(1, XDATA, add(CFA_XSP16, literal(-2)))
        CFI (cfiCond46) DPH0 load(1, XDATA, add(CFA_XSP16, literal(-1)))
        CFI (cfiCond46) CFA_SP SP+0
        CFI (cfiCond46) CFA_XSP16 add(XSP16, 35)
        CFI Block cfiPicker47 Using cfiCommon1
        CFI (cfiPicker47) NoFunction
        CFI (cfiPicker47) Picker
        LCALL   ??osal_memcpy?relay
        MOV     A,#0x3
        RET
        CFI EndBlock cfiCond41
        CFI EndBlock cfiCond42
        CFI EndBlock cfiCond43
        CFI EndBlock cfiCond44
        CFI EndBlock cfiCond45
        CFI EndBlock cfiCond46
        CFI EndBlock cfiPicker47
//  587 
//  588 /**************************************************************************************************
//  589  * @fn      HalLcdDisplayPercentBar
//  590  *
//  591  * @brief   Display percentage bar on the LCD
//  592  *
//  593  * @param   title   -
//  594  *          value   -
//  595  *
//  596  * @return  None
//  597  **************************************************************************************************/

        RSEG BANKED_CODE:CODE:NOROOT(0)
//  598 void HalLcdDisplayPercentBar( char *title, uint8 value )
HalLcdDisplayPercentBar:
        CFI Block cfiBlock48 Using cfiCommon0
        CFI Function HalLcdDisplayPercentBar
//  599 {
        FUNCALL HalLcdDisplayPercentBar, HalLcdWriteString
        LOCFRAME ISTACK, 0, STACK
        LOCFRAME PSTACK, 0, STACK
        LOCFRAME XSTACK, 32, STACK
        LOCFRAME IOVERLAY, 0, STATIC
        LOCFRAME DOVERLAY, 0, STATIC
        ARGFRAME ISTACK, 0, STACK
        ARGFRAME PSTACK, 0, STACK
        ARGFRAME XSTACK, 32, STACK
        ARGFRAME IOVERLAY, 0, STATIC
        ARGFRAME DOVERLAY, 0, STATIC
        FUNCALL HalLcdDisplayPercentBar, osal_memcpy
        LOCFRAME ISTACK, 0, STACK
        LOCFRAME PSTACK, 0, STACK
        LOCFRAME XSTACK, 35, STACK
        LOCFRAME IOVERLAY, 0, STATIC
        LOCFRAME DOVERLAY, 0, STATIC
        ARGFRAME ISTACK, 0, STACK
        ARGFRAME PSTACK, 0, STACK
        ARGFRAME XSTACK, 35, STACK
        ARGFRAME IOVERLAY, 0, STATIC
        ARGFRAME DOVERLAY, 0, STATIC
        FUNCALL HalLcdDisplayPercentBar, _ltoa
        LOCFRAME ISTACK, 0, STACK
        LOCFRAME PSTACK, 0, STACK
        LOCFRAME XSTACK, 34, STACK
        LOCFRAME IOVERLAY, 0, STATIC
        LOCFRAME DOVERLAY, 0, STATIC
        ARGFRAME ISTACK, 0, STACK
        ARGFRAME PSTACK, 0, STACK
        ARGFRAME XSTACK, 34, STACK
        ARGFRAME IOVERLAY, 0, STATIC
        ARGFRAME DOVERLAY, 0, STATIC
        FUNCALL HalLcdDisplayPercentBar, HalLcdWriteString
        LOCFRAME ISTACK, 0, STACK
        LOCFRAME PSTACK, 0, STACK
        LOCFRAME XSTACK, 32, STACK
        LOCFRAME IOVERLAY, 0, STATIC
        LOCFRAME DOVERLAY, 0, STATIC
        ARGFRAME ISTACK, 0, STACK
        ARGFRAME PSTACK, 0, STACK
        ARGFRAME XSTACK, 32, STACK
        ARGFRAME IOVERLAY, 0, STATIC
        ARGFRAME DOVERLAY, 0, STATIC
        MOV     A,#-0xf
        LCALL   ?BANKED_ENTER_XDATA
        CFI DPH0 load(1, XDATA, add(CFA_XSP16, literal(-1)))
        CFI DPL0 load(1, XDATA, add(CFA_XSP16, literal(-2)))
        CFI ?BRET_EXT load(1, XDATA, add(CFA_XSP16, literal(-3)))
        CFI ?RET_HIGH load(1, XDATA, add(CFA_XSP16, literal(-4)))
        CFI ?RET_LOW load(1, XDATA, add(CFA_XSP16, literal(-5)))
        CFI R7 load(1, XDATA, add(CFA_XSP16, literal(-6)))
        CFI V6 load(1, XDATA, add(CFA_XSP16, literal(-7)))
        CFI V5 load(1, XDATA, add(CFA_XSP16, literal(-8)))
        CFI V4 load(1, XDATA, add(CFA_XSP16, literal(-9)))
        CFI V3 load(1, XDATA, add(CFA_XSP16, literal(-10)))
        CFI V2 load(1, XDATA, add(CFA_XSP16, literal(-11)))
        CFI V1 load(1, XDATA, add(CFA_XSP16, literal(-12)))
        CFI V0 load(1, XDATA, add(CFA_XSP16, literal(-13)))
        CFI VB load(1, XDATA, add(CFA_XSP16, literal(-14)))
        CFI R6 load(1, XDATA, add(CFA_XSP16, literal(-15)))
        CFI CFA_SP SP+0
        CFI CFA_XSP16 add(XSP16, 15)
        ; Saved register size: 15
        ; Auto size: 17
        MOV     A,#-0x11
        LCALL   ?ALLOC_XSTACK8
        CFI CFA_XSP16 add(XSP16, 32)
        MOV     A,R1
        MOV     R6,A
//  600 #if (HAL_LCD == TRUE)
//  601 
//  602   uint8 percent;
//  603   uint8 leftOver;
//  604   uint8 buf[17];
//  605   uint32 err;
//  606   uint8 x;
//  607 
//  608   /* Write the title: */
//  609   HalLcdWriteString( title, HAL_LCD_LINE_1 );
        ; Setup parameters for call to function HalLcdWriteString
        MOV     R1,#0x1
        LCALL   ??HalLcdWriteString?relay
//  610 
//  611   if ( value > 100 )
        MOV     A,R6
        CLR     C
        SUBB    A,#0x65
        JC      ??HalLcdDisplayPercentBar_0
//  612     value = 100;
        MOV     R6,#0x64
//  613 
//  614   /* convert to blocks */
//  615   percent = (uint8)(value / 10);
??HalLcdDisplayPercentBar_0:
        MOV     B,#0xa
        MOV     A,R6
        DIV     AB
        MOV     R7,A
//  616   leftOver = (uint8)(value % 10);
        MOV     A,R6
        MOV     B,#0xa
        DIV     AB
        MOV     A,B
        MOV     ?V0 + 0,A
//  617 
//  618   /* Make window */
//  619   osal_memcpy( buf, "[          ]  ", 15 );
        ; Setup parameters for call to function osal_memcpy
        MOV     ?V0 + 4,#(`?<Constant "[          ]  ">` & 0xff)
        MOV     ?V0 + 5,#((`?<Constant "[          ]  ">` >> 8) & 0xff)
        MOV     ?V0 + 6,#0x0
        MOV     R0,#?V0 + 4
        LCALL   ?PUSH_XSTACK_I_THREE
        CFI CFA_XSP16 add(XSP16, 35)
        MOV     R4,#0xf
        MOV     R5,#0x0
        MOV     A,#0x3
        LCALL   ?XSTACK_DISP0_8
        LCALL   ?Subroutine4 & 0xFFFF
??CrossCallReturnLabel_18:
        LCALL   ?DEALLOC_XSTACK8
        CFI CFA_XSP16 add(XSP16, 32)
//  620 
//  621   for ( x = 0; x < percent; x ++ )
        MOV     R2,#0x0
        SJMP    ??HalLcdDisplayPercentBar_1
//  622   {
//  623     buf[1+x] = '>';
??HalLcdDisplayPercentBar_2:
        MOV     A,#0x3e
        MOVX    @DPTR,A
//  624   }
        INC     R2
??HalLcdDisplayPercentBar_1:
        MOV     ?V0 + 2,R2
        MOV     DPL,?XSP + 0
        MOV     DPH,?XSP + 1
        MOV     A,DPL
        ADD     A,?V0 + 2
        MOV     DPL,A
        MOV     A,DPH
        ADDC    A,#0x0
        MOV     DPH,A
        INC     DPTR
        MOV     A,R2
        CLR     C
        SUBB    A,R7
        JC      ??HalLcdDisplayPercentBar_2
//  625 
//  626   if ( leftOver >= 5 )
        MOV     A,?V0 + 0
        CLR     C
        SUBB    A,#0x5
        JC      ??HalLcdDisplayPercentBar_3
//  627     buf[1+x] = '+';
        MOV     A,#0x2b
        MOVX    @DPTR,A
//  628 
//  629   err = (uint32)value;
//  630   _ltoa( err, (uint8*)&buf[13], 10 );
??HalLcdDisplayPercentBar_3:
        ; Setup parameters for call to function _ltoa
        MOV     A,#0xd
        LCALL   ?XSTACK_DISP0_8
        MOV     ?V0 + 0,DPL
        MOV     ?V0 + 1,DPH
        MOV     R0,#?V0 + 0
        LCALL   ?PUSH_XSTACK_I_TWO
        CFI CFA_XSP16 add(XSP16, 34)
        MOV     R1,#0xa
        MOV     A,R6
        MOV     R2,A
        MOV     R3,#0x0
        LCALL   ??Subroutine16_0 & 0xFFFF
??CrossCallReturnLabel_25:
        LCALL   ?DEALLOC_XSTACK8
        CFI CFA_XSP16 add(XSP16, 32)
//  631 
//  632   HalLcdWriteString( (char*)buf, HAL_LCD_LINE_2 );
        ; Setup parameters for call to function HalLcdWriteString
        MOV     R1,#0x2
        MOV     DPL,?XSP + 0
        MOV     DPH,?XSP + 1
        MOV     R2,DPL
        MOV     R3,DPH
        LCALL   ??HalLcdWriteString?relay
//  633 
//  634 #endif
//  635 }
        MOV     A,#0x11
        LCALL   ?DEALLOC_XSTACK8
        CFI CFA_XSP16 add(XSP16, 15)
        MOV     R7,#0x7
        LJMP    ?BANKED_LEAVE_XDATA
        CFI EndBlock cfiBlock48

        RSEG BANKED_CODE:CODE:NOROOT(0)
?Subroutine5:
        CFI Block cfiCond49 Using cfiCommon0
        CFI NoFunction
        CFI Conditional ??CrossCallReturnLabel_22
        CFI R6 load(1, XDATA, add(CFA_XSP16, literal(-18)))
        CFI VB load(1, XDATA, add(CFA_XSP16, literal(-17)))
        CFI V0 load(1, XDATA, add(CFA_XSP16, literal(-16)))
        CFI V1 load(1, XDATA, add(CFA_XSP16, literal(-15)))
        CFI V2 load(1, XDATA, add(CFA_XSP16, literal(-14)))
        CFI V3 load(1, XDATA, add(CFA_XSP16, literal(-13)))
        CFI V4 load(1, XDATA, add(CFA_XSP16, literal(-12)))
        CFI V5 load(1, XDATA, add(CFA_XSP16, literal(-11)))
        CFI V6 load(1, XDATA, add(CFA_XSP16, literal(-10)))
        CFI V7 load(1, XDATA, add(CFA_XSP16, literal(-9)))
        CFI V8 load(1, XDATA, add(CFA_XSP16, literal(-8)))
        CFI V9 load(1, XDATA, add(CFA_XSP16, literal(-7)))
        CFI R7 load(1, XDATA, add(CFA_XSP16, literal(-6)))
        CFI ?RET_LOW load(1, XDATA, add(CFA_XSP16, literal(-5)))
        CFI ?RET_HIGH load(1, XDATA, add(CFA_XSP16, literal(-4)))
        CFI ?BRET_EXT load(1, XDATA, add(CFA_XSP16, literal(-3)))
        CFI DPL0 load(1, XDATA, add(CFA_XSP16, literal(-2)))
        CFI DPH0 load(1, XDATA, add(CFA_XSP16, literal(-1)))
        CFI CFA_SP SP+0
        CFI CFA_XSP16 add(XSP16, 45)
        CFI Block cfiCond50 Using cfiCommon0
        CFI (cfiCond50) NoFunction
        CFI (cfiCond50) Conditional ??CrossCallReturnLabel_23
        CFI (cfiCond50) R6 load(1, XDATA, add(CFA_XSP16, literal(-18)))
        CFI (cfiCond50) VB load(1, XDATA, add(CFA_XSP16, literal(-17)))
        CFI (cfiCond50) V0 load(1, XDATA, add(CFA_XSP16, literal(-16)))
        CFI (cfiCond50) V1 load(1, XDATA, add(CFA_XSP16, literal(-15)))
        CFI (cfiCond50) V2 load(1, XDATA, add(CFA_XSP16, literal(-14)))
        CFI (cfiCond50) V3 load(1, XDATA, add(CFA_XSP16, literal(-13)))
        CFI (cfiCond50) V4 load(1, XDATA, add(CFA_XSP16, literal(-12)))
        CFI (cfiCond50) V5 load(1, XDATA, add(CFA_XSP16, literal(-11)))
        CFI (cfiCond50) V6 load(1, XDATA, add(CFA_XSP16, literal(-10)))
        CFI (cfiCond50) V7 load(1, XDATA, add(CFA_XSP16, literal(-9)))
        CFI (cfiCond50) V8 load(1, XDATA, add(CFA_XSP16, literal(-8)))
        CFI (cfiCond50) V9 load(1, XDATA, add(CFA_XSP16, literal(-7)))
        CFI (cfiCond50) R7 load(1, XDATA, add(CFA_XSP16, literal(-6)))
        CFI (cfiCond50) ?RET_LOW load(1, XDATA, add(CFA_XSP16, literal(-5)))
        CFI (cfiCond50) ?RET_HIGH load(1, XDATA, add(CFA_XSP16, literal(-4)))
        CFI (cfiCond50) ?BRET_EXT load(1, XDATA, add(CFA_XSP16, literal(-3)))
        CFI (cfiCond50) DPL0 load(1, XDATA, add(CFA_XSP16, literal(-2)))
        CFI (cfiCond50) DPH0 load(1, XDATA, add(CFA_XSP16, literal(-1)))
        CFI (cfiCond50) CFA_SP SP+0
        CFI (cfiCond50) CFA_XSP16 add(XSP16, 45)
        CFI Block cfiPicker51 Using cfiCommon1
        CFI (cfiPicker51) NoFunction
        CFI (cfiPicker51) Picker
        MOV     R2,?V0 + 0
        MOV     R3,?V0 + 1
        CFI EndBlock cfiCond49
        CFI EndBlock cfiCond50
        CFI EndBlock cfiPicker51
        REQUIRE ??Subroutine16_0
        ; // Fall through to label ??Subroutine16_0

        RSEG BANKED_CODE:CODE:NOROOT(0)
??Subroutine16_0:
        CFI Block cfiCond52 Using cfiCommon0
        CFI NoFunction
        CFI Conditional ??CrossCallReturnLabel_24
        CFI R6 load(1, XDATA, add(CFA_XSP16, literal(-18)))
        CFI VB load(1, XDATA, add(CFA_XSP16, literal(-17)))
        CFI V0 load(1, XDATA, add(CFA_XSP16, literal(-16)))
        CFI V1 load(1, XDATA, add(CFA_XSP16, literal(-15)))
        CFI V2 load(1, XDATA, add(CFA_XSP16, literal(-14)))
        CFI V3 load(1, XDATA, add(CFA_XSP16, literal(-13)))
        CFI V4 load(1, XDATA, add(CFA_XSP16, literal(-12)))
        CFI V5 load(1, XDATA, add(CFA_XSP16, literal(-11)))
        CFI V6 load(1, XDATA, add(CFA_XSP16, literal(-10)))
        CFI V7 load(1, XDATA, add(CFA_XSP16, literal(-9)))
        CFI V8 load(1, XDATA, add(CFA_XSP16, literal(-8)))
        CFI V9 load(1, XDATA, add(CFA_XSP16, literal(-7)))
        CFI R7 load(1, XDATA, add(CFA_XSP16, literal(-6)))
        CFI ?RET_LOW load(1, XDATA, add(CFA_XSP16, literal(-5)))
        CFI ?RET_HIGH load(1, XDATA, add(CFA_XSP16, literal(-4)))
        CFI ?BRET_EXT load(1, XDATA, add(CFA_XSP16, literal(-3)))
        CFI DPL0 load(1, XDATA, add(CFA_XSP16, literal(-2)))
        CFI DPH0 load(1, XDATA, add(CFA_XSP16, literal(-1)))
        CFI CFA_SP SP+0
        CFI CFA_XSP16 add(XSP16, 45)
        CFI Block cfiCond53 Using cfiCommon0
        CFI (cfiCond53) NoFunction
        CFI (cfiCond53) Conditional ??CrossCallReturnLabel_25
        CFI (cfiCond53) R6 load(1, XDATA, add(CFA_XSP16, literal(-15)))
        CFI (cfiCond53) VB load(1, XDATA, add(CFA_XSP16, literal(-14)))
        CFI (cfiCond53) V0 load(1, XDATA, add(CFA_XSP16, literal(-13)))
        CFI (cfiCond53) V1 load(1, XDATA, add(CFA_XSP16, literal(-12)))
        CFI (cfiCond53) V2 load(1, XDATA, add(CFA_XSP16, literal(-11)))
        CFI (cfiCond53) V3 load(1, XDATA, add(CFA_XSP16, literal(-10)))
        CFI (cfiCond53) V4 load(1, XDATA, add(CFA_XSP16, literal(-9)))
        CFI (cfiCond53) V5 load(1, XDATA, add(CFA_XSP16, literal(-8)))
        CFI (cfiCond53) V6 load(1, XDATA, add(CFA_XSP16, literal(-7)))
        CFI (cfiCond53) R7 load(1, XDATA, add(CFA_XSP16, literal(-6)))
        CFI (cfiCond53) ?RET_LOW load(1, XDATA, add(CFA_XSP16, literal(-5)))
        CFI (cfiCond53) ?RET_HIGH load(1, XDATA, add(CFA_XSP16, literal(-4)))
        CFI (cfiCond53) ?BRET_EXT load(1, XDATA, add(CFA_XSP16, literal(-3)))
        CFI (cfiCond53) DPL0 load(1, XDATA, add(CFA_XSP16, literal(-2)))
        CFI (cfiCond53) DPH0 load(1, XDATA, add(CFA_XSP16, literal(-1)))
        CFI (cfiCond53) CFA_SP SP+0
        CFI (cfiCond53) CFA_XSP16 add(XSP16, 34)
        CFI Block cfiCond54 Using cfiCommon0
        CFI (cfiCond54) NoFunction
        CFI (cfiCond54) Conditional ??CrossCallReturnLabel_22
        CFI (cfiCond54) R6 load(1, XDATA, add(CFA_XSP16, literal(-18)))
        CFI (cfiCond54) VB load(1, XDATA, add(CFA_XSP16, literal(-17)))
        CFI (cfiCond54) V0 load(1, XDATA, add(CFA_XSP16, literal(-16)))
        CFI (cfiCond54) V1 load(1, XDATA, add(CFA_XSP16, literal(-15)))
        CFI (cfiCond54) V2 load(1, XDATA, add(CFA_XSP16, literal(-14)))
        CFI (cfiCond54) V3 load(1, XDATA, add(CFA_XSP16, literal(-13)))
        CFI (cfiCond54) V4 load(1, XDATA, add(CFA_XSP16, literal(-12)))
        CFI (cfiCond54) V5 load(1, XDATA, add(CFA_XSP16, literal(-11)))
        CFI (cfiCond54) V6 load(1, XDATA, add(CFA_XSP16, literal(-10)))
        CFI (cfiCond54) V7 load(1, XDATA, add(CFA_XSP16, literal(-9)))
        CFI (cfiCond54) V8 load(1, XDATA, add(CFA_XSP16, literal(-8)))
        CFI (cfiCond54) V9 load(1, XDATA, add(CFA_XSP16, literal(-7)))
        CFI (cfiCond54) R7 load(1, XDATA, add(CFA_XSP16, literal(-6)))
        CFI (cfiCond54) ?RET_LOW load(1, XDATA, add(CFA_XSP16, literal(-5)))
        CFI (cfiCond54) ?RET_HIGH load(1, XDATA, add(CFA_XSP16, literal(-4)))
        CFI (cfiCond54) ?BRET_EXT load(1, XDATA, add(CFA_XSP16, literal(-3)))
        CFI (cfiCond54) DPL0 load(1, XDATA, add(CFA_XSP16, literal(-2)))
        CFI (cfiCond54) DPH0 load(1, XDATA, add(CFA_XSP16, literal(-1)))
        CFI (cfiCond54) CFA_SP SP+0
        CFI (cfiCond54) CFA_XSP16 add(XSP16, 45)
        CFI Block cfiCond55 Using cfiCommon0
        CFI (cfiCond55) NoFunction
        CFI (cfiCond55) Conditional ??CrossCallReturnLabel_23
        CFI (cfiCond55) R6 load(1, XDATA, add(CFA_XSP16, literal(-18)))
        CFI (cfiCond55) VB load(1, XDATA, add(CFA_XSP16, literal(-17)))
        CFI (cfiCond55) V0 load(1, XDATA, add(CFA_XSP16, literal(-16)))
        CFI (cfiCond55) V1 load(1, XDATA, add(CFA_XSP16, literal(-15)))
        CFI (cfiCond55) V2 load(1, XDATA, add(CFA_XSP16, literal(-14)))
        CFI (cfiCond55) V3 load(1, XDATA, add(CFA_XSP16, literal(-13)))
        CFI (cfiCond55) V4 load(1, XDATA, add(CFA_XSP16, literal(-12)))
        CFI (cfiCond55) V5 load(1, XDATA, add(CFA_XSP16, literal(-11)))
        CFI (cfiCond55) V6 load(1, XDATA, add(CFA_XSP16, literal(-10)))
        CFI (cfiCond55) V7 load(1, XDATA, add(CFA_XSP16, literal(-9)))
        CFI (cfiCond55) V8 load(1, XDATA, add(CFA_XSP16, literal(-8)))
        CFI (cfiCond55) V9 load(1, XDATA, add(CFA_XSP16, literal(-7)))
        CFI (cfiCond55) R7 load(1, XDATA, add(CFA_XSP16, literal(-6)))
        CFI (cfiCond55) ?RET_LOW load(1, XDATA, add(CFA_XSP16, literal(-5)))
        CFI (cfiCond55) ?RET_HIGH load(1, XDATA, add(CFA_XSP16, literal(-4)))
        CFI (cfiCond55) ?BRET_EXT load(1, XDATA, add(CFA_XSP16, literal(-3)))
        CFI (cfiCond55) DPL0 load(1, XDATA, add(CFA_XSP16, literal(-2)))
        CFI (cfiCond55) DPH0 load(1, XDATA, add(CFA_XSP16, literal(-1)))
        CFI (cfiCond55) CFA_SP SP+0
        CFI (cfiCond55) CFA_XSP16 add(XSP16, 45)
        CFI Block cfiPicker56 Using cfiCommon1
        CFI (cfiPicker56) NoFunction
        CFI (cfiPicker56) Picker
        MOV     R4,#0x0
        MOV     R5,#0x0
        CFI EndBlock cfiCond52
        CFI EndBlock cfiCond53
        CFI EndBlock cfiCond54
        CFI EndBlock cfiCond55
        CFI EndBlock cfiPicker56
        REQUIRE ??Subroutine17_0
        ; // Fall through to label ??Subroutine17_0

        RSEG BANKED_CODE:CODE:NOROOT(0)
??Subroutine17_0:
        CFI Block cfiCond57 Using cfiCommon0
        CFI NoFunction
        CFI Conditional ??CrossCallReturnLabel_26
        CFI R6 load(1, XDATA, add(CFA_XSP16, literal(-14)))
        CFI VB load(1, XDATA, add(CFA_XSP16, literal(-13)))
        CFI V0 load(1, XDATA, add(CFA_XSP16, literal(-12)))
        CFI V1 load(1, XDATA, add(CFA_XSP16, literal(-11)))
        CFI V2 load(1, XDATA, add(CFA_XSP16, literal(-10)))
        CFI V3 load(1, XDATA, add(CFA_XSP16, literal(-9)))
        CFI V4 load(1, XDATA, add(CFA_XSP16, literal(-8)))
        CFI V5 load(1, XDATA, add(CFA_XSP16, literal(-7)))
        CFI R7 load(1, XDATA, add(CFA_XSP16, literal(-6)))
        CFI ?RET_LOW load(1, XDATA, add(CFA_XSP16, literal(-5)))
        CFI ?RET_HIGH load(1, XDATA, add(CFA_XSP16, literal(-4)))
        CFI ?BRET_EXT load(1, XDATA, add(CFA_XSP16, literal(-3)))
        CFI DPL0 load(1, XDATA, add(CFA_XSP16, literal(-2)))
        CFI DPH0 load(1, XDATA, add(CFA_XSP16, literal(-1)))
        CFI CFA_SP SP+0
        CFI CFA_XSP16 add(XSP16, 41)
        CFI Block cfiCond58 Using cfiCommon0
        CFI (cfiCond58) NoFunction
        CFI (cfiCond58) Conditional ??CrossCallReturnLabel_24
        CFI (cfiCond58) R6 load(1, XDATA, add(CFA_XSP16, literal(-18)))
        CFI (cfiCond58) VB load(1, XDATA, add(CFA_XSP16, literal(-17)))
        CFI (cfiCond58) V0 load(1, XDATA, add(CFA_XSP16, literal(-16)))
        CFI (cfiCond58) V1 load(1, XDATA, add(CFA_XSP16, literal(-15)))
        CFI (cfiCond58) V2 load(1, XDATA, add(CFA_XSP16, literal(-14)))
        CFI (cfiCond58) V3 load(1, XDATA, add(CFA_XSP16, literal(-13)))
        CFI (cfiCond58) V4 load(1, XDATA, add(CFA_XSP16, literal(-12)))
        CFI (cfiCond58) V5 load(1, XDATA, add(CFA_XSP16, literal(-11)))
        CFI (cfiCond58) V6 load(1, XDATA, add(CFA_XSP16, literal(-10)))
        CFI (cfiCond58) V7 load(1, XDATA, add(CFA_XSP16, literal(-9)))
        CFI (cfiCond58) V8 load(1, XDATA, add(CFA_XSP16, literal(-8)))
        CFI (cfiCond58) V9 load(1, XDATA, add(CFA_XSP16, literal(-7)))
        CFI (cfiCond58) R7 load(1, XDATA, add(CFA_XSP16, literal(-6)))
        CFI (cfiCond58) ?RET_LOW load(1, XDATA, add(CFA_XSP16, literal(-5)))
        CFI (cfiCond58) ?RET_HIGH load(1, XDATA, add(CFA_XSP16, literal(-4)))
        CFI (cfiCond58) ?BRET_EXT load(1, XDATA, add(CFA_XSP16, literal(-3)))
        CFI (cfiCond58) DPL0 load(1, XDATA, add(CFA_XSP16, literal(-2)))
        CFI (cfiCond58) DPH0 load(1, XDATA, add(CFA_XSP16, literal(-1)))
        CFI (cfiCond58) CFA_SP SP+0
        CFI (cfiCond58) CFA_XSP16 add(XSP16, 45)
        CFI Block cfiCond59 Using cfiCommon0
        CFI (cfiCond59) NoFunction
        CFI (cfiCond59) Conditional ??CrossCallReturnLabel_25
        CFI (cfiCond59) R6 load(1, XDATA, add(CFA_XSP16, literal(-15)))
        CFI (cfiCond59) VB load(1, XDATA, add(CFA_XSP16, literal(-14)))
        CFI (cfiCond59) V0 load(1, XDATA, add(CFA_XSP16, literal(-13)))
        CFI (cfiCond59) V1 load(1, XDATA, add(CFA_XSP16, literal(-12)))
        CFI (cfiCond59) V2 load(1, XDATA, add(CFA_XSP16, literal(-11)))
        CFI (cfiCond59) V3 load(1, XDATA, add(CFA_XSP16, literal(-10)))
        CFI (cfiCond59) V4 load(1, XDATA, add(CFA_XSP16, literal(-9)))
        CFI (cfiCond59) V5 load(1, XDATA, add(CFA_XSP16, literal(-8)))
        CFI (cfiCond59) V6 load(1, XDATA, add(CFA_XSP16, literal(-7)))
        CFI (cfiCond59) R7 load(1, XDATA, add(CFA_XSP16, literal(-6)))
        CFI (cfiCond59) ?RET_LOW load(1, XDATA, add(CFA_XSP16, literal(-5)))
        CFI (cfiCond59) ?RET_HIGH load(1, XDATA, add(CFA_XSP16, literal(-4)))
        CFI (cfiCond59) ?BRET_EXT load(1, XDATA, add(CFA_XSP16, literal(-3)))
        CFI (cfiCond59) DPL0 load(1, XDATA, add(CFA_XSP16, literal(-2)))
        CFI (cfiCond59) DPH0 load(1, XDATA, add(CFA_XSP16, literal(-1)))
        CFI (cfiCond59) CFA_SP SP+0
        CFI (cfiCond59) CFA_XSP16 add(XSP16, 34)
        CFI Block cfiCond60 Using cfiCommon0
        CFI (cfiCond60) NoFunction
        CFI (cfiCond60) Conditional ??CrossCallReturnLabel_22
        CFI (cfiCond60) R6 load(1, XDATA, add(CFA_XSP16, literal(-18)))
        CFI (cfiCond60) VB load(1, XDATA, add(CFA_XSP16, literal(-17)))
        CFI (cfiCond60) V0 load(1, XDATA, add(CFA_XSP16, literal(-16)))
        CFI (cfiCond60) V1 load(1, XDATA, add(CFA_XSP16, literal(-15)))
        CFI (cfiCond60) V2 load(1, XDATA, add(CFA_XSP16, literal(-14)))
        CFI (cfiCond60) V3 load(1, XDATA, add(CFA_XSP16, literal(-13)))
        CFI (cfiCond60) V4 load(1, XDATA, add(CFA_XSP16, literal(-12)))
        CFI (cfiCond60) V5 load(1, XDATA, add(CFA_XSP16, literal(-11)))
        CFI (cfiCond60) V6 load(1, XDATA, add(CFA_XSP16, literal(-10)))
        CFI (cfiCond60) V7 load(1, XDATA, add(CFA_XSP16, literal(-9)))
        CFI (cfiCond60) V8 load(1, XDATA, add(CFA_XSP16, literal(-8)))
        CFI (cfiCond60) V9 load(1, XDATA, add(CFA_XSP16, literal(-7)))
        CFI (cfiCond60) R7 load(1, XDATA, add(CFA_XSP16, literal(-6)))
        CFI (cfiCond60) ?RET_LOW load(1, XDATA, add(CFA_XSP16, literal(-5)))
        CFI (cfiCond60) ?RET_HIGH load(1, XDATA, add(CFA_XSP16, literal(-4)))
        CFI (cfiCond60) ?BRET_EXT load(1, XDATA, add(CFA_XSP16, literal(-3)))
        CFI (cfiCond60) DPL0 load(1, XDATA, add(CFA_XSP16, literal(-2)))
        CFI (cfiCond60) DPH0 load(1, XDATA, add(CFA_XSP16, literal(-1)))
        CFI (cfiCond60) CFA_SP SP+0
        CFI (cfiCond60) CFA_XSP16 add(XSP16, 45)
        CFI Block cfiCond61 Using cfiCommon0
        CFI (cfiCond61) NoFunction
        CFI (cfiCond61) Conditional ??CrossCallReturnLabel_23
        CFI (cfiCond61) R6 load(1, XDATA, add(CFA_XSP16, literal(-18)))
        CFI (cfiCond61) VB load(1, XDATA, add(CFA_XSP16, literal(-17)))
        CFI (cfiCond61) V0 load(1, XDATA, add(CFA_XSP16, literal(-16)))
        CFI (cfiCond61) V1 load(1, XDATA, add(CFA_XSP16, literal(-15)))
        CFI (cfiCond61) V2 load(1, XDATA, add(CFA_XSP16, literal(-14)))
        CFI (cfiCond61) V3 load(1, XDATA, add(CFA_XSP16, literal(-13)))
        CFI (cfiCond61) V4 load(1, XDATA, add(CFA_XSP16, literal(-12)))
        CFI (cfiCond61) V5 load(1, XDATA, add(CFA_XSP16, literal(-11)))
        CFI (cfiCond61) V6 load(1, XDATA, add(CFA_XSP16, literal(-10)))
        CFI (cfiCond61) V7 load(1, XDATA, add(CFA_XSP16, literal(-9)))
        CFI (cfiCond61) V8 load(1, XDATA, add(CFA_XSP16, literal(-8)))
        CFI (cfiCond61) V9 load(1, XDATA, add(CFA_XSP16, literal(-7)))
        CFI (cfiCond61) R7 load(1, XDATA, add(CFA_XSP16, literal(-6)))
        CFI (cfiCond61) ?RET_LOW load(1, XDATA, add(CFA_XSP16, literal(-5)))
        CFI (cfiCond61) ?RET_HIGH load(1, XDATA, add(CFA_XSP16, literal(-4)))
        CFI (cfiCond61) ?BRET_EXT load(1, XDATA, add(CFA_XSP16, literal(-3)))
        CFI (cfiCond61) DPL0 load(1, XDATA, add(CFA_XSP16, literal(-2)))
        CFI (cfiCond61) DPH0 load(1, XDATA, add(CFA_XSP16, literal(-1)))
        CFI (cfiCond61) CFA_SP SP+0
        CFI (cfiCond61) CFA_XSP16 add(XSP16, 45)
        CFI Block cfiPicker62 Using cfiCommon1
        CFI (cfiPicker62) NoFunction
        CFI (cfiPicker62) Picker
        LCALL   ??_ltoa?relay
        MOV     A,#0x2
        RET
        CFI EndBlock cfiCond57
        CFI EndBlock cfiCond58
        CFI EndBlock cfiCond59
        CFI EndBlock cfiCond60
        CFI EndBlock cfiCond61
        CFI EndBlock cfiPicker62
//  636 
//  637 
//  638 #if (HAL_LCD == TRUE)
//  639 /**************************************************************************************************
//  640  *                                    HARDWARE LCD
//  641  **************************************************************************************************/
//  642 
//  643 /*******************************************************************************
//  644  * @fn      halLcdInit
//  645  *
//  646  * @brief   Initilize HW LCD Driver.
//  647  *
//  648  * @param   None
//  649  *
//  650  * @return  None
//  651  ******************************************************************************/
//  652 void halLcdInit(void)
//  653 {
//  654   // Perform the initialization sequence
//  655     LCD_RS_DIR_OUTPUT();
//  656     HAL_LCD_EN_CLR();
//  657     halMcuWaitMs(30);
//  658 
//  659     FUNCTION_SET(BUS_8BIT_ON);
//  660     halMcuWaitMs(2);
//  661     FUNCTION_SET(BUS_8BIT_ON);
//  662     halMcuWaitMs(2);
//  663     FUNCTION_SET(BUS_8BIT_ON);
//  664     halMcuWaitMs(2);
//  665     FUNCTION_SET(BUS_8BIT_ON | DUAL_LINE_ON);
//  666     halMcuWaitMs(2);
//  667     FUNCTION_SET(BUS_8BIT_ON | DUAL_LINE_ON);
//  668     halMcuWaitMs(2);
//  669     SET_CURSOR_SHIFT(SHITF_DISPLAY_OFF);
//  670     SET_ENTER_MODE(INCREMENT_ON);
//  671     DISPLAY_CLEAR();
//  672     halMcuWaitMs(2);
//  673     // Clear the display
//  674     HalLcd_HW_Clear();
//  675     SET_DISPLAY_CTRL(DISPLAY_CTRL_ON | DISPLAY_CTRL_BLINK_OFF | DISPLAY_CTRL_CURSOR_OFF);
//  676 }
//  677 
//  678 /*******************************************************************************
//  679  * @fn      HalLcd_HW_Control
//  680  *
//  681  * @brief   Write 1 command to the LCD
//  682  *
//  683  * @param   uint8 cmd - command to be written to the LCD
//  684  *
//  685  * @return  None
//  686  ******************************************************************************/
//  687 //-------------------------------------------------------------------
//  688 // @fn          lcdControl
//  689 // @brief       Send command to display
//  690 // @param       uint8 command
//  691 // @return      none
//  692 //-------------------------------------------------------------------

        RSEG BANKED_CODE:CODE:NOROOT(0)
//  693 static void lcdControl(uint8 command)
lcdControl:
        FUNCALL lcdControl, halMcuWaitUs
        LOCFRAME ISTACK, 2, STACK
        LOCFRAME PSTACK, 0, STACK
        LOCFRAME XSTACK, 0, STACK
        LOCFRAME IOVERLAY, 0, STATIC
        LOCFRAME DOVERLAY, 0, STATIC
        ARGFRAME ISTACK, 2, STACK
        ARGFRAME PSTACK, 0, STACK
        ARGFRAME XSTACK, 0, STACK
        ARGFRAME IOVERLAY, 0, STATIC
        ARGFRAME DOVERLAY, 0, STATIC
        FUNCALL lcdControl, halMcuWaitUs
        LOCFRAME ISTACK, 2, STACK
        LOCFRAME PSTACK, 0, STACK
        LOCFRAME XSTACK, 0, STACK
        LOCFRAME IOVERLAY, 0, STATIC
        LOCFRAME DOVERLAY, 0, STATIC
        ARGFRAME ISTACK, 2, STACK
        ARGFRAME PSTACK, 0, STACK
        ARGFRAME XSTACK, 0, STACK
        ARGFRAME IOVERLAY, 0, STATIC
        ARGFRAME DOVERLAY, 0, STATIC
        REQUIRE ?Subroutine9
        REQUIRE _A_P2
        REQUIRE _A_P1
        REQUIRE _A_P0
        REQUIRE P0DIR
        ; // Fall through to label ?Subroutine9

        RSEG BANKED_CODE:CODE:NOROOT(0)
?Subroutine9:
        CFI Block cfiBlock63 Using cfiCommon0
        CFI NoFunction
        PUSH    DPL
        CFI CFA_SP SP+-4
        CFI DPL0 Frame(CFA_SP, 4)
        PUSH    DPH
        CFI CFA_SP SP+-5
        CFI DPH0 Frame(CFA_SP, 5)
        ; Saved register size: 2
        ; Auto size: 0
        ; Saved register size: 2
        ; Auto size: 0
        LCALL   ?Subroutine0 & 0xFFFF
        CFI EndBlock cfiBlock63
??CrossCallReturnLabel_5:
        REQUIRE ??Subroutine18_0
        ; // Fall through to label ??Subroutine18_0

        RSEG BANKED_CODE:CODE:NOROOT(0)
??Subroutine18_0:
        CFI Block cfiBlock64 Using cfiCommon0
        CFI NoFunction
        CFI CFA_SP SP+-5
        CFI DPL0 Frame(CFA_SP, 4)
        CFI DPH0 Frame(CFA_SP, 5)
        POP     DPH
        CFI CFA_SP SP+-4
        CFI DPH0 SameValue
        POP     DPL
        CFI CFA_SP SP+-3
        CFI DPL0 SameValue
        LJMP    ?BRET
        CFI EndBlock cfiBlock64
//  694 { 
//  695     LCD_RS_DIR_OUTPUT();
//  696     HAL_LCD_RS_CLR();
//  697     HAL_LCD_DATA(command);
//  698     HAL_LCD_EN_SET();
//  699     halMcuWaitUs(2);
//  700     HAL_LCD_EN_CLR();
//  701     halMcuWaitUs(80);
//  702     HAL_LCD_DATA(pLedData);
//  703 }
//  704 
//  705 /*******************************************************************************
//  706  * @fn      HalLcd_HW_Write
//  707  *
//  708  * @brief   Write 1 byte to the LCD
//  709  *
//  710  * @param   uint8 data - data to be written to the LCD
//  711  *
//  712  * @return  None
//  713  ******************************************************************************/
//  714 //-------------------------------------------------------------------
//  715 // @fn          lcdWrite
//  716 // @brief       Write character to display
//  717 // @param       uint8 ch - character to display
//  718 // @return      none
//  719 //-------------------------------------------------------------------

        RSEG BANKED_CODE:CODE:NOROOT(0)
//  720 static void lcdWrite(uint8 ch)
lcdWrite:
        CFI Block cfiBlock65 Using cfiCommon0
        CFI Function lcdWrite
        FUNCALL lcdWrite, halMcuWaitUs
        LOCFRAME ISTACK, 2, STACK
        LOCFRAME PSTACK, 0, STACK
        LOCFRAME XSTACK, 0, STACK
        LOCFRAME IOVERLAY, 0, STATIC
        LOCFRAME DOVERLAY, 0, STATIC
        ARGFRAME ISTACK, 2, STACK
        ARGFRAME PSTACK, 0, STACK
        ARGFRAME XSTACK, 0, STACK
        ARGFRAME IOVERLAY, 0, STATIC
        ARGFRAME DOVERLAY, 0, STATIC
        FUNCALL lcdWrite, halMcuWaitUs
        LOCFRAME ISTACK, 2, STACK
        LOCFRAME PSTACK, 0, STACK
        LOCFRAME XSTACK, 0, STACK
        LOCFRAME IOVERLAY, 0, STATIC
        LOCFRAME DOVERLAY, 0, STATIC
        ARGFRAME ISTACK, 2, STACK
        ARGFRAME PSTACK, 0, STACK
        ARGFRAME XSTACK, 0, STACK
        ARGFRAME IOVERLAY, 0, STATIC
        ARGFRAME DOVERLAY, 0, STATIC
        SJMP    ?Subroutine9
        CFI EndBlock cfiBlock65
        REQUIRE _A_P2
        REQUIRE _A_P1
        REQUIRE _A_P0
        REQUIRE P0DIR

        RSEG BANKED_CODE:CODE:NOROOT(0)
?Subroutine0:
        CFI Block cfiCond66 Using cfiCommon0
        CFI NoFunction
        CFI Conditional ??CrossCallReturnLabel_5
        CFI DPL0 Frame(CFA_SP, 4)
        CFI DPH0 Frame(CFA_SP, 5)
        CFI CFA_SP SP+-5
        CFI Block cfiCond67 Using cfiCommon0
        CFI (cfiCond67) NoFunction
        CFI (cfiCond67) Conditional ??CrossCallReturnLabel_5
        CFI (cfiCond67) DPL0 Frame(CFA_SP, 4)
        CFI (cfiCond67) DPH0 Frame(CFA_SP, 5)
        CFI (cfiCond67) CFA_SP SP+-5
        CFI Block cfiPicker68 Using cfiCommon1
        CFI (cfiPicker68) NoFunction
        CFI (cfiPicker68) Picker
        ORL     0xfd,#0xbf
        MOV     A,0xfd
        SETB    0x80.6
        MOV     0x90,R1
        SETB    0xa0.0
        ; Setup parameters for call to function halMcuWaitUs
        ; Setup parameters for call to function halMcuWaitUs
        MOV     R2,#0x2
        MOV     R3,#0x0
        LCALL   ??halMcuWaitUs?relay
        SETB    0xa0.0
        ; Setup parameters for call to function halMcuWaitUs
        ; Setup parameters for call to function halMcuWaitUs
        MOV     R2,#0x50
        MOV     R3,#0x0
        LCALL   ??halMcuWaitUs?relay
        MOV     DPTR,#pLedData
        MOVX    A,@DPTR
        MOV     0x90,A
        RET
        CFI EndBlock cfiCond66
        CFI EndBlock cfiCond67
        CFI EndBlock cfiPicker68
//  721 {
//  722     LCD_RS_DIR_OUTPUT();
//  723     HAL_LCD_RS_SET();
//  724     HAL_LCD_DATA(ch);
//  725     HAL_LCD_EN_SET();
//  726     halMcuWaitUs(2);
//  727     HAL_LCD_EN_CLR();
//  728     halMcuWaitUs(80);
//  729     HAL_LCD_DATA(pLedData);
//  730 }
//  731 
//  732 /**************************************************************************************************
//  733  * @fn          HalLcd_HW_SetContrast
//  734  *
//  735  * @brief       Set display contrast
//  736  *
//  737  * @param       uint8 value - contrast value
//  738  *
//  739  * @return      none
//  740  **************************************************************************************************/

        RSEG BANKED_CODE:CODE:NOROOT(0)
//  741 void HalLcd_HW_SetContrast(uint8 value)
HalLcd_HW_SetContrast:
        CFI Block cfiBlock69 Using cfiCommon0
        CFI Function HalLcd_HW_SetContrast
//  742 {
        FUNCALL HalLcd_HW_SetContrast, lcdControl
        LOCFRAME ISTACK, 0, STACK
        LOCFRAME PSTACK, 0, STACK
        LOCFRAME XSTACK, 9, STACK
        LOCFRAME IOVERLAY, 0, STATIC
        LOCFRAME DOVERLAY, 0, STATIC
        ARGFRAME ISTACK, 0, STACK
        ARGFRAME PSTACK, 0, STACK
        ARGFRAME XSTACK, 9, STACK
        ARGFRAME IOVERLAY, 0, STATIC
        ARGFRAME DOVERLAY, 0, STATIC
        FUNCALL HalLcd_HW_SetContrast, lcdWrite
        LOCFRAME ISTACK, 0, STACK
        LOCFRAME PSTACK, 0, STACK
        LOCFRAME XSTACK, 9, STACK
        LOCFRAME IOVERLAY, 0, STATIC
        LOCFRAME DOVERLAY, 0, STATIC
        ARGFRAME ISTACK, 0, STACK
        ARGFRAME PSTACK, 0, STACK
        ARGFRAME XSTACK, 9, STACK
        ARGFRAME IOVERLAY, 0, STATIC
        ARGFRAME DOVERLAY, 0, STATIC
        MOV     A,#-0x9
        LCALL   ?BANKED_ENTER_XDATA
        CFI DPH0 load(1, XDATA, add(CFA_XSP16, literal(-1)))
        CFI DPL0 load(1, XDATA, add(CFA_XSP16, literal(-2)))
        CFI ?BRET_EXT load(1, XDATA, add(CFA_XSP16, literal(-3)))
        CFI ?RET_HIGH load(1, XDATA, add(CFA_XSP16, literal(-4)))
        CFI ?RET_LOW load(1, XDATA, add(CFA_XSP16, literal(-5)))
        CFI R7 load(1, XDATA, add(CFA_XSP16, literal(-6)))
        CFI V0 load(1, XDATA, add(CFA_XSP16, literal(-7)))
        CFI VB load(1, XDATA, add(CFA_XSP16, literal(-8)))
        CFI R6 load(1, XDATA, add(CFA_XSP16, literal(-9)))
        CFI CFA_SP SP+0
        CFI CFA_XSP16 add(XSP16, 9)
        ; Saved register size: 9
        ; Auto size: 0
        MOV     A,R1
        MOV     R6,A
//  743   SET_ICONRAM_ADDR(CONTRAST_CTRL_REGISTER);
        ; Setup parameters for call to function lcdControl
        MOV     R1,#0x50
        CFI EndBlock cfiBlock69
        REQUIRE ?Subroutine10
        ; // Fall through to label ?Subroutine10
//  744   lcdWrite(value);
//  745 }

        RSEG BANKED_CODE:CODE:NOROOT(0)
?Subroutine10:
        CFI Block cfiBlock70 Using cfiCommon0
        CFI NoFunction
        CFI CFA_SP SP+0
        CFI CFA_XSP16 add(XSP16, 9)
        CFI VB load(1, XDATA, add(CFA_XSP16, literal(-8)))
        CFI DPL0 load(1, XDATA, add(CFA_XSP16, literal(-2)))
        CFI DPH0 load(1, XDATA, add(CFA_XSP16, literal(-1)))
        CFI R6 load(1, XDATA, add(CFA_XSP16, literal(-9)))
        CFI R7 load(1, XDATA, add(CFA_XSP16, literal(-6)))
        CFI V0 load(1, XDATA, add(CFA_XSP16, literal(-7)))
        CFI ?BRET_EXT load(1, XDATA, add(CFA_XSP16, literal(-3)))
        CFI ?RET_HIGH load(1, XDATA, add(CFA_XSP16, literal(-4)))
        CFI ?RET_LOW load(1, XDATA, add(CFA_XSP16, literal(-5)))
        LCALL   ?Subroutine6 & 0xFFFF
??CrossCallReturnLabel_6:
        LJMP    ?BANKED_LEAVE_XDATA
        CFI EndBlock cfiBlock70
//  746 
//  747 /*******************************************************************************
//  748  * @fn      HalLcd_HW_Clear
//  749  *
//  750  * @brief   Clear the HW LCD
//  751  *
//  752  * @param   None
//  753  *
//  754  * @return  None
//  755  ******************************************************************************/

        RSEG BANKED_CODE:CODE:NOROOT(0)
//  756 void HalLcd_HW_Clear(void)
HalLcd_HW_Clear:
        CFI Block cfiBlock71 Using cfiCommon0
        CFI Function HalLcd_HW_Clear
//  757 {
        FUNCALL HalLcd_HW_Clear, lcdControl
        LOCFRAME ISTACK, 0, STACK
        LOCFRAME PSTACK, 0, STACK
        LOCFRAME XSTACK, 9, STACK
        LOCFRAME IOVERLAY, 0, STATIC
        LOCFRAME DOVERLAY, 0, STATIC
        ARGFRAME ISTACK, 0, STACK
        ARGFRAME PSTACK, 0, STACK
        ARGFRAME XSTACK, 9, STACK
        ARGFRAME IOVERLAY, 0, STATIC
        ARGFRAME DOVERLAY, 0, STATIC
        FUNCALL HalLcd_HW_Clear, lcdWrite
        LOCFRAME ISTACK, 0, STACK
        LOCFRAME PSTACK, 0, STACK
        LOCFRAME XSTACK, 9, STACK
        LOCFRAME IOVERLAY, 0, STATIC
        LOCFRAME DOVERLAY, 0, STATIC
        ARGFRAME ISTACK, 0, STACK
        ARGFRAME PSTACK, 0, STACK
        ARGFRAME XSTACK, 9, STACK
        ARGFRAME IOVERLAY, 0, STATIC
        ARGFRAME DOVERLAY, 0, STATIC
        FUNCALL HalLcd_HW_Clear, lcdControl
        LOCFRAME ISTACK, 0, STACK
        LOCFRAME PSTACK, 0, STACK
        LOCFRAME XSTACK, 9, STACK
        LOCFRAME IOVERLAY, 0, STATIC
        LOCFRAME DOVERLAY, 0, STATIC
        ARGFRAME ISTACK, 0, STACK
        ARGFRAME PSTACK, 0, STACK
        ARGFRAME XSTACK, 9, STACK
        ARGFRAME IOVERLAY, 0, STATIC
        ARGFRAME DOVERLAY, 0, STATIC
        FUNCALL HalLcd_HW_Clear, lcdWrite
        LOCFRAME ISTACK, 0, STACK
        LOCFRAME PSTACK, 0, STACK
        LOCFRAME XSTACK, 9, STACK
        LOCFRAME IOVERLAY, 0, STATIC
        LOCFRAME DOVERLAY, 0, STATIC
        ARGFRAME ISTACK, 0, STACK
        ARGFRAME PSTACK, 0, STACK
        ARGFRAME XSTACK, 9, STACK
        ARGFRAME IOVERLAY, 0, STATIC
        ARGFRAME DOVERLAY, 0, STATIC
        MOV     A,#-0x9
        LCALL   ?BANKED_ENTER_XDATA
        CFI DPH0 load(1, XDATA, add(CFA_XSP16, literal(-1)))
        CFI DPL0 load(1, XDATA, add(CFA_XSP16, literal(-2)))
        CFI ?BRET_EXT load(1, XDATA, add(CFA_XSP16, literal(-3)))
        CFI ?RET_HIGH load(1, XDATA, add(CFA_XSP16, literal(-4)))
        CFI ?RET_LOW load(1, XDATA, add(CFA_XSP16, literal(-5)))
        CFI R7 load(1, XDATA, add(CFA_XSP16, literal(-6)))
        CFI V0 load(1, XDATA, add(CFA_XSP16, literal(-7)))
        CFI VB load(1, XDATA, add(CFA_XSP16, literal(-8)))
        CFI R6 load(1, XDATA, add(CFA_XSP16, literal(-9)))
        CFI CFA_SP SP+0
        CFI CFA_XSP16 add(XSP16, 9)
        ; Saved register size: 9
        ; Auto size: 0
//  758     uint8 n;
//  759     SET_DISPLAY_LINE(LINE1);
        ; Setup parameters for call to function lcdControl
        MOV     R1,#-0x80
        LCALL   ??lcdControl?relay
//  760     for (n = 0; n < LCD_LINE_LENGTH; n++)
        MOV     R6,#0x10
//  761     {
//  762         lcdWrite(' ');
??HalLcd_HW_Clear_0:
        ; Setup parameters for call to function lcdWrite
        MOV     R1,#0x20
        LCALL   ??lcdWrite?relay
//  763     }
        DEC     R6
        MOV     A,R6
        JNZ     ??HalLcd_HW_Clear_0
//  764     SET_DISPLAY_LINE(LINE2);
        ; Setup parameters for call to function lcdControl
        MOV     R1,#-0x40
        LCALL   ??lcdControl?relay
//  765     for (n = 0; n < LCD_LINE_LENGTH; n++)
        MOV     R6,#0x10
//  766     {
//  767         lcdWrite(' ');
??HalLcd_HW_Clear_1:
        ; Setup parameters for call to function lcdWrite
        MOV     R1,#0x20
        LCALL   ??lcdWrite?relay
//  768     }
        DEC     R6
        MOV     A,R6
        JNZ     ??HalLcd_HW_Clear_1
//  769 }
        LJMP    ?Subroutine11 & 0xFFFF
        CFI EndBlock cfiBlock71
//  770 
//  771 /**************************************************************************************************
//  772  * @fn      HalLcd_HW_ClearAllSpecChars
//  773  *
//  774  * @brief   Clear all special chars
//  775  *
//  776  * @param   None
//  777  *
//  778  * @return  None
//  779  **************************************************************************************************/

        RSEG BANKED_CODE:CODE:NOROOT(0)
//  780 void HalLcd_HW_ClearAllSpecChars(void)
HalLcd_HW_ClearAllSpecChars:
        CFI Block cfiBlock72 Using cfiCommon0
        CFI Function HalLcd_HW_ClearAllSpecChars
//  781 {
        FUNCALL HalLcd_HW_ClearAllSpecChars, lcdControl
        LOCFRAME ISTACK, 0, STACK
        LOCFRAME PSTACK, 0, STACK
        LOCFRAME XSTACK, 9, STACK
        LOCFRAME IOVERLAY, 0, STATIC
        LOCFRAME DOVERLAY, 0, STATIC
        ARGFRAME ISTACK, 0, STACK
        ARGFRAME PSTACK, 0, STACK
        ARGFRAME XSTACK, 9, STACK
        ARGFRAME IOVERLAY, 0, STATIC
        ARGFRAME DOVERLAY, 0, STATIC
        FUNCALL HalLcd_HW_ClearAllSpecChars, lcdWrite
        LOCFRAME ISTACK, 0, STACK
        LOCFRAME PSTACK, 0, STACK
        LOCFRAME XSTACK, 9, STACK
        LOCFRAME IOVERLAY, 0, STATIC
        LOCFRAME DOVERLAY, 0, STATIC
        ARGFRAME ISTACK, 0, STACK
        ARGFRAME PSTACK, 0, STACK
        ARGFRAME XSTACK, 9, STACK
        ARGFRAME IOVERLAY, 0, STATIC
        ARGFRAME DOVERLAY, 0, STATIC
        MOV     A,#-0x9
        LCALL   ?BANKED_ENTER_XDATA
        CFI DPH0 load(1, XDATA, add(CFA_XSP16, literal(-1)))
        CFI DPL0 load(1, XDATA, add(CFA_XSP16, literal(-2)))
        CFI ?BRET_EXT load(1, XDATA, add(CFA_XSP16, literal(-3)))
        CFI ?RET_HIGH load(1, XDATA, add(CFA_XSP16, literal(-4)))
        CFI ?RET_LOW load(1, XDATA, add(CFA_XSP16, literal(-5)))
        CFI R7 load(1, XDATA, add(CFA_XSP16, literal(-6)))
        CFI V0 load(1, XDATA, add(CFA_XSP16, literal(-7)))
        CFI VB load(1, XDATA, add(CFA_XSP16, literal(-8)))
        CFI R6 load(1, XDATA, add(CFA_XSP16, literal(-9)))
        CFI CFA_SP SP+0
        CFI CFA_XSP16 add(XSP16, 9)
        ; Saved register size: 9
        ; Auto size: 0
//  782   uint8 n = 0;
//  783 
//  784   SET_GCRAM_CHAR(0);
        ; Setup parameters for call to function lcdControl
        MOV     R1,#0x40
        LCALL   ??lcdControl?relay
//  785   for (n = 0; n < (8 * 8); n++)
        MOV     R6,#0x40
//  786   {
//  787     lcdWrite(0x00);
??HalLcd_HW_ClearAllSpecChars_0:
        ; Setup parameters for call to function lcdWrite
        MOV     R1,#0x0
        LCALL   ??lcdWrite?relay
//  788   }
        DEC     R6
        MOV     A,R6
        JNZ     ??HalLcd_HW_ClearAllSpecChars_0
//  789 }
        LJMP    ?Subroutine11 & 0xFFFF
        CFI EndBlock cfiBlock72
//  790 
//  791 /*******************************************************************************
//  792  * @fn      HalLcd_HW_WriteChar
//  793  *
//  794  * @brief   Write one char to the display
//  795  *
//  796  * @param   uint8 line - line number that the char will be displayed
//  797  *          uint8 col - colum where the char will be displayed
//  798  *
//  799  * @return  None
//  800  ******************************************************************************/
//  801 /************************************************************
//  802  * @fn      halLcdWriteChar
//  803 ************************************************************/

        RSEG BANKED_CODE:CODE:NOROOT(0)
//  804 static void halLcdWriteChar(uint8 line, uint8 col, char text)
halLcdWriteChar:
        CFI Block cfiBlock73 Using cfiCommon0
        CFI Function halLcdWriteChar
//  805 {
        FUNCALL halLcdWriteChar, lcdControl
        LOCFRAME ISTACK, 0, STACK
        LOCFRAME PSTACK, 0, STACK
        LOCFRAME XSTACK, 9, STACK
        LOCFRAME IOVERLAY, 0, STATIC
        LOCFRAME DOVERLAY, 0, STATIC
        ARGFRAME ISTACK, 0, STACK
        ARGFRAME PSTACK, 0, STACK
        ARGFRAME XSTACK, 9, STACK
        ARGFRAME IOVERLAY, 0, STATIC
        ARGFRAME DOVERLAY, 0, STATIC
        FUNCALL halLcdWriteChar, lcdControl
        LOCFRAME ISTACK, 0, STACK
        LOCFRAME PSTACK, 0, STACK
        LOCFRAME XSTACK, 9, STACK
        LOCFRAME IOVERLAY, 0, STATIC
        LOCFRAME DOVERLAY, 0, STATIC
        ARGFRAME ISTACK, 0, STACK
        ARGFRAME PSTACK, 0, STACK
        ARGFRAME XSTACK, 9, STACK
        ARGFRAME IOVERLAY, 0, STATIC
        ARGFRAME DOVERLAY, 0, STATIC
        FUNCALL halLcdWriteChar, lcdWrite
        LOCFRAME ISTACK, 0, STACK
        LOCFRAME PSTACK, 0, STACK
        LOCFRAME XSTACK, 9, STACK
        LOCFRAME IOVERLAY, 0, STATIC
        LOCFRAME DOVERLAY, 0, STATIC
        ARGFRAME ISTACK, 0, STACK
        ARGFRAME PSTACK, 0, STACK
        ARGFRAME XSTACK, 9, STACK
        ARGFRAME IOVERLAY, 0, STATIC
        ARGFRAME DOVERLAY, 0, STATIC
        MOV     A,#-0x9
        LCALL   ?BANKED_ENTER_XDATA
        CFI DPH0 load(1, XDATA, add(CFA_XSP16, literal(-1)))
        CFI DPL0 load(1, XDATA, add(CFA_XSP16, literal(-2)))
        CFI ?BRET_EXT load(1, XDATA, add(CFA_XSP16, literal(-3)))
        CFI ?RET_HIGH load(1, XDATA, add(CFA_XSP16, literal(-4)))
        CFI ?RET_LOW load(1, XDATA, add(CFA_XSP16, literal(-5)))
        CFI R7 load(1, XDATA, add(CFA_XSP16, literal(-6)))
        CFI V0 load(1, XDATA, add(CFA_XSP16, literal(-7)))
        CFI VB load(1, XDATA, add(CFA_XSP16, literal(-8)))
        CFI R6 load(1, XDATA, add(CFA_XSP16, literal(-9)))
        CFI CFA_SP SP+0
        CFI CFA_XSP16 add(XSP16, 9)
        ; Saved register size: 9
        ; Auto size: 0
        MOV     A,R3
        MOV     R6,A
//  806     if (line == HAL_LCD_LINE_2)
        MOV     A,#0x2
        XRL     A,R1
        JNZ     ??halLcdWriteChar_0
//  807     {
//  808         SET_DISPLAY_LINE(LINE2 + col);
        ; Setup parameters for call to function lcdControl
        MOV     A,#0x40
        ADD     A,R2
        ORL     A,#0x80
        SJMP    ??halLcdWriteChar_1
//  809     }
//  810     else
//  811     {
//  812         SET_DISPLAY_LINE(LINE1 + col);
??halLcdWriteChar_0:
        ; Setup parameters for call to function lcdControl
        MOV     A,#-0x80
        ORL     A,R2
??halLcdWriteChar_1:
        MOV     R1,A
//  813     }
        SJMP    ?Subroutine10
        CFI EndBlock cfiBlock73
//  814     lcdWrite(text);
//  815 }

        RSEG BANKED_CODE:CODE:NOROOT(0)
?Subroutine6:
        CFI Block cfiCond74 Using cfiCommon0
        CFI NoFunction
        CFI Conditional ??CrossCallReturnLabel_6
        CFI R6 load(1, XDATA, add(CFA_XSP16, literal(-9)))
        CFI VB load(1, XDATA, add(CFA_XSP16, literal(-8)))
        CFI V0 load(1, XDATA, add(CFA_XSP16, literal(-7)))
        CFI R7 load(1, XDATA, add(CFA_XSP16, literal(-6)))
        CFI ?RET_LOW load(1, XDATA, add(CFA_XSP16, literal(-5)))
        CFI ?RET_HIGH load(1, XDATA, add(CFA_XSP16, literal(-4)))
        CFI ?BRET_EXT load(1, XDATA, add(CFA_XSP16, literal(-3)))
        CFI DPL0 load(1, XDATA, add(CFA_XSP16, literal(-2)))
        CFI DPH0 load(1, XDATA, add(CFA_XSP16, literal(-1)))
        CFI CFA_SP SP+0
        CFI CFA_XSP16 add(XSP16, 9)
        CFI Block cfiCond75 Using cfiCommon0
        CFI (cfiCond75) NoFunction
        CFI (cfiCond75) Conditional ??CrossCallReturnLabel_6
        CFI (cfiCond75) R6 load(1, XDATA, add(CFA_XSP16, literal(-9)))
        CFI (cfiCond75) VB load(1, XDATA, add(CFA_XSP16, literal(-8)))
        CFI (cfiCond75) V0 load(1, XDATA, add(CFA_XSP16, literal(-7)))
        CFI (cfiCond75) R7 load(1, XDATA, add(CFA_XSP16, literal(-6)))
        CFI (cfiCond75) ?RET_LOW load(1, XDATA, add(CFA_XSP16, literal(-5)))
        CFI (cfiCond75) ?RET_HIGH load(1, XDATA, add(CFA_XSP16, literal(-4)))
        CFI (cfiCond75) ?BRET_EXT load(1, XDATA, add(CFA_XSP16, literal(-3)))
        CFI (cfiCond75) DPL0 load(1, XDATA, add(CFA_XSP16, literal(-2)))
        CFI (cfiCond75) DPH0 load(1, XDATA, add(CFA_XSP16, literal(-1)))
        CFI (cfiCond75) CFA_SP SP+0
        CFI (cfiCond75) CFA_XSP16 add(XSP16, 9)
        CFI Block cfiPicker76 Using cfiCommon1
        CFI (cfiPicker76) NoFunction
        CFI (cfiPicker76) Picker
        LCALL   ??lcdControl?relay
        ; Setup parameters for call to function lcdWrite
        ; Setup parameters for call to function lcdWrite
        MOV     A,R6
        MOV     R1,A
        LCALL   ??lcdWrite?relay
        MOV     R7,#0x1
        RET
        CFI EndBlock cfiCond74
        CFI EndBlock cfiCond75
        CFI EndBlock cfiPicker76
//  816 
//  817 /**************************************************************************************************
//  818  * @fn          halLcdWriteLine
//  819  *
//  820  * @brief       Write one line on display
//  821  *
//  822  * @param       uint8 line - display line
//  823  *              char *pText - text buffer to write
//  824  *
//  825  * @return      none
//  826  **************************************************************************************************/

        RSEG BANKED_CODE:CODE:NOROOT(0)
//  827 void HalLcd_HW_WriteLine(uint8 line, const char *pText)
HalLcd_HW_WriteLine:
        CFI Block cfiBlock77 Using cfiCommon0
        CFI Function HalLcd_HW_WriteLine
//  828 {
        FUNCALL HalLcd_HW_WriteLine, osal_strlen
        LOCFRAME ISTACK, 0, STACK
        LOCFRAME PSTACK, 0, STACK
        LOCFRAME XSTACK, 11, STACK
        LOCFRAME IOVERLAY, 0, STATIC
        LOCFRAME DOVERLAY, 0, STATIC
        ARGFRAME ISTACK, 0, STACK
        ARGFRAME PSTACK, 0, STACK
        ARGFRAME XSTACK, 11, STACK
        ARGFRAME IOVERLAY, 0, STATIC
        ARGFRAME DOVERLAY, 0, STATIC
        FUNCALL HalLcd_HW_WriteLine, halLcdWriteChar
        LOCFRAME ISTACK, 0, STACK
        LOCFRAME PSTACK, 0, STACK
        LOCFRAME XSTACK, 11, STACK
        LOCFRAME IOVERLAY, 0, STATIC
        LOCFRAME DOVERLAY, 0, STATIC
        ARGFRAME ISTACK, 0, STACK
        ARGFRAME PSTACK, 0, STACK
        ARGFRAME XSTACK, 11, STACK
        ARGFRAME IOVERLAY, 0, STATIC
        ARGFRAME DOVERLAY, 0, STATIC
        FUNCALL HalLcd_HW_WriteLine, halLcdWriteChar
        LOCFRAME ISTACK, 0, STACK
        LOCFRAME PSTACK, 0, STACK
        LOCFRAME XSTACK, 11, STACK
        LOCFRAME IOVERLAY, 0, STATIC
        LOCFRAME DOVERLAY, 0, STATIC
        ARGFRAME ISTACK, 0, STACK
        ARGFRAME PSTACK, 0, STACK
        ARGFRAME XSTACK, 11, STACK
        ARGFRAME IOVERLAY, 0, STATIC
        ARGFRAME DOVERLAY, 0, STATIC
        MOV     A,#-0xb
        LCALL   ?BANKED_ENTER_XDATA
        CFI DPH0 load(1, XDATA, add(CFA_XSP16, literal(-1)))
        CFI DPL0 load(1, XDATA, add(CFA_XSP16, literal(-2)))
        CFI ?BRET_EXT load(1, XDATA, add(CFA_XSP16, literal(-3)))
        CFI ?RET_HIGH load(1, XDATA, add(CFA_XSP16, literal(-4)))
        CFI ?RET_LOW load(1, XDATA, add(CFA_XSP16, literal(-5)))
        CFI R7 load(1, XDATA, add(CFA_XSP16, literal(-6)))
        CFI V2 load(1, XDATA, add(CFA_XSP16, literal(-7)))
        CFI V1 load(1, XDATA, add(CFA_XSP16, literal(-8)))
        CFI V0 load(1, XDATA, add(CFA_XSP16, literal(-9)))
        CFI VB load(1, XDATA, add(CFA_XSP16, literal(-10)))
        CFI R6 load(1, XDATA, add(CFA_XSP16, literal(-11)))
        CFI CFA_SP SP+0
        CFI CFA_XSP16 add(XSP16, 11)
        ; Saved register size: 11
        ; Auto size: 0
        MOV     ?V0 + 1,R1
        MOV     A,R2
        MOV     R6,A
        MOV     A,R3
        MOV     R7,A
//  829   uint8 count;
//  830   uint8 totalLength = (uint8)osal_strlen( (char *)pText );
        ; Setup parameters for call to function osal_strlen
        LCALL   ??osal_strlen?relay
        MOV     A,R2
        MOV     ?V0 + 2,A
//  831 
//  832   /* Write the content first */
//  833   for (count=0; count<totalLength; count++)
        MOV     ?V0 + 0,#0x0
        SJMP    ??HalLcd_HW_WriteLine_0
//  834   {
//  835     halLcdWriteChar(line, count, (*(pText++)));
??HalLcd_HW_WriteLine_1:
        ; Setup parameters for call to function halLcdWriteChar
        MOV     DPL,R6
        MOV     DPH,R7
        MOVX    A,@DPTR
        MOV     R3,A
        MOV     R2,?V0 + 0
        MOV     R1,?V0 + 1
        LCALL   ??halLcdWriteChar?relay
        MOV     DPL,R6
        MOV     DPH,R7
        INC     DPTR
        MOV     R6,DPL
        MOV     R7,DPH
//  836   }
        INC     ?V0 + 0
??HalLcd_HW_WriteLine_0:
        MOV     A,?V0 + 0
        CLR     C
        SUBB    A,?V0 + 2
        JC      ??HalLcd_HW_WriteLine_1
//  837 
//  838   /* Write blank spaces to rest of the line */
//  839   for(count=totalLength; count<LCD_LINE_LENGTH;count++)
        MOV     ?V0 + 0,?V0 + 2
        SJMP    ??HalLcd_HW_WriteLine_2
//  840   {
//  841     halLcdWriteChar(line, count, ' ');
??HalLcd_HW_WriteLine_3:
        ; Setup parameters for call to function halLcdWriteChar
        MOV     R3,#0x20
        MOV     R2,?V0 + 0
        MOV     R1,?V0 + 1
        LCALL   ??halLcdWriteChar?relay
//  842   }
        INC     ?V0 + 0
??HalLcd_HW_WriteLine_2:
        MOV     A,?V0 + 0
        CLR     C
        SUBB    A,#0x10
        JC      ??HalLcd_HW_WriteLine_3
//  843 }
        MOV     R7,#0x3
        LJMP    ?BANKED_LEAVE_XDATA
        CFI EndBlock cfiBlock77
//  844 
//  845 /*******************************************************************************
//  846  * @fn      HalLcd_HW_WaitUs
//  847  *
//  848  * @brief   wait for x us. @ 32MHz MCU clock it takes 32 "nop"s for 1 us delay.
//  849  *
//  850  * @param   x us. range[0-65536]
//  851  *
//  852  * @return  None
//  853  ******************************************************************************/

        RSEG BANKED_CODE:CODE:NOROOT(0)
//  854 void HalLcd_HW_WaitUs(uint16 microSecs)
HalLcd_HW_WaitUs:
        CFI Block cfiBlock78 Using cfiCommon0
        CFI Function HalLcd_HW_WaitUs
//  855 {
        ; Saved register size: 0
        ; Auto size: 0
        SJMP    ??HalLcd_HW_WaitUs_0
//  856   while(microSecs--)
//  857   {
//  858     /* 32 NOPs == 1 usecs */
//  859     asm("nop"); asm("nop"); asm("nop"); asm("nop"); asm("nop");
??HalLcd_HW_WaitUs_1:
        nop
        nop
        nop
        nop
        nop
//  860     asm("nop"); asm("nop"); asm("nop"); asm("nop"); asm("nop");
        nop
        nop
        nop
        nop
        nop
//  861     asm("nop"); asm("nop"); asm("nop"); asm("nop"); asm("nop");
        nop
        nop
        nop
        nop
        nop
//  862     asm("nop"); asm("nop"); asm("nop"); asm("nop"); asm("nop");
        nop
        nop
        nop
        nop
        nop
//  863     asm("nop"); asm("nop"); asm("nop"); asm("nop"); asm("nop");
        nop
        nop
        nop
        nop
        nop
//  864     asm("nop"); asm("nop"); asm("nop"); asm("nop"); asm("nop");
        nop
        nop
        nop
        nop
        nop
//  865     asm("nop"); asm("nop");
        nop
        nop
//  866   }
??HalLcd_HW_WaitUs_0:
        MOV     A,R2
        MOV     R0,A
        MOV     A,R3
        MOV     R1,A
        MOV     A,#-0x1
        ADD     A,R0
        DEC     R2
        MOV     A,#-0x1
        ADDC    A,R1
        MOV     R3,A
        MOV     A,R0
        JNZ     ??HalLcd_HW_WaitUs_2
        MOV     A,R1
??HalLcd_HW_WaitUs_2:
        JNZ     ??HalLcd_HW_WaitUs_1
//  867 }
        LJMP    ?BRET
        CFI EndBlock cfiBlock78

        RSEG BANK_RELAYS:CODE:REORDER:NOROOT(0)
??HalLcdInit?relay:
        LCALL   ?BDISPATCH
        DATA
        DC24    HalLcdInit

        RSEG BANK_RELAYS:CODE:REORDER:NOROOT(0)
??HalLcdWriteString?relay:
        LCALL   ?BDISPATCH
        DATA
        DC24    HalLcdWriteString

        RSEG BANK_RELAYS:CODE:REORDER:NOROOT(0)
??HalLcdWriteValue?relay:
        LCALL   ?BDISPATCH
        DATA
        DC24    HalLcdWriteValue

        RSEG BANK_RELAYS:CODE:REORDER:NOROOT(0)
??HalLcdWriteScreen?relay:
        LCALL   ?BDISPATCH
        DATA
        DC24    HalLcdWriteScreen

        RSEG BANK_RELAYS:CODE:REORDER:NOROOT(0)
??HalLcdWriteStringValue?relay:
        LCALL   ?BDISPATCH
        DATA
        DC24    HalLcdWriteStringValue

        RSEG BANK_RELAYS:CODE:REORDER:NOROOT(0)
??HalLcdWriteStringValueValue?relay:
        LCALL   ?BDISPATCH
        DATA
        DC24    HalLcdWriteStringValueValue

        RSEG BANK_RELAYS:CODE:REORDER:NOROOT(0)
??HalLcdDisplayPercentBar?relay:
        LCALL   ?BDISPATCH
        DATA
        DC24    HalLcdDisplayPercentBar

        RSEG BANK_RELAYS:CODE:REORDER:NOROOT(0)
??lcdControl?relay:
        LCALL   ?BDISPATCH
        DATA
        DC24    lcdControl

        RSEG BANK_RELAYS:CODE:REORDER:NOROOT(0)
??lcdWrite?relay:
        LCALL   ?BDISPATCH
        DATA
        DC24    lcdWrite

        RSEG BANK_RELAYS:CODE:REORDER:NOROOT(0)
??HalLcd_HW_SetContrast?relay:
        LCALL   ?BDISPATCH
        DATA
        DC24    HalLcd_HW_SetContrast

        RSEG BANK_RELAYS:CODE:REORDER:NOROOT(0)
??HalLcd_HW_Clear?relay:
        LCALL   ?BDISPATCH
        DATA
        DC24    HalLcd_HW_Clear

        RSEG BANK_RELAYS:CODE:REORDER:NOROOT(0)
??HalLcd_HW_ClearAllSpecChars?relay:
        LCALL   ?BDISPATCH
        DATA
        DC24    HalLcd_HW_ClearAllSpecChars

        RSEG BANK_RELAYS:CODE:REORDER:NOROOT(0)
??halLcdWriteChar?relay:
        LCALL   ?BDISPATCH
        DATA
        DC24    halLcdWriteChar

        RSEG BANK_RELAYS:CODE:REORDER:NOROOT(0)
??HalLcd_HW_WriteLine?relay:
        LCALL   ?BDISPATCH
        DATA
        DC24    HalLcd_HW_WriteLine

        RSEG BANK_RELAYS:CODE:REORDER:NOROOT(0)
??HalLcd_HW_WaitUs?relay:
        LCALL   ?BDISPATCH
        DATA
        DC24    HalLcd_HW_WaitUs

        RSEG XDATA_ROM_C:CONST:REORDER:NOROOT(0)
        DATA
`?<Constant "[          ]  ">`:
        DB "[          ]  "

        END
//  868 
//  869 
//  870 
//  871 #endif
//  872 
//  873 
//  874 /**************************************************************************************************
//  875 **************************************************************************************************/
//  876 
//  877 
//  878 
// 
// 1 308 bytes in segment BANKED_CODE
//    90 bytes in segment BANK_RELAYS
// 1 536 bytes in segment CODE_C
//     4 bytes in segment SFR_AN
//    15 bytes in segment XDATA_ROM_C
//     3 bytes in segment XDATA_Z
// 
// 2 934 bytes of CODE  memory
//    15 bytes of CONST memory
//     0 bytes of DATA  memory (+ 4 bytes shared)
//     3 bytes of XDATA memory
//
//Errors: none
//Warnings: none
