###############################################################################
#                                                                             #
# IAR C/C++ Compiler V7.51A/W32 for 8051                11/Mar/2010  14:46:29 #
# Copyright 2004-2009 IAR Systems AB.                                         #
#                                                                             #
#    Core               =  plain                                              #
#    Code model         =  banked                                             #
#    Data model         =  large                                              #
#    Calling convention =  xdata reentrant                                    #
#    Constant location  =  data_rom                                           #
#    Dptr setup         =  1,16                                               #
#    Source file        =  D:\µ{¦¡¶}µo\TI Zigbee Z-Stack\ZStack-CC2530-2.3.0- #
#                          1.4.0\Components\hal\target\CC2530KB\hal_kit1_lcd. #
#                          c                                                  #
#    Command line       =  -f "D:\µ{¦¡¶}µo\TI Zigbee                          #
#                          Z-Stack\ZStack-CC2530-2.3.0-1.4.0\Projects\zstack\ #
#                          HomeAutomation\SampleSwitch\CC2530DB\..\..\..\Tool #
#                          s\CC2530DB\f8wCoord.cfg" (-DCPU32MHZ               #
#                          -DROOT=__near_func -DMAC_CFG_APP_PENDING_QUEUE=TRU #
#                          E -DZDO_COORDINATOR -DRTR_NWK -DBLINK_LEDS) -f     #
#                          "D:\µ{¦¡¶}µo\TI Zigbee Z-Stack\ZStack-CC2530-2.3.0 #
#                          -1.4.0\Projects\zstack\HomeAutomation\SampleSwitch #
#                          \CC2530DB\..\..\..\Tools\CC2530DB\f8wConfig.cfg"   #
#                          (-DSECURE=0 -DZG_SECURE_DYNAMIC=0 -DREFLECTOR      #
#                          -DDEFAULT_CHANLIST=0x00000800                      #
#                          -DZDAPP_CONFIG_PAN_ID=0xFFFF                       #
#                          -DNWK_START_DELAY=100 -DEXTENDED_JOINING_RANDOM_MA #
#                          SK=0x007F -DBEACON_REQUEST_DELAY=100               #
#                          -DBEACON_REQ_DELAY_MASK=0x00FF                     #
#                          -DROUTE_EXPIRY_TIME=30 -DAPSC_ACK_WAIT_DURATION_PO #
#                          LLED=3000 -DNWK_INDIRECT_MSG_TIMEOUT=7             #
#                          -DMAX_RREQ_ENTRIES=8 -DAPSC_MAX_FRAME_RETRIES=3    #
#                          -DNWK_MAX_DATA_RETRIES=2                           #
#                          -DMAX_POLL_FAILURE_RETRIES=2 -DMAX_BCAST=9         #
#                          -DAPS_MAX_GROUPS=16 -DMAX_RTG_ENTRIES=40           #
#                          -DNWK_MAX_BINDING_ENTRIES=4                        #
#                          -DMAX_BINDING_CLUSTER_IDS=4 "-DDEFAULT_KEY={0x01,  #
#                          0x03, 0x05, 0x07, 0x09, 0x0B, 0x0D, 0x0F, 0x00,    #
#                          0x02, 0x04, 0x06, 0x08, 0x0A, 0x0C, 0x0D}"         #
#                          -DMAC_MAX_FRAME_SIZE=116 "-DCONST=const __code"    #
#                          -DGENERIC=__generic -DRFD_RCVC_ALWAYS_ON=FALSE     #
#                          -DPOLL_RATE=1000 -DQUEUED_POLL_RATE=100            #
#                          -DRESPONSE_POLL_RATE=100 -DREJOIN_POLL_RATE=440)   #
#                          -f "D:\µ{¦¡¶}µo\TI Zigbee                          #
#                          Z-Stack\ZStack-CC2530-2.3.0-1.4.0\Projects\zstack\ #
#                          HomeAutomation\SampleSwitch\CC2530DB\..\..\..\Tool #
#                          s\CC2530DB\f8wZCL.cfg" (-DZCL_READ -DZCL_WRITE     #
#                          -DZCL_BASIC -DZCL_IDENTIFY -DZCL_ON_OFF            #
#                          -DZCL_KEY_ESTABLISH -DZCL_LOAD_CONTROL             #
#                          -DZCL_SIMPLE_METERING -DZCL_PRICING)               #
#                          -DZCL_MESSAGE "D:\µ{¦¡¶}µo\TI Zigbee               #
#                          Z-Stack\ZStack-CC2530-2.3.0-1.4.0\Components\hal\t #
#                          arget\CC2530KB\hal_kit1_lcd.c" -D ZTOOL_P1 -D      #
#                          MT_TASK -D MT_APP_FUNC -D MT_SYS_FUNC -D           #
#                          MT_ZDO_FUNC -D LCD_SUPPORTED=DEBUG -lC             #
#                          "D:\µ{¦¡¶}µo\TI Zigbee Z-Stack\ZStack-CC2530-2.3.0 #
#                          -1.4.0\Projects\zstack\HomeAutomation\SampleSwitch #
#                          \CC2530DB\CoordinatorKB\List\" -lA                 #
#                          "D:\µ{¦¡¶}µo\TI Zigbee Z-Stack\ZStack-CC2530-2.3.0 #
#                          -1.4.0\Projects\zstack\HomeAutomation\SampleSwitch #
#                          \CC2530DB\CoordinatorKB\List\" --diag_suppress     #
#                          Pe001,Pa010 -o "D:\µ{¦¡¶}µo\TI Zigbee              #
#                          Z-Stack\ZStack-CC2530-2.3.0-1.4.0\Projects\zstack\ #
#                          HomeAutomation\SampleSwitch\CC2530DB\CoordinatorKB #
#                          \Obj\" -e --require_prototypes --debug             #
#                          --core=plain --dptr=16,1 --data_model=large        #
#                          --code_model=banked --calling_convention=xdata_ree #
#                          ntrant --place_constants=data_rom                  #
#                          --nr_virtual_regs 16 -I "D:\µ{¦¡¶}µo\TI Zigbee     #
#                          Z-Stack\ZStack-CC2530-2.3.0-1.4.0\Projects\zstack\ #
#                          HomeAutomation\SampleSwitch\CC2530DB\" -I          #
#                          "D:\µ{¦¡¶}µo\TI Zigbee Z-Stack\ZStack-CC2530-2.3.0 #
#                          -1.4.0\Projects\zstack\HomeAutomation\SampleSwitch #
#                          \CC2530DB\..\SOURCE\" -I "D:\µ{¦¡¶}µo\TI Zigbee    #
#                          Z-Stack\ZStack-CC2530-2.3.0-1.4.0\Projects\zstack\ #
#                          HomeAutomation\SampleSwitch\CC2530DB\..\..\SOURCE\ #
#                          " -I "D:\µ{¦¡¶}µo\TI Zigbee                        #
#                          Z-Stack\ZStack-CC2530-2.3.0-1.4.0\Projects\zstack\ #
#                          HomeAutomation\SampleSwitch\CC2530DB\..\..\..\ZMAI #
#                          N\TI2530DB\" -I "D:\µ{¦¡¶}µo\TI Zigbee             #
#                          Z-Stack\ZStack-CC2530-2.3.0-1.4.0\Projects\zstack\ #
#                          HomeAutomation\SampleSwitch\CC2530DB\..\..\..\..\. #
#                          .\COMPONENTS\MT\" -I "D:\µ{¦¡¶}µo\TI Zigbee        #
#                          Z-Stack\ZStack-CC2530-2.3.0-1.4.0\Projects\zstack\ #
#                          HomeAutomation\SampleSwitch\CC2530DB\..\..\..\..\. #
#                          .\COMPONENTS\HAL\INCLUDE\" -I "D:\µ{¦¡¶}µo\TI      #
#                          Zigbee Z-Stack\ZStack-CC2530-2.3.0-1.4.0\Projects\ #
#                          zstack\HomeAutomation\SampleSwitch\CC2530DB\..\..\ #
#                          ..\..\..\COMPONENTS\HAL\TARGET\CC2530EB\" -I       #
#                          "D:\µ{¦¡¶}µo\TI Zigbee Z-Stack\ZStack-CC2530-2.3.0 #
#                          -1.4.0\Projects\zstack\HomeAutomation\SampleSwitch #
#                          \CC2530DB\..\..\..\..\..\COMPONENTS\OSAL\MCU\CCSOC #
#                          \" -I "D:\µ{¦¡¶}µo\TI Zigbee                       #
#                          Z-Stack\ZStack-CC2530-2.3.0-1.4.0\Projects\zstack\ #
#                          HomeAutomation\SampleSwitch\CC2530DB\..\..\..\..\. #
#                          .\COMPONENTS\OSAL\INCLUDE\" -I "D:\µ{¦¡¶}µo\TI     #
#                          Zigbee Z-Stack\ZStack-CC2530-2.3.0-1.4.0\Projects\ #
#                          zstack\HomeAutomation\SampleSwitch\CC2530DB\..\..\ #
#                          ..\..\..\COMPONENTS\STACK\AF\" -I "D:\µ{¦¡¶}µo\TI  #
#                          Zigbee Z-Stack\ZStack-CC2530-2.3.0-1.4.0\Projects\ #
#                          zstack\HomeAutomation\SampleSwitch\CC2530DB\..\..\ #
#                          ..\..\..\COMPONENTS\STACK\NWK\" -I                 #
#                          "D:\µ{¦¡¶}µo\TI Zigbee Z-Stack\ZStack-CC2530-2.3.0 #
#                          -1.4.0\Projects\zstack\HomeAutomation\SampleSwitch #
#                          \CC2530DB\..\..\..\..\..\COMPONENTS\STACK\SEC\"    #
#                          -I "D:\µ{¦¡¶}µo\TI Zigbee                          #
#                          Z-Stack\ZStack-CC2530-2.3.0-1.4.0\Projects\zstack\ #
#                          HomeAutomation\SampleSwitch\CC2530DB\..\..\..\..\. #
#                          .\COMPONENTS\STACK\SAPI\" -I "D:\µ{¦¡¶}µo\TI       #
#                          Zigbee Z-Stack\ZStack-CC2530-2.3.0-1.4.0\Projects\ #
#                          zstack\HomeAutomation\SampleSwitch\CC2530DB\..\..\ #
#                          ..\..\..\COMPONENTS\STACK\SYS\" -I                 #
#                          "D:\µ{¦¡¶}µo\TI Zigbee Z-Stack\ZStack-CC2530-2.3.0 #
#                          -1.4.0\Projects\zstack\HomeAutomation\SampleSwitch #
#                          \CC2530DB\..\..\..\..\..\COMPONENTS\STACK\ZCL\"    #
#                          -I "D:\µ{¦¡¶}µo\TI Zigbee                          #
#                          Z-Stack\ZStack-CC2530-2.3.0-1.4.0\Projects\zstack\ #
#                          HomeAutomation\SampleSwitch\CC2530DB\..\..\..\..\. #
#                          .\COMPONENTS\STACK\ZDO\" -I "D:\µ{¦¡¶}µo\TI        #
#                          Zigbee Z-Stack\ZStack-CC2530-2.3.0-1.4.0\Projects\ #
#                          zstack\HomeAutomation\SampleSwitch\CC2530DB\..\..\ #
#                          ..\..\..\COMPONENTS\ZMAC\F8W\" -I "D:\µ{¦¡¶}µo\TI  #
#                          Zigbee Z-Stack\ZStack-CC2530-2.3.0-1.4.0\Projects\ #
#                          zstack\HomeAutomation\SampleSwitch\CC2530DB\..\..\ #
#                          ..\..\..\COMPONENTS\ZMAC\" -I "D:\µ{¦¡¶}µo\TI      #
#                          Zigbee Z-Stack\ZStack-CC2530-2.3.0-1.4.0\Projects\ #
#                          zstack\HomeAutomation\SampleSwitch\CC2530DB\..\..\ #
#                          ..\..\..\COMPONENTS\SERVICES\SADDR\" -I            #
#                          "D:\µ{¦¡¶}µo\TI Zigbee Z-Stack\ZStack-CC2530-2.3.0 #
#                          -1.4.0\Projects\zstack\HomeAutomation\SampleSwitch #
#                          \CC2530DB\..\..\..\..\..\COMPONENTS\SERVICES\SDATA #
#                          \" -I "D:\µ{¦¡¶}µo\TI Zigbee                       #
#                          Z-Stack\ZStack-CC2530-2.3.0-1.4.0\Projects\zstack\ #
#                          HomeAutomation\SampleSwitch\CC2530DB\..\..\..\..\. #
#                          .\COMPONENTS\MAC\INCLUDE\" -I "D:\µ{¦¡¶}µo\TI      #
#                          Zigbee Z-Stack\ZStack-CC2530-2.3.0-1.4.0\Projects\ #
#                          zstack\HomeAutomation\SampleSwitch\CC2530DB\..\..\ #
#                          ..\..\..\COMPONENTS\MAC\HIGH_LEVEL\" -I            #
#                          "D:\µ{¦¡¶}µo\TI Zigbee Z-Stack\ZStack-CC2530-2.3.0 #
#                          -1.4.0\Projects\zstack\HomeAutomation\SampleSwitch #
#                          \CC2530DB\..\..\..\..\..\COMPONENTS\MAC\LOW_LEVEL\ #
#                          srf04\" -I "D:\µ{¦¡¶}µo\TI Zigbee                  #
#                          Z-Stack\ZStack-CC2530-2.3.0-1.4.0\Projects\zstack\ #
#                          HomeAutomation\SampleSwitch\CC2530DB\..\..\..\..\. #
#                          .\COMPONENTS\MAC\LOW_LEVEL\srf04\SINGLE_CHIP\" -I  #
#                          "C:\Program Files\IAR Systems\Embedded Workbench   #
#                          5.3\8051\INC\" -I "C:\Program Files\IAR            #
#                          Systems\Embedded Workbench 5.3\8051\INC\CLIB\"     #
#                          -Ohz                                               #
#    List file          =  D:\µ{¦¡¶}µo\TI Zigbee Z-Stack\ZStack-CC2530-2.3.0- #
#                          1.4.0\Projects\zstack\HomeAutomation\SampleSwitch\ #
#                          CC2530DB\CoordinatorKB\List\hal_kit1_lcd.lst       #
#    Object file        =  D:\µ{¦¡¶}µo\TI Zigbee Z-Stack\ZStack-CC2530-2.3.0- #
#                          1.4.0\Projects\zstack\HomeAutomation\SampleSwitch\ #
#                          CC2530DB\CoordinatorKB\Obj\hal_kit1_lcd.r51        #
#                                                                             #
#                                                                             #
###############################################################################

D:\µ{¦¡¶}µo\TI Zigbee Z-Stack\ZStack-CC2530-2.3.0-1.4.0\Components\hal\target\CC2530KB\hal_kit1_lcd.c
      1          /**************************************************************************************************
      2            Filename:       hal_lcd.c
      3            Revised:        $Date: 2009-11-09 20:03:17 -0800 (Mon, 09 Nov 2009) $
      4            Revision:       $Revision: 21106 $
      5          
      6            Description:    This file contains the interface to the HAL LCD Service.
      7          
      8          
      9            Copyright 2007 - 2009 Texas Instruments Incorporated. All rights reserved.
     10          
     11            IMPORTANT: Your use of this Software is limited to those specific rights
     12            granted under the terms of a software license agreement between the user
     13            who downloaded the software, his/her employer (which must be your employer)
     14            and Texas Instruments Incorporated (the "License").  You may not use this
     15            Software unless you agree to abide by the terms of the License. The License
     16            limits your use, and you acknowledge, that the Software may not be modified,
     17            copied or distributed unless embedded on a Texas Instruments microcontroller
     18            or used solely and exclusively in conjunction with a Texas Instruments radio
     19            frequency transceiver, which is integrated into your product.  Other than for
     20            the foregoing purpose, you may not use, reproduce, copy, prepare derivative
     21            works of, modify, distribute, perform, display or sell this Software and/or
     22            its documentation for any purpose.
     23          
     24            YOU FURTHER ACKNOWLEDGE AND AGREE THAT THE SOFTWARE AND DOCUMENTATION ARE
     25            PROVIDED “AS IS?WITHOUT WARRANTY OF ANY KIND, EITHER EXPRESS OR IMPLIED,
     26            INCLUDING WITHOUT LIMITATION, ANY WARRANTY OF MERCHANTABILITY, TITLE,
     27            NON-INFRINGEMENT AND FITNESS FOR A PARTICULAR PURPOSE. IN NO EVENT SHALL
     28            TEXAS INSTRUMENTS OR ITS LICENSORS BE LIABLE OR OBLIGATED UNDER CONTRACT,
     29            NEGLIGENCE, STRICT LIABILITY, CONTRIBUTION, BREACH OF WARRANTY, OR OTHER
     30            LEGAL EQUITABLE THEORY ANY DIRECT OR INDIRECT DAMAGES OR EXPENSES
     31            INCLUDING BUT NOT LIMITED TO ANY INCIDENTAL, SPECIAL, INDIRECT, PUNITIVE
     32            OR CONSEQUENTIAL DAMAGES, LOST PROFITS OR LOST DATA, COST OF PROCUREMENT
     33            OF SUBSTITUTE GOODS, TECHNOLOGY, SERVICES, OR ANY CLAIMS BY THIRD PARTIES
     34            (INCLUDING BUT NOT LIMITED TO ANY DEFENSE THEREOF), OR OTHER SIMILAR COSTS.
     35          
     36            Should you have any questions regarding your right to use this Software,
     37            contact Texas Instruments Incorporated at www.TI.com.
     38          **************************************************************************************************/
     39          
     40          /**************************************************************************************************
     41           *                                           INCLUDES
     42           **************************************************************************************************/
     43          #include "hal_types.h"
     44          #include "hal_kit1_lcd.h"

   \                                 In  segment SFR_AN, at 0x80
   \   union <unnamed> volatile __sfr _A_P0
   \                     _A_P0:
   \   000000                DS 1

   \                                 In  segment SFR_AN, at 0x90
   \   union <unnamed> volatile __sfr _A_P1
   \                     _A_P1:
   \   000000                DS 1

   \                                 In  segment SFR_AN, at 0xa0
   \   union <unnamed> volatile __sfr _A_P2
   \                     _A_P2:
   \   000000                DS 1

   \                                 In  segment SFR_AN, at 0xfd
   \   unsigned char volatile __sfr P0DIR
   \                     P0DIR:
   \   000000                DS 1
     45          #include "OSAL.h"
     46          #include "OnBoard.h"
     47          #include "hal_keypad.h"
     48          #include <string.h>
     49          
     50          #if defined (ZTOOL_P1) || defined (ZTOOL_P2)
     51            #include "DebugTrace.h"
     52          #endif
     53          
     54          //-------------------------------------------------------------------
     55          // English Font  16 x 8   ASCII 32 ~ 127
     56          //-------------------------------------------------------------------

   \                                 In  segment CODE_C, align 1
     57          __code const uint8 Font16x8[]={
   \                     Font16x8:
   \   000000   00000000     DB 0, 0, 0, 0, 0, 0, 0, 0, 0, 0, 0, 0, 0, 0, 0, 0, 0, 0, 112, 248, 248
   \            00000000
   \            00000000
   \            00000000
   \            000070F8
   \            F8      
   \   000015   70000000     DB 112, 0, 0, 0, 0, 0, 13, 13, 0, 0, 0, 0, 28, 60, 0, 0, 0, 60, 28, 0
   \            00000D0D
   \            00000000
   \            1C3C0000
   \            003C1C00
   \   000029   00000000     DB 0, 0, 0, 0, 0, 0, 0, 0, 32, 248, 248, 32, 248, 248, 32, 0, 2, 15, 15
   \            00000000
   \            20F8F820
   \            F8F82000
   \            020F0F  
   \   00003C   020F0F02     DB 2, 15, 15, 2, 0, 112, 248, 136, 142, 142, 152, 48, 0, 6, 12, 8, 56
   \            0070F888
   \            8E8E9830
   \            00060C08
   \            38      
   \   00004D   380F0700     DB 56, 15, 7, 0, 96, 96, 0, 0, 128, 192, 96, 0, 8, 12, 6, 3, 1, 12, 12
   \            60600000
   \            80C06000
   \            080C0603
   \            010C0C  
   \   000060   0000B0F8     DB 0, 0, 176, 248, 200, 120, 176, 128, 0, 7, 15, 8, 9, 7, 15, 8, 0, 32
   \            C878B080
   \            00070F08
   \            09070F08
   \            0020    
   \   000072   3C1C0000     DB 60, 28, 0, 0, 0, 0, 0, 0, 0, 0, 0, 0, 0, 0, 0, 0, 224, 240, 24, 8, 0
   \            00000000
   \            00000000
   \            00000000
   \            E0F01808
   \            00      
   \   000087   00000003     DB 0, 0, 0, 3, 7, 12, 8, 0, 0, 0, 0, 0, 8, 24, 240, 224, 0, 0, 0, 0, 8
   \            070C0800
   \            00000000
   \            0818F0E0
   \            00000000
   \            08      
   \   00009C   0C070300     DB 12, 7, 3, 0, 128, 160, 224, 192, 192, 224, 160, 128, 0, 2, 3, 1, 1
   \            80A0E0C0
   \            C0E0A080
   \            00020301
   \            01      
   \   0000AD   03020080     DB 3, 2, 0, 128, 128, 128, 240, 240, 128, 128, 128, 0, 0, 0, 7, 7, 0, 0
   \            8080F0F0
   \            80808000
   \            00000707
   \            0000    
   \   0000BF   00000000     DB 0, 0, 0, 0, 0, 0, 0, 0, 0, 0, 0, 16, 30, 14, 0, 0, 0, 128, 128, 128
   \            00000000
   \            00000010
   \            1E0E0000
   \            00808080
   \   0000D3   80808080     DB 128, 128, 128, 128, 0, 0, 0, 0, 0, 0, 0, 0, 0, 0, 0, 0, 0, 0, 0, 0
   \            00000000
   \            00000000
   \            00000000
   \            00000000
   \   0000E7   00000000     DB 0, 0, 0, 0, 12, 12, 0, 0, 0, 0, 0, 0, 128, 192, 96, 48, 24, 0, 6, 3
   \            0C0C0000
   \            00000000
   \            80C06030
   \            18000603
   \   0000FB   01000000     DB 1, 0, 0, 0, 0, 0, 240, 248, 136, 200, 104, 248, 240, 0, 7, 15, 9, 8
   \            0000F0F8
   \            88C868F8
   \            F000070F
   \            0908    
   \   00010D   080F0700     DB 8, 15, 7, 0, 0, 32, 48, 248, 248, 0, 0, 0, 0, 8, 8, 15, 15, 8, 8, 0
   \            002030F8
   \            F8000000
   \            0008080F
   \            0F080800
   \   000121   10180888     DB 16, 24, 8, 136, 200, 120, 48, 0, 12, 14, 11, 9, 8, 12, 12, 0, 16, 24
   \            C8783000
   \            0C0E0B09
   \            080C0C00
   \            1018    
   \   000133   888888F8     DB 136, 136, 136, 248, 112, 0, 4, 12, 8, 8, 8, 15, 7, 0, 128, 192, 96
   \            7000040C
   \            0808080F
   \            070080C0
   \            60      
   \   000144   30F8F800     DB 48, 248, 248, 0, 0, 1, 1, 1, 9, 15, 15, 9, 0, 248, 248, 136, 136
   \            00010101
   \            090F0F09
   \            00F8F888
   \            88      
   \   000155   88880800     DB 136, 136, 8, 0, 4, 12, 8, 8, 8, 15, 7, 0, 224, 240, 152, 136, 136
   \            040C0808
   \            080F0700
   \            E0F09888
   \            88      
   \   000166   80000007     DB 128, 0, 0, 7, 15, 8, 8, 8, 15, 7, 0, 24, 24, 8, 136, 200, 120, 56, 0
   \            0F080808
   \            0F070018
   \            180888C8
   \            783800  
   \   000179   00000F0F     DB 0, 0, 15, 15, 0, 0, 0, 0, 112, 248, 136, 136, 136, 248, 112, 0, 7
   \            00000000
   \            70F88888
   \            88F87000
   \            07      
   \   00018A   0F080808     DB 15, 8, 8, 8, 15, 7, 0, 112, 248, 136, 136, 136, 248, 240, 0, 0, 8, 8
   \            0F070070
   \            F8888888
   \            F8F00000
   \            0808    
   \   00019C   080C0703     DB 8, 12, 7, 3, 0, 0, 0, 48, 48, 0, 0, 0, 0, 0, 0, 6, 6, 0, 0, 0, 0, 0
   \            00000030
   \            30000000
   \            00000006
   \            06000000
   \            0000    
   \   0001B2   00303000     DB 0, 48, 48, 0, 0, 0, 0, 0, 8, 14, 6, 0, 0, 0, 0, 128, 192, 96, 48, 24
   \            00000000
   \            080E0600
   \            00000080
   \            C0603018
   \   0001C6   08000000     DB 8, 0, 0, 0, 1, 3, 6, 12, 8, 0, 0, 64, 64, 64, 64, 64, 64, 0, 0, 2, 2
   \            0103060C
   \            08000040
   \            40404040
   \            40000002
   \            02      
   \   0001DB   02020202     DB 2, 2, 2, 2, 0, 0, 8, 24, 48, 96, 192, 128, 0, 0, 8, 12, 6, 3, 1, 0
   \            00000818
   \            3060C080
   \            0000080C
   \            06030100
   \   0001EF   00003038     DB 0, 0, 48, 56, 8, 136, 200, 120, 48, 0, 0, 0, 0, 13, 13, 0, 0, 0, 240
   \            0888C878
   \            30000000
   \            000D0D00
   \            0000F0  
   \   000202   F808C8C8     DB 248, 8, 200, 200, 248, 240, 0, 7, 15, 8, 11, 11, 11, 1, 0, 192, 224
   \            F8F00007
   \            0F080B0B
   \            0B0100C0
   \            E0      
   \   000213   301830E0     DB 48, 24, 48, 224, 192, 0, 15, 15, 1, 1, 1, 15, 15, 0, 8, 248, 248
   \            C0000F0F
   \            0101010F
   \            0F0008F8
   \            F8      
   \   000224   8888F870     DB 136, 136, 248, 112, 0, 8, 15, 15, 8, 8, 15, 7, 0, 224, 240, 24, 8, 8
   \            00080F0F
   \            08080F07
   \            00E0F018
   \            0808    
   \   000236   18300003     DB 24, 48, 0, 3, 7, 12, 8, 8, 12, 6, 0, 8, 248, 248, 8, 24, 240, 224, 0
   \            070C0808
   \            0C060008
   \            F8F80818
   \            F0E000  
   \   000249   080F0F08     DB 8, 15, 15, 8, 12, 7, 3, 0, 8, 248, 248, 136, 200, 24, 56, 0, 8, 15
   \            0C070300
   \            08F8F888
   \            C8183800
   \            080F    
   \   00025B   0F08090C     DB 15, 8, 9, 12, 14, 0, 8, 248, 248, 136, 200, 24, 56, 0, 8, 15, 15, 8
   \            0E0008F8
   \            F888C818
   \            3800080F
   \            0F08    
   \   00026D   01000000     DB 1, 0, 0, 0, 224, 240, 24, 8, 8, 24, 48, 0, 3, 7, 12, 9, 9, 7, 15, 0
   \            E0F01808
   \            08183000
   \            03070C09
   \            09070F00
   \   000281   F8F88080     DB 248, 248, 128, 128, 128, 248, 248, 0, 15, 15, 0, 0, 0, 15, 15, 0, 0
   \            80F8F800
   \            0F0F0000
   \            000F0F00
   \            00      
   \   000292   08F8F808     DB 8, 248, 248, 8, 0, 0, 0, 0, 8, 15, 15, 8, 0, 0, 0, 0, 0, 0, 8, 248
   \            00000000
   \            080F0F08
   \            00000000
   \            000008F8
   \   0002A6   F8080006     DB 248, 8, 0, 6, 14, 8, 8, 15, 7, 0, 0, 8, 248, 248, 128, 224, 120, 24
   \            0E08080F
   \            07000008
   \            F8F880E0
   \            7818    
   \   0002B8   00080F0F     DB 0, 8, 15, 15, 0, 3, 15, 12, 0, 8, 248, 248, 8, 0, 0, 0, 0, 8, 15, 15
   \            00030F0C
   \            0008F8F8
   \            08000000
   \            00080F0F
   \   0002CC   08080C0E     DB 8, 8, 12, 14, 0, 248, 248, 48, 96, 48, 248, 248, 0, 15, 15, 0, 0, 0
   \            00F8F830
   \            6030F8F8
   \            000F0F00
   \            0000    
   \   0002DE   0F0F00F8     DB 15, 15, 0, 248, 248, 112, 224, 192, 248, 248, 0, 15, 15, 0, 0, 1, 15
   \            F870E0C0
   \            F8F8000F
   \            0F000001
   \            0F      
   \   0002EF   0F00E0F0     DB 15, 0, 224, 240, 24, 8, 24, 240, 224, 0, 3, 7, 12, 8, 12, 7, 3, 0, 8
   \            180818F0
   \            E0000307
   \            0C080C07
   \            030008  
   \   000302   F8F88888     DB 248, 248, 136, 136, 248, 112, 0, 8, 15, 15, 8, 0, 0, 0, 0, 240, 248
   \            F8700008
   \            0F0F0800
   \            000000F0
   \            F8      
   \   000313   080808F8     DB 8, 8, 8, 248, 240, 0, 3, 7, 4, 7, 30, 31, 19, 0, 8, 248, 248, 136
   \            F0000307
   \            04071E1F
   \            130008F8
   \            F888    
   \   000325   88F87000     DB 136, 248, 112, 0, 8, 15, 15, 0, 1, 15, 14, 0, 48, 120, 200, 136, 136
   \            080F0F00
   \            010F0E00
   \            3078C888
   \            88      
   \   000336   38300006     DB 56, 48, 0, 6, 14, 8, 8, 9, 15, 6, 24, 8, 8, 248, 248, 8, 8, 24, 0, 0
   \            0E080809
   \            0F061808
   \            08F8F808
   \            08180000
   \   00034A   080F0F08     DB 8, 15, 15, 8, 0, 0, 0, 248, 248, 0, 0, 0, 248, 248, 0, 7, 15, 8, 8
   \            000000F8
   \            F8000000
   \            F8F80007
   \            0F0808  
   \   00035D   080F0700     DB 8, 15, 7, 0, 248, 248, 0, 0, 0, 248, 248, 0, 1, 3, 6, 12, 6, 3, 1, 0
   \            F8F80000
   \            00F8F800
   \            0103060C
   \            06030100
   \   000371   F8F80000     DB 248, 248, 0, 0, 0, 248, 248, 0, 15, 15, 6, 3, 6, 15, 15, 0, 56, 120
   \            00F8F800
   \            0F0F0603
   \            060F0F00
   \            3878    
   \   000383   C080C078     DB 192, 128, 192, 120, 56, 0, 14, 15, 1, 0, 1, 15, 14, 0, 56, 120, 192
   \            38000E0F
   \            0100010F
   \            0E003878
   \            C0      
   \   000394   80C07838     DB 128, 192, 120, 56, 0, 0, 8, 15, 15, 15, 8, 0, 0, 56, 24, 136, 200
   \            0000080F
   \            0F0F0800
   \            00381888
   \            C8      
   \   0003A5   68381800     DB 104, 56, 24, 0, 14, 15, 9, 8, 8, 12, 14, 0, 0, 248, 248, 8, 8, 0, 0
   \            0E0F0908
   \            080C0E00
   \            00F8F808
   \            080000  
   \   0003B8   00000F0F     DB 0, 0, 15, 15, 8, 8, 0, 0, 0, 56, 112, 224, 192, 128, 0, 0, 0, 0, 0
   \            08080000
   \            003870E0
   \            C0800000
   \            000000  
   \   0003CB   00010307     DB 0, 1, 3, 7, 14, 0, 0, 8, 8, 248, 248, 0, 0, 0, 0, 8, 8, 15, 15, 0, 0
   \            0E000008
   \            08F8F800
   \            00000008
   \            080F0F00
   \            00      
   \   0003E0   0010180C     DB 0, 16, 24, 12, 6, 12, 24, 16, 0, 0, 0, 0, 0, 0, 0, 0, 0, 0, 0, 0, 0
   \            060C1810
   \            00000000
   \            00000000
   \            00000000
   \            00      
   \   0003F5   00000000     DB 0, 0, 0, 0, 32, 32, 32, 32, 32, 32, 0, 0, 0, 0, 6, 14, 8, 0, 0, 0, 0
   \            20202020
   \            20200000
   \            0000060E
   \            08000000
   \            00      
   \   00040A   00000000     DB 0, 0, 0, 0, 0, 0, 0, 0, 64, 64, 64, 192, 128, 0, 0, 6, 15, 9, 9, 7
   \            00000000
   \            404040C0
   \            80000006
   \            0F090907
   \   00041E   0F080008     DB 15, 8, 0, 8, 248, 248, 64, 192, 128, 0, 0, 8, 15, 7, 8, 8, 15, 7, 0
   \            F8F840C0
   \            80000008
   \            0F070808
   \            0F0700  
   \   000431   80C04040     DB 128, 192, 64, 64, 64, 192, 128, 0, 7, 15, 8, 8, 8, 12, 4, 0, 0, 128
   \            40C08000
   \            070F0808
   \            080C0400
   \            0080    
   \   000443   C048F8F8     DB 192, 72, 248, 248, 0, 0, 7, 15, 8, 8, 7, 15, 8, 0, 128, 192, 64, 64
   \            0000070F
   \            0808070F
   \            080080C0
   \            4040    
   \   000455   40C08000     DB 64, 192, 128, 0, 7, 15, 9, 9, 9, 13, 5, 0, 128, 240, 248, 136, 152
   \            070F0909
   \            090D0500
   \            80F0F888
   \            98      
   \   000466   30000008     DB 48, 0, 0, 8, 15, 15, 8, 0, 0, 0, 0, 128, 192, 64, 64, 128, 192, 64
   \            0F0F0800
   \            00000080
   \            C0404080
   \            C040    
   \   000478   00133724     DB 0, 19, 55, 36, 36, 63, 31, 0, 0, 8, 248, 248, 128, 64, 192, 128, 0
   \            243F1F00
   \            0008F8F8
   \            8040C080
   \            00      
   \   000489   080F0F00     DB 8, 15, 15, 0, 0, 15, 15, 0, 0, 0, 64, 216, 216, 0, 0, 0, 0, 0, 8, 15
   \            000F0F00
   \            000040D8
   \            D8000000
   \            0000080F
   \   00049D   0F080000     DB 15, 8, 0, 0, 0, 0, 0, 64, 216, 216, 0, 0, 24, 56, 32, 32, 63, 31, 0
   \            00000040
   \            D8D80000
   \            18382020
   \            3F1F00  
   \   0004B0   0008F8F8     DB 0, 8, 248, 248, 0, 128, 192, 64, 0, 8, 15, 15, 1, 3, 14, 12, 0, 0, 0
   \            0080C040
   \            00080F0F
   \            01030E0C
   \            000000  
   \   0004C3   08F8F800     DB 8, 248, 248, 0, 0, 0, 0, 0, 8, 15, 15, 8, 0, 0, 128, 192, 128, 128
   \            00000000
   \            080F0F08
   \            000080C0
   \            8080    
   \   0004D5   80C08000     DB 128, 192, 128, 0, 15, 15, 0, 15, 0, 15, 15, 0, 64, 192, 128, 64, 64
   \            0F0F000F
   \            000F0F00
   \            40C08040
   \            40      
   \   0004E6   C0800000     DB 192, 128, 0, 0, 15, 15, 0, 0, 15, 15, 0, 128, 192, 64, 64, 64, 192
   \            0F0F0000
   \            0F0F0080
   \            C0404040
   \            C0      
   \   0004F7   8000070F     DB 128, 0, 7, 15, 8, 8, 8, 15, 7, 0, 64, 192, 128, 64, 64, 192, 128, 0
   \            0808080F
   \            070040C0
   \            804040C0
   \            8000    
   \   000509   203F3F24     DB 32, 63, 63, 36, 4, 7, 3, 0, 128, 192, 64, 64, 128, 192, 64, 0, 3, 7
   \            04070300
   \            80C04040
   \            80C04000
   \            0307    
   \   00051B   04243F3F     DB 4, 36, 63, 63, 32, 0, 64, 192, 128, 192, 64, 192, 128, 0, 8, 15, 15
   \            200040C0
   \            80C040C0
   \            8000080F
   \            0F      
   \   00052C   08000101     DB 8, 0, 1, 1, 0, 128, 192, 64, 64, 64, 192, 128, 0, 4, 13, 9, 11, 10
   \            0080C040
   \            4040C080
   \            00040D09
   \            0B0A    
   \   00053E   0E040040     DB 14, 4, 0, 64, 64, 240, 248, 64, 64, 0, 0, 0, 0, 7, 15, 8, 12, 4, 0
   \            40F0F840
   \            40000000
   \            00070F08
   \            0C0400  
   \   000551   C0C00000     DB 192, 192, 0, 0, 192, 192, 0, 0, 7, 15, 8, 8, 7, 15, 8, 0, 192, 192
   \            C0C00000
   \            070F0808
   \            070F0800
   \            C0C0    
   \   000563   000000C0     DB 0, 0, 0, 192, 192, 0, 1, 3, 6, 12, 6, 3, 1, 0, 192, 192, 0, 0, 0
   \            C0000103
   \            060C0603
   \            0100C0C0
   \            000000  
   \   000576   C0C00007     DB 192, 192, 0, 7, 15, 12, 6, 12, 15, 7, 0, 64, 192, 128, 0, 128, 192
   \            0F0C060C
   \            0F070040
   \            C0800080
   \            C0      
   \   000587   4000080C     DB 64, 0, 8, 12, 7, 3, 7, 12, 8, 0, 192, 192, 0, 0, 0, 192, 192, 0, 3
   \            0703070C
   \            0800C0C0
   \            000000C0
   \            C00003  
   \   00059A   27242434     DB 39, 36, 36, 52, 31, 15, 0, 192, 192, 64, 64, 192, 192, 64, 0, 8, 12
   \            1F0F00C0
   \            C04040C0
   \            C0400008
   \            0C      
   \   0005AB   0E0B090C     DB 14, 11, 9, 12, 12, 0, 128, 128, 240, 120, 8, 8, 0, 0, 0, 0, 7, 15, 8
   \            0C008080
   \            F0780808
   \            00000000
   \            070F08  
   \   0005BE   08000000     DB 8, 0, 0, 0, 0, 120, 120, 0, 0, 0, 0, 0, 0, 15, 15, 0, 0, 0, 0, 8, 8
   \            00787800
   \            00000000
   \            000F0F00
   \            00000008
   \            08      
   \   0005D3   78F08080     DB 120, 240, 128, 128, 0, 0, 8, 8, 15, 7, 0, 0, 0, 0, 16, 24, 8, 24, 16
   \            00000808
   \            0F070000
   \            00001018
   \            081810  
   \   0005E6   18080000     DB 24, 8, 0, 0, 0, 0, 0, 0, 0, 0, 0, 0, 0, 14, 10, 14, 0, 0, 0, 0, 0, 0
   \            00000000
   \            00000000
   \            000E0A0E
   \            00000000
   \            0000    
   \   0005FC   00000000     DB 0, 0, 0, 0
     58              //   - 32
     59              0x00,0x00,0x00,0x00,0x00,0x00,0x00,0x00,0x00,0x00,0x00,0x00,0x00,0x00,0x00,0x00,
     60              // ! - 33
     61              0x00,0x00,0x70,0xF8,0xF8,0x70,0x00,0x00,0x00,0x00,0x00,0x0D,0x0D,0x00,0x00,0x00,
     62              // " - 34
     63              0x00,0x1C,0x3C,0x00,0x00,0x00,0x3C,0x1C,0x00,0x00,0x00,0x00,0x00,0x00,0x00,0x00,
     64              // # - 35
     65              0x00,0x20,0xF8,0xF8,0x20,0xF8,0xF8,0x20,0x00,0x02,0x0F,0x0F,0x02,0x0F,0x0F,0x02,
     66              // $ - 36
     67              0x00,0x70,0xF8,0x88,0x8E,0x8E,0x98,0x30,0x00,0x06,0x0C,0x08,0x38,0x38,0x0F,0x07,
     68              // % - 37
     69              0x00,0x60,0x60,0x00,0x00,0x80,0xC0,0x60,0x00,0x08,0x0C,0x06,0x03,0x01,0x0C,0x0C,
     70              // & - 38
     71              0x00,0x00,0xB0,0xF8,0xC8,0x78,0xB0,0x80,0x00,0x07,0x0F,0x08,0x09,0x07,0x0F,0x08,
     72              // ' - 39
     73              0x00,0x20,0x3C,0x1C,0x00,0x00,0x00,0x00,0x00,0x00,0x00,0x00,0x00,0x00,0x00,0x00,
     74              // ( - 40
     75              0x00,0x00,0xE0,0xF0,0x18,0x08,0x00,0x00,0x00,0x00,0x03,0x07,0x0C,0x08,0x00,0x00,
     76              // ) - 41
     77              0x00,0x00,0x00,0x08,0x18,0xF0,0xE0,0x00,0x00,0x00,0x00,0x08,0x0C,0x07,0x03,0x00,
     78              // * - 42
     79              0x80,0xA0,0xE0,0xC0,0xC0,0xE0,0xA0,0x80,0x00,0x02,0x03,0x01,0x01,0x03,0x02,0x00,
     80              // + - 43
     81              0x80,0x80,0x80,0xF0,0xF0,0x80,0x80,0x80,0x00,0x00,0x00,0x07,0x07,0x00,0x00,0x00,
     82              // , - 44
     83              0x00,0x00,0x00,0x00,0x00,0x00,0x00,0x00,0x00,0x00,0x10,0x1E,0x0E,0x00,0x00,0x00,
     84              // - - 45
     85              0x80,0x80,0x80,0x80,0x80,0x80,0x80,0x00,0x00,0x00,0x00,0x00,0x00,0x00,0x00,0x00,
     86              // . - 46
     87              0x00,0x00,0x00,0x00,0x00,0x00,0x00,0x00,0x00,0x00,0x00,0x0C,0x0C,0x00,0x00,0x00,
     88              // / - 47
     89              0x00,0x00,0x00,0x80,0xC0,0x60,0x30,0x18,0x00,0x06,0x03,0x01,0x00,0x00,0x00,0x00,
     90              // 0 - 48
     91              0x00,0xF0,0xF8,0x88,0xC8,0x68,0xF8,0xF0,0x00,0x07,0x0F,0x09,0x08,0x08,0x0F,0x07,
     92              // 1 - 49
     93              0x00,0x00,0x20,0x30,0xF8,0xF8,0x00,0x00,0x00,0x00,0x08,0x08,0x0F,0x0F,0x08,0x08,
     94              // 2 - 50
     95              0x00,0x10,0x18,0x08,0x88,0xC8,0x78,0x30,0x00,0x0C,0x0E,0x0B,0x09,0x08,0x0C,0x0C,
     96              // 3 - 51
     97              0x00,0x10,0x18,0x88,0x88,0x88,0xF8,0x70,0x00,0x04,0x0C,0x08,0x08,0x08,0x0F,0x07,
     98              // 4 - 52
     99              0x00,0x80,0xC0,0x60,0x30,0xF8,0xF8,0x00,0x00,0x01,0x01,0x01,0x09,0x0F,0x0F,0x09,
    100              // 5 - 53
    101              0x00,0xF8,0xF8,0x88,0x88,0x88,0x88,0x08,0x00,0x04,0x0C,0x08,0x08,0x08,0x0F,0x07,
    102              // 6 - 54
    103              0x00,0xE0,0xF0,0x98,0x88,0x88,0x80,0x00,0x00,0x07,0x0F,0x08,0x08,0x08,0x0F,0x07,
    104              // 7 - 55
    105              0x00,0x18,0x18,0x08,0x88,0xC8,0x78,0x38,0x00,0x00,0x00,0x0F,0x0F,0x00,0x00,0x00,
    106              // 8 - 56
    107              0x00,0x70,0xF8,0x88,0x88,0x88,0xF8,0x70,0x00,0x07,0x0F,0x08,0x08,0x08,0x0F,0x07,
    108              // 9 - 57
    109              0x00,0x70,0xF8,0x88,0x88,0x88,0xF8,0xF0,0x00,0x00,0x08,0x08,0x08,0x0C,0x07,0x03,
    110              // : - 58
    111              0x00,0x00,0x00,0x30,0x30,0x00,0x00,0x00,0x00,0x00,0x00,0x06,0x06,0x00,0x00,0x00,
    112              // ; - 59
    113              0x00,0x00,0x00,0x30,0x30,0x00,0x00,0x00,0x00,0x00,0x08,0x0E,0x06,0x00,0x00,0x00,
    114              // < - 60
    115              0x00,0x80,0xC0,0x60,0x30,0x18,0x08,0x00,0x00,0x00,0x01,0x03,0x06,0x0C,0x08,0x00,
    116              // = - 61
    117              0x00,0x40,0x40,0x40,0x40,0x40,0x40,0x00,0x00,0x02,0x02,0x02,0x02,0x02,0x02,0x00,
    118              // > - 62
    119              0x00,0x08,0x18,0x30,0x60,0xC0,0x80,0x00,0x00,0x08,0x0C,0x06,0x03,0x01,0x00,0x00,
    120              // ? - 63
    121              0x00,0x30,0x38,0x08,0x88,0xC8,0x78,0x30,0x00,0x00,0x00,0x00,0x0D,0x0D,0x00,0x00,
    122              // @ - 64
    123              0x00,0xF0,0xF8,0x08,0xC8,0xC8,0xF8,0xF0,0x00,0x07,0x0F,0x08,0x0B,0x0B,0x0B,0x01,
    124              // A - 65
    125              0x00,0xC0,0xE0,0x30,0x18,0x30,0xE0,0xC0,0x00,0x0F,0x0F,0x01,0x01,0x01,0x0F,0x0F,
    126              // B - 66
    127              0x00,0x08,0xF8,0xF8,0x88,0x88,0xF8,0x70,0x00,0x08,0x0F,0x0F,0x08,0x08,0x0F,0x07,
    128              // C - 67
    129              0x00,0xE0,0xF0,0x18,0x08,0x08,0x18,0x30,0x00,0x03,0x07,0x0C,0x08,0x08,0x0C,0x06,
    130              // D - 68
    131              0x00,0x08,0xF8,0xF8,0x08,0x18,0xF0,0xE0,0x00,0x08,0x0F,0x0F,0x08,0x0C,0x07,0x03,
    132              // E - 69
    133              0x00,0x08,0xF8,0xF8,0x88,0xC8,0x18,0x38,0x00,0x08,0x0F,0x0F,0x08,0x09,0x0C,0x0E,
    134              // F - 70
    135              0x00,0x08,0xF8,0xF8,0x88,0xC8,0x18,0x38,0x00,0x08,0x0F,0x0F,0x08,0x01,0x00,0x00,
    136              // G - 71
    137              0x00,0xE0,0xF0,0x18,0x08,0x08,0x18,0x30,0x00,0x03,0x07,0x0C,0x09,0x09,0x07,0x0F,
    138              // H - 72
    139              0x00,0xF8,0xF8,0x80,0x80,0x80,0xF8,0xF8,0x00,0x0F,0x0F,0x00,0x00,0x00,0x0F,0x0F,
    140              // I - 73
    141              0x00,0x00,0x08,0xF8,0xF8,0x08,0x00,0x00,0x00,0x00,0x08,0x0F,0x0F,0x08,0x00,0x00,
    142              // J - 74
    143              0x00,0x00,0x00,0x00,0x08,0xF8,0xF8,0x08,0x00,0x06,0x0E,0x08,0x08,0x0F,0x07,0x00,
    144              // K - 75
    145              0x00,0x08,0xF8,0xF8,0x80,0xE0,0x78,0x18,0x00,0x08,0x0F,0x0F,0x00,0x03,0x0F,0x0C,
    146              // L - 76
    147              0x00,0x08,0xF8,0xF8,0x08,0x00,0x00,0x00,0x00,0x08,0x0F,0x0F,0x08,0x08,0x0C,0x0E,
    148              // M - 77
    149              0x00,0xF8,0xF8,0x30,0x60,0x30,0xF8,0xF8,0x00,0x0F,0x0F,0x00,0x00,0x00,0x0F,0x0F,
    150              // N - 78
    151              0x00,0xF8,0xF8,0x70,0xE0,0xC0,0xF8,0xF8,0x00,0x0F,0x0F,0x00,0x00,0x01,0x0F,0x0F,
    152              // O - 79
    153              0x00,0xE0,0xF0,0x18,0x08,0x18,0xF0,0xE0,0x00,0x03,0x07,0x0C,0x08,0x0C,0x07,0x03,
    154              // P - 80
    155              0x00,0x08,0xF8,0xF8,0x88,0x88,0xF8,0x70,0x00,0x08,0x0F,0x0F,0x08,0x00,0x00,0x00,
    156              // Q - 81
    157              0x00,0xF0,0xF8,0x08,0x08,0x08,0xF8,0xF0,0x00,0x03,0x07,0x04,0x07,0x1E,0x1F,0x13,
    158              // R - 82
    159              0x00,0x08,0xF8,0xF8,0x88,0x88,0xF8,0x70,0x00,0x08,0x0F,0x0F,0x00,0x01,0x0F,0x0E,
    160              // S - 83
    161              0x00,0x30,0x78,0xC8,0x88,0x88,0x38,0x30,0x00,0x06,0x0E,0x08,0x08,0x09,0x0F,0x06,
    162              // T - 84
    163              0x18,0x08,0x08,0xF8,0xF8,0x08,0x08,0x18,0x00,0x00,0x08,0x0F,0x0F,0x08,0x00,0x00,
    164              // U - 85
    165              0x00,0xF8,0xF8,0x00,0x00,0x00,0xF8,0xF8,0x00,0x07,0x0F,0x08,0x08,0x08,0x0F,0x07,
    166              // V - 86
    167              0x00,0xF8,0xF8,0x00,0x00,0x00,0xF8,0xF8,0x00,0x01,0x03,0x06,0x0C,0x06,0x03,0x01,
    168              // W - 87
    169              0x00,0xF8,0xF8,0x00,0x00,0x00,0xF8,0xF8,0x00,0x0F,0x0F,0x06,0x03,0x06,0x0F,0x0F,
    170              // X - 88
    171              0x00,0x38,0x78,0xC0,0x80,0xC0,0x78,0x38,0x00,0x0E,0x0F,0x01,0x00,0x01,0x0F,0x0E,
    172              // Y - 89
    173              0x00,0x38,0x78,0xC0,0x80,0xC0,0x78,0x38,0x00,0x00,0x08,0x0F,0x0F,0x0F,0x08,0x00,
    174              // Z - 90
    175              0x00,0x38,0x18,0x88,0xC8,0x68,0x38,0x18,0x00,0x0E,0x0F,0x09,0x08,0x08,0x0C,0x0E,
    176              // [ - 91
    177              0x00,0x00,0xF8,0xF8,0x08,0x08,0x00,0x00,0x00,0x00,0x0F,0x0F,0x08,0x08,0x00,0x00,
    178              // \ - 92
    179              0x00,0x38,0x70,0xE0,0xC0,0x80,0x00,0x00,0x00,0x00,0x00,0x00,0x01,0x03,0x07,0x0E,
    180              // ] - 93
    181              0x00,0x00,0x08,0x08,0xF8,0xF8,0x00,0x00,0x00,0x00,0x08,0x08,0x0F,0x0F,0x00,0x00,
    182              // ^ - 94
    183              0x00,0x10,0x18,0x0C,0x06,0x0C,0x18,0x10,0x00,0x00,0x00,0x00,0x00,0x00,0x00,0x00,
    184              // _ - 95
    185              0x00,0x00,0x00,0x00,0x00,0x00,0x00,0x00,0x00,0x20,0x20,0x20,0x20,0x20,0x20,0x00,
    186              // ` - 96
    187              0x00,0x00,0x00,0x06,0x0E,0x08,0x00,0x00,0x00,0x00,0x00,0x00,0x00,0x00,0x00,0x00,
    188              // a - 97
    189              0x00,0x00,0x40,0x40,0x40,0xC0,0x80,0x00,0x00,0x06,0x0F,0x09,0x09,0x07,0x0F,0x08,
    190              // b - 98
    191              0x00,0x08,0xF8,0xF8,0x40,0xC0,0x80,0x00,0x00,0x08,0x0F,0x07,0x08,0x08,0x0F,0x07,
    192              // c - 99
    193              0x00,0x80,0xC0,0x40,0x40,0x40,0xC0,0x80,0x00,0x07,0x0F,0x08,0x08,0x08,0x0C,0x04,
    194              // d - 100
    195              0x00,0x00,0x80,0xC0,0x48,0xF8,0xF8,0x00,0x00,0x07,0x0F,0x08,0x08,0x07,0x0F,0x08,
    196              // e - 101
    197              0x00,0x80,0xC0,0x40,0x40,0x40,0xC0,0x80,0x00,0x07,0x0F,0x09,0x09,0x09,0x0D,0x05,
    198              // f - 102
    199              0x00,0x80,0xF0,0xF8,0x88,0x98,0x30,0x00,0x00,0x08,0x0F,0x0F,0x08,0x00,0x00,0x00,
    200              // g - 103
    201              0x00,0x80,0xC0,0x40,0x40,0x80,0xC0,0x40,0x00,0x13,0x37,0x24,0x24,0x3F,0x1F,0x00,
    202              // h - 104
    203              0x00,0x08,0xF8,0xF8,0x80,0x40,0xC0,0x80,0x00,0x08,0x0F,0x0F,0x00,0x00,0x0F,0x0F,
    204              // i - 105
    205              0x00,0x00,0x00,0x40,0xD8,0xD8,0x00,0x00,0x00,0x00,0x00,0x08,0x0F,0x0F,0x08,0x00,
    206              // j - 106
    207              0x00,0x00,0x00,0x00,0x40,0xD8,0xD8,0x00,0x00,0x18,0x38,0x20,0x20,0x3F,0x1F,0x00,
    208              // k - 107
    209              0x00,0x08,0xF8,0xF8,0x00,0x80,0xC0,0x40,0x00,0x08,0x0F,0x0F,0x01,0x03,0x0E,0x0C,
    210              // l - 108
    211              0x00,0x00,0x00,0x08,0xF8,0xF8,0x00,0x00,0x00,0x00,0x00,0x08,0x0F,0x0F,0x08,0x00,
    212              // m - 109
    213              0x00,0x80,0xC0,0x80,0x80,0x80,0xC0,0x80,0x00,0x0F,0x0F,0x00,0x0F,0x00,0x0F,0x0F,
    214              // n - 110
    215              0x00,0x40,0xC0,0x80,0x40,0x40,0xC0,0x80,0x00,0x00,0x0F,0x0F,0x00,0x00,0x0F,0x0F,
    216              // o - 111
    217              0x00,0x80,0xC0,0x40,0x40,0x40,0xC0,0x80,0x00,0x07,0x0F,0x08,0x08,0x08,0x0F,0x07,
    218              // p - 112
    219              0x00,0x40,0xC0,0x80,0x40,0x40,0xC0,0x80,0x00,0x20,0x3F,0x3F,0x24,0x04,0x07,0x03,
    220              // q - 113
    221              0x00,0x80,0xC0,0x40,0x40,0x80,0xC0,0x40,0x00,0x03,0x07,0x04,0x24,0x3F,0x3F,0x20,
    222              // r - 114
    223              0x00,0x40,0xC0,0x80,0xC0,0x40,0xC0,0x80,0x00,0x08,0x0F,0x0F,0x08,0x00,0x01,0x01,
    224              // s - 115
    225              0x00,0x80,0xC0,0x40,0x40,0x40,0xC0,0x80,0x00,0x04,0x0D,0x09,0x0B,0x0A,0x0E,0x04,
    226              // t - 116
    227              0x00,0x40,0x40,0xF0,0xF8,0x40,0x40,0x00,0x00,0x00,0x00,0x07,0x0F,0x08,0x0C,0x04,
    228              // u - 117
    229              0x00,0xC0,0xC0,0x00,0x00,0xC0,0xC0,0x00,0x00,0x07,0x0F,0x08,0x08,0x07,0x0F,0x08,
    230              // v - 118
    231              0x00,0xC0,0xC0,0x00,0x00,0x00,0xC0,0xC0,0x00,0x01,0x03,0x06,0x0C,0x06,0x03,0x01,
    232              // w - 119
    233              0x00,0xC0,0xC0,0x00,0x00,0x00,0xC0,0xC0,0x00,0x07,0x0F,0x0C,0x06,0x0C,0x0F,0x07,
    234              // x - 120
    235              0x00,0x40,0xC0,0x80,0x00,0x80,0xC0,0x40,0x00,0x08,0x0C,0x07,0x03,0x07,0x0C,0x08,
    236              // y - 121
    237              0x00,0xC0,0xC0,0x00,0x00,0x00,0xC0,0xC0,0x00,0x03,0x27,0x24,0x24,0x34,0x1F,0x0F,
    238              // z - 122
    239              0x00,0xC0,0xC0,0x40,0x40,0xC0,0xC0,0x40,0x00,0x08,0x0C,0x0E,0x0B,0x09,0x0C,0x0C,
    240              // { - 123
    241              0x00,0x80,0x80,0xF0,0x78,0x08,0x08,0x00,0x00,0x00,0x00,0x07,0x0F,0x08,0x08,0x00,
    242              // | - 124
    243              0x00,0x00,0x00,0x78,0x78,0x00,0x00,0x00,0x00,0x00,0x00,0x0F,0x0F,0x00,0x00,0x00,
    244              // } - 125
    245              0x00,0x08,0x08,0x78,0xF0,0x80,0x80,0x00,0x00,0x08,0x08,0x0F,0x07,0x00,0x00,0x00,
    246              // ~ - 126
    247              0x00,0x10,0x18,0x08,0x18,0x10,0x18,0x08,0x00,0x00,0x00,0x00,0x00,0x00,0x00,0x00,
    248              // d - 127
    249              0x00,0x00,0x00,0x0E,0x0A,0x0E,0x00,0x00,0x00,0x00,0x00,0x00,0x00,0x00,0x00,0x00
    250             
    251              };
    252          
    253          /*******************************************************************************
    254           *                                          CONSTANTS
    255           ******************************************************************************/
    256          /* LCD lines */
    257          #define LCD_LINE_COUNT       2
    258          #define LCD_LINE_LENGTH      16
    259          #define LCD_MAX_BUF          25
    260          /* LCD Control */
    261          #define LCD_EN_SBIT          P2_0
    262          #define LCD_EN_BV            BV(0)
    263          #define LCD_EN_DDR           P2DIR
    264          #define LCD_EN_ACTHIGH       ACTIVE_HIGH
    265          #define LCD_EN_ACTLOW        ACTIVE_LOW
    266          #define LCD_RS_SBIT          P0_6
    267          #define LCD_RS_BV            BV(6)
    268          #define LCD_RS_DDR           P0DIR
    269          #define LCD_RS_ACTHIGH       ACTIVE_HIGH
    270          #define LCD_RS_ACTLOW        ACTIVE_LOW
    271          #define LCD_DATA_SBIT        P1
    272          
    273          /***************** LCD Setting ******************/
    274          //LCD Enable setting
    275          #define HAL_LCD_EN_SET()     st(LCD_EN_SBIT = LCD_EN_ACTHIGH(1);)
    276          #define HAL_LCD_EN_CLR()     st(LCD_EN_SBIT = LCD_EN_ACTLOW(0);)
    277          //LCD RS setting
    278          #define HAL_LCD_RS_SET()     st(LCD_RS_SBIT = LCD_RS_ACTHIGH(1);)
    279          #define HAL_LCD_RS_CLR()     st(LCD_RS_SBIT = LCD_RS_ACTLOW(0);)
    280          //P1 Port data setting
    281          #define HAL_LCD_DATA(val)    st(P1 = val;)
    282          //LCD setting port input, output
    283          #define LCD_RS_DIR_INPUT()   st(P0DIR &= ~BV(6);)
    284          #define LCD_RS_DIR_OUTPUT()  st(P0DIR |= ~BV(6);)
    285          
    286          /************** Constant and Defines ****************/
    287          // Function Set 
    288          #define DOT_5X10_OFF                    0x00
    289          #define DOT_5X10_ON                     0x04
    290          #define DUAL_LINE_OFF                   0x00
    291          #define DUAL_LINE_ON                    0x08
    292          #define BUS_8BIT_OFF                    0x00
    293          #define BUS_8BIT_ON                     0x10
    294          #define FUNCTION_SET(options)           lcdControl(0x20 | (options))
    295          
    296          // Display clear
    297          #define DISPLAY_CLEAR()                 lcdControl(0x01)
    298          
    299          // Set display control
    300          #define DISPLAY_CTRL_ON                 0x04
    301          #define DISPLAY_CTRL_OFF                0x00
    302          #define DISPLAY_CTRL_BLINK_ON           0x01
    303          #define DISPLAY_CTRL_BLINK_OFF          0x00
    304          #define DISPLAY_CTRL_CURSOR_ON          0x02
    305          #define DISPLAY_CTRL_CURSOR_OFF         0x00
    306          #define SET_DISPLAY_CTRL(options)       lcdControl(0x08 | (options))
    307          
    308          // Set enter mode
    309          #define INCREMENT_ON                    0x02
    310          #define INCREMENT_OFF                   0x00
    311          #define DISPLAY_SHIFT_ON                0x01
    312          #define DISPLAY_SHIFT_OFF               0x00
    313          #define SET_ENTER_MODE(options)         lcdControl(0x04 | (options))
    314          
    315          // Set display control
    316          #define SHITF_DISPLAY_ON                0x04
    317          #define SHITF_DISPLAY_OFF               0x00
    318          #define SHITF_RIGHT_ON                  0x02
    319          #define SHITF_RIGHT_OFF                 0x00
    320          #define SET_CURSOR_SHIFT(options)       lcdControl(0x10 | (options))
    321          
    322          // Set Display Start Line
    323          #define LINE1                           0x00
    324          #define LINE2                           0x40
    325          #define SET_DISPLAY_LINE(line)          lcdControl(0x80 | (line))
    326          
    327          /* Set DD/ CGRAM address */
    328          #define SET_DDRAM_ADDR(charIndex)       lcdControl(0x80 | (charIndex))
    329          #define SET_GCRAM_CHAR(specIndex)       lcdControl(0x40 | (specIndex))
    330          
    331          /* Set ICONRAM address */
    332          #define CONTRAST_CTRL_REGISTER          0x10
    333          #define SET_ICONRAM_ADDR(addr)          lcdControl(0x40 | (addr))
    334          
    335          /*******************************************************************************
    336           *                                           MACROS
    337           ******************************************************************************/
    338          //#define HAL_IO_SET(port, pin, val)        HAL_IO_SET_PREP(port, pin, val)
    339          //#define HAL_IO_SET_PREP(port, pin, val)   st( P##port##_##pin## = val; )
    340          //
    341          //#define HAL_CONFIG_IO_OUTPUT(port, pin, val)      HAL_CONFIG_IO_OUTPUT_PREP(port, pin, val)
    342          //#define HAL_CONFIG_IO_OUTPUT_PREP(port, pin, val) st( P##port##SEL &= ~BV(pin); P##port##_##pin## = val; P##port##DIR |= BV(pin); )
    343          //
    344          //#define HAL_CONFIG_IO_PERIPHERAL(port, pin)      HAL_CONFIG_IO_PERIPHERAL_PREP(port, pin)
    345          //#define HAL_CONFIG_IO_PERIPHERAL_PREP(port, pin) st( P##port##SEL |= BV(pin); )
    346          
    347          /**************************************************************************************************
    348           *                                       GLOBAL VARIABLES
    349           **************************************************************************************************/

   \                                 In  segment XDATA_Z, align 1, keep-with-next
    350          static uint8 *Lcd_Line1;
   \                     Lcd_Line1:
   \   000000                DS 2
   \   000002                REQUIRE __INIT_XDATA_Z

   \                                 In  segment XDATA_Z, align 1, keep-with-next
    351          uint8 pLedData;
   \                     pLedData:
   \   000000                DS 1
   \   000001                REQUIRE __INIT_XDATA_Z
    352          //static char pLcdLineBuffer[LCD_LINE_LENGTH];
    353          
    354          /*******************************************************************************
    355           *                                       FUNCTIONS - API
    356           ******************************************************************************/
    357          #if (HAL_LCD == TRUE)
    358          void HalLcd_HW_WaitUs(uint16 i);
    359          void HalLcd_HW_Clear(void);  
    360          void HalLcd_HW_ClearAllSpecChars(void);
    361          void HalLcd_HW_SetContrast(uint8 value);
    362          void HalLcd_HW_WriteLine(uint8 line, const char *pText);
    363          //MCU-KIT1
    364          static void halLcdInit(void);
    365          static void lcdControl(uint8 command); // MCU-KIT2 lcdCommand
    366          static void lcdWrite(uint8 ch);        // MCU-KIT2 lcdData
    367          static void halLcdWriteChar(uint8 line, uint8 col, char text); //MCU-KIT2 lcdUpdataChar
    368          #endif //LCD
    369          
    370          /*******************************************************************************
    371           * @fn      HalLcdInit
    372           *
    373           * @brief   Initilize LCD Service
    374           *
    375           * @param   init - pointer to void that contains the initialized value
    376           *
    377           * @return  None
    378           ******************************************************************************/

   \                                 In  segment BANKED_CODE, align 1, keep-with-next
    379          void HalLcdInit(void)
   \                     HalLcdInit:
    380          {
   \   000000   C082         PUSH    DPL
   \   000002   C083         PUSH    DPH
   \   000004                ; Saved register size: 2
   \   000004                ; Auto size: 0
    381            Lcd_Line1 = NULL;
   \   000004   90....       MOV     DPTR,#Lcd_Line1
   \   000007   E4           CLR     A
   \   000008   F0           MOVX    @DPTR,A
   \   000009   A3           INC     DPTR
   \   00000A   F0           MOVX    @DPTR,A
    382          #if (HAL_LCD == TRUE)
    383            halLcdInit();
   \   00000B   43FDBF       ORL     0xfd,#0xbf
   \   00000E   E5FD         MOV     A,0xfd
   \   000010   D2A0         SETB    0xa0.0
   \   000012                ; Setup parameters for call to function halMcuWaitMs
   \   000012   7A1E         MOV     R2,#0x1e
   \   000014   12....       LCALL   ?Subroutine1 & 0xFFFF
   \                     ??CrossCallReturnLabel_0:
   \   000017                ; Setup parameters for call to function lcdControl
   \   000017   7930         MOV     R1,#0x30
   \   000019   12....       LCALL   ??lcdControl?relay
   \   00001C                ; Setup parameters for call to function halMcuWaitMs
   \   00001C   7A02         MOV     R2,#0x2
   \   00001E   12....       LCALL   ?Subroutine1 & 0xFFFF
   \                     ??CrossCallReturnLabel_1:
   \   000021                ; Setup parameters for call to function lcdControl
   \   000021   12....       LCALL   ?Subroutine2 & 0xFFFF
   \                     ??CrossCallReturnLabel_7:
   \   000024                ; Setup parameters for call to function lcdControl
   \   000024   12....       LCALL   ?Subroutine2 & 0xFFFF
   \                     ??CrossCallReturnLabel_8:
   \   000027                ; Setup parameters for call to function lcdControl
   \   000027   7910         MOV     R1,#0x10
   \   000029   12....       LCALL   ??lcdControl?relay
   \   00002C                ; Setup parameters for call to function lcdControl
   \   00002C   7906         MOV     R1,#0x6
   \   00002E   12....       LCALL   ??lcdControl?relay
   \   000031                ; Setup parameters for call to function lcdControl
   \   000031   7901         MOV     R1,#0x1
   \   000033   12....       LCALL   ??Subroutine13_0 & 0xFFFF
   \                     ??CrossCallReturnLabel_9:
   \   000036                ; Setup parameters for call to function HalLcd_HW_Clear
   \   000036   12....       LCALL   ??HalLcd_HW_Clear?relay
   \   000039                ; Setup parameters for call to function lcdControl
   \   000039   790C         MOV     R1,#0xc
   \   00003B   12....       LCALL   ??lcdControl?relay
    384          #endif
    385          }
   \   00003E   02....       LJMP    ??Subroutine18_0 & 0xFFFF
   \   000041                REQUIRE _A_P2
   \   000041                REQUIRE P0DIR

   \                                 In  segment BANKED_CODE, align 1, keep-with-next
   \                     ??Subroutine18_0:
   \   000000   D083         POP     DPH
   \   000002   D082         POP     DPL
   \   000004   02....       LJMP    ?BRET
    386          
    387          /*************************************************************************************************
    388           *                    LCD EMULATION FUNCTIONS
    389           *
    390           * Some evaluation boards are equipped with Liquid Crystal Displays
    391           * (LCD) which may be used to display diagnostic information. These
    392           * functions provide LCD emulation, sending the diagnostic strings
    393           * to Z-Tool via the RS232 serial port. These functions are enabled
    394           * when the "LCD_SUPPORTED" compiler flag is placed in the makefile.
    395           *
    396           * Most applications update both lines (1 and 2) of the LCD whenever
    397           * text is posted to the device. This emulator assumes that line 1 is
    398           * updated first (saved locally) and the formatting and send operation
    399           * is triggered by receipt of line 2. Nothing will be transmitted if
    400           * only line 1 is updated.
    401           *
    402           *************************************************************************************************/
    403          
    404          /*******************************************************************************
    405           * @fn      HalLcdWriteString
    406           *
    407           * @brief   Write a string to the LCD
    408           *
    409           * @param   str    - pointer to the string that will be displayed
    410           *          option - display options
    411           *
    412           * @return  None
    413           ******************************************************************************/

   \                                 In  segment BANKED_CODE, align 1, keep-with-next
    414          void HalLcdWriteString ( char *str, uint8 option)
   \                     HalLcdWriteString:
    415          {
   \   000000   74E8         MOV     A,#-0x18
   \   000002   12....       LCALL   ?BANKED_ENTER_XDATA
   \   000005                ; Saved register size: 24
   \   000005                ; Auto size: 0
   \   000005   8A..         MOV     ?V0 + 14,R2
   \   000007   8B..         MOV     ?V0 + 15,R3
   \   000009   89..         MOV     ?V0 + 3,R1
    416          #if (HAL_LCD == TRUE)
    417          
    418            uint8 strLen = 0;
    419            uint8 totalLen = 0;
    420            uint8 *buf;
    421            uint8 tmpLen;
    422          
    423            if ( Lcd_Line1 == NULL )
   \   00000B   90....       MOV     DPTR,#Lcd_Line1
   \   00000E   E0           MOVX    A,@DPTR
   \   00000F   7002         JNZ     ??HalLcdWriteString_0
   \   000011   A3           INC     DPTR
   \   000012   E0           MOVX    A,@DPTR
   \                     ??HalLcdWriteString_0:
   \   000013   700F         JNZ     ??HalLcdWriteString_1
    424            {
    425              Lcd_Line1 = osal_mem_alloc( LCD_LINE_LENGTH+1 );
   \   000015                ; Setup parameters for call to function osal_mem_alloc
   \   000015   7A11         MOV     R2,#0x11
   \   000017   7B00         MOV     R3,#0x0
   \   000019   12....       LCALL   ??osal_mem_alloc?relay
   \   00001C   90....       MOV     DPTR,#Lcd_Line1
   \   00001F   EA           MOV     A,R2
   \   000020   F0           MOVX    @DPTR,A
   \   000021   A3           INC     DPTR
   \   000022   EB           MOV     A,R3
   \   000023   F0           MOVX    @DPTR,A
    426              //HalLcdWriteString( "TexasInstruments", 1 );
    427            }
    428          
    429            strLen = (uint8)osal_strlen( (char*)str );
   \                     ??HalLcdWriteString_1:
   \   000024                ; Setup parameters for call to function osal_strlen
   \   000024   AA..         MOV     R2,?V0 + 14
   \   000026   AB..         MOV     R3,?V0 + 15
   \   000028   12....       LCALL   ??osal_strlen?relay
   \   00002B   EA           MOV     A,R2
   \   00002C   F5..         MOV     ?V0 + 4,A
    430          
    431            /* Check boundries */
    432            if ( strLen > LCD_LINE_LENGTH )
   \   00002E   C3           CLR     C
   \   00002F   9411         SUBB    A,#0x11
   \   000031   4003         JC      ??HalLcdWriteString_2
    433              strLen = LCD_LINE_LENGTH;
   \   000033   75..10       MOV     ?V0 + 4,#0x10
    434          
    435            if ( option == HAL_LCD_LINE_1 )
   \                     ??HalLcdWriteString_2:
   \   000036   85..82       MOV     DPL,?V0 + 4
   \   000039   8582..       MOV     ?V0 + 12,DPL
   \   00003C   85....       MOV     ?V0 + 0,?V0 + 14
   \   00003F   85....       MOV     ?V0 + 1,?V0 + 15
   \   000042   75..00       MOV     ?V0 + 2,#0x0
   \   000045   AE82         MOV     R6,DPL
   \   000047   7401         MOV     A,#0x1
   \   000049   65..         XRL     A,?V0 + 3
   \   00004B   702B         JNZ     ??HalLcdWriteString_3
    436            {
    437              /* Line 1 gets saved for later */
    438              osal_memcpy( Lcd_Line1, str, strLen );
   \   00004D                ; Setup parameters for call to function osal_memcpy
   \   00004D   78..         MOV     R0,#?V0 + 0
   \   00004F   12....       LCALL   ?PUSH_XSTACK_I_THREE
   \   000052   EE           MOV     A,R6
   \   000053   FC           MOV     R4,A
   \   000054   7D00         MOV     R5,#0x0
   \   000056   90....       MOV     DPTR,#Lcd_Line1
   \   000059   E0           MOVX    A,@DPTR
   \   00005A   FA           MOV     R2,A
   \   00005B   A3           INC     DPTR
   \   00005C   E0           MOVX    A,@DPTR
   \   00005D   FB           MOV     R3,A
   \   00005E   12....       LCALL   ??Subroutine15_0 & 0xFFFF
   \                     ??CrossCallReturnLabel_19:
   \   000061   12....       LCALL   ?DEALLOC_XSTACK8
    439              Lcd_Line1[strLen] = '\0';
   \   000064   90....       MOV     DPTR,#Lcd_Line1
   \   000067   E0           MOVX    A,@DPTR
   \   000068   25..         ADD     A,?V0 + 12
   \   00006A   FA           MOV     R2,A
   \   00006B   A3           INC     DPTR
   \   00006C   E0           MOVX    A,@DPTR
   \   00006D   3400         ADDC    A,#0x0
   \   00006F   8A82         MOV     DPL,R2
   \   000071   F583         MOV     DPH,A
   \   000073   E4           CLR     A
   \   000074   F0           MOVX    @DPTR,A
   \   000075   02....       LJMP    ??HalLcdWriteString_4 & 0xFFFF
    440            }
    441            else
    442            {
    443              /* Line 2 triggers action */
    444              tmpLen = (uint8)osal_strlen( (char*)Lcd_Line1 );
   \                     ??HalLcdWriteString_3:
   \   000078                ; Setup parameters for call to function osal_strlen
   \   000078   90....       MOV     DPTR,#Lcd_Line1
   \   00007B   E0           MOVX    A,@DPTR
   \   00007C   FA           MOV     R2,A
   \   00007D   A3           INC     DPTR
   \   00007E   E0           MOVX    A,@DPTR
   \   00007F   FB           MOV     R3,A
   \   000080   12....       LCALL   ??osal_strlen?relay
   \   000083   EA           MOV     A,R2
   \   000084   F5..         MOV     ?V0 + 6,A
    445              totalLen =  tmpLen + 1 + strLen + 1;
    446              buf = osal_mem_alloc( totalLen );
   \   000086                ; Setup parameters for call to function osal_mem_alloc
   \   000086   EE           MOV     A,R6
   \   000087   25..         ADD     A,?V0 + 6
   \   000089   2402         ADD     A,#0x2
   \   00008B   FA           MOV     R2,A
   \   00008C   7B00         MOV     R3,#0x0
   \   00008E   12....       LCALL   ??osal_mem_alloc?relay
   \   000091   8A..         MOV     ?V0 + 4,R2
   \   000093   8B..         MOV     ?V0 + 5,R3
    447              if ( buf != NULL )
   \   000095   EA           MOV     A,R2
   \   000096   7001         JNZ     ??HalLcdWriteString_5
   \   000098   EB           MOV     A,R3
   \                     ??HalLcdWriteString_5:
   \   000099   6067         JZ      ??HalLcdWriteString_4
    448              {
    449                /* Concatenate strings */
    450                osal_memcpy( buf, Lcd_Line1, tmpLen );
   \   00009B                ; Setup parameters for call to function osal_memcpy
   \   00009B   90....       MOV     DPTR,#Lcd_Line1
   \   00009E   E0           MOVX    A,@DPTR
   \   00009F   F5..         MOV     ?V0 + 8,A
   \   0000A1   A3           INC     DPTR
   \   0000A2   E0           MOVX    A,@DPTR
   \   0000A3   F5..         MOV     ?V0 + 9,A
   \   0000A5   75..00       MOV     ?V0 + 10,#0x0
   \   0000A8   78..         MOV     R0,#?V0 + 8
   \   0000AA   12....       LCALL   ?PUSH_XSTACK_I_THREE
   \   0000AD   AC..         MOV     R4,?V0 + 6
   \   0000AF   7D00         MOV     R5,#0x0
   \   0000B1   12....       LCALL   ??Subroutine15_0 & 0xFFFF
   \                     ??CrossCallReturnLabel_20:
   \   0000B4   12....       LCALL   ?DEALLOC_XSTACK8
    451                buf[tmpLen++] = ' ';
   \   0000B7   85....       MOV     ?V0 + 8,?V0 + 6
   \   0000BA   E5..         MOV     A,?V0 + 4
   \   0000BC   25..         ADD     A,?V0 + 8
   \   0000BE   F582         MOV     DPL,A
   \   0000C0   E5..         MOV     A,?V0 + 5
   \   0000C2   12....       LCALL   ??Subroutine14_0 & 0xFFFF
   \                     ??CrossCallReturnLabel_12:
   \   0000C5   05..         INC     ?V0 + 6
    452                osal_memcpy( &buf[tmpLen], str, strLen );
   \   0000C7                ; Setup parameters for call to function osal_memcpy
   \   0000C7   78..         MOV     R0,#?V0 + 0
   \   0000C9   12....       LCALL   ?PUSH_XSTACK_I_THREE
   \   0000CC   EE           MOV     A,R6
   \   0000CD   FC           MOV     R4,A
   \   0000CE   7D00         MOV     R5,#0x0
   \   0000D0   E5..         MOV     A,?V0 + 4
   \   0000D2   25..         ADD     A,?V0 + 6
   \   0000D4   FA           MOV     R2,A
   \   0000D5   E5..         MOV     A,?V0 + 5
   \   0000D7   3400         ADDC    A,#0x0
   \   0000D9   FB           MOV     R3,A
   \   0000DA   12....       LCALL   ??Subroutine15_0 & 0xFFFF
   \                     ??CrossCallReturnLabel_21:
   \   0000DD   12....       LCALL   ?DEALLOC_XSTACK8
    453                buf[tmpLen+strLen] = '\0';
   \   0000E0   EE           MOV     A,R6
   \   0000E1   25..         ADD     A,?V0 + 6
   \   0000E3   F8           MOV     R0,A
   \   0000E4   E4           CLR     A
   \   0000E5   3400         ADDC    A,#0x0
   \   0000E7   F9           MOV     R1,A
   \   0000E8   E5..         MOV     A,?V0 + 4
   \   0000EA   28           ADD     A,R0
   \   0000EB   F582         MOV     DPL,A
   \   0000ED   E5..         MOV     A,?V0 + 5
   \   0000EF   39           ADDC    A,R1
   \   0000F0   F583         MOV     DPH,A
   \   0000F2   E4           CLR     A
   \   0000F3   F0           MOVX    @DPTR,A
    454          
    455                /* Send it out */
    456          #if defined (ZTOOL_P1) || defined (ZTOOL_P2)
    457          
    458          #if defined(SERIAL_DEBUG_SUPPORTED)
    459                debug_str( (uint8*)buf );
   \   0000F4                ; Setup parameters for call to function debug_str
   \   0000F4   AA..         MOV     R2,?V0 + 4
   \   0000F6   AB..         MOV     R3,?V0 + 5
   \   0000F8   12....       LCALL   ??debug_str?relay
    460          #endif //LCD_SUPPORTED
    461          
    462          #endif //ZTOOL_P1
    463          
    464                /* Free mem */
    465                osal_mem_free( buf );
   \   0000FB                ; Setup parameters for call to function osal_mem_free
   \   0000FB   AA..         MOV     R2,?V0 + 4
   \   0000FD   AB..         MOV     R3,?V0 + 5
   \   0000FF   12....       LCALL   ??osal_mem_free?relay
    466              }
    467            }
    468          
    469            /* Display the string */
    470            HalLcd_HW_WriteLine (option, str);
   \                     ??HalLcdWriteString_4:
   \   000102                ; Setup parameters for call to function HalLcd_HW_WriteLine
   \   000102   AA..         MOV     R2,?V0 + 14
   \   000104   AB..         MOV     R3,?V0 + 15
   \   000106   A9..         MOV     R1,?V0 + 3
   \   000108   12....       LCALL   ??HalLcd_HW_WriteLine?relay
    471          
    472          #endif //HAL_LCD
    473          
    474          }
   \   00010B   7F10         MOV     R7,#0x10
   \   00010D   02....       LJMP    ?BANKED_LEAVE_XDATA

   \                                 In  segment BANKED_CODE, align 1, keep-with-next
   \                     ??Subroutine14_0:
   \   000000   3400         ADDC    A,#0x0
   \   000002   F583         MOV     DPH,A
   \   000004   7420         MOV     A,#0x20
   \   000006   F0           MOVX    @DPTR,A
   \   000007   22           RET

   \                                 In  segment BANKED_CODE, align 1, keep-with-next
   \                     ??Subroutine15_0:
   \   000000   12....       LCALL   ??osal_memcpy?relay
   \   000003   7403         MOV     A,#0x3
   \   000005   22           RET
    475          
    476          /**************************************************************************************************
    477           * @fn      HalLcdWriteValue
    478           *
    479           * @brief   Write a value to the LCD
    480           *
    481           * @param   value  - value that will be displayed
    482           *          radix  - 8, 10, 16
    483           *          option - display options
    484           *
    485           * @return  None
    486           **************************************************************************************************/

   \                                 In  segment BANKED_CODE, align 1, keep-with-next
    487          void HalLcdWriteValue ( uint32 value, const uint8 radix, uint8 option)
   \                     HalLcdWriteValue:
    488          {
   \   000000   74F2         MOV     A,#-0xe
   \   000002   12....       LCALL   ?BANKED_ENTER_XDATA
   \   000005                ; Saved register size: 14
   \   000005                ; Auto size: 25
   \   000005   74E7         MOV     A,#-0x19
   \   000007   12....       LCALL   ?ALLOC_XSTACK8
   \   00000A   7427         MOV     A,#0x27
   \   00000C   12....       LCALL   ?XSTACK_DISP0_8
   \   00000F   E0           MOVX    A,@DPTR
   \   000010   FE           MOV     R6,A
    489          #if (HAL_LCD == TRUE)
    490            uint8 buf[LCD_MAX_BUF];
    491          
    492            _ltoa( value, &buf[0], radix );
   \   000011                ; Setup parameters for call to function _ltoa
   \   000011   85..82       MOV     DPL,?XSP + 0
   \   000014   85..83       MOV     DPH,?XSP + 1
   \   000017   8582..       MOV     ?V0 + 4,DPL
   \   00001A   8583..       MOV     ?V0 + 5,DPH
   \   00001D   78..         MOV     R0,#?V0 + 4
   \   00001F   12....       LCALL   ?PUSH_XSTACK_I_TWO
   \   000022   12....       LCALL   ??Subroutine17_0 & 0xFFFF
   \                     ??CrossCallReturnLabel_26:
   \   000025   12....       LCALL   ?DEALLOC_XSTACK8
    493            HalLcdWriteString( (char*)buf, option );
   \   000028                ; Setup parameters for call to function HalLcdWriteString
   \   000028   EE           MOV     A,R6
   \   000029   F9           MOV     R1,A
   \   00002A   85..82       MOV     DPL,?XSP + 0
   \   00002D   85..83       MOV     DPH,?XSP + 1
   \   000030   AA82         MOV     R2,DPL
   \   000032   AB83         MOV     R3,DPH
   \   000034   12....       LCALL   ??HalLcdWriteString?relay
    494          #endif
    495          }
   \   000037   7419         MOV     A,#0x19
   \   000039   12....       LCALL   ?DEALLOC_XSTACK8
   \   00003C   7F06         MOV     R7,#0x6
   \   00003E   02....       LJMP    ?BANKED_LEAVE_XDATA

   \                                 In  segment BANKED_CODE, align 1, keep-with-next
   \                     ??Subroutine17_0:
   \   000000   12....       LCALL   ??_ltoa?relay
   \   000003   7402         MOV     A,#0x2
   \   000005   22           RET
    496          
    497          /**************************************************************************************************
    498           * @fn      HalLcdWriteScreen
    499           *
    500           * @brief   Write a value to the LCD
    501           *
    502           * @param   line1  - string that will be displayed on line 1
    503           *          line2  - string that will be displayed on line 2
    504           *
    505           * @return  None
    506           **************************************************************************************************/

   \                                 In  segment BANKED_CODE, align 1, keep-with-next
    507          void HalLcdWriteScreen( char *line1, char *line2 )
   \                     HalLcdWriteScreen:
    508          {
   \   000000   74F7         MOV     A,#-0x9
   \   000002   12....       LCALL   ?BANKED_ENTER_XDATA
   \   000005                ; Saved register size: 9
   \   000005                ; Auto size: 0
   \   000005   EC           MOV     A,R4
   \   000006   FE           MOV     R6,A
   \   000007   ED           MOV     A,R5
   \   000008   FF           MOV     R7,A
    509          #if (HAL_LCD == TRUE)
    510            HalLcdWriteString( line1, 1 );
   \   000009                ; Setup parameters for call to function HalLcdWriteString
   \   000009   7901         MOV     R1,#0x1
   \   00000B   12....       LCALL   ??HalLcdWriteString?relay
    511            HalLcdWriteString( line2, 2 );
   \   00000E                ; Setup parameters for call to function HalLcdWriteString
   \   00000E   7902         MOV     R1,#0x2
   \   000010   EE           MOV     A,R6
   \   000011   FA           MOV     R2,A
   \   000012   EF           MOV     A,R7
   \   000013   FB           MOV     R3,A
   \   000014   12....       LCALL   ??HalLcdWriteString?relay
    512          #endif
    513          }
   \   000017                REQUIRE ?Subroutine11
   \   000017                ; // Fall through to label ?Subroutine11

   \                                 In  segment BANKED_CODE, align 1, keep-with-next
   \                     ?Subroutine11:
   \   000000   7F01         MOV     R7,#0x1
   \   000002   02....       LJMP    ?BANKED_LEAVE_XDATA
    514          
    515          /**************************************************************************************************
    516           * @fn      HalLcdWriteStringValue
    517           *
    518           * @brief   Write a string followed by a value to the LCD
    519           *
    520           * @param   title  - Title that will be displayed before the value
    521           *          value  - value
    522           *          format - redix
    523           *          line   - line number
    524           *
    525           * @return  None
    526           **************************************************************************************************/

   \                                 In  segment BANKED_CODE, align 1, keep-with-next
    527          void HalLcdWriteStringValue( char *title, uint16 value, uint8 format, uint8 line )
   \                     HalLcdWriteStringValue:
    528          {
   \   000000   74EE         MOV     A,#-0x12
   \   000002   12....       LCALL   ?BANKED_ENTER_XDATA
   \   000005                ; Saved register size: 18
   \   000005                ; Auto size: 25
   \   000005   74E7         MOV     A,#-0x19
   \   000007   12....       LCALL   ?ALLOC_XSTACK8
   \   00000A   EA           MOV     A,R2
   \   00000B   FE           MOV     R6,A
   \   00000C   EB           MOV     A,R3
   \   00000D   FF           MOV     R7,A
   \   00000E   8C..         MOV     ?V0 + 6,R4
   \   000010   8D..         MOV     ?V0 + 7,R5
   \   000012   89..         MOV     ?V0 + 4,R1
   \   000014   742B         MOV     A,#0x2b
   \   000016   12....       LCALL   ?XSTACK_DISP0_8
   \   000019   E0           MOVX    A,@DPTR
   \   00001A   F5..         MOV     ?V0 + 3,A
    529          #if (HAL_LCD == TRUE)
    530            uint8 tmpLen;
    531            uint8 buf[LCD_MAX_BUF];
    532            uint32 err;
    533          
    534            tmpLen = (uint8)osal_strlen( (char*)title );
   \   00001C                ; Setup parameters for call to function osal_strlen
   \   00001C   12....       LCALL   ?Subroutine7 & 0xFFFF
    535            osal_memcpy( buf, title, tmpLen );
   \                     ??CrossCallReturnLabel_2:
   \   00001F                ; Setup parameters for call to function osal_memcpy
   \   00001F   8E..         MOV     ?V0 + 0,R6
   \   000021   8F..         MOV     ?V0 + 1,R7
   \   000023   75..00       MOV     ?V0 + 2,#0x0
   \   000026   78..         MOV     R0,#?V0 + 0
   \   000028   12....       LCALL   ?PUSH_XSTACK_I_THREE
   \   00002B   EA           MOV     A,R2
   \   00002C   FC           MOV     R4,A
   \   00002D   7D00         MOV     R5,#0x0
   \   00002F   7403         MOV     A,#0x3
   \   000031   12....       LCALL   ?XSTACK_DISP0_8
   \   000034   12....       LCALL   ?Subroutine4 & 0xFFFF
   \                     ??CrossCallReturnLabel_16:
   \   000037   12....       LCALL   ?DEALLOC_XSTACK8
    536            buf[tmpLen] = ' ';
   \   00003A   85..82       MOV     DPL,?XSP + 0
   \   00003D   85..83       MOV     DPH,?XSP + 1
   \   000040   E582         MOV     A,DPL
   \   000042   25..         ADD     A,?V0 + 8
   \   000044   12....       LCALL   ?Subroutine3 & 0xFFFF
    537            err = (uint32)(value);
    538            _ltoa( err, &buf[tmpLen+1], format );
   \                     ??CrossCallReturnLabel_13:
   \   000047                ; Setup parameters for call to function _ltoa
   \   000047   A3           INC     DPTR
   \   000048   8582..       MOV     ?V0 + 0,DPL
   \   00004B   8583..       MOV     ?V0 + 1,DPH
   \   00004E   78..         MOV     R0,#?V0 + 0
   \   000050   12....       LCALL   ?PUSH_XSTACK_I_TWO
   \   000053   A9..         MOV     R1,?V0 + 4
   \   000055   AA..         MOV     R2,?V0 + 6
   \   000057   AB..         MOV     R3,?V0 + 7
   \   000059   12....       LCALL   ??Subroutine16_0 & 0xFFFF
   \                     ??CrossCallReturnLabel_24:
   \   00005C   12....       LCALL   ?DEALLOC_XSTACK8
    539            HalLcdWriteString( (char*)buf, line );		
   \   00005F                ; Setup parameters for call to function HalLcdWriteString
   \   00005F   A9..         MOV     R1,?V0 + 3
   \   000061                REQUIRE ?Subroutine12
   \   000061                ; // Fall through to label ?Subroutine12
    540          #endif
    541          }

   \                                 In  segment BANKED_CODE, align 1, keep-with-next
   \                     ?Subroutine12:
   \   000000   85..82       MOV     DPL,?XSP + 0
   \   000003   85..83       MOV     DPH,?XSP + 1
   \   000006   AA82         MOV     R2,DPL
   \   000008   AB83         MOV     R3,DPH
   \   00000A   12....       LCALL   ??HalLcdWriteString?relay
   \   00000D   7419         MOV     A,#0x19
   \   00000F   12....       LCALL   ?DEALLOC_XSTACK8
   \   000012   7F0A         MOV     R7,#0xa
   \   000014   02....       LJMP    ?BANKED_LEAVE_XDATA

   \                                 In  segment BANKED_CODE, align 1, keep-with-next
   \                     ?Subroutine3:
   \   000000   F582         MOV     DPL,A
   \   000002   E583         MOV     A,DPH
   \   000004                REQUIRE ??Subroutine14_0
   \   000004                ; // Fall through to label ??Subroutine14_0

   \                                 In  segment BANKED_CODE, align 1, keep-with-next
   \                     ?Subroutine7:
   \   000000   12....       LCALL   ??osal_strlen?relay
   \   000003   EA           MOV     A,R2
   \   000004   F5..         MOV     ?V0 + 8,A
   \   000006   22           RET

   \                                 In  segment BANKED_CODE, align 1, keep-with-next
   \                     ?Subroutine4:
   \   000000   AA82         MOV     R2,DPL
   \   000002   AB83         MOV     R3,DPH
   \   000004                REQUIRE ??Subroutine15_0
   \   000004                ; // Fall through to label ??Subroutine15_0

   \                                 In  segment BANKED_CODE, align 1, keep-with-next
   \                     ??Subroutine16_0:
   \   000000   7C00         MOV     R4,#0x0
   \   000002   7D00         MOV     R5,#0x0
   \   000004                REQUIRE ??Subroutine17_0
   \   000004                ; // Fall through to label ??Subroutine17_0
    542          
    543          /**************************************************************************************************
    544           * @fn      HalLcdWriteStringValue
    545           *
    546           * @brief   Write a string followed by a value to the LCD
    547           *
    548           * @param   title   - Title that will be displayed before the value
    549           *          value1  - value #1
    550           *          format1 - redix of value #1
    551           *          value2  - value #2
    552           *          format2 - redix of value #2
    553           *          line    - line number
    554           *
    555           * @return  None
    556           **************************************************************************************************/

   \                                 In  segment BANKED_CODE, align 1, keep-with-next
    557          void HalLcdWriteStringValueValue( char *title, uint16 value1, uint8 format1,
   \                     HalLcdWriteStringValueValue:
    558                                            uint16 value2, uint8 format2, uint8 line )
    559          {
   \   000000   74EE         MOV     A,#-0x12
   \   000002   12....       LCALL   ?BANKED_ENTER_XDATA
   \   000005                ; Saved register size: 18
   \   000005                ; Auto size: 25
   \   000005   74E7         MOV     A,#-0x19
   \   000007   12....       LCALL   ?ALLOC_XSTACK8
   \   00000A   8A..         MOV     ?V0 + 4,R2
   \   00000C   8B..         MOV     ?V0 + 5,R3
   \   00000E   8C..         MOV     ?V0 + 0,R4
   \   000010   8D..         MOV     ?V0 + 1,R5
   \   000012   89..         MOV     ?V0 + 7,R1
   \   000014   742B         MOV     A,#0x2b
   \   000016   12....       LCALL   ?XSTACK_DISP0_8
   \   000019   E0           MOVX    A,@DPTR
   \   00001A   FE           MOV     R6,A
   \   00001B   A3           INC     DPTR
   \   00001C   E0           MOVX    A,@DPTR
   \   00001D   FF           MOV     R7,A
   \   00001E   742D         MOV     A,#0x2d
   \   000020   12....       LCALL   ?XSTACK_DISP0_8
   \   000023   E0           MOVX    A,@DPTR
   \   000024   F5..         MOV     ?V0 + 3,A
   \   000026   742E         MOV     A,#0x2e
   \   000028   12....       LCALL   ?XSTACK_DISP0_8
   \   00002B   E0           MOVX    A,@DPTR
   \   00002C   F5..         MOV     ?V0 + 2,A
    560          
    561          #if (HAL_LCD == TRUE)
    562          
    563            uint8 tmpLen;
    564            uint8 buf[LCD_MAX_BUF];
    565            uint32 err;
    566          
    567            tmpLen = (uint8)osal_strlen( (char*)title );
   \   00002E                ; Setup parameters for call to function osal_strlen
   \   00002E   12....       LCALL   ?Subroutine7 & 0xFFFF
    568            if ( tmpLen )
   \                     ??CrossCallReturnLabel_3:
   \   000031   6028         JZ      ??HalLcdWriteStringValueValue_0
    569            {
    570              osal_memcpy( buf, title, tmpLen );
   \   000033                ; Setup parameters for call to function osal_memcpy
   \   000033   75..00       MOV     ?V0 + 6,#0x0
   \   000036   78..         MOV     R0,#?V0 + 4
   \   000038   12....       LCALL   ?PUSH_XSTACK_I_THREE
   \   00003B   EA           MOV     A,R2
   \   00003C   F5..         MOV     ?V0 + 4,A
   \   00003E   FC           MOV     R4,A
   \   00003F   7D00         MOV     R5,#0x0
   \   000041   7403         MOV     A,#0x3
   \   000043   12....       LCALL   ?XSTACK_DISP0_8
   \   000046   12....       LCALL   ?Subroutine4 & 0xFFFF
   \                     ??CrossCallReturnLabel_17:
   \   000049   12....       LCALL   ?DEALLOC_XSTACK8
    571              buf[tmpLen++] = ' ';
   \   00004C   85..82       MOV     DPL,?XSP + 0
   \   00004F   85..83       MOV     DPH,?XSP + 1
   \   000052   E582         MOV     A,DPL
   \   000054   25..         ADD     A,?V0 + 4
   \   000056   12....       LCALL   ?Subroutine3 & 0xFFFF
    572            }
   \                     ??CrossCallReturnLabel_14:
   \   000059   05..         INC     ?V0 + 8
    573          
    574            err = (uint32)(value1);
    575            _ltoa( err, &buf[tmpLen], format1 );
   \                     ??HalLcdWriteStringValueValue_0:
   \   00005B                ; Setup parameters for call to function _ltoa
   \   00005B   85..82       MOV     DPL,?XSP + 0
   \   00005E   85..83       MOV     DPH,?XSP + 1
   \   000061   E582         MOV     A,DPL
   \   000063   25..         ADD     A,?V0 + 8
   \   000065   F5..         MOV     ?V0 + 4,A
   \   000067   E583         MOV     A,DPH
   \   000069   3400         ADDC    A,#0x0
   \   00006B   F5..         MOV     ?V0 + 5,A
   \   00006D   78..         MOV     R0,#?V0 + 4
   \   00006F   12....       LCALL   ?PUSH_XSTACK_I_TWO
   \   000072   A9..         MOV     R1,?V0 + 7
   \   000074   12....       LCALL   ?Subroutine5 & 0xFFFF
   \                     ??CrossCallReturnLabel_22:
   \   000077   12....       LCALL   ?DEALLOC_XSTACK8
    576            tmpLen = (uint8)osal_strlen( (char*)buf );
   \   00007A                ; Setup parameters for call to function osal_strlen
   \   00007A   85..82       MOV     DPL,?XSP + 0
   \   00007D   85..83       MOV     DPH,?XSP + 1
   \   000080   AA82         MOV     R2,DPL
   \   000082   AB83         MOV     R3,DPH
   \   000084   12....       LCALL   ?Subroutine7 & 0xFFFF
    577          
    578            buf[tmpLen++] = ',';
   \                     ??CrossCallReturnLabel_4:
   \   000087   F5..         MOV     ?V0 + 0,A
   \   000089   85..82       MOV     DPL,?XSP + 0
   \   00008C   85..83       MOV     DPH,?XSP + 1
   \   00008F   E582         MOV     A,DPL
   \   000091   25..         ADD     A,?V0 + 0
   \   000093   F582         MOV     DPL,A
   \   000095   E583         MOV     A,DPH
   \   000097   3400         ADDC    A,#0x0
   \   000099   F583         MOV     DPH,A
   \   00009B   742C         MOV     A,#0x2c
   \   00009D   F0           MOVX    @DPTR,A
   \   00009E   05..         INC     ?V0 + 8
    579            buf[tmpLen++] = ' ';
   \   0000A0   85....       MOV     ?V0 + 0,?V0 + 8
   \   0000A3   85..82       MOV     DPL,?XSP + 0
   \   0000A6   85..83       MOV     DPH,?XSP + 1
   \   0000A9   E582         MOV     A,DPL
   \   0000AB   25..         ADD     A,?V0 + 0
   \   0000AD   12....       LCALL   ?Subroutine3 & 0xFFFF
    580            err = (uint32)(value2);
    581            _ltoa( err, &buf[tmpLen], format2 );
   \                     ??CrossCallReturnLabel_15:
   \   0000B0                ; Setup parameters for call to function _ltoa
   \   0000B0   7401         MOV     A,#0x1
   \   0000B2   25..         ADD     A,?V0 + 8
   \   0000B4   F8           MOV     R0,A
   \   0000B5   85..82       MOV     DPL,?XSP + 0
   \   0000B8   85..83       MOV     DPH,?XSP + 1
   \   0000BB   E582         MOV     A,DPL
   \   0000BD   28           ADD     A,R0
   \   0000BE   F5..         MOV     ?V0 + 0,A
   \   0000C0   E583         MOV     A,DPH
   \   0000C2   3400         ADDC    A,#0x0
   \   0000C4   F5..         MOV     ?V0 + 1,A
   \   0000C6   78..         MOV     R0,#?V0 + 0
   \   0000C8   12....       LCALL   ?PUSH_XSTACK_I_TWO
   \   0000CB   A9..         MOV     R1,?V0 + 3
   \   0000CD   8E..         MOV     ?V0 + 0,R6
   \   0000CF   8F..         MOV     ?V0 + 1,R7
   \   0000D1   12....       LCALL   ?Subroutine5 & 0xFFFF
   \                     ??CrossCallReturnLabel_23:
   \   0000D4   12....       LCALL   ?DEALLOC_XSTACK8
    582          
    583            HalLcdWriteString( (char *)buf, line );		
   \   0000D7                ; Setup parameters for call to function HalLcdWriteString
   \   0000D7   A9..         MOV     R1,?V0 + 2
   \   0000D9   02....       LJMP    ?Subroutine12 & 0xFFFF
    584          
    585          #endif
    586          }

   \                                 In  segment BANKED_CODE, align 1, keep-with-next
   \                     ?Subroutine5:
   \   000000   AA..         MOV     R2,?V0 + 0
   \   000002   AB..         MOV     R3,?V0 + 1
   \   000004                REQUIRE ??Subroutine16_0
   \   000004                ; // Fall through to label ??Subroutine16_0
    587          
    588          /**************************************************************************************************
    589           * @fn      HalLcdDisplayPercentBar
    590           *
    591           * @brief   Display percentage bar on the LCD
    592           *
    593           * @param   title   -
    594           *          value   -
    595           *
    596           * @return  None
    597           **************************************************************************************************/

   \                                 In  segment BANKED_CODE, align 1, keep-with-next
    598          void HalLcdDisplayPercentBar( char *title, uint8 value )
   \                     HalLcdDisplayPercentBar:
    599          {
   \   000000   74F1         MOV     A,#-0xf
   \   000002   12....       LCALL   ?BANKED_ENTER_XDATA
   \   000005                ; Saved register size: 15
   \   000005                ; Auto size: 17
   \   000005   74EF         MOV     A,#-0x11
   \   000007   12....       LCALL   ?ALLOC_XSTACK8
   \   00000A   E9           MOV     A,R1
   \   00000B   FE           MOV     R6,A
    600          #if (HAL_LCD == TRUE)
    601          
    602            uint8 percent;
    603            uint8 leftOver;
    604            uint8 buf[17];
    605            uint32 err;
    606            uint8 x;
    607          
    608            /* Write the title: */
    609            HalLcdWriteString( title, HAL_LCD_LINE_1 );
   \   00000C                ; Setup parameters for call to function HalLcdWriteString
   \   00000C   7901         MOV     R1,#0x1
   \   00000E   12....       LCALL   ??HalLcdWriteString?relay
    610          
    611            if ( value > 100 )
   \   000011   EE           MOV     A,R6
   \   000012   C3           CLR     C
   \   000013   9465         SUBB    A,#0x65
   \   000015   4002         JC      ??HalLcdDisplayPercentBar_0
    612              value = 100;
   \   000017   7E64         MOV     R6,#0x64
    613          
    614            /* convert to blocks */
    615            percent = (uint8)(value / 10);
   \                     ??HalLcdDisplayPercentBar_0:
   \   000019   75F00A       MOV     B,#0xa
   \   00001C   EE           MOV     A,R6
   \   00001D   84           DIV     AB
   \   00001E   FF           MOV     R7,A
    616            leftOver = (uint8)(value % 10);
   \   00001F   EE           MOV     A,R6
   \   000020   75F00A       MOV     B,#0xa
   \   000023   84           DIV     AB
   \   000024   E5F0         MOV     A,B
   \   000026   F5..         MOV     ?V0 + 0,A
    617          
    618            /* Make window */
    619            osal_memcpy( buf, "[          ]  ", 15 );
   \   000028                ; Setup parameters for call to function osal_memcpy
   \   000028   75....       MOV     ?V0 + 4,#(`?<Constant "[          ]  ">` & 0xff)
   \   00002B   75....       MOV     ?V0 + 5,#((`?<Constant "[          ]  ">` >> 8) & 0xff)
   \   00002E   75..00       MOV     ?V0 + 6,#0x0
   \   000031   78..         MOV     R0,#?V0 + 4
   \   000033   12....       LCALL   ?PUSH_XSTACK_I_THREE
   \   000036   7C0F         MOV     R4,#0xf
   \   000038   7D00         MOV     R5,#0x0
   \   00003A   7403         MOV     A,#0x3
   \   00003C   12....       LCALL   ?XSTACK_DISP0_8
   \   00003F   12....       LCALL   ?Subroutine4 & 0xFFFF
   \                     ??CrossCallReturnLabel_18:
   \   000042   12....       LCALL   ?DEALLOC_XSTACK8
    620          
    621            for ( x = 0; x < percent; x ++ )
   \   000045   7A00         MOV     R2,#0x0
   \   000047   8004         SJMP    ??HalLcdDisplayPercentBar_1
    622            {
    623              buf[1+x] = '>';
   \                     ??HalLcdDisplayPercentBar_2:
   \   000049   743E         MOV     A,#0x3e
   \   00004B   F0           MOVX    @DPTR,A
    624            }
   \   00004C   0A           INC     R2
   \                     ??HalLcdDisplayPercentBar_1:
   \   00004D   8A..         MOV     ?V0 + 2,R2
   \   00004F   85..82       MOV     DPL,?XSP + 0
   \   000052   85..83       MOV     DPH,?XSP + 1
   \   000055   E582         MOV     A,DPL
   \   000057   25..         ADD     A,?V0 + 2
   \   000059   F582         MOV     DPL,A
   \   00005B   E583         MOV     A,DPH
   \   00005D   3400         ADDC    A,#0x0
   \   00005F   F583         MOV     DPH,A
   \   000061   A3           INC     DPTR
   \   000062   EA           MOV     A,R2
   \   000063   C3           CLR     C
   \   000064   9F           SUBB    A,R7
   \   000065   40E2         JC      ??HalLcdDisplayPercentBar_2
    625          
    626            if ( leftOver >= 5 )
   \   000067   E5..         MOV     A,?V0 + 0
   \   000069   C3           CLR     C
   \   00006A   9405         SUBB    A,#0x5
   \   00006C   4003         JC      ??HalLcdDisplayPercentBar_3
    627              buf[1+x] = '+';
   \   00006E   742B         MOV     A,#0x2b
   \   000070   F0           MOVX    @DPTR,A
    628          
    629            err = (uint32)value;
    630            _ltoa( err, (uint8*)&buf[13], 10 );
   \                     ??HalLcdDisplayPercentBar_3:
   \   000071                ; Setup parameters for call to function _ltoa
   \   000071   740D         MOV     A,#0xd
   \   000073   12....       LCALL   ?XSTACK_DISP0_8
   \   000076   8582..       MOV     ?V0 + 0,DPL
   \   000079   8583..       MOV     ?V0 + 1,DPH
   \   00007C   78..         MOV     R0,#?V0 + 0
   \   00007E   12....       LCALL   ?PUSH_XSTACK_I_TWO
   \   000081   790A         MOV     R1,#0xa
   \   000083   EE           MOV     A,R6
   \   000084   FA           MOV     R2,A
   \   000085   7B00         MOV     R3,#0x0
   \   000087   12....       LCALL   ??Subroutine16_0 & 0xFFFF
   \                     ??CrossCallReturnLabel_25:
   \   00008A   12....       LCALL   ?DEALLOC_XSTACK8
    631          
    632            HalLcdWriteString( (char*)buf, HAL_LCD_LINE_2 );
   \   00008D                ; Setup parameters for call to function HalLcdWriteString
   \   00008D   7902         MOV     R1,#0x2
   \   00008F   85..82       MOV     DPL,?XSP + 0
   \   000092   85..83       MOV     DPH,?XSP + 1
   \   000095   AA82         MOV     R2,DPL
   \   000097   AB83         MOV     R3,DPH
   \   000099   12....       LCALL   ??HalLcdWriteString?relay
    633          
    634          #endif
    635          }
   \   00009C   7411         MOV     A,#0x11
   \   00009E   12....       LCALL   ?DEALLOC_XSTACK8
   \   0000A1   7F07         MOV     R7,#0x7
   \   0000A3   02....       LJMP    ?BANKED_LEAVE_XDATA
    636          
    637          
    638          #if (HAL_LCD == TRUE)
    639          /**************************************************************************************************
    640           *                                    HARDWARE LCD
    641           **************************************************************************************************/
    642          
    643          /*******************************************************************************
    644           * @fn      halLcdInit
    645           *
    646           * @brief   Initilize HW LCD Driver.
    647           *
    648           * @param   None
    649           *
    650           * @return  None
    651           ******************************************************************************/
    652          void halLcdInit(void)
    653          {
    654            // Perform the initialization sequence
    655              LCD_RS_DIR_OUTPUT();
    656              HAL_LCD_EN_CLR();
    657              halMcuWaitMs(30);
    658          
    659              FUNCTION_SET(BUS_8BIT_ON);
    660              halMcuWaitMs(2);
    661              FUNCTION_SET(BUS_8BIT_ON);
    662              halMcuWaitMs(2);
    663              FUNCTION_SET(BUS_8BIT_ON);
    664              halMcuWaitMs(2);
    665              FUNCTION_SET(BUS_8BIT_ON | DUAL_LINE_ON);
    666              halMcuWaitMs(2);
    667              FUNCTION_SET(BUS_8BIT_ON | DUAL_LINE_ON);
    668              halMcuWaitMs(2);
    669              SET_CURSOR_SHIFT(SHITF_DISPLAY_OFF);
    670              SET_ENTER_MODE(INCREMENT_ON);
    671              DISPLAY_CLEAR();
    672              halMcuWaitMs(2);
    673              // Clear the display
    674              HalLcd_HW_Clear();
    675              SET_DISPLAY_CTRL(DISPLAY_CTRL_ON | DISPLAY_CTRL_BLINK_OFF | DISPLAY_CTRL_CURSOR_OFF);
    676          }
    677          
    678          /*******************************************************************************
    679           * @fn      HalLcd_HW_Control
    680           *
    681           * @brief   Write 1 command to the LCD
    682           *
    683           * @param   uint8 cmd - command to be written to the LCD
    684           *
    685           * @return  None
    686           ******************************************************************************/
    687          //-------------------------------------------------------------------
    688          // @fn          lcdControl
    689          // @brief       Send command to display
    690          // @param       uint8 command
    691          // @return      none
    692          //-------------------------------------------------------------------
    693          static void lcdControl(uint8 command)
   \                     lcdControl:
   \   000000                REQUIRE ?Subroutine9
   \   000000                REQUIRE _A_P2
   \   000000                REQUIRE _A_P1
   \   000000                REQUIRE _A_P0
   \   000000                REQUIRE P0DIR
   \   000000                ; // Fall through to label ?Subroutine9

   \                                 In  segment BANKED_CODE, align 1, keep-with-next
   \                     ?Subroutine9:
   \   000000   C082         PUSH    DPL
   \   000002   C083         PUSH    DPH
   \   000004                ; Saved register size: 2
   \   000004                ; Auto size: 0
   \   000004                ; Saved register size: 2
   \   000004                ; Auto size: 0
   \   000004   12....       LCALL   ?Subroutine0 & 0xFFFF
   \                     ??CrossCallReturnLabel_5:
   \   000007                REQUIRE ??Subroutine18_0
   \   000007                ; // Fall through to label ??Subroutine18_0

   \                                 In  segment BANKED_CODE, align 1, keep-with-next
   \                     ?Subroutine0:
   \   000000   43FDBF       ORL     0xfd,#0xbf
   \   000003   E5FD         MOV     A,0xfd
   \   000005   D286         SETB    0x80.6
   \   000007   8990         MOV     0x90,R1
   \   000009   D2A0         SETB    0xa0.0
   \   00000B                ; Setup parameters for call to function halMcuWaitUs
   \   00000B                ; Setup parameters for call to function halMcuWaitUs
   \   00000B   7A02         MOV     R2,#0x2
   \   00000D   7B00         MOV     R3,#0x0
   \   00000F   12....       LCALL   ??halMcuWaitUs?relay
   \   000012   D2A0         SETB    0xa0.0
   \   000014                ; Setup parameters for call to function halMcuWaitUs
   \   000014                ; Setup parameters for call to function halMcuWaitUs
   \   000014   7A50         MOV     R2,#0x50
   \   000016   7B00         MOV     R3,#0x0
   \   000018   12....       LCALL   ??halMcuWaitUs?relay
   \   00001B   90....       MOV     DPTR,#pLedData
   \   00001E   E0           MOVX    A,@DPTR
   \   00001F   F590         MOV     0x90,A
   \   000021   22           RET
    694          { 
    695              LCD_RS_DIR_OUTPUT();
    696              HAL_LCD_RS_CLR();
    697              HAL_LCD_DATA(command);
    698              HAL_LCD_EN_SET();
    699              halMcuWaitUs(2);
    700              HAL_LCD_EN_CLR();
    701              halMcuWaitUs(80);
    702              HAL_LCD_DATA(pLedData);
    703          }
    704          
    705          /*******************************************************************************
    706           * @fn      HalLcd_HW_Write
    707           *
    708           * @brief   Write 1 byte to the LCD
    709           *
    710           * @param   uint8 data - data to be written to the LCD
    711           *
    712           * @return  None
    713           ******************************************************************************/
    714          //-------------------------------------------------------------------
    715          // @fn          lcdWrite
    716          // @brief       Write character to display
    717          // @param       uint8 ch - character to display
    718          // @return      none
    719          //-------------------------------------------------------------------

   \                                 In  segment BANKED_CODE, align 1, keep-with-next
    720          static void lcdWrite(uint8 ch)
   \                     lcdWrite:
   \   000000   80..         SJMP    ?Subroutine9
   \   000002                REQUIRE _A_P2
   \   000002                REQUIRE _A_P1
   \   000002                REQUIRE _A_P0
   \   000002                REQUIRE P0DIR
    721          {
    722              LCD_RS_DIR_OUTPUT();
    723              HAL_LCD_RS_SET();
    724              HAL_LCD_DATA(ch);
    725              HAL_LCD_EN_SET();
    726              halMcuWaitUs(2);
    727              HAL_LCD_EN_CLR();
    728              halMcuWaitUs(80);
    729              HAL_LCD_DATA(pLedData);
    730          }
    731          
    732          /**************************************************************************************************
    733           * @fn          HalLcd_HW_SetContrast
    734           *
    735           * @brief       Set display contrast
    736           *
    737           * @param       uint8 value - contrast value
    738           *
    739           * @return      none
    740           **************************************************************************************************/

   \                                 In  segment BANKED_CODE, align 1, keep-with-next
    741          void HalLcd_HW_SetContrast(uint8 value)
   \                     HalLcd_HW_SetContrast:
    742          {
   \   000000   74F7         MOV     A,#-0x9
   \   000002   12....       LCALL   ?BANKED_ENTER_XDATA
   \   000005                ; Saved register size: 9
   \   000005                ; Auto size: 0
   \   000005   E9           MOV     A,R1
   \   000006   FE           MOV     R6,A
    743            SET_ICONRAM_ADDR(CONTRAST_CTRL_REGISTER);
   \   000007                ; Setup parameters for call to function lcdControl
   \   000007   7950         MOV     R1,#0x50
   \   000009                REQUIRE ?Subroutine10
   \   000009                ; // Fall through to label ?Subroutine10
    744            lcdWrite(value);
    745          }

   \                                 In  segment BANKED_CODE, align 1, keep-with-next
   \                     ?Subroutine10:
   \   000000   12....       LCALL   ?Subroutine6 & 0xFFFF
   \                     ??CrossCallReturnLabel_6:
   \   000003   02....       LJMP    ?BANKED_LEAVE_XDATA

   \                                 In  segment BANKED_CODE, align 1, keep-with-next
   \                     ?Subroutine6:
   \   000000   12....       LCALL   ??lcdControl?relay
   \   000003                ; Setup parameters for call to function lcdWrite
   \   000003                ; Setup parameters for call to function lcdWrite
   \   000003   EE           MOV     A,R6
   \   000004   F9           MOV     R1,A
   \   000005   12....       LCALL   ??lcdWrite?relay
   \   000008   7F01         MOV     R7,#0x1
   \   00000A   22           RET
    746          
    747          /*******************************************************************************
    748           * @fn      HalLcd_HW_Clear
    749           *
    750           * @brief   Clear the HW LCD
    751           *
    752           * @param   None
    753           *
    754           * @return  None
    755           ******************************************************************************/

   \                                 In  segment BANKED_CODE, align 1, keep-with-next
    756          void HalLcd_HW_Clear(void)
   \                     HalLcd_HW_Clear:
    757          {
   \   000000   74F7         MOV     A,#-0x9
   \   000002   12....       LCALL   ?BANKED_ENTER_XDATA
   \   000005                ; Saved register size: 9
   \   000005                ; Auto size: 0
    758              uint8 n;
    759              SET_DISPLAY_LINE(LINE1);
   \   000005                ; Setup parameters for call to function lcdControl
   \   000005   7980         MOV     R1,#-0x80
   \   000007   12....       LCALL   ??lcdControl?relay
    760              for (n = 0; n < LCD_LINE_LENGTH; n++)
   \   00000A   7E10         MOV     R6,#0x10
    761              {
    762                  lcdWrite(' ');
   \                     ??HalLcd_HW_Clear_0:
   \   00000C                ; Setup parameters for call to function lcdWrite
   \   00000C   7920         MOV     R1,#0x20
   \   00000E   12....       LCALL   ??lcdWrite?relay
    763              }
   \   000011   1E           DEC     R6
   \   000012   EE           MOV     A,R6
   \   000013   70F7         JNZ     ??HalLcd_HW_Clear_0
    764              SET_DISPLAY_LINE(LINE2);
   \   000015                ; Setup parameters for call to function lcdControl
   \   000015   79C0         MOV     R1,#-0x40
   \   000017   12....       LCALL   ??lcdControl?relay
    765              for (n = 0; n < LCD_LINE_LENGTH; n++)
   \   00001A   7E10         MOV     R6,#0x10
    766              {
    767                  lcdWrite(' ');
   \                     ??HalLcd_HW_Clear_1:
   \   00001C                ; Setup parameters for call to function lcdWrite
   \   00001C   7920         MOV     R1,#0x20
   \   00001E   12....       LCALL   ??lcdWrite?relay
    768              }
   \   000021   1E           DEC     R6
   \   000022   EE           MOV     A,R6
   \   000023   70F7         JNZ     ??HalLcd_HW_Clear_1
    769          }
   \   000025   02....       LJMP    ?Subroutine11 & 0xFFFF
    770          
    771          /**************************************************************************************************
    772           * @fn      HalLcd_HW_ClearAllSpecChars
    773           *
    774           * @brief   Clear all special chars
    775           *
    776           * @param   None
    777           *
    778           * @return  None
    779           **************************************************************************************************/

   \                                 In  segment BANKED_CODE, align 1, keep-with-next
    780          void HalLcd_HW_ClearAllSpecChars(void)
   \                     HalLcd_HW_ClearAllSpecChars:
    781          {
   \   000000   74F7         MOV     A,#-0x9
   \   000002   12....       LCALL   ?BANKED_ENTER_XDATA
   \   000005                ; Saved register size: 9
   \   000005                ; Auto size: 0
    782            uint8 n = 0;
    783          
    784            SET_GCRAM_CHAR(0);
   \   000005                ; Setup parameters for call to function lcdControl
   \   000005   7940         MOV     R1,#0x40
   \   000007   12....       LCALL   ??lcdControl?relay
    785            for (n = 0; n < (8 * 8); n++)
   \   00000A   7E40         MOV     R6,#0x40
    786            {
    787              lcdWrite(0x00);
   \                     ??HalLcd_HW_ClearAllSpecChars_0:
   \   00000C                ; Setup parameters for call to function lcdWrite
   \   00000C   7900         MOV     R1,#0x0
   \   00000E   12....       LCALL   ??lcdWrite?relay
    788            }
   \   000011   1E           DEC     R6
   \   000012   EE           MOV     A,R6
   \   000013   70F7         JNZ     ??HalLcd_HW_ClearAllSpecChars_0
    789          }
   \   000015   02....       LJMP    ?Subroutine11 & 0xFFFF
    790          
    791          /*******************************************************************************
    792           * @fn      HalLcd_HW_WriteChar
    793           *
    794           * @brief   Write one char to the display
    795           *
    796           * @param   uint8 line - line number that the char will be displayed
    797           *          uint8 col - colum where the char will be displayed
    798           *
    799           * @return  None
    800           ******************************************************************************/
    801          /************************************************************
    802           * @fn      halLcdWriteChar
    803          ************************************************************/

   \                                 In  segment BANKED_CODE, align 1, keep-with-next
    804          static void halLcdWriteChar(uint8 line, uint8 col, char text)
   \                     halLcdWriteChar:
    805          {
   \   000000   74F7         MOV     A,#-0x9
   \   000002   12....       LCALL   ?BANKED_ENTER_XDATA
   \   000005                ; Saved register size: 9
   \   000005                ; Auto size: 0
   \   000005   EB           MOV     A,R3
   \   000006   FE           MOV     R6,A
    806              if (line == HAL_LCD_LINE_2)
   \   000007   7402         MOV     A,#0x2
   \   000009   69           XRL     A,R1
   \   00000A   7007         JNZ     ??halLcdWriteChar_0
    807              {
    808                  SET_DISPLAY_LINE(LINE2 + col);
   \   00000C                ; Setup parameters for call to function lcdControl
   \   00000C   7440         MOV     A,#0x40
   \   00000E   2A           ADD     A,R2
   \   00000F   4480         ORL     A,#0x80
   \   000011   8003         SJMP    ??halLcdWriteChar_1
    809              }
    810              else
    811              {
    812                  SET_DISPLAY_LINE(LINE1 + col);
   \                     ??halLcdWriteChar_0:
   \   000013                ; Setup parameters for call to function lcdControl
   \   000013   7480         MOV     A,#-0x80
   \   000015   4A           ORL     A,R2
   \                     ??halLcdWriteChar_1:
   \   000016   F9           MOV     R1,A
    813              }
   \   000017   80..         SJMP    ?Subroutine10
    814              lcdWrite(text);
    815          }
    816          
    817          /**************************************************************************************************
    818           * @fn          halLcdWriteLine
    819           *
    820           * @brief       Write one line on display
    821           *
    822           * @param       uint8 line - display line
    823           *              char *pText - text buffer to write
    824           *
    825           * @return      none
    826           **************************************************************************************************/

   \                                 In  segment BANKED_CODE, align 1, keep-with-next
    827          void HalLcd_HW_WriteLine(uint8 line, const char *pText)
   \                     HalLcd_HW_WriteLine:
    828          {
   \   000000   74F5         MOV     A,#-0xb
   \   000002   12....       LCALL   ?BANKED_ENTER_XDATA
   \   000005                ; Saved register size: 11
   \   000005                ; Auto size: 0
   \   000005   89..         MOV     ?V0 + 1,R1
   \   000007   EA           MOV     A,R2
   \   000008   FE           MOV     R6,A
   \   000009   EB           MOV     A,R3
   \   00000A   FF           MOV     R7,A
    829            uint8 count;
    830            uint8 totalLength = (uint8)osal_strlen( (char *)pText );
   \   00000B                ; Setup parameters for call to function osal_strlen
   \   00000B   12....       LCALL   ??osal_strlen?relay
   \   00000E   EA           MOV     A,R2
   \   00000F   F5..         MOV     ?V0 + 2,A
    831          
    832            /* Write the content first */
    833            for (count=0; count<totalLength; count++)
   \   000011   75..00       MOV     ?V0 + 0,#0x0
   \   000014   8018         SJMP    ??HalLcd_HW_WriteLine_0
    834            {
    835              halLcdWriteChar(line, count, (*(pText++)));
   \                     ??HalLcd_HW_WriteLine_1:
   \   000016                ; Setup parameters for call to function halLcdWriteChar
   \   000016   8E82         MOV     DPL,R6
   \   000018   8F83         MOV     DPH,R7
   \   00001A   E0           MOVX    A,@DPTR
   \   00001B   FB           MOV     R3,A
   \   00001C   AA..         MOV     R2,?V0 + 0
   \   00001E   A9..         MOV     R1,?V0 + 1
   \   000020   12....       LCALL   ??halLcdWriteChar?relay
   \   000023   8E82         MOV     DPL,R6
   \   000025   8F83         MOV     DPH,R7
   \   000027   A3           INC     DPTR
   \   000028   AE82         MOV     R6,DPL
   \   00002A   AF83         MOV     R7,DPH
    836            }
   \   00002C   05..         INC     ?V0 + 0
   \                     ??HalLcd_HW_WriteLine_0:
   \   00002E   E5..         MOV     A,?V0 + 0
   \   000030   C3           CLR     C
   \   000031   95..         SUBB    A,?V0 + 2
   \   000033   40E1         JC      ??HalLcd_HW_WriteLine_1
    837          
    838            /* Write blank spaces to rest of the line */
    839            for(count=totalLength; count<LCD_LINE_LENGTH;count++)
   \   000035   85....       MOV     ?V0 + 0,?V0 + 2
   \   000038   800B         SJMP    ??HalLcd_HW_WriteLine_2
    840            {
    841              halLcdWriteChar(line, count, ' ');
   \                     ??HalLcd_HW_WriteLine_3:
   \   00003A                ; Setup parameters for call to function halLcdWriteChar
   \   00003A   7B20         MOV     R3,#0x20
   \   00003C   AA..         MOV     R2,?V0 + 0
   \   00003E   A9..         MOV     R1,?V0 + 1
   \   000040   12....       LCALL   ??halLcdWriteChar?relay
    842            }
   \   000043   05..         INC     ?V0 + 0
   \                     ??HalLcd_HW_WriteLine_2:
   \   000045   E5..         MOV     A,?V0 + 0
   \   000047   C3           CLR     C
   \   000048   9410         SUBB    A,#0x10
   \   00004A   40EE         JC      ??HalLcd_HW_WriteLine_3
    843          }
   \   00004C   7F03         MOV     R7,#0x3
   \   00004E   02....       LJMP    ?BANKED_LEAVE_XDATA
    844          
    845          /*******************************************************************************
    846           * @fn      HalLcd_HW_WaitUs
    847           *
    848           * @brief   wait for x us. @ 32MHz MCU clock it takes 32 "nop"s for 1 us delay.
    849           *
    850           * @param   x us. range[0-65536]
    851           *
    852           * @return  None
    853           ******************************************************************************/

   \                                 In  segment BANKED_CODE, align 1, keep-with-next
    854          void HalLcd_HW_WaitUs(uint16 microSecs)
   \                     HalLcd_HW_WaitUs:
    855          {
   \   000000                ; Saved register size: 0
   \   000000                ; Auto size: 0
   \   000000   8020         SJMP    ??HalLcd_HW_WaitUs_0
    856            while(microSecs--)
    857            {
    858              /* 32 NOPs == 1 usecs */
    859              asm("nop"); asm("nop"); asm("nop"); asm("nop"); asm("nop");
   \                     ??HalLcd_HW_WaitUs_1:
   \   000002   00           nop
   \   000003   00           nop
   \   000004   00           nop
   \   000005   00           nop
   \   000006   00           nop
    860              asm("nop"); asm("nop"); asm("nop"); asm("nop"); asm("nop");
   \   000007   00           nop
   \   000008   00           nop
   \   000009   00           nop
   \   00000A   00           nop
   \   00000B   00           nop
    861              asm("nop"); asm("nop"); asm("nop"); asm("nop"); asm("nop");
   \   00000C   00           nop
   \   00000D   00           nop
   \   00000E   00           nop
   \   00000F   00           nop
   \   000010   00           nop
    862              asm("nop"); asm("nop"); asm("nop"); asm("nop"); asm("nop");
   \   000011   00           nop
   \   000012   00           nop
   \   000013   00           nop
   \   000014   00           nop
   \   000015   00           nop
    863              asm("nop"); asm("nop"); asm("nop"); asm("nop"); asm("nop");
   \   000016   00           nop
   \   000017   00           nop
   \   000018   00           nop
   \   000019   00           nop
   \   00001A   00           nop
    864              asm("nop"); asm("nop"); asm("nop"); asm("nop"); asm("nop");
   \   00001B   00           nop
   \   00001C   00           nop
   \   00001D   00           nop
   \   00001E   00           nop
   \   00001F   00           nop
    865              asm("nop"); asm("nop");
   \   000020   00           nop
   \   000021   00           nop
    866            }
   \                     ??HalLcd_HW_WaitUs_0:
   \   000022   EA           MOV     A,R2
   \   000023   F8           MOV     R0,A
   \   000024   EB           MOV     A,R3
   \   000025   F9           MOV     R1,A
   \   000026   74FF         MOV     A,#-0x1
   \   000028   28           ADD     A,R0
   \   000029   1A           DEC     R2
   \   00002A   74FF         MOV     A,#-0x1
   \   00002C   39           ADDC    A,R1
   \   00002D   FB           MOV     R3,A
   \   00002E   E8           MOV     A,R0
   \   00002F   7001         JNZ     ??HalLcd_HW_WaitUs_2
   \   000031   E9           MOV     A,R1
   \                     ??HalLcd_HW_WaitUs_2:
   \   000032   70CE         JNZ     ??HalLcd_HW_WaitUs_1
    867          }
   \   000034   02....       LJMP    ?BRET

   \                                 In  segment BANKED_CODE, align 1, keep-with-next
   \                     ?Subroutine2:
   \   000000   7938         MOV     R1,#0x38
   \   000002                REQUIRE ??Subroutine13_0
   \   000002                ; // Fall through to label ??Subroutine13_0

   \                                 In  segment BANKED_CODE, align 1, keep-with-next
   \                     ??Subroutine13_0:
   \   000000   12....       LCALL   ?Subroutine8 & 0xFFFF
   \                     ??CrossCallReturnLabel_10:
   \   000003   22           RET

   \                                 In  segment BANKED_CODE, align 1, keep-with-next
   \                     ?Subroutine1:
   \   000000   7B00         MOV     R3,#0x0
   \   000002   12....       LCALL   ??halMcuWaitMs?relay
   \   000005                ; Setup parameters for call to function lcdControl
   \   000005                ; Setup parameters for call to function lcdControl
   \   000005   7930         MOV     R1,#0x30
   \   000007   12....       LCALL   ?Subroutine8 & 0xFFFF
   \                     ??CrossCallReturnLabel_11:
   \   00000A   22           RET

   \                                 In  segment BANKED_CODE, align 1, keep-with-next
   \                     ?Subroutine8:
   \   000000   12....       LCALL   ??lcdControl?relay
   \   000003                ; Setup parameters for call to function halMcuWaitMs
   \   000003                ; Setup parameters for call to function halMcuWaitMs
   \   000003                ; Setup parameters for call to function halMcuWaitMs
   \   000003                ; Setup parameters for call to function halMcuWaitMs
   \   000003                ; Setup parameters for call to function halMcuWaitMs
   \   000003   7A02         MOV     R2,#0x2
   \   000005   7B00         MOV     R3,#0x0
   \   000007   12....       LCALL   ??halMcuWaitMs?relay
   \   00000A   22           RET

   \                                 In  segment BANK_RELAYS, align 1
   \                     ??HalLcdInit?relay:
   \   000000   12....       LCALL   ?BDISPATCH
   \   000003   ......       DC24    HalLcdInit

   \                                 In  segment BANK_RELAYS, align 1
   \                     ??HalLcdWriteString?relay:
   \   000000   12....       LCALL   ?BDISPATCH
   \   000003   ......       DC24    HalLcdWriteString

   \                                 In  segment BANK_RELAYS, align 1
   \                     ??HalLcdWriteValue?relay:
   \   000000   12....       LCALL   ?BDISPATCH
   \   000003   ......       DC24    HalLcdWriteValue

   \                                 In  segment BANK_RELAYS, align 1
   \                     ??HalLcdWriteScreen?relay:
   \   000000   12....       LCALL   ?BDISPATCH
   \   000003   ......       DC24    HalLcdWriteScreen

   \                                 In  segment BANK_RELAYS, align 1
   \                     ??HalLcdWriteStringValue?relay:
   \   000000   12....       LCALL   ?BDISPATCH
   \   000003   ......       DC24    HalLcdWriteStringValue

   \                                 In  segment BANK_RELAYS, align 1
   \                     ??HalLcdWriteStringValueValue?relay:
   \   000000   12....       LCALL   ?BDISPATCH
   \   000003   ......       DC24    HalLcdWriteStringValueValue

   \                                 In  segment BANK_RELAYS, align 1
   \                     ??HalLcdDisplayPercentBar?relay:
   \   000000   12....       LCALL   ?BDISPATCH
   \   000003   ......       DC24    HalLcdDisplayPercentBar

   \                                 In  segment BANK_RELAYS, align 1
   \                     ??lcdControl?relay:
   \   000000   12....       LCALL   ?BDISPATCH
   \   000003   ......       DC24    lcdControl

   \                                 In  segment BANK_RELAYS, align 1
   \                     ??lcdWrite?relay:
   \   000000   12....       LCALL   ?BDISPATCH
   \   000003   ......       DC24    lcdWrite

   \                                 In  segment BANK_RELAYS, align 1
   \                     ??HalLcd_HW_SetContrast?relay:
   \   000000   12....       LCALL   ?BDISPATCH
   \   000003   ......       DC24    HalLcd_HW_SetContrast

   \                                 In  segment BANK_RELAYS, align 1
   \                     ??HalLcd_HW_Clear?relay:
   \   000000   12....       LCALL   ?BDISPATCH
   \   000003   ......       DC24    HalLcd_HW_Clear

   \                                 In  segment BANK_RELAYS, align 1
   \                     ??HalLcd_HW_ClearAllSpecChars?relay:
   \   000000   12....       LCALL   ?BDISPATCH
   \   000003   ......       DC24    HalLcd_HW_ClearAllSpecChars

   \                                 In  segment BANK_RELAYS, align 1
   \                     ??halLcdWriteChar?relay:
   \   000000   12....       LCALL   ?BDISPATCH
   \   000003   ......       DC24    halLcdWriteChar

   \                                 In  segment BANK_RELAYS, align 1
   \                     ??HalLcd_HW_WriteLine?relay:
   \   000000   12....       LCALL   ?BDISPATCH
   \   000003   ......       DC24    HalLcd_HW_WriteLine

   \                                 In  segment BANK_RELAYS, align 1
   \                     ??HalLcd_HW_WaitUs?relay:
   \   000000   12....       LCALL   ?BDISPATCH
   \   000003   ......       DC24    HalLcd_HW_WaitUs

   \                                 In  segment XDATA_ROM_C, align 1
   \                     `?<Constant "[          ]  ">`:
   \   000000   5B202020     DB "[          ]  "
   \            20202020
   \            2020205D
   \            202000  
    868          
    869          
    870          
    871          #endif
    872          
    873          
    874          /**************************************************************************************************
    875          **************************************************************************************************/
    876          
    877          
    878          

   Maximum stack usage in bytes:

     Function                    ISTACK PSTACK XSTACK
     --------                    ------ ------ ------
     HalLcdDisplayPercentBar         1      0     35
       -> HalLcdWriteString          0      0     64
       -> osal_memcpy                0      0     70
       -> _ltoa                      0      0     68
       -> HalLcdWriteString          0      0     64
     HalLcdInit                      2      0      0
       -> halMcuWaitMs               4      0      0
       -> lcdControl                 4      0      0
       -> halMcuWaitMs               4      0      0
       -> lcdControl                 4      0      0
       -> halMcuWaitMs               4      0      0
       -> lcdControl                 4      0      0
       -> halMcuWaitMs               4      0      0
       -> lcdControl                 4      0      0
       -> halMcuWaitMs               4      0      0
       -> lcdControl                 4      0      0
       -> halMcuWaitMs               4      0      0
       -> lcdControl                 4      0      0
       -> lcdControl                 4      0      0
       -> lcdControl                 4      0      0
       -> halMcuWaitMs               4      0      0
       -> HalLcd_HW_Clear            4      0      0
       -> lcdControl                 4      0      0
     HalLcdWriteScreen               0      0      9
       -> HalLcdWriteString          0      0     18
       -> HalLcdWriteString          0      0     18
     HalLcdWriteString               1      0     70
       -> osal_mem_alloc             0      0     48
       -> osal_strlen                0      0     48
       -> osal_memcpy                0      0     54
       -> osal_strlen                0      0     48
       -> osal_mem_alloc             0      0     48
       -> osal_memcpy                0      0     54
       -> osal_memcpy                0      0     54
       -> debug_str                  0      0     48
       -> osal_mem_free              0      0     48
       -> HalLcd_HW_WriteLine        0      0     48
     HalLcdWriteStringValue          1      0     47
       -> osal_strlen                0      0     86
       -> osal_memcpy                0      0     92
       -> _ltoa                      0      0     90
       -> HalLcdWriteString          0      0     86
     HalLcdWriteStringValueValue     1      0     50
       -> osal_strlen                0      0     86
       -> osal_memcpy                0      0     92
       -> _ltoa                      0      0     90
       -> osal_strlen                0      0     86
       -> _ltoa                      0      0     90
       -> HalLcdWriteString          0      0     86
     HalLcdWriteValue                0      0     42
       -> _ltoa                      0      0     82
       -> HalLcdWriteString          0      0     78
     HalLcd_HW_Clear                 0      0      9
       -> lcdControl                 0      0     18
       -> lcdWrite                   0      0     18
       -> lcdControl                 0      0     18
       -> lcdWrite                   0      0     18
     HalLcd_HW_ClearAllSpecChars     0      0      9
       -> lcdControl                 0      0     18
       -> lcdWrite                   0      0     18
     HalLcd_HW_SetContrast           0      0      9
       -> lcdControl                 0      0     18
       -> lcdWrite                   0      0     18
     HalLcd_HW_WaitUs                0      0      0
     HalLcd_HW_WriteLine             0      0     35
       -> osal_strlen                0      0     22
       -> halLcdWriteChar            0      0     22
       -> halLcdWriteChar            0      0     22
     halLcdWriteChar                 0      0     20
       -> lcdControl                 0      0     18
       -> lcdControl                 0      0     18
       -> lcdWrite                   0      0     18
     lcdControl                      2      0      9
       -> halMcuWaitUs               4      0      0
       -> halMcuWaitUs               4      0      0
     lcdWrite                        2      0      9
       -> halMcuWaitUs               4      0      0
       -> halMcuWaitUs               4      0      0


   Segment part sizes:

     Function/Label                      Bytes
     --------------                      -----
     _A_P0                                  1
     _A_P1                                  1
     _A_P2                                  1
     P0DIR                                  1
     Font16x8                            1536
     Lcd_Line1                              2
     pLedData                               1
     HalLcdInit                            65
     ??Subroutine18_0                       7
     HalLcdWriteString                    272
     ??Subroutine14_0                       8
     ??Subroutine15_0                       6
     HalLcdWriteValue                      65
     ??Subroutine17_0                       6
     HalLcdWriteScreen                     23
     ?Subroutine11                          5
     HalLcdWriteStringValue                97
     ?Subroutine12                         23
     ?Subroutine3                           4
     ?Subroutine7                           7
     ?Subroutine4                           4
     ??Subroutine16_0                       4
     HalLcdWriteStringValueValue          220
     ?Subroutine5                           4
     HalLcdDisplayPercentBar              166
     lcdControl                             0
     ?Subroutine9                           7
     ?Subroutine0                          34
     lcdWrite                               2
     HalLcd_HW_SetContrast                  9
     ?Subroutine10                          6
     ?Subroutine6                          11
     HalLcd_HW_Clear                       40
     HalLcd_HW_ClearAllSpecChars           24
     halLcdWriteChar                       25
     HalLcd_HW_WriteLine                   81
     HalLcd_HW_WaitUs                      55
     ?Subroutine2                           2
     ??Subroutine13_0                       4
     ?Subroutine1                          11
     ?Subroutine8                          11
     ??HalLcdInit?relay                     6
     ??HalLcdWriteString?relay              6
     ??HalLcdWriteValue?relay               6
     ??HalLcdWriteScreen?relay              6
     ??HalLcdWriteStringValue?relay         6
     ??HalLcdWriteStringValueValue?relay    6
     ??HalLcdDisplayPercentBar?relay        6
     ??lcdControl?relay                     6
     ??lcdWrite?relay                       6
     ??HalLcd_HW_SetContrast?relay          6
     ??HalLcd_HW_Clear?relay                6
     ??HalLcd_HW_ClearAllSpecChars?relay    6
     ??halLcdWriteChar?relay                6
     ??HalLcd_HW_WriteLine?relay            6
     ??HalLcd_HW_WaitUs?relay               6
     ?<Constant "[          ]  ">          15

 
 1 308 bytes in segment BANKED_CODE
    90 bytes in segment BANK_RELAYS
 1 536 bytes in segment CODE_C
     4 bytes in segment SFR_AN
    15 bytes in segment XDATA_ROM_C
     3 bytes in segment XDATA_Z
 
 2 934 bytes of CODE  memory
    15 bytes of CONST memory
     0 bytes of DATA  memory (+ 4 bytes shared)
     3 bytes of XDATA memory

Errors: none
Warnings: none
