###############################################################################
#                                                                             #
# IAR C/C++ Compiler V7.51A/W32 for 8051                21/Aug/2013  18:10:26 #
# Copyright 2004-2009 IAR Systems AB.                                         #
#                                                                             #
#    Core               =  plain                                              #
#    Code model         =  banked                                             #
#    Data model         =  large                                              #
#    Calling convention =  xdata reentrant                                    #
#    Constant location  =  data_rom                                           #
#    Dptr setup         =  1,16                                               #
#    Source file        =  D:\GitHub\z-stack\Sensor Network                   #
#                          Example\Components\hal\target\CC2530NB\hal_rtc.c   #
#    Command line       =  -f "D:\GitHub\z-stack\Sensor Network               #
#                          Example\Projects\zstack\Sensor Network             #
#                          Application\ZIGBEE Endpoint &                      #
#                          Device\CC2530DB\..\..\..\Tools\CC2530DB\f8wEndev.c #
#                          fg" (-DCPU32MHZ -DROOT=__near_func -DBLINK_LEDS)   #
#                          -f "D:\GitHub\z-stack\Sensor Network               #
#                          Example\Projects\zstack\Sensor Network             #
#                          Application\ZIGBEE Endpoint &                      #
#                          Device\CC2530DB\..\..\..\Tools\CC2530DB\f8wConfig. #
#                          cfg" (-DSECURE=0 -DZG_SECURE_DYNAMIC=0             #
#                          -DREFLECTOR -DDEFAULT_CHANLIST=0x00000800          #
#                          -DZDAPP_CONFIG_PAN_ID=0xFFFF                       #
#                          -DNWK_START_DELAY=100 -DEXTENDED_JOINING_RANDOM_MA #
#                          SK=0x007F -DBEACON_REQUEST_DELAY=100               #
#                          -DBEACON_REQ_DELAY_MASK=0x00FF                     #
#                          -DROUTE_EXPIRY_TIME=30 -DAPSC_ACK_WAIT_DURATION_PO #
#                          LLED=3000 -DNWK_INDIRECT_MSG_TIMEOUT=7             #
#                          -DMAX_RREQ_ENTRIES=8 -DAPSC_MAX_FRAME_RETRIES=3    #
#                          -DNWK_MAX_DATA_RETRIES=2                           #
#                          -DMAX_POLL_FAILURE_RETRIES=2 -DMAX_BCAST=9         #
#                          -DAPS_MAX_GROUPS=16 -DMAX_RTG_ENTRIES=40           #
#                          -DNWK_MAX_BINDING_ENTRIES=4                        #
#                          -DMAX_BINDING_CLUSTER_IDS=4 "-DDEFAULT_KEY={0x01,  #
#                          0x03, 0x05, 0x07, 0x09, 0x0B, 0x0D, 0x0F, 0x00,    #
#                          0x02, 0x04, 0x06, 0x08, 0x0A, 0x0C, 0x0D}"         #
#                          -DMAC_MAX_FRAME_SIZE=116 "-DCONST=const __code"    #
#                          -DGENERIC=__generic -DRFD_RCVC_ALWAYS_ON=TRUE      #
#                          -DPOLL_RATE=1000 -DQUEUED_POLL_RATE=100            #
#                          -DRESPONSE_POLL_RATE=100 -DREJOIN_POLL_RATE=440)   #
#                          -f "D:\GitHub\z-stack\Sensor Network               #
#                          Example\Projects\zstack\Sensor Network             #
#                          Application\ZIGBEE Endpoint &                      #
#                          Device\CC2530DB\..\..\..\Tools\CC2530DB\f8wZCL.cfg #
#                          " (-DZCL_READ -DZCL_WRITE -DZCL_BASIC              #
#                          -DZCL_IDENTIFY -DZCL_ON_OFF -DZCL_KEY_ESTABLISH    #
#                          -DZCL_LOAD_CONTROL -DZCL_SIMPLE_METERING           #
#                          -DZCL_PRICING) -DZCL_MESSAGE                       #
#                          "D:\GitHub\z-stack\Sensor Network                  #
#                          Example\Components\hal\target\CC2530NB\hal_rtc.c"  #
#                          -D NWK_AUTO_POLL -D ZTOOL_P1 -D MT_TASK -D         #
#                          MT_APP_FUNC -D MT_SYS_FUNC -D MT_ZDO_FUNC -D       #
#                          LCD_SUPPORTED=DEBUG -D xPOWER_SAVING -D            #
#                          End_Device -D M140 -D xPA2591 -lC                  #
#                          "D:\GitHub\z-stack\Sensor Network                  #
#                          Example\Projects\zstack\Sensor Network             #
#                          Application\ZIGBEE Endpoint &                      #
#                          Device\CC2530DB\EndDeviceKB_M140\List\" -lA        #
#                          "D:\GitHub\z-stack\Sensor Network                  #
#                          Example\Projects\zstack\Sensor Network             #
#                          Application\ZIGBEE Endpoint &                      #
#                          Device\CC2530DB\EndDeviceKB_M140\List\"            #
#                          --diag_suppress Pe001,Pa010 -o                     #
#                          "D:\GitHub\z-stack\Sensor Network                  #
#                          Example\Projects\zstack\Sensor Network             #
#                          Application\ZIGBEE Endpoint &                      #
#                          Device\CC2530DB\EndDeviceKB_M140\Obj\" -e          #
#                          --require_prototypes --debug --core=plain          #
#                          --dptr=16,1 --data_model=large                     #
#                          --code_model=banked --calling_convention=xdata_ree #
#                          ntrant --place_constants=data_rom                  #
#                          --nr_virtual_regs 16 -I "D:\GitHub\z-stack\Sensor  #
#                          Network Example\Projects\zstack\Sensor Network     #
#                          Application\ZIGBEE Endpoint & Device\CC2530DB\"    #
#                          -I "D:\GitHub\z-stack\Sensor Network               #
#                          Example\Projects\zstack\Sensor Network             #
#                          Application\ZIGBEE Endpoint &                      #
#                          Device\CC2530DB\..\SOURCE\" -I                     #
#                          "D:\GitHub\z-stack\Sensor Network                  #
#                          Example\Projects\zstack\Sensor Network             #
#                          Application\ZIGBEE Endpoint &                      #
#                          Device\CC2530DB\..\..\SOURCE\" -I                  #
#                          "D:\GitHub\z-stack\Sensor Network                  #
#                          Example\Projects\zstack\Sensor Network             #
#                          Application\ZIGBEE Endpoint &                      #
#                          Device\CC2530DB\..\..\..\ZMAIN\TI2530DB\" -I       #
#                          "D:\GitHub\z-stack\Sensor Network                  #
#                          Example\Projects\zstack\Sensor Network             #
#                          Application\ZIGBEE Endpoint &                      #
#                          Device\CC2530DB\..\..\..\..\..\COMPONENTS\MT\" -I  #
#                          "D:\GitHub\z-stack\Sensor Network                  #
#                          Example\Projects\zstack\Sensor Network             #
#                          Application\ZIGBEE Endpoint &                      #
#                          Device\CC2530DB\..\..\..\..\..\COMPONENTS\HAL\INCL #
#                          UDE\" -I "D:\GitHub\z-stack\Sensor Network         #
#                          Example\Projects\zstack\Sensor Network             #
#                          Application\ZIGBEE Endpoint &                      #
#                          Device\CC2530DB\..\..\..\..\..\COMPONENTS\HAL\MODU #
#                          LE\" -I "D:\GitHub\z-stack\Sensor Network          #
#                          Example\Projects\zstack\Sensor Network             #
#                          Application\ZIGBEE Endpoint &                      #
#                          Device\CC2530DB\..\..\..\..\..\COMPONENTS\HAL\TARG #
#                          ET\CC2530KB\" -I "D:\GitHub\z-stack\Sensor         #
#                          Network Example\Projects\zstack\Sensor Network     #
#                          Application\ZIGBEE Endpoint &                      #
#                          Device\CC2530DB\..\..\..\..\..\COMPONENTS\OSAL\MCU #
#                          \CCSOC\" -I "D:\GitHub\z-stack\Sensor Network      #
#                          Example\Projects\zstack\Sensor Network             #
#                          Application\ZIGBEE Endpoint &                      #
#                          Device\CC2530DB\..\..\..\..\..\COMPONENTS\OSAL\INC #
#                          LUDE\" -I "D:\GitHub\z-stack\Sensor Network        #
#                          Example\Projects\zstack\Sensor Network             #
#                          Application\ZIGBEE Endpoint &                      #
#                          Device\CC2530DB\..\..\..\..\..\COMPONENTS\STACK\AF #
#                          \" -I "D:\GitHub\z-stack\Sensor Network            #
#                          Example\Projects\zstack\Sensor Network             #
#                          Application\ZIGBEE Endpoint &                      #
#                          Device\CC2530DB\..\..\..\..\..\COMPONENTS\STACK\NW #
#                          K\" -I "D:\GitHub\z-stack\Sensor Network           #
#                          Example\Projects\zstack\Sensor Network             #
#                          Application\ZIGBEE Endpoint &                      #
#                          Device\CC2530DB\..\..\..\..\..\COMPONENTS\STACK\SE #
#                          C\" -I "D:\GitHub\z-stack\Sensor Network           #
#                          Example\Projects\zstack\Sensor Network             #
#                          Application\ZIGBEE Endpoint &                      #
#                          Device\CC2530DB\..\..\..\..\..\COMPONENTS\STACK\SA #
#                          PI\" -I "D:\GitHub\z-stack\Sensor Network          #
#                          Example\Projects\zstack\Sensor Network             #
#                          Application\ZIGBEE Endpoint &                      #
#                          Device\CC2530DB\..\..\..\..\..\COMPONENTS\STACK\SY #
#                          S\" -I "D:\GitHub\z-stack\Sensor Network           #
#                          Example\Projects\zstack\Sensor Network             #
#                          Application\ZIGBEE Endpoint &                      #
#                          Device\CC2530DB\..\..\..\..\..\COMPONENTS\STACK\ZC #
#                          L\" -I "D:\GitHub\z-stack\Sensor Network           #
#                          Example\Projects\zstack\Sensor Network             #
#                          Application\ZIGBEE Endpoint &                      #
#                          Device\CC2530DB\..\..\..\..\..\COMPONENTS\STACK\ZD #
#                          O\" -I "D:\GitHub\z-stack\Sensor Network           #
#                          Example\Projects\zstack\Sensor Network             #
#                          Application\ZIGBEE Endpoint &                      #
#                          Device\CC2530DB\..\..\..\..\..\COMPONENTS\ZMAC\F8W #
#                          \" -I "D:\GitHub\z-stack\Sensor Network            #
#                          Example\Projects\zstack\Sensor Network             #
#                          Application\ZIGBEE Endpoint &                      #
#                          Device\CC2530DB\..\..\..\..\..\COMPONENTS\ZMAC\"   #
#                          -I "D:\GitHub\z-stack\Sensor Network               #
#                          Example\Projects\zstack\Sensor Network             #
#                          Application\ZIGBEE Endpoint &                      #
#                          Device\CC2530DB\..\..\..\..\..\COMPONENTS\SERVICES #
#                          \SADDR\" -I "D:\GitHub\z-stack\Sensor Network      #
#                          Example\Projects\zstack\Sensor Network             #
#                          Application\ZIGBEE Endpoint &                      #
#                          Device\CC2530DB\..\..\..\..\..\COMPONENTS\SERVICES #
#                          \SDATA\" -I "D:\GitHub\z-stack\Sensor Network      #
#                          Example\Projects\zstack\Sensor Network             #
#                          Application\ZIGBEE Endpoint &                      #
#                          Device\CC2530DB\..\..\..\..\..\COMPONENTS\MAC\INCL #
#                          UDE\" -I "D:\GitHub\z-stack\Sensor Network         #
#                          Example\Projects\zstack\Sensor Network             #
#                          Application\ZIGBEE Endpoint &                      #
#                          Device\CC2530DB\..\..\..\..\..\COMPONENTS\MAC\HIGH #
#                          _LEVEL\" -I "D:\GitHub\z-stack\Sensor Network      #
#                          Example\Projects\zstack\Sensor Network             #
#                          Application\ZIGBEE Endpoint &                      #
#                          Device\CC2530DB\..\..\..\..\..\COMPONENTS\MAC\LOW_ #
#                          LEVEL\srf04\" -I "D:\GitHub\z-stack\Sensor         #
#                          Network Example\Projects\zstack\Sensor Network     #
#                          Application\ZIGBEE Endpoint &                      #
#                          Device\CC2530DB\..\..\..\..\..\COMPONENTS\MAC\LOW_ #
#                          LEVEL\srf04\SINGLE_CHIP\" -I "C:\Program Files     #
#                          (x86)\IAR Systems\Embedded Workbench               #
#                          5.3\8051\INC\" -I "C:\Program Files (x86)\IAR      #
#                          Systems\Embedded Workbench 5.3\8051\INC\CLIB\"     #
#                          -Ohz                                               #
#    List file          =  D:\GitHub\z-stack\Sensor Network                   #
#                          Example\Projects\zstack\Sensor Network             #
#                          Application\ZIGBEE Endpoint &                      #
#                          Device\CC2530DB\EndDeviceKB_M140\List\hal_rtc.lst  #
#    Object file        =  D:\GitHub\z-stack\Sensor Network                   #
#                          Example\Projects\zstack\Sensor Network             #
#                          Application\ZIGBEE Endpoint &                      #
#                          Device\CC2530DB\EndDeviceKB_M140\Obj\hal_rtc.r51   #
#                                                                             #
#                                                                             #
###############################################################################

D:\GitHub\z-stack\Sensor Network Example\Components\hal\target\CC2530NB\hal_rtc.c
      1          //-------------------------------------------------------------------
      2          // Filename: M100.c
      3          // Description: S35190 RTC library RTC®ÉÄÁ(I2C)
      4          //-------------------------------------------------------------------
      5          //-------------------------------------------------------------------
      6          // INCLUDES
      7          //-------------------------------------------------------------------
      8          #include "hal_defs.h"
      9          #include "hal_timer.h"

   \                                 In  segment SFR_AN, at 0x90
   \   union <unnamed> volatile __sfr _A_P1
   \                     _A_P1:
   \   000000                DS 1

   \                                 In  segment SFR_AN, at 0xf4
   \   unsigned char volatile __sfr P1SEL
   \                     P1SEL:
   \   000000                DS 1

   \                                 In  segment SFR_AN, at 0xf6
   \   unsigned char volatile __sfr P1INP
   \                     P1INP:
   \   000000                DS 1

   \                                 In  segment SFR_AN, at 0xfe
   \   unsigned char volatile __sfr P1DIR
   \                     P1DIR:
   \   000000                DS 1
     10          #include "hal_board.h"
     11          #include "hal_adc.h"
     12          #include "hal_rtc.h"
     13          
     14          //-------------------------------------------------------------------
     15          // LOCAL FUNCTION
     16          //-------------------------------------------------------------------
     17          uint8 GetRTCData(void);
     18          void SetRTCCommand(uint8 c);
     19          void SetRTCData(uint8 c);
     20          uint8 ConvertBCD(uint8 ch);
     21          uint8 ConvertHEX(uint8 ch);
     22          
     23          

   \                                 In  segment XDATA_Z, align 1, keep-with-next
     24          uint16 Year;
   \                     Year:
   \   000000                DS 2
   \   000002                REQUIRE __INIT_XDATA_Z

   \                                 In  segment XDATA_Z, align 1, keep-with-next
     25          uint8 Month, Day, Hour, Min, Sec;
   \                     Month:
   \   000000                DS 1
   \   000001                REQUIRE __INIT_XDATA_Z

   \                                 In  segment XDATA_Z, align 1, keep-with-next
   \                     Day:
   \   000000                DS 1
   \   000001                REQUIRE __INIT_XDATA_Z

   \                                 In  segment XDATA_Z, align 1, keep-with-next
   \                     Hour:
   \   000000                DS 1
   \   000001                REQUIRE __INIT_XDATA_Z

   \                                 In  segment XDATA_Z, align 1, keep-with-next
   \                     Min:
   \   000000                DS 1
   \   000001                REQUIRE __INIT_XDATA_Z

   \                                 In  segment XDATA_Z, align 1, keep-with-next
   \                     Sec:
   \   000000                DS 1
   \   000001                REQUIRE __INIT_XDATA_Z
     26          //-------------------------------------------------------------------

   \                                 In  segment BANKED_CODE, align 1, keep-with-next
     27          uint8 GetRTCData(void)
   \                     GetRTCData:
     28          {
   \   000000   74F7         MOV     A,#-0x9
   \   000002   12....       LCALL   ?BANKED_ENTER_XDATA
   \   000005                ; Saved register size: 9
   \   000005                ; Auto size: 0
     29              uint8 i, c;
     30          
     31              HAL_RTC_SIO_DIR_IN();
   \   000005   53F4FB       ANL     0xf4,#0xfb
   \   000008   53FEFB       ANL     0xfe,#0xfb
   \   00000B   53F6FB       ANL     0xf6,#0xfb
     32              c = 0;
     33              for (i = 0; i < 8; i++)
   \   00000E   7E08         MOV     R6,#0x8
     34              {
     35                  halMcuWaitUs(20);
   \                     ??GetRTCData_0:
   \   000010                ; Setup parameters for call to function halMcuWaitUs
   \   000010   12....       LCALL   ?Subroutine6 & 0xFFFF
     36                  HAL_RTC_SCK_CLR();
     37                  halMcuWaitUs(20);
     38                  HAL_RTC_SCK_SET();
     39                  halMcuWaitUs(20);
     40                  if (HAL_RTC_SIO_VAL())
   \                     ??CrossCallReturnLabel_13:
   \   000013   E590         MOV     A,0x90
     41                  {
     42                      c |= (0x01 << i);
     43                  }
     44              }
   \   000015   1E           DEC     R6
   \   000016   EE           MOV     A,R6
   \   000017   70F7         JNZ     ??GetRTCData_0
     45              HAL_RTC_SIO_DIR_OUT();
   \   000019   12....       LCALL   ?Subroutine5 & 0xFFFF
     46              return c;
   \                     ??CrossCallReturnLabel_11:
   \   00001C   7900         MOV     R1,#0x0
   \   00001E                REQUIRE ?Subroutine8
   \   00001E                REQUIRE _A_P1
   \   00001E                REQUIRE P1SEL
   \   00001E                REQUIRE P1INP
   \   00001E                REQUIRE P1DIR
   \   00001E                ; // Fall through to label ?Subroutine8
     47          }

   \                                 In  segment BANKED_CODE, align 1, keep-with-next
   \                     ?Subroutine8:
   \   000000   7F01         MOV     R7,#0x1
   \   000002   02....       LJMP    ?BANKED_LEAVE_XDATA

   \                                 In  segment BANKED_CODE, align 1, keep-with-next
   \                     ?Subroutine6:
   \   000000   7A14         MOV     R2,#0x14
   \   000002   7B00         MOV     R3,#0x0
   \   000004   12....       LCALL   ??halMcuWaitUs?relay
   \   000007   C293         CLR     0x90.3
   \   000009                ; Setup parameters for call to function halMcuWaitUs
   \   000009                ; Setup parameters for call to function halMcuWaitUs
   \   000009                ; Setup parameters for call to function halMcuWaitUs
   \   000009   7A14         MOV     R2,#0x14
   \   00000B   7B00         MOV     R3,#0x0
   \   00000D   12....       LCALL   ??halMcuWaitUs?relay
   \   000010   D293         SETB    0x90.3
   \   000012                ; Setup parameters for call to function halMcuWaitUs
   \   000012                ; Setup parameters for call to function halMcuWaitUs
   \   000012                ; Setup parameters for call to function halMcuWaitUs
   \   000012   7A14         MOV     R2,#0x14
   \   000014   7B00         MOV     R3,#0x0
   \   000016   12....       LCALL   ??halMcuWaitUs?relay
   \   000019   22           RET

   \                                 In  segment BANKED_CODE, align 1, keep-with-next
   \                     ?Subroutine5:
   \   000000   53F4FB       ANL     0xf4,#0xfb
   \   000003   D292         SETB    0x90.2
   \   000005   43FE04       ORL     0xfe,#0x4
   \   000008   22           RET
     48          
     49          
     50          //-------------------------------------------------------------------

   \                                 In  segment BANKED_CODE, align 1, keep-with-next
     51          void SetRTCCommand(uint8 c)
   \                     SetRTCCommand:
     52          {
   \   000000   74F6         MOV     A,#-0xa
   \   000002   12....       LCALL   ?BANKED_ENTER_XDATA
   \   000005                ; Saved register size: 10
   \   000005                ; Auto size: 0
   \   000005   E9           MOV     A,R1
   \   000006   FF           MOV     R7,A
     53              uint8 i;
     54          
     55              for (i = 0; i < 8; i++)
   \   000007   7E00         MOV     R6,#0x0
     56              {
     57                  if (c &(0x80 >> i))
   \                     ??SetRTCCommand_0:
   \   000009   75..80       MOV     ?V0 + 0,#-0x80
   \   00000C   75..00       MOV     ?V0 + 1,#0x0
   \   00000F   EE           MOV     A,R6
   \   000010   78..         MOV     R0,#?V0 + 0
   \   000012   12....       LCALL   ?SS_SHR
   \   000015   E5..         MOV     A,?V0 + 0
   \   000017   5F           ANL     A,R7
   \   000018   6004         JZ      ??SetRTCCommand_1
     58                  {
     59                      HAL_RTC_SIO_SET();
   \   00001A   D292         SETB    0x90.2
   \   00001C   8002         SJMP    ??SetRTCCommand_2
     60                  }
     61                  else
     62                  {
     63                      HAL_RTC_SIO_CLR();
   \                     ??SetRTCCommand_1:
   \   00001E   C292         CLR     0x90.2
     64                  }
     65          
     66                  halMcuWaitUs(20);
   \                     ??SetRTCCommand_2:
   \   000020                ; Setup parameters for call to function halMcuWaitUs
   \   000020   12....       LCALL   ?Subroutine0 & 0xFFFF
     67                  HAL_RTC_SCK_CLR();
     68                  halMcuWaitUs(20);
     69                  HAL_RTC_SCK_SET();
     70                  halMcuWaitUs(20);
     71              }
   \                     ??CrossCallReturnLabel_0:
   \   000023   40E4         JC      ??SetRTCCommand_0
     72              HAL_RTC_SIO_SET();
   \   000025                REQUIRE ?Subroutine9
   \   000025                REQUIRE _A_P1
   \   000025                ; // Fall through to label ?Subroutine9
     73          }

   \                                 In  segment BANKED_CODE, align 1, keep-with-next
   \                     ?Subroutine9:
   \   000000   D292         SETB    0x90.2
   \   000002                REQUIRE ??Subroutine11_0
   \   000002                ; // Fall through to label ??Subroutine11_0

   \                                 In  segment BANKED_CODE, align 1, keep-with-next
   \                     ??Subroutine11_0:
   \   000000   7F02         MOV     R7,#0x2
   \   000002   02....       LJMP    ?BANKED_LEAVE_XDATA

   \                                 In  segment BANKED_CODE, align 1, keep-with-next
   \                     ?Subroutine0:
   \   000000   12....       LCALL   ?Subroutine6 & 0xFFFF
   \                     ??CrossCallReturnLabel_14:
   \   000003   0E           INC     R6
   \   000004   EE           MOV     A,R6
   \   000005   C3           CLR     C
   \   000006   9408         SUBB    A,#0x8
   \   000008   22           RET
     74          
     75          //-------------------------------------------------------------------

   \                                 In  segment BANKED_CODE, align 1, keep-with-next
     76          void SetRTCData(uint8 c)
   \                     SetRTCData:
     77          {
   \   000000   74F6         MOV     A,#-0xa
   \   000002   12....       LCALL   ?BANKED_ENTER_XDATA
   \   000005                ; Saved register size: 10
   \   000005                ; Auto size: 0
   \   000005   E9           MOV     A,R1
   \   000006   FF           MOV     R7,A
     78              uint8 i;
     79          
     80              for (i = 0; i < 8; i++)
   \   000007   7E00         MOV     R6,#0x0
     81              {
     82                  if (c &(0x01 << i))
   \                     ??SetRTCData_0:
   \   000009   75..01       MOV     ?V0 + 0,#0x1
   \   00000C   75..00       MOV     ?V0 + 1,#0x0
   \   00000F   EE           MOV     A,R6
   \   000010   78..         MOV     R0,#?V0 + 0
   \   000012   12....       LCALL   ?S_SHL
   \   000015   E5..         MOV     A,?V0 + 0
   \   000017   5F           ANL     A,R7
   \   000018   6004         JZ      ??SetRTCData_1
     83                  {
     84                      HAL_RTC_SIO_SET();
   \   00001A   D292         SETB    0x90.2
   \   00001C   8002         SJMP    ??SetRTCData_2
     85                  }
     86                  else
     87                  {
     88                      HAL_RTC_SIO_CLR();
   \                     ??SetRTCData_1:
   \   00001E   C292         CLR     0x90.2
     89                  }
     90          
     91                  halMcuWaitUs(20);
   \                     ??SetRTCData_2:
   \   000020                ; Setup parameters for call to function halMcuWaitUs
   \   000020   12....       LCALL   ?Subroutine0 & 0xFFFF
     92                  HAL_RTC_SCK_CLR();
     93                  halMcuWaitUs(20);
     94                  HAL_RTC_SCK_SET();
     95                  halMcuWaitUs(20);
     96              }
   \                     ??CrossCallReturnLabel_1:
   \   000023   40E4         JC      ??SetRTCData_0
     97              HAL_RTC_SIO_SET();
   \   000025   80..         SJMP    ?Subroutine9
   \   000027                REQUIRE _A_P1
     98          }
     99          
    100          //-------------------------------------------------------------------

   \                                 In  segment BANKED_CODE, align 1, keep-with-next
    101          uint8 ConvertBCD(uint8 ch)
   \                     ConvertBCD:
    102          {
   \   000000                ; Saved register size: 0
   \   000000                ; Auto size: 0
    103              return (((ch / 10) *16) + (ch % 10));
   \   000000   E9           MOV     A,R1
   \   000001   75F00A       MOV     B,#0xa
   \   000004   84           DIV     AB
   \   000005   AAF0         MOV     R2,B
   \   000007   75F00A       MOV     B,#0xa
   \   00000A   E9           MOV     A,R1
   \   00000B   84           DIV     AB
   \   00000C   C4           SWAP    A
   \   00000D   54F0         ANL     A,#0xf0
   \   00000F                REQUIRE ?Subroutine10
   \   00000F                ; // Fall through to label ?Subroutine10
    104          }

   \                                 In  segment BANKED_CODE, align 1, keep-with-next
   \                     ?Subroutine10:
   \   000000   2A           ADD     A,R2
   \   000001   F9           MOV     R1,A
   \   000002   02....       LJMP    ?BRET
    105          
    106          //-------------------------------------------------------------------

   \                                 In  segment BANKED_CODE, align 1, keep-with-next
    107          uint8 ConvertHEX(uint8 ch)
   \                     ConvertHEX:
    108          {
   \   000000                ; Saved register size: 0
   \   000000                ; Auto size: 0
    109              return (((ch / 16) *10) + (ch % 16));
   \   000000   740F         MOV     A,#0xf
   \   000002   59           ANL     A,R1
   \   000003   C0E0         PUSH    A
   \   000005   75F00A       MOV     B,#0xa
   \   000008   E9           MOV     A,R1
   \   000009   C4           SWAP    A
   \   00000A   540F         ANL     A,#0xf
   \   00000C   A4           MUL     AB
   \   00000D   FA           MOV     R2,A
   \   00000E   D0E0         POP     A
   \   000010   80..         SJMP    ?Subroutine10
    110          }
    111          
    112          //-------------------------------------------------------------------

   \                                 In  segment BANKED_CODE, align 1, keep-with-next
    113          void RTC_Init(void)
   \                     RTC_Init:
    114          {
   \   000000   74F7         MOV     A,#-0x9
   \   000002   12....       LCALL   ?BANKED_ENTER_XDATA
   \   000005                ; Saved register size: 9
   \   000005                ; Auto size: 0
    115              uint8 ch,flag=0;
   \   000005   7E00         MOV     R6,#0x0
    116          
    117              HAL_RTC_SIO_DIR_OUT();
   \   000007   12....       LCALL   ?Subroutine5 & 0xFFFF
    118              HAL_RTC_SCK_DIR_OUT();
   \                     ??CrossCallReturnLabel_12:
   \   00000A   53F4F7       ANL     0xf4,#0xf7
   \   00000D   D293         SETB    0x90.3
   \   00000F   43FE08       ORL     0xfe,#0x8
    119              HAL_RTC_CS_DIR_OUT();
   \   000012   53F4EF       ANL     0xf4,#0xef
   \   000015   D294         SETB    0x90.4
   \   000017   43FE10       ORL     0xfe,#0x10
    120              
    121              HAL_RTC_CS_DIS();
   \   00001A   C294         CLR     0x90.4
    122              HAL_RTC_SCK_SET();
   \   00001C   D293         SETB    0x90.3
    123              HAL_RTC_SIO_SET();
   \   00001E   D292         SETB    0x90.2
    124          
    125              HAL_RTC_CS_EN();
   \   000020   D294         SETB    0x90.4
    126              SetRTCCommand(0x61); // Read Register
   \   000022                ; Setup parameters for call to function SetRTCCommand
   \   000022   7961         MOV     R1,#0x61
   \   000024   12....       LCALL   ?Subroutine2 & 0xFFFF
    127              ch = GetRTCData();
    128              halMcuWaitUs(200);
    129              if (ch &0x80)
   \                     ??CrossCallReturnLabel_7:
   \   000027   5004         JNC     ??RTC_Init_0
    130              {
    131                  SetRTCCommand(0x60);
   \   000029                ; Setup parameters for call to function SetRTCCommand
   \   000029   12....       LCALL   ?Subroutine4 & 0xFFFF
    132                  SetRTCData(0x01);
    133                  flag=1;
   \                     ??CrossCallReturnLabel_9:
   \   00002C   0E           INC     R6
    134              }
    135              HAL_RTC_CS_DIS();
   \                     ??RTC_Init_0:
   \   00002D   C294         CLR     0x90.4
    136          
    137              HAL_RTC_CS_EN();
   \   00002F   D294         SETB    0x90.4
    138              SetRTCCommand(0x63); // Read Register
   \   000031                ; Setup parameters for call to function SetRTCCommand
   \   000031   7963         MOV     R1,#0x63
   \   000033   12....       LCALL   ?Subroutine2 & 0xFFFF
    139              ch = GetRTCData();
    140              halMcuWaitUs(200);
    141              if (ch &0x80)
   \                     ??CrossCallReturnLabel_8:
   \   000036   5005         JNC     ??RTC_Init_1
    142              {
    143                  SetRTCCommand(0x60);
   \   000038                ; Setup parameters for call to function SetRTCCommand
   \   000038   12....       LCALL   ?Subroutine4 & 0xFFFF
    144                  SetRTCData(0x01);
    145                  flag=1;
   \                     ??CrossCallReturnLabel_10:
   \   00003B   7E01         MOV     R6,#0x1
    146              }
    147              HAL_RTC_CS_DIS();
   \                     ??RTC_Init_1:
   \   00003D   C294         CLR     0x90.4
    148          
    149              if(flag==1)
   \   00003F   7401         MOV     A,#0x1
   \   000041   6E           XRL     A,R6
   \   000042   701C         JNZ     ??RTC_Init_2
    150              {
    151                  HAL_RTC_CS_EN();
   \   000044   D294         SETB    0x90.4
    152                  SetRTCCommand(0x60); // Write Register
   \   000046                ; Setup parameters for call to function SetRTCCommand
   \   000046   7960         MOV     R1,#0x60
   \   000048   12....       LCALL   ??SetRTCCommand?relay
    153                  SetRTCData(0x02);
   \   00004B                ; Setup parameters for call to function SetRTCData
   \   00004B   7902         MOV     R1,#0x2
   \   00004D   12....       LCALL   ??SetRTCData?relay
    154                  HAL_RTC_CS_DIS();
   \   000050   C294         CLR     0x90.4
    155                  HAL_RTC_CS_EN();
   \   000052   D294         SETB    0x90.4
    156                  SetRTCCommand(0x62); // Write Register
   \   000054                ; Setup parameters for call to function SetRTCCommand
   \   000054   7962         MOV     R1,#0x62
   \   000056   12....       LCALL   ??SetRTCCommand?relay
    157                  SetRTCData(0x08);
   \   000059                ; Setup parameters for call to function SetRTCData
   \   000059   7908         MOV     R1,#0x8
   \   00005B   12....       LCALL   ??SetRTCData?relay
    158                  HAL_RTC_CS_DIS();
   \   00005E   C294         CLR     0x90.4
    159              }
    160          }
   \                     ??RTC_Init_2:
   \   000060   02....       LJMP    ?Subroutine8 & 0xFFFF
   \   000063                REQUIRE _A_P1
   \   000063                REQUIRE P1SEL
   \   000063                REQUIRE P1DIR

   \                                 In  segment BANKED_CODE, align 1, keep-with-next
   \                     ?Subroutine4:
   \   000000   7960         MOV     R1,#0x60
   \   000002   12....       LCALL   ??SetRTCCommand?relay
   \   000005                ; Setup parameters for call to function SetRTCData
   \   000005                ; Setup parameters for call to function SetRTCData
   \   000005   7901         MOV     R1,#0x1
   \   000007   12....       LCALL   ??SetRTCData?relay
   \   00000A   22           RET

   \                                 In  segment BANKED_CODE, align 1, keep-with-next
   \                     ?Subroutine2:
   \   000000   12....       LCALL   ??SetRTCCommand?relay
   \   000003                ; Setup parameters for call to function GetRTCData
   \   000003                ; Setup parameters for call to function GetRTCData
   \   000003   12....       LCALL   ??GetRTCData?relay
   \   000006   E9           MOV     A,R1
   \   000007   FF           MOV     R7,A
   \   000008                ; Setup parameters for call to function halMcuWaitUs
   \   000008                ; Setup parameters for call to function halMcuWaitUs
   \   000008   7AC8         MOV     R2,#-0x38
   \   00000A   7B00         MOV     R3,#0x0
   \   00000C   12....       LCALL   ??halMcuWaitUs?relay
   \   00000F   EF           MOV     A,R7
   \   000010   A2E7         MOV     C,0xE0 /* A   */.7
   \   000012   22           RET
    161          
    162          //-------------------------------------------------------------------

   \                                 In  segment BANKED_CODE, align 1, keep-with-next
    163          void SetDateTime(void)
   \                     SetDateTime:
    164          {
   \   000000   74F7         MOV     A,#-0x9
   \   000002   12....       LCALL   ?BANKED_ENTER_XDATA
   \   000005                ; Saved register size: 9
   \   000005                ; Auto size: 0
    165              uint8 y;
    166          
    167              HAL_RTC_CS_EN();
   \   000005   D294         SETB    0x90.4
    168          
    169              if (Year < 2000 || Year > 2099)
   \   000007   90....       MOV     DPTR,#Year
   \   00000A   C3           CLR     C
   \   00000B   E0           MOVX    A,@DPTR
   \   00000C   94D0         SUBB    A,#-0x30
   \   00000E   A3           INC     DPTR
   \   00000F   E0           MOVX    A,@DPTR
   \   000010   9407         SUBB    A,#0x7
   \   000012   400D         JC      ??SetDateTime_0
   \   000014   90....       MOV     DPTR,#Year
   \   000017   C3           CLR     C
   \   000018   E0           MOVX    A,@DPTR
   \   000019   9434         SUBB    A,#0x34
   \   00001B   A3           INC     DPTR
   \   00001C   E0           MOVX    A,@DPTR
   \   00001D   9408         SUBB    A,#0x8
   \   00001F   400A         JC      ??SetDateTime_1
    170              {
    171                  Year = 2000;
   \                     ??SetDateTime_0:
   \   000021   90....       MOV     DPTR,#Year
   \   000024   74D0         MOV     A,#-0x30
   \   000026   F0           MOVX    @DPTR,A
   \   000027   A3           INC     DPTR
   \   000028   7407         MOV     A,#0x7
   \   00002A   F0           MOVX    @DPTR,A
    172              }
    173              y = (uint8)(Year - 2000);
   \                     ??SetDateTime_1:
   \   00002B   90....       MOV     DPTR,#Year
   \   00002E   E0           MOVX    A,@DPTR
   \   00002F   2430         ADD     A,#0x30
   \   000031   FE           MOV     R6,A
    174          
    175              SetRTCCommand(0x64);
   \   000032                ; Setup parameters for call to function SetRTCCommand
   \   000032   7964         MOV     R1,#0x64
   \   000034   12....       LCALL   ??SetRTCCommand?relay
    176              SetRTCData(ConvertBCD(y));
   \   000037                ; Setup parameters for call to function SetRTCData
   \   000037                ; Setup parameters for call to function ConvertBCD
   \   000037   EE           MOV     A,R6
   \   000038   12....       LCALL   ?Subroutine7 & 0xFFFF
    177              SetRTCData(ConvertBCD(Month));
   \                     ??CrossCallReturnLabel_15:
   \   00003B                ; Setup parameters for call to function SetRTCData
   \   00003B                ; Setup parameters for call to function ConvertBCD
   \   00003B   90....       MOV     DPTR,#Month
   \   00003E   12....       LCALL   ?Subroutine1 & 0xFFFF
    178              SetRTCData(ConvertBCD(Day));
   \                     ??CrossCallReturnLabel_2:
   \   000041                ; Setup parameters for call to function SetRTCData
   \   000041                ; Setup parameters for call to function ConvertBCD
   \   000041   90....       MOV     DPTR,#Day
   \   000044   12....       LCALL   ?Subroutine1 & 0xFFFF
    179              SetRTCData(ConvertBCD(0));
   \                     ??CrossCallReturnLabel_3:
   \   000047                ; Setup parameters for call to function SetRTCData
   \   000047                ; Setup parameters for call to function ConvertBCD
   \   000047   7900         MOV     R1,#0x0
   \   000049   12....       LCALL   ??Subroutine12_0 & 0xFFFF
    180              SetRTCData(ConvertBCD(Hour));
   \                     ??CrossCallReturnLabel_17:
   \   00004C                ; Setup parameters for call to function SetRTCData
   \   00004C                ; Setup parameters for call to function ConvertBCD
   \   00004C   90....       MOV     DPTR,#Hour
   \   00004F   12....       LCALL   ?Subroutine1 & 0xFFFF
    181              SetRTCData(ConvertBCD(Min));
   \                     ??CrossCallReturnLabel_4:
   \   000052                ; Setup parameters for call to function SetRTCData
   \   000052                ; Setup parameters for call to function ConvertBCD
   \   000052   90....       MOV     DPTR,#Min
   \   000055   12....       LCALL   ?Subroutine1 & 0xFFFF
    182              SetRTCData(ConvertBCD(Sec));
   \                     ??CrossCallReturnLabel_5:
   \   000058                ; Setup parameters for call to function SetRTCData
   \   000058                ; Setup parameters for call to function ConvertBCD
   \   000058   90....       MOV     DPTR,#Sec
   \   00005B   12....       LCALL   ?Subroutine1 & 0xFFFF
    183          
    184              HAL_RTC_CS_DIS();
   \                     ??CrossCallReturnLabel_6:
   \   00005E   C294         CLR     0x90.4
    185          }
   \   000060   02....       LJMP    ?Subroutine8 & 0xFFFF
   \   000063                REQUIRE _A_P1

   \                                 In  segment BANKED_CODE, align 1, keep-with-next
   \                     ?Subroutine1:
   \   000000   E0           MOVX    A,@DPTR
   \   000001   12....       LCALL   ?Subroutine7 & 0xFFFF
   \                     ??CrossCallReturnLabel_16:
   \   000004   22           RET

   \                                 In  segment BANKED_CODE, align 1, keep-with-next
   \                     ?Subroutine7:
   \   000000   F9           MOV     R1,A
   \   000001                REQUIRE ??Subroutine12_0
   \   000001                ; // Fall through to label ??Subroutine12_0

   \                                 In  segment BANKED_CODE, align 1, keep-with-next
   \                     ??Subroutine12_0:
   \   000000   12....       LCALL   ??ConvertBCD?relay
   \   000003   12....       LCALL   ??SetRTCData?relay
   \   000006   22           RET
    186          
    187          //-------------------------------------------------------------------

   \                                 In  segment BANKED_CODE, align 1, keep-with-next
    188          void GetDateTime(void)
   \                     GetDateTime:
    189          {
   \   000000   74F6         MOV     A,#-0xa
   \   000002   12....       LCALL   ?BANKED_ENTER_XDATA
   \   000005                ; Saved register size: 10
   \   000005                ; Auto size: 0
    190              uint8 y;
    191          
    192              HAL_RTC_CS_EN();
   \   000005   D294         SETB    0x90.4
    193          
    194              SetRTCCommand(0x65);
   \   000007                ; Setup parameters for call to function SetRTCCommand
   \   000007   7965         MOV     R1,#0x65
   \   000009   12....       LCALL   ??SetRTCCommand?relay
    195              y = ConvertHEX(GetRTCData());
   \   00000C                ; Setup parameters for call to function ConvertHEX
   \   00000C                ; Setup parameters for call to function GetRTCData
   \   00000C   12....       LCALL   ??Subroutine13_0 & 0xFFFF
   \                     ??CrossCallReturnLabel_20:
   \   00000F   F5..         MOV     ?V0 + 0,A
    196              Month = ConvertHEX(GetRTCData());
   \   000011                ; Setup parameters for call to function ConvertHEX
   \   000011                ; Setup parameters for call to function GetRTCData
   \   000011   12....       LCALL   ??Subroutine13_0 & 0xFFFF
   \                     ??CrossCallReturnLabel_21:
   \   000014   90....       MOV     DPTR,#Month
   \   000017   12....       LCALL   ?Subroutine3 & 0xFFFF
    197              Day = ConvertHEX(GetRTCData());
   \                     ??CrossCallReturnLabel_18:
   \   00001A   90....       MOV     DPTR,#Day
   \   00001D   F0           MOVX    @DPTR,A
    198              ConvertHEX(GetRTCData());
   \   00001E                ; Setup parameters for call to function ConvertHEX
   \   00001E                ; Setup parameters for call to function GetRTCData
   \   00001E   12....       LCALL   ??GetRTCData?relay
   \   000021   12....       LCALL   ??ConvertHEX?relay
    199              Hour = ConvertHEX(GetRTCData() &0x3F);
   \   000024                ; Setup parameters for call to function ConvertHEX
   \   000024                ; Setup parameters for call to function GetRTCData
   \   000024   12....       LCALL   ??GetRTCData?relay
   \   000027   E9           MOV     A,R1
   \   000028   543F         ANL     A,#0x3f
   \   00002A   F9           MOV     R1,A
   \   00002B   12....       LCALL   ??ConvertHEX?relay
   \   00002E   E9           MOV     A,R1
   \   00002F   90....       MOV     DPTR,#Hour
   \   000032   12....       LCALL   ?Subroutine3 & 0xFFFF
    200              Min = ConvertHEX(GetRTCData());
   \                     ??CrossCallReturnLabel_19:
   \   000035   90....       MOV     DPTR,#Min
   \   000038   F0           MOVX    @DPTR,A
    201              Sec = ConvertHEX(GetRTCData() &0x7F);
   \   000039                ; Setup parameters for call to function ConvertHEX
   \   000039                ; Setup parameters for call to function GetRTCData
   \   000039   12....       LCALL   ??GetRTCData?relay
   \   00003C   E9           MOV     A,R1
   \   00003D   547F         ANL     A,#0x7f
   \   00003F   F9           MOV     R1,A
   \   000040   12....       LCALL   ??ConvertHEX?relay
   \   000043   E9           MOV     A,R1
   \   000044   90....       MOV     DPTR,#Sec
   \   000047   F0           MOVX    @DPTR,A
    202          
    203              HAL_RTC_CS_DIS();
   \   000048   C294         CLR     0x90.4
    204          
    205              Year = 2000+(uint16)y;
   \   00004A   74D0         MOV     A,#-0x30
   \   00004C   25..         ADD     A,?V0 + 0
   \   00004E   F8           MOV     R0,A
   \   00004F   7407         MOV     A,#0x7
   \   000051   3400         ADDC    A,#0x0
   \   000053   F9           MOV     R1,A
   \   000054   90....       MOV     DPTR,#Year
   \   000057   E8           MOV     A,R0
   \   000058   F0           MOVX    @DPTR,A
   \   000059   A3           INC     DPTR
   \   00005A   E9           MOV     A,R1
   \   00005B   F0           MOVX    @DPTR,A
    206              if (Year < 2000 || Year > 2099)
   \   00005C   90....       MOV     DPTR,#Year
   \   00005F   E0           MOVX    A,@DPTR
   \   000060   94D0         SUBB    A,#-0x30
   \   000062   A3           INC     DPTR
   \   000063   E0           MOVX    A,@DPTR
   \   000064   9407         SUBB    A,#0x7
   \   000066   400C         JC      ??GetDateTime_0
   \   000068   90....       MOV     DPTR,#Year
   \   00006B   E0           MOVX    A,@DPTR
   \   00006C   9434         SUBB    A,#0x34
   \   00006E   A3           INC     DPTR
   \   00006F   E0           MOVX    A,@DPTR
   \   000070   9408         SUBB    A,#0x8
   \   000072   400A         JC      ??GetDateTime_1
    207              {
    208                  Year = 2000;
   \                     ??GetDateTime_0:
   \   000074   90....       MOV     DPTR,#Year
   \   000077   74D0         MOV     A,#-0x30
   \   000079   F0           MOVX    @DPTR,A
   \   00007A   A3           INC     DPTR
   \   00007B   7407         MOV     A,#0x7
   \   00007D   F0           MOVX    @DPTR,A
    209              }
    210          }
   \                     ??GetDateTime_1:
   \   00007E   02....       LJMP    ??Subroutine11_0 & 0xFFFF
   \   000081                REQUIRE _A_P1

   \                                 In  segment BANKED_CODE, align 1, keep-with-next
   \                     ?Subroutine3:
   \   000000   F0           MOVX    @DPTR,A
   \   000001                ; Setup parameters for call to function ConvertHEX
   \   000001                ; Setup parameters for call to function GetRTCData
   \   000001                ; Setup parameters for call to function ConvertHEX
   \   000001                ; Setup parameters for call to function GetRTCData
   \   000001                REQUIRE ??Subroutine13_0
   \   000001                ; // Fall through to label ??Subroutine13_0

   \                                 In  segment BANKED_CODE, align 1, keep-with-next
   \                     ??Subroutine13_0:
   \   000000   12....       LCALL   ??GetRTCData?relay
   \   000003   12....       LCALL   ??ConvertHEX?relay
   \   000006   E9           MOV     A,R1
   \   000007   22           RET

   \                                 In  segment BANK_RELAYS, align 1
   \                     ??GetRTCData?relay:
   \   000000   12....       LCALL   ?BDISPATCH
   \   000003   ......       DC24    GetRTCData

   \                                 In  segment BANK_RELAYS, align 1
   \                     ??SetRTCCommand?relay:
   \   000000   12....       LCALL   ?BDISPATCH
   \   000003   ......       DC24    SetRTCCommand

   \                                 In  segment BANK_RELAYS, align 1
   \                     ??SetRTCData?relay:
   \   000000   12....       LCALL   ?BDISPATCH
   \   000003   ......       DC24    SetRTCData

   \                                 In  segment BANK_RELAYS, align 1
   \                     ??ConvertBCD?relay:
   \   000000   12....       LCALL   ?BDISPATCH
   \   000003   ......       DC24    ConvertBCD

   \                                 In  segment BANK_RELAYS, align 1
   \                     ??ConvertHEX?relay:
   \   000000   12....       LCALL   ?BDISPATCH
   \   000003   ......       DC24    ConvertHEX

   \                                 In  segment BANK_RELAYS, align 1
   \                     ??RTC_Init?relay:
   \   000000   12....       LCALL   ?BDISPATCH
   \   000003   ......       DC24    RTC_Init

   \                                 In  segment BANK_RELAYS, align 1
   \                     ??SetDateTime?relay:
   \   000000   12....       LCALL   ?BDISPATCH
   \   000003   ......       DC24    SetDateTime

   \                                 In  segment BANK_RELAYS, align 1
   \                     ??GetDateTime?relay:
   \   000000   12....       LCALL   ?BDISPATCH
   \   000003   ......       DC24    GetDateTime

   Maximum stack usage in bytes:

     Function           ISTACK PSTACK XSTACK
     --------           ------ ------ ------
     ConvertBCD             0      0      9
     ConvertHEX             1      0     10
     GetDateTime            0      0     10
       -> SetRTCCommand     0      0     20
       -> GetRTCData        0      0     20
       -> ConvertHEX        0      0     20
       -> GetRTCData        0      0     20
       -> ConvertHEX        0      0     20
       -> GetRTCData        0      0     20
       -> ConvertHEX        0      0     20
       -> GetRTCData        0      0     20
       -> ConvertHEX        0      0     20
       -> GetRTCData        0      0     20
       -> ConvertHEX        0      0     20
       -> GetRTCData        0      0     20
       -> ConvertHEX        0      0     20
       -> GetRTCData        0      0     20
       -> ConvertHEX        0      0     20
     GetRTCData             0      0     19
       -> halMcuWaitUs      0      0     18
       -> halMcuWaitUs      0      0     18
       -> halMcuWaitUs      0      0     18
     RTC_Init               0      0      9
       -> SetRTCCommand     0      0     18
       -> GetRTCData        0      0     18
       -> halMcuWaitUs      0      0     18
       -> SetRTCCommand     0      0     18
       -> SetRTCData        0      0     18
       -> SetRTCCommand     0      0     18
       -> GetRTCData        0      0     18
       -> halMcuWaitUs      0      0     18
       -> SetRTCCommand     0      0     18
       -> SetRTCData        0      0     18
       -> SetRTCCommand     0      0     18
       -> SetRTCData        0      0     18
       -> SetRTCCommand     0      0     18
       -> SetRTCData        0      0     18
     SetDateTime            0      0      9
       -> SetRTCCommand     0      0     18
       -> ConvertBCD        0      0     18
       -> SetRTCData        0      0     18
       -> ConvertBCD        0      0     18
       -> SetRTCData        0      0     18
       -> ConvertBCD        0      0     18
       -> SetRTCData        0      0     18
       -> ConvertBCD        0      0     18
       -> SetRTCData        0      0     18
       -> ConvertBCD        0      0     18
       -> SetRTCData        0      0     18
       -> ConvertBCD        0      0     18
       -> SetRTCData        0      0     18
       -> ConvertBCD        0      0     18
       -> SetRTCData        0      0     18
     SetRTCCommand          0      0     20
       -> halMcuWaitUs      0      0     20
       -> halMcuWaitUs      0      0     20
       -> halMcuWaitUs      0      0     20
     SetRTCData             0      0     19
       -> halMcuWaitUs      0      0     20
       -> halMcuWaitUs      0      0     20
       -> halMcuWaitUs      0      0     20


   Segment part sizes:

     Function/Label        Bytes
     --------------        -----
     _A_P1                    1
     P1SEL                    1
     P1INP                    1
     P1DIR                    1
     Year                     2
     Month                    1
     Day                      1
     Hour                     1
     Min                      1
     Sec                      1
     GetRTCData              30
     ?Subroutine8             5
     ?Subroutine6            26
     ?Subroutine5             9
     SetRTCCommand           37
     ?Subroutine9             2
     ??Subroutine11_0         5
     ?Subroutine0             9
     SetRTCData              39
     ConvertBCD              15
     ?Subroutine10            5
     ConvertHEX              18
     RTC_Init                99
     ?Subroutine4            11
     ?Subroutine2            19
     SetDateTime             99
     ?Subroutine1             5
     ?Subroutine7             1
     ??Subroutine12_0         7
     GetDateTime            129
     ?Subroutine3             1
     ??Subroutine13_0         8
     ??GetRTCData?relay       6
     ??SetRTCCommand?relay    6
     ??SetRTCData?relay       6
     ??ConvertBCD?relay       6
     ??ConvertHEX?relay       6
     ??RTC_Init?relay         6
     ??SetDateTime?relay      6
     ??GetDateTime?relay      6

 
 579 bytes in segment BANKED_CODE
  48 bytes in segment BANK_RELAYS
   4 bytes in segment SFR_AN
   7 bytes in segment XDATA_Z
 
 627 bytes of CODE  memory
   0 bytes of DATA  memory (+ 4 bytes shared)
   7 bytes of XDATA memory

Errors: none
Warnings: none
