###############################################################################
#                                                                             #
# IAR C/C++ Compiler V7.51A/W32 for 8051                01/Aug/2013  23:47:43 #
# Copyright 2004-2009 IAR Systems AB.                                         #
#                                                                             #
#    Core               =  plain                                              #
#    Code model         =  banked                                             #
#    Data model         =  large                                              #
#    Calling convention =  xdata reentrant                                    #
#    Constant location  =  data_rom                                           #
#    Dptr setup         =  1,16                                               #
#    Source file        =  D:\CC2530_ZStack-2.3.0-1.4.0\Sensor Network        #
#                          Example\Components\hal\module\M160.c               #
#    Command line       =  -f "D:\CC2530_ZStack-2.3.0-1.4.0\Sensor Network    #
#                          Example\Projects\zstack\Sensor Network             #
#                          Application\ZIGBEE Endpoint &                      #
#                          Device\CC2530DB\..\..\..\Tools\CC2530DB\f8wEndev.c #
#                          fg" (-DCPU32MHZ -DROOT=__near_func -DBLINK_LEDS)   #
#                          -f "D:\CC2530_ZStack-2.3.0-1.4.0\Sensor Network    #
#                          Example\Projects\zstack\Sensor Network             #
#                          Application\ZIGBEE Endpoint &                      #
#                          Device\CC2530DB\..\..\..\Tools\CC2530DB\f8wConfig. #
#                          cfg" (-DSECURE=0 -DZG_SECURE_DYNAMIC=0             #
#                          -DREFLECTOR -DDEFAULT_CHANLIST=0x00000800          #
#                          -DZDAPP_CONFIG_PAN_ID=0xFFFF                       #
#                          -DNWK_START_DELAY=100 -DEXTENDED_JOINING_RANDOM_MA #
#                          SK=0x007F -DBEACON_REQUEST_DELAY=100               #
#                          -DBEACON_REQ_DELAY_MASK=0x00FF                     #
#                          -DROUTE_EXPIRY_TIME=30 -DAPSC_ACK_WAIT_DURATION_PO #
#                          LLED=3000 -DNWK_INDIRECT_MSG_TIMEOUT=7             #
#                          -DMAX_RREQ_ENTRIES=8 -DAPSC_MAX_FRAME_RETRIES=3    #
#                          -DNWK_MAX_DATA_RETRIES=2                           #
#                          -DMAX_POLL_FAILURE_RETRIES=2 -DMAX_BCAST=9         #
#                          -DAPS_MAX_GROUPS=16 -DMAX_RTG_ENTRIES=40           #
#                          -DNWK_MAX_BINDING_ENTRIES=4                        #
#                          -DMAX_BINDING_CLUSTER_IDS=4 "-DDEFAULT_KEY={0x01,  #
#                          0x03, 0x05, 0x07, 0x09, 0x0B, 0x0D, 0x0F, 0x00,    #
#                          0x02, 0x04, 0x06, 0x08, 0x0A, 0x0C, 0x0D}"         #
#                          -DMAC_MAX_FRAME_SIZE=116 "-DCONST=const __code"    #
#                          -DGENERIC=__generic -DRFD_RCVC_ALWAYS_ON=TRUE      #
#                          -DPOLL_RATE=1000 -DQUEUED_POLL_RATE=100            #
#                          -DRESPONSE_POLL_RATE=100 -DREJOIN_POLL_RATE=440)   #
#                          -f "D:\CC2530_ZStack-2.3.0-1.4.0\Sensor Network    #
#                          Example\Projects\zstack\Sensor Network             #
#                          Application\ZIGBEE Endpoint &                      #
#                          Device\CC2530DB\..\..\..\Tools\CC2530DB\f8wZCL.cfg #
#                          " (-DZCL_READ -DZCL_WRITE -DZCL_BASIC              #
#                          -DZCL_IDENTIFY -DZCL_ON_OFF -DZCL_KEY_ESTABLISH    #
#                          -DZCL_LOAD_CONTROL -DZCL_SIMPLE_METERING           #
#                          -DZCL_PRICING) -DZCL_MESSAGE                       #
#                          "D:\CC2530_ZStack-2.3.0-1.4.0\Sensor Network       #
#                          Example\Components\hal\module\M160.c" -D           #
#                          NWK_AUTO_POLL -D ZTOOL_P1 -D MT_TASK -D            #
#                          MT_APP_FUNC -D MT_SYS_FUNC -D MT_ZDO_FUNC -D       #
#                          LCD_SUPPORTED=DEBUG -D xPOWER_SAVING -D            #
#                          End_Device -D M140 -D xPA2591 -lC                  #
#                          "D:\CC2530_ZStack-2.3.0-1.4.0\Sensor Network       #
#                          Example\Projects\zstack\Sensor Network             #
#                          Application\ZIGBEE Endpoint &                      #
#                          Device\CC2530DB\EndDeviceKB_M140\List\" -lA        #
#                          "D:\CC2530_ZStack-2.3.0-1.4.0\Sensor Network       #
#                          Example\Projects\zstack\Sensor Network             #
#                          Application\ZIGBEE Endpoint &                      #
#                          Device\CC2530DB\EndDeviceKB_M140\List\"            #
#                          --diag_suppress Pe001,Pa010 -o                     #
#                          "D:\CC2530_ZStack-2.3.0-1.4.0\Sensor Network       #
#                          Example\Projects\zstack\Sensor Network             #
#                          Application\ZIGBEE Endpoint &                      #
#                          Device\CC2530DB\EndDeviceKB_M140\Obj\" -e          #
#                          --require_prototypes --debug --core=plain          #
#                          --dptr=16,1 --data_model=large                     #
#                          --code_model=banked --calling_convention=xdata_ree #
#                          ntrant --place_constants=data_rom                  #
#                          --nr_virtual_regs 16 -I "D:\CC2530_ZStack-2.3.0-1. #
#                          4.0\Sensor Network Example\Projects\zstack\Sensor  #
#                          Network Application\ZIGBEE Endpoint &              #
#                          Device\CC2530DB\" -I "D:\CC2530_ZStack-2.3.0-1.4.0 #
#                          \Sensor Network Example\Projects\zstack\Sensor     #
#                          Network Application\ZIGBEE Endpoint &              #
#                          Device\CC2530DB\..\SOURCE\" -I                     #
#                          "D:\CC2530_ZStack-2.3.0-1.4.0\Sensor Network       #
#                          Example\Projects\zstack\Sensor Network             #
#                          Application\ZIGBEE Endpoint &                      #
#                          Device\CC2530DB\..\..\SOURCE\" -I                  #
#                          "D:\CC2530_ZStack-2.3.0-1.4.0\Sensor Network       #
#                          Example\Projects\zstack\Sensor Network             #
#                          Application\ZIGBEE Endpoint &                      #
#                          Device\CC2530DB\..\..\..\ZMAIN\TI2530DB\" -I       #
#                          "D:\CC2530_ZStack-2.3.0-1.4.0\Sensor Network       #
#                          Example\Projects\zstack\Sensor Network             #
#                          Application\ZIGBEE Endpoint &                      #
#                          Device\CC2530DB\..\..\..\..\..\COMPONENTS\MT\" -I  #
#                          "D:\CC2530_ZStack-2.3.0-1.4.0\Sensor Network       #
#                          Example\Projects\zstack\Sensor Network             #
#                          Application\ZIGBEE Endpoint &                      #
#                          Device\CC2530DB\..\..\..\..\..\COMPONENTS\HAL\INCL #
#                          UDE\" -I "D:\CC2530_ZStack-2.3.0-1.4.0\Sensor      #
#                          Network Example\Projects\zstack\Sensor Network     #
#                          Application\ZIGBEE Endpoint &                      #
#                          Device\CC2530DB\..\..\..\..\..\COMPONENTS\HAL\MODU #
#                          LE\" -I "D:\CC2530_ZStack-2.3.0-1.4.0\Sensor       #
#                          Network Example\Projects\zstack\Sensor Network     #
#                          Application\ZIGBEE Endpoint &                      #
#                          Device\CC2530DB\..\..\..\..\..\COMPONENTS\HAL\TARG #
#                          ET\CC2530KB\" -I "D:\CC2530_ZStack-2.3.0-1.4.0\Sen #
#                          sor Network Example\Projects\zstack\Sensor         #
#                          Network Application\ZIGBEE Endpoint &              #
#                          Device\CC2530DB\..\..\..\..\..\COMPONENTS\OSAL\MCU #
#                          \CCSOC\" -I "D:\CC2530_ZStack-2.3.0-1.4.0\Sensor   #
#                          Network Example\Projects\zstack\Sensor Network     #
#                          Application\ZIGBEE Endpoint &                      #
#                          Device\CC2530DB\..\..\..\..\..\COMPONENTS\OSAL\INC #
#                          LUDE\" -I "D:\CC2530_ZStack-2.3.0-1.4.0\Sensor     #
#                          Network Example\Projects\zstack\Sensor Network     #
#                          Application\ZIGBEE Endpoint &                      #
#                          Device\CC2530DB\..\..\..\..\..\COMPONENTS\STACK\AF #
#                          \" -I "D:\CC2530_ZStack-2.3.0-1.4.0\Sensor         #
#                          Network Example\Projects\zstack\Sensor Network     #
#                          Application\ZIGBEE Endpoint &                      #
#                          Device\CC2530DB\..\..\..\..\..\COMPONENTS\STACK\NW #
#                          K\" -I "D:\CC2530_ZStack-2.3.0-1.4.0\Sensor        #
#                          Network Example\Projects\zstack\Sensor Network     #
#                          Application\ZIGBEE Endpoint &                      #
#                          Device\CC2530DB\..\..\..\..\..\COMPONENTS\STACK\SE #
#                          C\" -I "D:\CC2530_ZStack-2.3.0-1.4.0\Sensor        #
#                          Network Example\Projects\zstack\Sensor Network     #
#                          Application\ZIGBEE Endpoint &                      #
#                          Device\CC2530DB\..\..\..\..\..\COMPONENTS\STACK\SA #
#                          PI\" -I "D:\CC2530_ZStack-2.3.0-1.4.0\Sensor       #
#                          Network Example\Projects\zstack\Sensor Network     #
#                          Application\ZIGBEE Endpoint &                      #
#                          Device\CC2530DB\..\..\..\..\..\COMPONENTS\STACK\SY #
#                          S\" -I "D:\CC2530_ZStack-2.3.0-1.4.0\Sensor        #
#                          Network Example\Projects\zstack\Sensor Network     #
#                          Application\ZIGBEE Endpoint &                      #
#                          Device\CC2530DB\..\..\..\..\..\COMPONENTS\STACK\ZC #
#                          L\" -I "D:\CC2530_ZStack-2.3.0-1.4.0\Sensor        #
#                          Network Example\Projects\zstack\Sensor Network     #
#                          Application\ZIGBEE Endpoint &                      #
#                          Device\CC2530DB\..\..\..\..\..\COMPONENTS\STACK\ZD #
#                          O\" -I "D:\CC2530_ZStack-2.3.0-1.4.0\Sensor        #
#                          Network Example\Projects\zstack\Sensor Network     #
#                          Application\ZIGBEE Endpoint &                      #
#                          Device\CC2530DB\..\..\..\..\..\COMPONENTS\ZMAC\F8W #
#                          \" -I "D:\CC2530_ZStack-2.3.0-1.4.0\Sensor         #
#                          Network Example\Projects\zstack\Sensor Network     #
#                          Application\ZIGBEE Endpoint &                      #
#                          Device\CC2530DB\..\..\..\..\..\COMPONENTS\ZMAC\"   #
#                          -I "D:\CC2530_ZStack-2.3.0-1.4.0\Sensor Network    #
#                          Example\Projects\zstack\Sensor Network             #
#                          Application\ZIGBEE Endpoint &                      #
#                          Device\CC2530DB\..\..\..\..\..\COMPONENTS\SERVICES #
#                          \SADDR\" -I "D:\CC2530_ZStack-2.3.0-1.4.0\Sensor   #
#                          Network Example\Projects\zstack\Sensor Network     #
#                          Application\ZIGBEE Endpoint &                      #
#                          Device\CC2530DB\..\..\..\..\..\COMPONENTS\SERVICES #
#                          \SDATA\" -I "D:\CC2530_ZStack-2.3.0-1.4.0\Sensor   #
#                          Network Example\Projects\zstack\Sensor Network     #
#                          Application\ZIGBEE Endpoint &                      #
#                          Device\CC2530DB\..\..\..\..\..\COMPONENTS\MAC\INCL #
#                          UDE\" -I "D:\CC2530_ZStack-2.3.0-1.4.0\Sensor      #
#                          Network Example\Projects\zstack\Sensor Network     #
#                          Application\ZIGBEE Endpoint &                      #
#                          Device\CC2530DB\..\..\..\..\..\COMPONENTS\MAC\HIGH #
#                          _LEVEL\" -I "D:\CC2530_ZStack-2.3.0-1.4.0\Sensor   #
#                          Network Example\Projects\zstack\Sensor Network     #
#                          Application\ZIGBEE Endpoint &                      #
#                          Device\CC2530DB\..\..\..\..\..\COMPONENTS\MAC\LOW_ #
#                          LEVEL\srf04\" -I "D:\CC2530_ZStack-2.3.0-1.4.0\Sen #
#                          sor Network Example\Projects\zstack\Sensor         #
#                          Network Application\ZIGBEE Endpoint &              #
#                          Device\CC2530DB\..\..\..\..\..\COMPONENTS\MAC\LOW_ #
#                          LEVEL\srf04\SINGLE_CHIP\" -I "C:\Program Files     #
#                          (x86)\IAR Systems\Embedded Workbench               #
#                          5.3\8051\INC\" -I "C:\Program Files (x86)\IAR      #
#                          Systems\Embedded Workbench 5.3\8051\INC\CLIB\"     #
#                          -Ohz                                               #
#    List file          =  D:\CC2530_ZStack-2.3.0-1.4.0\Sensor Network        #
#                          Example\Projects\zstack\Sensor Network             #
#                          Application\ZIGBEE Endpoint &                      #
#                          Device\CC2530DB\EndDeviceKB_M140\List\M160.lst     #
#    Object file        =  D:\CC2530_ZStack-2.3.0-1.4.0\Sensor Network        #
#                          Example\Projects\zstack\Sensor Network             #
#                          Application\ZIGBEE Endpoint &                      #
#                          Device\CC2530DB\EndDeviceKB_M140\Obj\M160.r51      #
#                                                                             #
#                                                                             #
###############################################################################

D:\CC2530_ZStack-2.3.0-1.4.0\Sensor Network Example\Components\hal\module\M160.c
      1          //-------------------------------------------------------------------
      2          // Filename: M160.c
      3          // Description: hal M160 PWM library
      4          //-------------------------------------------------------------------
      5          //-------------------------------------------------------------------
      6          // INCLUDES
      7          //-------------------------------------------------------------------
      8          #include "hal_defs.h"
      9          #include "ioCC2530.h"

   \                                 In  segment SFR_AN, at 0x80
   \   union <unnamed> volatile __sfr _A_P0
   \                     _A_P0:
   \   000000                DS 1

   \                                 In  segment SFR_AN, at 0xb8
   \   union <unnamed> volatile __sfr _A_IEN1
   \                     _A_IEN1:
   \   000000                DS 1

   \                                 In  segment SFR_AN, at 0xf3
   \   unsigned char volatile __sfr P0SEL
   \                     P0SEL:
   \   000000                DS 1

   \                                 In  segment SFR_AN, at 0xfd
   \   unsigned char volatile __sfr P0DIR
   \                     P0DIR:
   \   000000                DS 1
     10          #include "hal_mcu.h"
     11          #include "hal_board.h"
     12          #include "M160.h"
     13          
     14          //-------------------------------------------------------------------
     15          // LOCAL VARIABLES
     16          //-------------------------------------------------------------------

   \                                 In  segment XDATA_Z, align 1, keep-with-next
     17          uint8 M160_DutyCount;
   \                     M160_DutyCount:
   \   000000                DS 1
   \   000001                REQUIRE __INIT_XDATA_Z

   \                                 In  segment XDATA_Z, align 1, keep-with-next
     18          uint8 M160_DutyValue;
   \                     M160_DutyValue:
   \   000000                DS 1
   \   000001                REQUIRE __INIT_XDATA_Z
     19          
     20          //-------------------------------------------------------------------
     21          // LOCAL FUNCTIONS
     22          //-------------------------------------------------------------------
     23          //-------------------------------------------------------------------
     24          // @fn      timerPwm_ISR
     25          // @brief   ISR framework for the 1k timer component
     26          // @param   none
     27          // @return  none
     28          //-------------------------------------------------------------------

   \                                 In  segment NEAR_CODE, align 1, keep-with-next
     29          HAL_ISR_FUNCTION(T4_ISR, T4_VECTOR)
   \                     T4_ISR:
     30          {
   \   000000   C0E0         PUSH    A
   \   000002   C0D0         PUSH    PSW
   \   000004   EA           MOV     A,R2
   \   000005   C0E0         PUSH    A
   \   000007   C082         PUSH    DPL
   \   000009   C083         PUSH    DPH
   \   00000B                ; Saved register size: 5
   \   00000B                ; Auto size: 0
     31              M160_DutyCount++;
   \   00000B   90....       MOV     DPTR,#M160_DutyCount
   \   00000E   E0           MOVX    A,@DPTR
   \   00000F   04           INC     A
   \   000010   F0           MOVX    @DPTR,A
     32              if (M160_DutyCount >= 100)
   \   000011   C3           CLR     C
   \   000012   9464         SUBB    A,#0x64
   \   000014   4002         JC      ??T4_ISR_0
     33              {
     34                  M160_DutyCount = 0;
   \   000016   E4           CLR     A
   \   000017   F0           MOVX    @DPTR,A
     35              }
     36              if (M160_DutyCount >= M160_DutyValue)
   \                     ??T4_ISR_0:
   \   000018   E0           MOVX    A,@DPTR
   \   000019   C0E0         PUSH    A
   \   00001B   90....       MOV     DPTR,#M160_DutyValue
   \   00001E   E0           MOVX    A,@DPTR
   \   00001F   FA           MOV     R2,A
   \   000020   D0E0         POP     A
   \   000022   C3           CLR     C
   \   000023   9A           SUBB    A,R2
   \   000024   4004         JC      ??T4_ISR_1
     37              {
     38                  HAL_DO_OFF();
   \   000026   D280         SETB    0x80.0
   \   000028   8002         SJMP    ??T4_ISR_2
     39              }
     40              else
     41              {
     42                  HAL_DO_ON();
   \                     ??T4_ISR_1:
   \   00002A   C280         CLR     0x80.0
     43              }
     44          }
   \                     ??T4_ISR_2:
   \   00002C   D083         POP     DPH
   \   00002E   D082         POP     DPL
   \   000030   D0E0         POP     A
   \   000032   FA           MOV     R2,A
   \   000033   D0D0         POP     PSW
   \   000035   D0E0         POP     A
   \   000037   32           RETI
   \   000038                REQUIRE _A_P0
     45          
     46          //-------------------------------------------------------------------
     47          // GLOBAL FUNCTIONS
     48          //-------------------------------------------------------------------
     49          //-------------------------------------------------------------------
     50          // @fn      M160_Init
     51          // @brief    Set up timer 4 to generate an interrupt 1 kHz for PWM
     52          // @return  none
     53          //-------------------------------------------------------------------

   \                                 In  segment BANKED_CODE, align 1, keep-with-next
     54          void M160_Init(void)
   \                     M160_Init:
     55          {
   \   000000   C082         PUSH    DPL
   \   000002   C083         PUSH    DPH
   \   000004                ; Saved register size: 2
   \   000004                ; Auto size: 0
     56              HAL_DO_OUTPUT();
   \   000004   53F3FE       ANL     0xf3,#0xfe
   \   000007   43FD01       ORL     0xfd,#0x1
     57          
     58              // Set prescaler divider value to 128 (8KHz)
     59              X_T4CTL |= 0x80;
   \   00000A   9070EB       MOV     DPTR,#0x70eb
   \   00000D   E0           MOVX    A,@DPTR
   \   00000E   D2E7         SETB    0xE0 /* A   */.7
   \   000010   F0           MOVX    @DPTR,A
     60          
     61              X_T4CTL &= ~(0x10); // Stop timer
   \   000011   E0           MOVX    A,@DPTR
   \   000012   C2E4         CLR     0xE0 /* A   */.4
   \   000014   F0           MOVX    @DPTR,A
     62              T4IE = 0; // Disable interrupt
   \   000015   C2BC         CLR     0xb8.4
     63          }
   \   000017                REQUIRE ?Subroutine0
   \   000017                REQUIRE _A_IEN1
   \   000017                REQUIRE P0SEL
   \   000017                REQUIRE P0DIR
   \   000017                ; // Fall through to label ?Subroutine0

   \                                 In  segment BANKED_CODE, align 1, keep-with-next
   \                     ?Subroutine0:
   \   000000   D083         POP     DPH
   \   000002   D082         POP     DPL
   \   000004   02....       LJMP    ?BRET
     64          
     65          //-------------------------------------------------------------------
     66          // @fn          M160_On
     67          // @brief       Turn M160 on.
     68          // @param       uint8 duty
     69          // @return      none
     70          //-------------------------------------------------------------------

   \                                 In  segment BANKED_CODE, align 1, keep-with-next
     71          void M160_On(uint8 duty)
   \                     M160_On:
     72          {
   \   000000   C082         PUSH    DPL
   \   000002   C083         PUSH    DPH
   \   000004                ; Saved register size: 2
   \   000004                ; Auto size: 0
     73              M160_DutyCount = 0;
   \   000004   E4           CLR     A
   \   000005   90....       MOV     DPTR,#M160_DutyCount
   \   000008   F0           MOVX    @DPTR,A
     74              M160_DutyValue = duty;
   \   000009   E9           MOV     A,R1
   \   00000A   90....       MOV     DPTR,#M160_DutyValue
   \   00000D   F0           MOVX    @DPTR,A
     75          
     76              X_T4CTL |= 0x10; // Start timer
   \   00000E   9070EB       MOV     DPTR,#0x70eb
   \   000011   E0           MOVX    A,@DPTR
   \   000012   D2E4         SETB    0xE0 /* A   */.4
   \   000014   F0           MOVX    @DPTR,A
     77              T4IE = 1; // Enable interrupt
   \   000015   D2BC         SETB    0xb8.4
     78          }
   \   000017   80..         SJMP    ?Subroutine0
   \   000019                REQUIRE _A_IEN1
     79          
     80          //-------------------------------------------------------------------
     81          // @fn          M160_Off
     82          // @brief       Turn M160 off.
     83          // @return      none
     84          //-------------------------------------------------------------------

   \                                 In  segment BANKED_CODE, align 1, keep-with-next
     85          void M160_Off(void)
   \                     M160_Off:
     86          {
   \   000000   C082         PUSH    DPL
   \   000002   C083         PUSH    DPH
   \   000004                ; Saved register size: 2
   \   000004                ; Auto size: 0
     87              X_T4CTL &= ~(0x10); // Stop timer
   \   000004   9070EB       MOV     DPTR,#0x70eb
   \   000007   E0           MOVX    A,@DPTR
   \   000008   C2E4         CLR     0xE0 /* A   */.4
   \   00000A   F0           MOVX    @DPTR,A
     88              T4IE = 0; // Disable interrupt
   \   00000B   C2BC         CLR     0xb8.4
     89              HAL_DO_OFF();
   \   00000D   D280         SETB    0x80.0
     90          }
   \   00000F   80..         SJMP    ?Subroutine0
   \   000011                REQUIRE _A_P0
   \   000011                REQUIRE _A_IEN1

   \                                 In  segment INTVEC, offset 0x63, root
   \                     `??T4_ISR??INTVEC 99`:
   \   000063   02....       LJMP       (T4_ISR)

   \                                 In  segment BANK_RELAYS, align 1
   \                     ??M160_Init?relay:
   \   000000   12....       LCALL   ?BDISPATCH
   \   000003   ......       DC24    M160_Init

   \                                 In  segment BANK_RELAYS, align 1
   \                     ??M160_On?relay:
   \   000000   12....       LCALL   ?BDISPATCH
   \   000003   ......       DC24    M160_On

   \                                 In  segment BANK_RELAYS, align 1
   \                     ??M160_Off?relay:
   \   000000   12....       LCALL   ?BDISPATCH
   \   000003   ......       DC24    M160_Off
     91          

   Maximum stack usage in bytes:

     Function  ISTACK PSTACK XSTACK
     --------  ------ ------ ------
     M160_Init     2      0      0
     M160_Off      2      0      0
     M160_On       2      0      0
     T4_ISR        6      0      0


   Segment part sizes:

     Function/Label      Bytes
     --------------      -----
     _A_P0                  1
     _A_IEN1                1
     P0SEL                  1
     P0DIR                  1
     M160_DutyCount         1
     M160_DutyValue         1
     T4_ISR                56
     M160_Init             23
     ?Subroutine0           7
     M160_On               25
     M160_Off              17
     ??T4_ISR??INTVEC 99    3
     ??M160_Init?relay      6
     ??M160_On?relay        6
     ??M160_Off?relay       6

 
 72 bytes in segment BANKED_CODE
 18 bytes in segment BANK_RELAYS
  3 bytes in segment INTVEC
 56 bytes in segment NEAR_CODE
  4 bytes in segment SFR_AN
  2 bytes in segment XDATA_Z
 
 146 bytes of CODE  memory (+ 3 bytes shared)
   0 bytes of DATA  memory (+ 4 bytes shared)
   2 bytes of XDATA memory

Errors: none
Warnings: none
