///////////////////////////////////////////////////////////////////////////////
//                                                                            /
// IAR C/C++ Compiler V7.51A/W32 for 8051               21/Aug/2013  17:50:05 /
// Copyright 2004-2009 IAR Systems AB.                                        /
//                                                                            /
//    Core               =  plain                                             /
//    Code model         =  banked                                            /
//    Data model         =  large                                             /
//    Calling convention =  xdata reentrant                                   /
//    Constant location  =  data_rom                                          /
//    Dptr setup         =  1,16                                              /
//    Source file        =  D:\GitHub\z-stack\Sensor Network                  /
//                          Example\Components\stack\zcl\zcl.c                /
//    Command line       =  -f "D:\GitHub\z-stack\Sensor Network              /
//                          Example\Projects\zstack\Sensor Network            /
//                          Application\ZIGBEE Endpoint &                     /
//                          Device\CC2530DB\..\..\..\Tools\CC2530DB\f8wEndev. /
//                          cfg" (-DCPU32MHZ -DROOT=__near_func               /
//                          -DBLINK_LEDS) -f "D:\GitHub\z-stack\Sensor        /
//                          Network Example\Projects\zstack\Sensor Network    /
//                          Application\ZIGBEE Endpoint &                     /
//                          Device\CC2530DB\..\..\..\Tools\CC2530DB\f8wConfig /
//                          .cfg" (-DSECURE=0 -DZG_SECURE_DYNAMIC=0           /
//                          -DREFLECTOR -DDEFAULT_CHANLIST=0x00000800         /
//                          -DZDAPP_CONFIG_PAN_ID=0xFFFF                      /
//                          -DNWK_START_DELAY=100 -DEXTENDED_JOINING_RANDOM_M /
//                          ASK=0x007F -DBEACON_REQUEST_DELAY=100             /
//                          -DBEACON_REQ_DELAY_MASK=0x00FF                    /
//                          -DROUTE_EXPIRY_TIME=30 -DAPSC_ACK_WAIT_DURATION_P /
//                          OLLED=3000 -DNWK_INDIRECT_MSG_TIMEOUT=7           /
//                          -DMAX_RREQ_ENTRIES=8 -DAPSC_MAX_FRAME_RETRIES=3   /
//                          -DNWK_MAX_DATA_RETRIES=2                          /
//                          -DMAX_POLL_FAILURE_RETRIES=2 -DMAX_BCAST=9        /
//                          -DAPS_MAX_GROUPS=16 -DMAX_RTG_ENTRIES=40          /
//                          -DNWK_MAX_BINDING_ENTRIES=4                       /
//                          -DMAX_BINDING_CLUSTER_IDS=4                       /
//                          "-DDEFAULT_KEY={0x01, 0x03, 0x05, 0x07, 0x09,     /
//                          0x0B, 0x0D, 0x0F, 0x00, 0x02, 0x04, 0x06, 0x08,   /
//                          0x0A, 0x0C, 0x0D}" -DMAC_MAX_FRAME_SIZE=116       /
//                          "-DCONST=const __code" -DGENERIC=__generic        /
//                          -DRFD_RCVC_ALWAYS_ON=TRUE -DPOLL_RATE=1000        /
//                          -DQUEUED_POLL_RATE=100 -DRESPONSE_POLL_RATE=100   /
//                          -DREJOIN_POLL_RATE=440) -f                        /
//                          "D:\GitHub\z-stack\Sensor Network                 /
//                          Example\Projects\zstack\Sensor Network            /
//                          Application\ZIGBEE Endpoint &                     /
//                          Device\CC2530DB\..\..\..\Tools\CC2530DB\f8wZCL.cf /
//                          g" (-DZCL_READ -DZCL_WRITE -DZCL_BASIC            /
//                          -DZCL_IDENTIFY -DZCL_ON_OFF -DZCL_KEY_ESTABLISH   /
//                          -DZCL_LOAD_CONTROL -DZCL_SIMPLE_METERING          /
//                          -DZCL_PRICING) -DZCL_MESSAGE                      /
//                          "D:\GitHub\z-stack\Sensor Network                 /
//                          Example\Components\stack\zcl\zcl.c" -D            /
//                          NWK_AUTO_POLL -D ZTOOL_P1 -D MT_TASK -D           /
//                          MT_APP_FUNC -D MT_SYS_FUNC -D MT_ZDO_FUNC -D      /
//                          LCD_SUPPORTED=DEBUG -D xPOWER_SAVING -D           /
//                          End_Device -D M140 -D xPA2591 -lC                 /
//                          "D:\GitHub\z-stack\Sensor Network                 /
//                          Example\Projects\zstack\Sensor Network            /
//                          Application\ZIGBEE Endpoint &                     /
//                          Device\CC2530DB\EndDeviceKB_M140\List\" -lA       /
//                          "D:\GitHub\z-stack\Sensor Network                 /
//                          Example\Projects\zstack\Sensor Network            /
//                          Application\ZIGBEE Endpoint &                     /
//                          Device\CC2530DB\EndDeviceKB_M140\List\"           /
//                          --diag_suppress Pe001,Pa010 -o                    /
//                          "D:\GitHub\z-stack\Sensor Network                 /
//                          Example\Projects\zstack\Sensor Network            /
//                          Application\ZIGBEE Endpoint &                     /
//                          Device\CC2530DB\EndDeviceKB_M140\Obj\" -e         /
//                          --require_prototypes --debug --core=plain         /
//                          --dptr=16,1 --data_model=large                    /
//                          --code_model=banked --calling_convention=xdata_re /
//                          entrant --place_constants=data_rom                /
//                          --nr_virtual_regs 16 -I                           /
//                          "D:\GitHub\z-stack\Sensor Network                 /
//                          Example\Projects\zstack\Sensor Network            /
//                          Application\ZIGBEE Endpoint & Device\CC2530DB\"   /
//                          -I "D:\GitHub\z-stack\Sensor Network              /
//                          Example\Projects\zstack\Sensor Network            /
//                          Application\ZIGBEE Endpoint &                     /
//                          Device\CC2530DB\..\SOURCE\" -I                    /
//                          "D:\GitHub\z-stack\Sensor Network                 /
//                          Example\Projects\zstack\Sensor Network            /
//                          Application\ZIGBEE Endpoint &                     /
//                          Device\CC2530DB\..\..\SOURCE\" -I                 /
//                          "D:\GitHub\z-stack\Sensor Network                 /
//                          Example\Projects\zstack\Sensor Network            /
//                          Application\ZIGBEE Endpoint &                     /
//                          Device\CC2530DB\..\..\..\ZMAIN\TI2530DB\" -I      /
//                          "D:\GitHub\z-stack\Sensor Network                 /
//                          Example\Projects\zstack\Sensor Network            /
//                          Application\ZIGBEE Endpoint &                     /
//                          Device\CC2530DB\..\..\..\..\..\COMPONENTS\MT\"    /
//                          -I "D:\GitHub\z-stack\Sensor Network              /
//                          Example\Projects\zstack\Sensor Network            /
//                          Application\ZIGBEE Endpoint &                     /
//                          Device\CC2530DB\..\..\..\..\..\COMPONENTS\HAL\INC /
//                          LUDE\" -I "D:\GitHub\z-stack\Sensor Network       /
//                          Example\Projects\zstack\Sensor Network            /
//                          Application\ZIGBEE Endpoint &                     /
//                          Device\CC2530DB\..\..\..\..\..\COMPONENTS\HAL\MOD /
//                          ULE\" -I "D:\GitHub\z-stack\Sensor Network        /
//                          Example\Projects\zstack\Sensor Network            /
//                          Application\ZIGBEE Endpoint &                     /
//                          Device\CC2530DB\..\..\..\..\..\COMPONENTS\HAL\TAR /
//                          GET\CC2530KB\" -I "D:\GitHub\z-stack\Sensor       /
//                          Network Example\Projects\zstack\Sensor Network    /
//                          Application\ZIGBEE Endpoint &                     /
//                          Device\CC2530DB\..\..\..\..\..\COMPONENTS\OSAL\MC /
//                          U\CCSOC\" -I "D:\GitHub\z-stack\Sensor Network    /
//                          Example\Projects\zstack\Sensor Network            /
//                          Application\ZIGBEE Endpoint &                     /
//                          Device\CC2530DB\..\..\..\..\..\COMPONENTS\OSAL\IN /
//                          CLUDE\" -I "D:\GitHub\z-stack\Sensor Network      /
//                          Example\Projects\zstack\Sensor Network            /
//                          Application\ZIGBEE Endpoint &                     /
//                          Device\CC2530DB\..\..\..\..\..\COMPONENTS\STACK\A /
//                          F\" -I "D:\GitHub\z-stack\Sensor Network          /
//                          Example\Projects\zstack\Sensor Network            /
//                          Application\ZIGBEE Endpoint &                     /
//                          Device\CC2530DB\..\..\..\..\..\COMPONENTS\STACK\N /
//                          WK\" -I "D:\GitHub\z-stack\Sensor Network         /
//                          Example\Projects\zstack\Sensor Network            /
//                          Application\ZIGBEE Endpoint &                     /
//                          Device\CC2530DB\..\..\..\..\..\COMPONENTS\STACK\S /
//                          EC\" -I "D:\GitHub\z-stack\Sensor Network         /
//                          Example\Projects\zstack\Sensor Network            /
//                          Application\ZIGBEE Endpoint &                     /
//                          Device\CC2530DB\..\..\..\..\..\COMPONENTS\STACK\S /
//                          API\" -I "D:\GitHub\z-stack\Sensor Network        /
//                          Example\Projects\zstack\Sensor Network            /
//                          Application\ZIGBEE Endpoint &                     /
//                          Device\CC2530DB\..\..\..\..\..\COMPONENTS\STACK\S /
//                          YS\" -I "D:\GitHub\z-stack\Sensor Network         /
//                          Example\Projects\zstack\Sensor Network            /
//                          Application\ZIGBEE Endpoint &                     /
//                          Device\CC2530DB\..\..\..\..\..\COMPONENTS\STACK\Z /
//                          CL\" -I "D:\GitHub\z-stack\Sensor Network         /
//                          Example\Projects\zstack\Sensor Network            /
//                          Application\ZIGBEE Endpoint &                     /
//                          Device\CC2530DB\..\..\..\..\..\COMPONENTS\STACK\Z /
//                          DO\" -I "D:\GitHub\z-stack\Sensor Network         /
//                          Example\Projects\zstack\Sensor Network            /
//                          Application\ZIGBEE Endpoint &                     /
//                          Device\CC2530DB\..\..\..\..\..\COMPONENTS\ZMAC\F8 /
//                          W\" -I "D:\GitHub\z-stack\Sensor Network          /
//                          Example\Projects\zstack\Sensor Network            /
//                          Application\ZIGBEE Endpoint &                     /
//                          Device\CC2530DB\..\..\..\..\..\COMPONENTS\ZMAC\"  /
//                          -I "D:\GitHub\z-stack\Sensor Network              /
//                          Example\Projects\zstack\Sensor Network            /
//                          Application\ZIGBEE Endpoint &                     /
//                          Device\CC2530DB\..\..\..\..\..\COMPONENTS\SERVICE /
//                          S\SADDR\" -I "D:\GitHub\z-stack\Sensor Network    /
//                          Example\Projects\zstack\Sensor Network            /
//                          Application\ZIGBEE Endpoint &                     /
//                          Device\CC2530DB\..\..\..\..\..\COMPONENTS\SERVICE /
//                          S\SDATA\" -I "D:\GitHub\z-stack\Sensor Network    /
//                          Example\Projects\zstack\Sensor Network            /
//                          Application\ZIGBEE Endpoint &                     /
//                          Device\CC2530DB\..\..\..\..\..\COMPONENTS\MAC\INC /
//                          LUDE\" -I "D:\GitHub\z-stack\Sensor Network       /
//                          Example\Projects\zstack\Sensor Network            /
//                          Application\ZIGBEE Endpoint &                     /
//                          Device\CC2530DB\..\..\..\..\..\COMPONENTS\MAC\HIG /
//                          H_LEVEL\" -I "D:\GitHub\z-stack\Sensor Network    /
//                          Example\Projects\zstack\Sensor Network            /
//                          Application\ZIGBEE Endpoint &                     /
//                          Device\CC2530DB\..\..\..\..\..\COMPONENTS\MAC\LOW /
//                          _LEVEL\srf04\" -I "D:\GitHub\z-stack\Sensor       /
//                          Network Example\Projects\zstack\Sensor Network    /
//                          Application\ZIGBEE Endpoint &                     /
//                          Device\CC2530DB\..\..\..\..\..\COMPONENTS\MAC\LOW /
//                          _LEVEL\srf04\SINGLE_CHIP\" -I "C:\Program Files   /
//                          (x86)\IAR Systems\Embedded Workbench              /
//                          5.3\8051\INC\" -I "C:\Program Files (x86)\IAR     /
//                          Systems\Embedded Workbench 5.3\8051\INC\CLIB\"    /
//                          -Ohz                                              /
//    List file          =  D:\GitHub\z-stack\Sensor Network                  /
//                          Example\Projects\zstack\Sensor Network            /
//                          Application\ZIGBEE Endpoint &                     /
//                          Device\CC2530DB\EndDeviceKB_M140\List\zcl.s51     /
//                                                                            /
//                                                                            /
///////////////////////////////////////////////////////////////////////////////

        NAME zcl

        RTMODEL "__calling_convention", "xdata_reentrant"
        RTMODEL "__code_model", "banked"
        RTMODEL "__core", "plain"
        RTMODEL "__data_model", "large"
        RTMODEL "__dptr_size", "16"
        RTMODEL "__extended_stack", "disabled"
        RTMODEL "__location_for_constants", "data"
        RTMODEL "__number_of_dptrs", "1"
        RTMODEL "__rt_version", "1"

        RSEG DOVERLAY:DATA:NOROOT(0)
        RSEG IOVERLAY:IDATA:NOROOT(0)
        RSEG ISTACK:IDATA:NOROOT(0)
        RSEG PSTACK:XDATA:NOROOT(0)
        RSEG XSTACK:XDATA:NOROOT(0)

        EXTERN ??zclBuildHdr?relay
        EXTERN ??zclFindAttrRec?relay
        EXTERN ??zclFindClusterOption?relay
        EXTERN ??zclGetAttrDataLength?relay
        EXTERN ??zclGetClusterOption?relay
        EXTERN ??zclGetDataTypeLength?relay
        EXTERN ??zclParseHdr?relay
        EXTERN ??zclProcessMessageMSG?relay
        EXTERN ??zclReadAttrData?relay
        EXTERN ??zclSerializeData?relay
        EXTERN ??zclSetSecurityOption?relay
        EXTERN ??zclWriteAttrData?relay
        EXTERN ??zcl_DeviceOperational?relay
        EXTERN ??zcl_SendCommand?relay
        EXTERN ??zcl_SendDefaultRspCmd?relay
        EXTERN ??zcl_SendReadRsp?relay
        EXTERN ??zcl_SendWriteRsp?relay
        EXTERN ?ALLOC_XSTACK8
        EXTERN ?BANKED_ENTER_XDATA
        EXTERN ?BANKED_LEAVE_XDATA
        EXTERN ?BDISPATCH
        EXTERN ?BRET
        EXTERN ?CALL_IND
        EXTERN ?DEALLOC_XSTACK8
        EXTERN ?L_MOV_X
        EXTERN ?MOVE_LONG8_XDATA_CODE
        EXTERN ?MOVE_LONG8_XDATA_XDATA
        EXTERN ?PUSH_XSTACK8_X_FOUR
        EXTERN ?PUSH_XSTACK8_X_TWO
        EXTERN ?PUSH_XSTACK_I_ONE
        EXTERN ?PUSH_XSTACK_I_THREE
        EXTERN ?PUSH_XSTACK_I_TWO
        EXTERN ?S_SHL
        EXTERN ?UC_SWITCH_SPARSE
        EXTERN ?UL_SHR
        EXTERN ?V0
        EXTERN ?XSP
        EXTERN ?XSTACK_DISP0_8
        EXTERN __INIT_XDATA_I
        EXTERN __INIT_XDATA_Z

        FUNCTION ??zclBuildHdr?relay,0203H
        PUBLIC ??zclFindAttrRec?relay
        FUNCTION ??zclFindAttrRec?relay,0203H
        FUNCTION ??zclFindClusterOption?relay,0203H
        PUBLIC ??zclGetAttrDataLength?relay
        FUNCTION ??zclGetAttrDataLength?relay,0203H
        FUNCTION ??zclGetClusterOption?relay,0203H
        PUBLIC ??zclGetDataTypeLength?relay
        FUNCTION ??zclGetDataTypeLength?relay,0203H
        PUBLIC ??zclParseHdr?relay
        FUNCTION ??zclParseHdr?relay,0203H
        FUNCTION ??zclParseInDefaultRspCmd?relay,0203H
        PUBLIC ??zclParseInReadCmd?relay
        FUNCTION ??zclParseInReadCmd?relay,0203H
        FUNCTION ??zclParseInReadRspCmd?relay,0203H
        PUBLIC ??zclParseInWriteCmd?relay
        FUNCTION ??zclParseInWriteCmd?relay,0203H
        FUNCTION ??zclParseInWriteRspCmd?relay,0203H
        FUNCTION ??zclProcessInReadCmd?relay,0203H
        FUNCTION ??zclProcessInWriteCmd?relay,0203H
        FUNCTION ??zclProcessInWriteUndividedCmd?relay,0203H
        PUBLIC ??zclProcessMessageMSG?relay
        FUNCTION ??zclProcessMessageMSG?relay,0203H
        PUBLIC ??zclReadAttrData?relay
        FUNCTION ??zclReadAttrData?relay,0203H
        FUNCTION ??zclSendMsg?relay,0203H
        FUNCTION ??zclSerializeData?relay,0203H
        FUNCTION ??zclSetSecurityOption?relay,0203H
        FUNCTION ??zclWriteAttrData?relay,0203H
        FUNCTION ??zcl_DeviceOperational?relay,0203H
        PUBLIC ??zcl_Init?relay
        FUNCTION ??zcl_Init?relay,0203H
        PUBLIC ??zcl_SendCommand?relay
        FUNCTION ??zcl_SendCommand?relay,0203H
        PUBLIC ??zcl_SendDefaultRspCmd?relay
        FUNCTION ??zcl_SendDefaultRspCmd?relay,0203H
        PUBLIC ??zcl_SendRead?relay
        FUNCTION ??zcl_SendRead?relay,0203H
        PUBLIC ??zcl_SendReadRsp?relay
        FUNCTION ??zcl_SendReadRsp?relay,0203H
        PUBLIC ??zcl_SendWriteRequest?relay
        FUNCTION ??zcl_SendWriteRequest?relay,0203H
        PUBLIC ??zcl_SendWriteRsp?relay
        FUNCTION ??zcl_SendWriteRsp?relay,0203H
        PUBLIC ??zcl_event_loop?relay
        FUNCTION ??zcl_event_loop?relay,0203H
        PUBLIC ??zcl_registerAttrList?relay
        FUNCTION ??zcl_registerAttrList?relay,0203H
        PUBLIC ??zcl_registerClusterOptionList?relay
        FUNCTION ??zcl_registerClusterOptionList?relay,0203H
        PUBLIC ??zcl_registerForMsg?relay
        FUNCTION ??zcl_registerForMsg?relay,0203H
        PUBLIC ??zcl_registerPlugin?relay
        FUNCTION ??zcl_registerPlugin?relay,0203H
        PUBLIC ??zcl_registerValidateAttrData?relay
        FUNCTION ??zcl_registerValidateAttrData?relay,0203H
        FUNCTION zclBuildHdr,0203H
        ARGFRAME XSTACK, 45, STACK
        ARGFRAME IOVERLAY, 0, STATIC
        ARGFRAME DOVERLAY, 0, STATIC
        LOCFRAME ISTACK, 1, STACK
        LOCFRAME XSTACK, 9, STACK
        PUBLIC zclFindAttrRec
        FUNCTION zclFindAttrRec,0203H
        ARGFRAME XSTACK, 44, STACK
        ARGFRAME IOVERLAY, 0, STATIC
        ARGFRAME DOVERLAY, 0, STATIC
        LOCFRAME ISTACK, 1, STACK
        LOCFRAME XSTACK, 18, STACK
        FUNCTION zclFindClusterOption,0203H
        ARGFRAME XSTACK, 10, STACK
        ARGFRAME IOVERLAY, 0, STATIC
        ARGFRAME DOVERLAY, 0, STATIC
        LOCFRAME ISTACK, 1, STACK
        LOCFRAME XSTACK, 11, STACK
        PUBLIC zclGetAttrDataLength
        FUNCTION zclGetAttrDataLength,021203H
        ARGFRAME XSTACK, 42, STACK
        ARGFRAME IOVERLAY, 0, STATIC
        ARGFRAME DOVERLAY, 0, STATIC
        LOCFRAME ISTACK, 2, STACK
        FUNCTION zclGetClusterOption,021203H
        ARGFRAME XSTACK, 77, STACK
        ARGFRAME IOVERLAY, 0, STATIC
        ARGFRAME DOVERLAY, 0, STATIC
        LOCFRAME XSTACK, 10, STACK
        PUBLIC zclGetDataTypeLength
        FUNCTION zclGetDataTypeLength,080203H
        ARGFRAME XSTACK, 0, STACK
        ARGFRAME IOVERLAY, 0, STATIC
        ARGFRAME DOVERLAY, 0, STATIC
        LOCFRAME ISTACK, 2, STACK
        PUBLIC zclParseHdr
        FUNCTION zclParseHdr,021203H
        ARGFRAME XSTACK, 77, STACK
        ARGFRAME IOVERLAY, 0, STATIC
        ARGFRAME DOVERLAY, 0, STATIC
        LOCFRAME ISTACK, 1, STACK
        LOCFRAME XSTACK, 12, STACK
        FUNCTION zclParseInDefaultRspCmd,021603H
        ARGFRAME XSTACK, 0, STACK
        LOCFRAME ISTACK, 1, STACK
        LOCFRAME XSTACK, 10, STACK
        PUBLIC zclParseInReadCmd
        FUNCTION zclParseInReadCmd,021603H
        ARGFRAME XSTACK, 0, STACK
        LOCFRAME ISTACK, 1, STACK
        LOCFRAME XSTACK, 12, STACK
        FUNCTION zclParseInReadRspCmd,021603H
        ARGFRAME XSTACK, 0, STACK
        LOCFRAME ISTACK, 1, STACK
        LOCFRAME XSTACK, 23, STACK
        PUBLIC zclParseInWriteCmd
        FUNCTION zclParseInWriteCmd,021603H
        ARGFRAME XSTACK, 0, STACK
        LOCFRAME ISTACK, 1, STACK
        LOCFRAME XSTACK, 23, STACK
        FUNCTION zclParseInWriteRspCmd,021603H
        ARGFRAME XSTACK, 0, STACK
        LOCFRAME ISTACK, 1, STACK
        LOCFRAME XSTACK, 16, STACK
        FUNCTION zclProcessInReadCmd,021603H
        ARGFRAME XSTACK, 0, STACK
        LOCFRAME ISTACK, 1, STACK
        LOCFRAME XSTACK, 35, STACK
        FUNCTION zclProcessInWriteCmd,021603H
        ARGFRAME XSTACK, 0, STACK
        LOCFRAME ISTACK, 1, STACK
        LOCFRAME XSTACK, 39, STACK
        FUNCTION zclProcessInWriteUndividedCmd,021603H
        ARGFRAME XSTACK, 0, STACK
        LOCFRAME ISTACK, 1, STACK
        LOCFRAME XSTACK, 47, STACK
        PUBLIC zclProcessMessageMSG
        FUNCTION zclProcessMessageMSG,021203H
        ARGFRAME XSTACK, 12, STACK
        ARGFRAME IOVERLAY, 0, STATIC
        ARGFRAME DOVERLAY, 0, STATIC
        LOCFRAME ISTACK, 2, STACK
        LOCFRAME XSTACK, 84, STACK
        PUBLIC zclReadAttrData
        FUNCTION zclReadAttrData,021203H
        ARGFRAME XSTACK, 42, STACK
        ARGFRAME IOVERLAY, 0, STATIC
        ARGFRAME DOVERLAY, 0, STATIC
        LOCFRAME XSTACK, 14, STACK
        FUNCTION zclSendMsg,021603H
        ARGFRAME XSTACK, 0, STACK
        LOCFRAME ISTACK, 1, STACK
        LOCFRAME XSTACK, 10, STACK
        FUNCTION zclSerializeData,0a1203H
        ARGFRAME XSTACK, 28, STACK
        ARGFRAME IOVERLAY, 0, STATIC
        ARGFRAME DOVERLAY, 0, STATIC
        LOCFRAME ISTACK, 1, STACK
        LOCFRAME XSTACK, 16, STACK
        FUNCTION zclSetSecurityOption,021203H
        ARGFRAME XSTACK, 77, STACK
        ARGFRAME IOVERLAY, 0, STATIC
        ARGFRAME DOVERLAY, 0, STATIC
        LOCFRAME XSTACK, 10, STACK
        FUNCTION zclWriteAttrData,021203H
        ARGFRAME XSTACK, 42, STACK
        ARGFRAME IOVERLAY, 0, STATIC
        ARGFRAME DOVERLAY, 0, STATIC
        LOCFRAME XSTACK, 18, STACK
        FUNCTION zcl_DeviceOperational,021203H
        ARGFRAME XSTACK, 79, STACK
        ARGFRAME IOVERLAY, 0, STATIC
        ARGFRAME DOVERLAY, 0, STATIC
        LOCFRAME ISTACK, 1, STACK
        LOCFRAME XSTACK, 21, STACK
        PUBLIC zcl_Init
        FUNCTION zcl_Init,0203H
        ARGFRAME XSTACK, 0, STACK
        LOCFRAME ISTACK, 2, STACK
        PUBLIC zcl_RegisteredMsgTaskID
        PUBLIC zcl_SendCommand
        FUNCTION zcl_SendCommand,021203H
        ARGFRAME XSTACK, 39, STACK
        ARGFRAME IOVERLAY, 0, STATIC
        ARGFRAME DOVERLAY, 0, STATIC
        LOCFRAME ISTACK, 1, STACK
        LOCFRAME XSTACK, 51, STACK
        PUBLIC zcl_SendDefaultRspCmd
        FUNCTION zcl_SendDefaultRspCmd,021203H
        ARGFRAME XSTACK, 84, STACK
        ARGFRAME IOVERLAY, 0, STATIC
        ARGFRAME DOVERLAY, 0, STATIC
        LOCFRAME ISTACK, 1, STACK
        LOCFRAME XSTACK, 27, STACK
        PUBLIC zcl_SendRead
        FUNCTION zcl_SendRead,021203H
        ARGFRAME XSTACK, 5, STACK
        LOCFRAME ISTACK, 1, STACK
        LOCFRAME XSTACK, 33, STACK
        PUBLIC zcl_SendReadRsp
        FUNCTION zcl_SendReadRsp,021203H
        ARGFRAME XSTACK, 35, STACK
        ARGFRAME IOVERLAY, 0, STATIC
        ARGFRAME DOVERLAY, 0, STATIC
        LOCFRAME ISTACK, 1, STACK
        LOCFRAME XSTACK, 39, STACK
        PUBLIC zcl_SendWriteRequest
        FUNCTION zcl_SendWriteRequest,021203H
        ARGFRAME XSTACK, 6, STACK
        LOCFRAME ISTACK, 1, STACK
        LOCFRAME XSTACK, 39, STACK
        PUBLIC zcl_SendWriteRsp
        FUNCTION zcl_SendWriteRsp,021203H
        ARGFRAME XSTACK, 47, STACK
        ARGFRAME IOVERLAY, 0, STATIC
        ARGFRAME DOVERLAY, 0, STATIC
        LOCFRAME ISTACK, 1, STACK
        LOCFRAME XSTACK, 33, STACK
        PUBLIC zcl_SeqNum
        PUBLIC zcl_TaskID
        PUBLIC zcl_ValidateAttrDataCB
        PUBLIC zcl_event_loop
        FUNCTION zcl_event_loop,021203H
        ARGFRAME XSTACK, 0, STACK
        LOCFRAME XSTACK, 12, STACK
        PUBLIC zcl_registerAttrList
        FUNCTION zcl_registerAttrList,021203H
        ARGFRAME XSTACK, 0, STACK
        LOCFRAME ISTACK, 1, STACK
        LOCFRAME XSTACK, 12, STACK
        PUBLIC zcl_registerClusterOptionList
        FUNCTION zcl_registerClusterOptionList,021203H
        ARGFRAME XSTACK, 0, STACK
        LOCFRAME ISTACK, 1, STACK
        LOCFRAME XSTACK, 12, STACK
        PUBLIC zcl_registerForMsg
        FUNCTION zcl_registerForMsg,0203H
        ARGFRAME XSTACK, 0, STACK
        LOCFRAME ISTACK, 2, STACK
        PUBLIC zcl_registerPlugin
        FUNCTION zcl_registerPlugin,021203H
        ARGFRAME XSTACK, 2, STACK
        LOCFRAME XSTACK, 14, STACK
        PUBLIC zcl_registerValidateAttrData
        FUNCTION zcl_registerValidateAttrData,0203H
        ARGFRAME XSTACK, 0, STACK
        LOCFRAME ISTACK, 2, STACK
        
        CFI Names cfiNames0
        CFI StackFrame CFA_SP SP IDATA
        CFI StackFrame CFA_PSP16 PSP16 XDATA
        CFI StackFrame CFA_XSP16 XSP16 XDATA
        CFI StaticOverlayFrame CFA_IOVERLAY IOVERLAY
        CFI StaticOverlayFrame CFA_DOVERLAY DOVERLAY
        CFI Resource `PSW.CY`:1, `B.BR0`:1, `B.BR1`:1, `B.BR2`:1, `B.BR3`:1
        CFI Resource `B.BR4`:1, `B.BR5`:1, `B.BR6`:1, `B.BR7`:1, `VB.BR8`:1
        CFI Resource `VB.BR9`:1, `VB.BR10`:1, `VB.BR11`:1, `VB.BR12`:1
        CFI Resource `VB.BR13`:1, `VB.BR14`:1, `VB.BR15`:1, VB:8, B:8, A:8
        CFI Resource PSW:8, DPL0:8, DPH0:8, R0:8, R1:8, R2:8, R3:8, R4:8, R5:8
        CFI Resource R6:8, R7:8, V0:8, V1:8, V2:8, V3:8, V4:8, V5:8, V6:8, V7:8
        CFI Resource V8:8, V9:8, V10:8, V11:8, V12:8, V13:8, V14:8, V15:8, SP:8
        CFI Resource PSPH:8, PSPL:8, PSP16:16, XSPH:8, XSPL:8, XSP16:16
        CFI VirtualResource ?RET:24
        CFI Resource ?BRET_EXT:8
        CFI VirtualResource ?RET_HIGH:8, ?RET_LOW:8
        CFI ResourceParts PSP16 PSPH, PSPL
        CFI ResourceParts XSP16 XSPH, XSPL
        CFI ResourceParts ?RET ?BRET_EXT, ?RET_HIGH, ?RET_LOW
        CFI EndNames cfiNames0
        
        CFI Common cfiCommon0 Using cfiNames0
        CFI CodeAlign 1
        CFI DataAlign -1
        CFI ReturnAddress ?RET CODE
        CFI CFA_DOVERLAY Used
        CFI CFA_IOVERLAY Used
        CFI CFA_SP SP+-3
        CFI CFA_PSP16 PSP16+0
        CFI CFA_XSP16 XSP16+0
        CFI `PSW.CY` SameValue
        CFI `B.BR0` SameValue
        CFI `B.BR1` SameValue
        CFI `B.BR2` SameValue
        CFI `B.BR3` SameValue
        CFI `B.BR4` SameValue
        CFI `B.BR5` SameValue
        CFI `B.BR6` SameValue
        CFI `B.BR7` SameValue
        CFI `VB.BR8` SameValue
        CFI `VB.BR9` SameValue
        CFI `VB.BR10` SameValue
        CFI `VB.BR11` SameValue
        CFI `VB.BR12` SameValue
        CFI `VB.BR13` SameValue
        CFI `VB.BR14` SameValue
        CFI `VB.BR15` SameValue
        CFI VB SameValue
        CFI B Undefined
        CFI A Undefined
        CFI PSW SameValue
        CFI DPL0 SameValue
        CFI DPH0 SameValue
        CFI R0 Undefined
        CFI R1 Undefined
        CFI R2 Undefined
        CFI R3 Undefined
        CFI R4 Undefined
        CFI R5 Undefined
        CFI R6 SameValue
        CFI R7 SameValue
        CFI V0 SameValue
        CFI V1 SameValue
        CFI V2 SameValue
        CFI V3 SameValue
        CFI V4 SameValue
        CFI V5 SameValue
        CFI V6 SameValue
        CFI V7 SameValue
        CFI V8 SameValue
        CFI V9 SameValue
        CFI V10 SameValue
        CFI V11 SameValue
        CFI V12 SameValue
        CFI V13 SameValue
        CFI V14 SameValue
        CFI V15 SameValue
        CFI PSPH Undefined
        CFI PSPL Undefined
        CFI XSPH Undefined
        CFI XSPL Undefined
        CFI ?RET Concat
        CFI ?BRET_EXT Frame(CFA_SP, 3)
        CFI ?RET_HIGH Frame(CFA_SP, 2)
        CFI ?RET_LOW Frame(CFA_SP, 1)
        CFI EndCommon cfiCommon0
        
        
        CFI Common cfiCommon1 Using cfiNames0
        CFI CodeAlign 1
        CFI DataAlign -1
        CFI ReturnAddress ?RET CODE
        CFI CFA_DOVERLAY Used
        CFI CFA_IOVERLAY Used
        CFI CFA_SP SP+-2
        CFI CFA_PSP16 PSP16+0
        CFI CFA_XSP16 XSP16+0
        CFI `PSW.CY` SameValue
        CFI `B.BR0` SameValue
        CFI `B.BR1` SameValue
        CFI `B.BR2` SameValue
        CFI `B.BR3` SameValue
        CFI `B.BR4` SameValue
        CFI `B.BR5` SameValue
        CFI `B.BR6` SameValue
        CFI `B.BR7` SameValue
        CFI `VB.BR8` SameValue
        CFI `VB.BR9` SameValue
        CFI `VB.BR10` SameValue
        CFI `VB.BR11` SameValue
        CFI `VB.BR12` SameValue
        CFI `VB.BR13` SameValue
        CFI `VB.BR14` SameValue
        CFI `VB.BR15` SameValue
        CFI VB SameValue
        CFI B SameValue
        CFI A SameValue
        CFI PSW SameValue
        CFI DPL0 SameValue
        CFI DPH0 SameValue
        CFI R0 SameValue
        CFI R1 SameValue
        CFI R2 SameValue
        CFI R3 SameValue
        CFI R4 SameValue
        CFI R5 SameValue
        CFI R6 SameValue
        CFI R7 SameValue
        CFI V0 SameValue
        CFI V1 SameValue
        CFI V2 SameValue
        CFI V3 SameValue
        CFI V4 SameValue
        CFI V5 SameValue
        CFI V6 SameValue
        CFI V7 SameValue
        CFI V8 SameValue
        CFI V9 SameValue
        CFI V10 SameValue
        CFI V11 SameValue
        CFI V12 SameValue
        CFI V13 SameValue
        CFI V14 SameValue
        CFI V15 SameValue
        CFI PSPH Undefined
        CFI PSPL Undefined
        CFI XSPH Undefined
        CFI XSPL Undefined
        CFI ?RET Concat
        CFI ?BRET_EXT SameValue
        CFI ?RET_HIGH Frame(CFA_SP, 2)
        CFI ?RET_LOW Frame(CFA_SP, 1)
        CFI EndCommon cfiCommon1
        
osal_msg_receive    SYMBOL "osal_msg_receive"
osal_msg_deallocate SYMBOL "osal_msg_deallocate"
osal_msg_send       SYMBOL "osal_msg_send"
osal_mem_alloc      SYMBOL "osal_mem_alloc"
osal_memcpy         SYMBOL "osal_memcpy"
afFindEndPointDesc  SYMBOL "afFindEndPointDesc"
osal_memset         SYMBOL "osal_memset"
AF_DataRequest      SYMBOL "AF_DataRequest"
osal_mem_free       SYMBOL "osal_mem_free"
HalUARTWrite        SYMBOL "HalUARTWrite"
sprintf             SYMBOL "sprintf"
show                SYMBOL "show"
osal_buffer_uint32  SYMBOL "osal_buffer_uint32"
osal_msg_allocate   SYMBOL "osal_msg_allocate"
??AF_DataRequest?relay SYMBOL "?relay", AF_DataRequest
??HalUARTWrite?relay SYMBOL "?relay", HalUARTWrite
??afFindEndPointDesc?relay SYMBOL "?relay", afFindEndPointDesc
??osal_buffer_uint32?relay SYMBOL "?relay", osal_buffer_uint32
??osal_mem_alloc?relay SYMBOL "?relay", osal_mem_alloc
??osal_mem_free?relay SYMBOL "?relay", osal_mem_free
??osal_memcpy?relay SYMBOL "?relay", osal_memcpy
??osal_memset?relay SYMBOL "?relay", osal_memset
??osal_msg_allocate?relay SYMBOL "?relay", osal_msg_allocate
??osal_msg_deallocate?relay SYMBOL "?relay", osal_msg_deallocate
??osal_msg_receive?relay SYMBOL "?relay", osal_msg_receive
??osal_msg_send?relay SYMBOL "?relay", osal_msg_send
??show?relay        SYMBOL "?relay", show
??sprintf?relay     SYMBOL "?relay", sprintf
zclFindAttrRec      SYMBOL "zclFindAttrRec"
??zclFindAttrRec?relay SYMBOL "?relay", zclFindAttrRec
zclGetAttrDataLength SYMBOL "zclGetAttrDataLength"
??zclGetAttrDataLength?relay SYMBOL "?relay", zclGetAttrDataLength
zclGetDataTypeLength SYMBOL "zclGetDataTypeLength"
??zclGetDataTypeLength?relay SYMBOL "?relay", zclGetDataTypeLength
zclParseHdr         SYMBOL "zclParseHdr"
??zclParseHdr?relay SYMBOL "?relay", zclParseHdr
zclParseInReadCmd   SYMBOL "zclParseInReadCmd"
??zclParseInReadCmd?relay SYMBOL "?relay", zclParseInReadCmd
zclParseInWriteCmd  SYMBOL "zclParseInWriteCmd"
??zclParseInWriteCmd?relay SYMBOL "?relay", zclParseInWriteCmd
zclProcessMessageMSG SYMBOL "zclProcessMessageMSG"
??zclProcessMessageMSG?relay SYMBOL "?relay", zclProcessMessageMSG
zclReadAttrData     SYMBOL "zclReadAttrData"
??zclReadAttrData?relay SYMBOL "?relay", zclReadAttrData
zcl_Init            SYMBOL "zcl_Init"
??zcl_Init?relay    SYMBOL "?relay", zcl_Init
zcl_SendCommand     SYMBOL "zcl_SendCommand"
??zcl_SendCommand?relay SYMBOL "?relay", zcl_SendCommand
zcl_SendDefaultRspCmd SYMBOL "zcl_SendDefaultRspCmd"
??zcl_SendDefaultRspCmd?relay SYMBOL "?relay", zcl_SendDefaultRspCmd
zcl_SendRead        SYMBOL "zcl_SendRead"
??zcl_SendRead?relay SYMBOL "?relay", zcl_SendRead
zcl_SendReadRsp     SYMBOL "zcl_SendReadRsp"
??zcl_SendReadRsp?relay SYMBOL "?relay", zcl_SendReadRsp
zcl_SendWriteRequest SYMBOL "zcl_SendWriteRequest"
??zcl_SendWriteRequest?relay SYMBOL "?relay", zcl_SendWriteRequest
zcl_SendWriteRsp    SYMBOL "zcl_SendWriteRsp"
??zcl_SendWriteRsp?relay SYMBOL "?relay", zcl_SendWriteRsp
zcl_event_loop      SYMBOL "zcl_event_loop"
??zcl_event_loop?relay SYMBOL "?relay", zcl_event_loop
zcl_registerAttrList SYMBOL "zcl_registerAttrList"
??zcl_registerAttrList?relay SYMBOL "?relay", zcl_registerAttrList
zcl_registerClusterOptionList SYMBOL "zcl_registerClusterOptionList"
??zcl_registerClusterOptionList?relay SYMBOL "?relay", zcl_registerClusterOptionList
zcl_registerForMsg  SYMBOL "zcl_registerForMsg"
??zcl_registerForMsg?relay SYMBOL "?relay", zcl_registerForMsg
zcl_registerPlugin  SYMBOL "zcl_registerPlugin"
??zcl_registerPlugin?relay SYMBOL "?relay", zcl_registerPlugin
zcl_registerValidateAttrData SYMBOL "zcl_registerValidateAttrData"
??zcl_registerValidateAttrData?relay SYMBOL "?relay", zcl_registerValidateAttrData

        EXTERN osal_msg_receive
        FUNCTION osal_msg_receive,0202H
        ARGFRAME ISTACK, 0, STACK
        ARGFRAME PSTACK, 0, STACK
        ARGFRAME XSTACK, 12, STACK
        ARGFRAME IOVERLAY, 0, STATIC
        ARGFRAME DOVERLAY, 0, STATIC
        EXTERN osal_msg_deallocate
        FUNCTION osal_msg_deallocate,0202H
        ARGFRAME ISTACK, 0, STACK
        ARGFRAME PSTACK, 0, STACK
        ARGFRAME XSTACK, 12, STACK
        ARGFRAME IOVERLAY, 0, STATIC
        ARGFRAME DOVERLAY, 0, STATIC
        EXTERN osal_msg_send
        FUNCTION osal_msg_send,0202H
        ARGFRAME ISTACK, 0, STACK
        ARGFRAME PSTACK, 0, STACK
        ARGFRAME XSTACK, 12, STACK
        ARGFRAME IOVERLAY, 0, STATIC
        ARGFRAME DOVERLAY, 0, STATIC
        EXTERN osal_mem_alloc
        FUNCTION osal_mem_alloc,0202H
        ARGFRAME ISTACK, 0, STACK
        ARGFRAME PSTACK, 0, STACK
        ARGFRAME XSTACK, 42, STACK
        ARGFRAME IOVERLAY, 0, STATIC
        ARGFRAME DOVERLAY, 0, STATIC
        EXTERN osal_memcpy
        FUNCTION osal_memcpy,0202H
        ARGFRAME ISTACK, 0, STACK
        ARGFRAME PSTACK, 0, STACK
        ARGFRAME XSTACK, 45, STACK
        ARGFRAME IOVERLAY, 0, STATIC
        ARGFRAME DOVERLAY, 0, STATIC
        EXTERN afFindEndPointDesc
        FUNCTION afFindEndPointDesc,0202H
        ARGFRAME ISTACK, 0, STACK
        ARGFRAME PSTACK, 0, STACK
        ARGFRAME XSTACK, 77, STACK
        ARGFRAME IOVERLAY, 0, STATIC
        ARGFRAME DOVERLAY, 0, STATIC
        EXTERN osal_memset
        FUNCTION osal_memset,0202H
        ARGFRAME ISTACK, 0, STACK
        ARGFRAME PSTACK, 0, STACK
        ARGFRAME XSTACK, 42, STACK
        ARGFRAME IOVERLAY, 0, STATIC
        ARGFRAME DOVERLAY, 0, STATIC
        EXTERN AF_DataRequest
        FUNCTION AF_DataRequest,0202H
        ARGFRAME ISTACK, 0, STACK
        ARGFRAME PSTACK, 0, STACK
        ARGFRAME XSTACK, 51, STACK
        ARGFRAME IOVERLAY, 0, STATIC
        ARGFRAME DOVERLAY, 0, STATIC
        EXTERN osal_mem_free
        FUNCTION osal_mem_free,0202H
        ARGFRAME ISTACK, 0, STACK
        ARGFRAME PSTACK, 0, STACK
        ARGFRAME XSTACK, 77, STACK
        ARGFRAME IOVERLAY, 0, STATIC
        ARGFRAME DOVERLAY, 0, STATIC
        EXTERN HalUARTWrite
        FUNCTION HalUARTWrite,0202H
        ARGFRAME ISTACK, 0, STACK
        ARGFRAME PSTACK, 0, STACK
        ARGFRAME XSTACK, 77, STACK
        ARGFRAME IOVERLAY, 0, STATIC
        ARGFRAME DOVERLAY, 0, STATIC
        EXTERN sprintf
        FUNCTION sprintf,0202H
        ARGFRAME ISTACK, 0, STACK
        ARGFRAME PSTACK, 0, STACK
        ARGFRAME XSTACK, 79, STACK
        ARGFRAME IOVERLAY, 0, STATIC
        ARGFRAME DOVERLAY, 0, STATIC
        EXTERN show
        FUNCTION show,0202H
        ARGFRAME ISTACK, 0, STACK
        ARGFRAME PSTACK, 0, STACK
        ARGFRAME XSTACK, 77, STACK
        ARGFRAME IOVERLAY, 0, STATIC
        ARGFRAME DOVERLAY, 0, STATIC
        EXTERN osal_buffer_uint32
        FUNCTION osal_buffer_uint32,0202H
        ARGFRAME ISTACK, 0, STACK
        ARGFRAME PSTACK, 0, STACK
        ARGFRAME XSTACK, 16, STACK
        ARGFRAME IOVERLAY, 0, STATIC
        ARGFRAME DOVERLAY, 0, STATIC
        EXTERN osal_msg_allocate
        FUNCTION osal_msg_allocate,0202H
        ARGFRAME ISTACK, 0, STACK
        ARGFRAME PSTACK, 0, STACK
        ARGFRAME XSTACK, 10, STACK
        ARGFRAME IOVERLAY, 0, STATIC
        ARGFRAME DOVERLAY, 0, STATIC
        EXTERN ??AF_DataRequest?relay
        FUNCTION ??AF_DataRequest?relay,00H
        EXTERN ??HalUARTWrite?relay
        FUNCTION ??HalUARTWrite?relay,00H
        EXTERN ??afFindEndPointDesc?relay
        FUNCTION ??afFindEndPointDesc?relay,00H
        EXTERN ??osal_buffer_uint32?relay
        FUNCTION ??osal_buffer_uint32?relay,00H
        EXTERN ??osal_mem_alloc?relay
        FUNCTION ??osal_mem_alloc?relay,00H
        EXTERN ??osal_mem_free?relay
        FUNCTION ??osal_mem_free?relay,00H
        EXTERN ??osal_memcpy?relay
        FUNCTION ??osal_memcpy?relay,00H
        EXTERN ??osal_memset?relay
        FUNCTION ??osal_memset?relay,00H
        EXTERN ??osal_msg_allocate?relay
        FUNCTION ??osal_msg_allocate?relay,00H
        EXTERN ??osal_msg_deallocate?relay
        FUNCTION ??osal_msg_deallocate?relay,00H
        EXTERN ??osal_msg_receive?relay
        FUNCTION ??osal_msg_receive?relay,00H
        EXTERN ??osal_msg_send?relay
        FUNCTION ??osal_msg_send?relay,00H
        EXTERN ??show?relay
        FUNCTION ??show?relay,00H
        EXTERN ??sprintf?relay
        FUNCTION ??sprintf?relay,00H

// D:\GitHub\z-stack\Sensor Network Example\Components\stack\zcl\zcl.c
//    1 #include "ZComDef.h"
//    2 #include "OSAL.h"
//    3 #include "OSAL_Tasks.h"
//    4 #include "AF.h"
//    5 #include "ZDConfig.h"
//    6 #include "zcl.h"
//    7 #include "zcl_general.h"
//    8 #include <string.h>
//    9 #include <stdio.h>
//   10 
//   11 #if defined ( INTER_PAN )
//   12   #include "stub_aps.h"
//   13 #endif
//   14 
//   15 /* HAL */
//   16 #include "hal_uart.h"
//   17 #include "hal_timer.h"
//   18 #include "hal_led.h"
//   19 #if defined (LCD_SUPPORTED)
//   20   #include "hal_lcd.h"
//   21 #endif
//   22 
//   23 /* MT */
//   24 #include "MT_UART.h"
//   25 #include "MT.h"
//   26 
//   27 /*********************************************************************
//   28  * MACROS
//   29  */
//   30 /*** Frame Control ***/
//   31 #define zcl_FCType( a )               ( (a) & ZCL_FRAME_CONTROL_TYPE )
//   32 #define zcl_FCManuSpecific( a )       ( (a) & ZCL_FRAME_CONTROL_MANU_SPECIFIC )
//   33 #define zcl_FCDirection( a )          ( (a) & ZCL_FRAME_CONTROL_DIRECTION )
//   34 #define zcl_FCDisableDefaultRsp( a )  ( (a) & ZCL_FRAME_CONTROL_DISABLE_DEFAULT_RSP )
//   35 
//   36 /*** Attribute Access Control ***/
//   37 #define zcl_AccessCtrlRead( a )       ( (a) & ACCESS_CONTROL_READ )
//   38 #define zcl_AccessCtrlWrite( a )      ( (a) & ACCESS_CONTROL_WRITE )
//   39 #define zcl_AccessCtrlCmd( a )        ( (a) & ACCESS_CONTROL_CMD )
//   40 
//   41 #define zclParseCmd( a, b )           zclCmdTable[(a)].pfnParseInProfile( (b) )
//   42 #define zclProcessCmd( a, b )         zclCmdTable[(a)].pfnProcessInProfile( (b) )
//   43 
//   44 #define zcl_DefaultRspCmd( zclHdr )   ( zcl_ProfileCmd( (zclHdr).fc.type )     && \ 
//   45                                         (zclHdr).fc.manuSpecific == 0          && \ 
//   46                                         (zclHdr).commandID == ZCL_CMD_DEFAULT_RSP )
//   47 
//   48 // Commands that have corresponding responses
//   49 #define CMD_HAS_RSP( cmd )            ( (cmd) == ZCL_CMD_READ            || \ 
//   50                                         (cmd) == ZCL_CMD_WRITE           || \ 
//   51                                         (cmd) == ZCL_CMD_WRITE_UNDIVIDED || \ 
//   52                                         (cmd) == ZCL_CMD_CONFIG_REPORT   || \ 
//   53                                         (cmd) == ZCL_CMD_READ_REPORT_CFG || \ 
//   54                                         (cmd) == ZCL_CMD_DISCOVER        || \ 
//   55                                         (cmd) == ZCL_CMD_DEFAULT_RSP ) // exception
//   56 
//   57 /*********************************************************************
//   58  * CONSTANTS
//   59  */
//   60 
//   61 /*********************************************************************
//   62  * TYPEDEFS
//   63  */
//   64 typedef struct zclLibPlugin
//   65 {
//   66   struct zclLibPlugin *next;
//   67   uint16              startClusterID;    // starting cluster ID
//   68   uint16              endClusterID;      // ending cluster ID
//   69   zclInHdlr_t         pfnIncomingHdlr;    // function to handle incoming message
//   70 } zclLibPlugin_t;
//   71 
//   72 // Attribute record list item
//   73 typedef struct zclAttrRecsList
//   74 {
//   75   struct zclAttrRecsList *next;
//   76   uint8                  endpoint;      // Used to link it into the endpoint descriptor
//   77   uint8                  numAttributes; // Number of the following records
//   78   CONST zclAttrRec_t     *attrs;        // attribute records
//   79 } zclAttrRecsList;
//   80 
//   81 // Cluster option list item
//   82 typedef struct zclClusterOptionList
//   83 {
//   84   struct zclClusterOptionList *next;
//   85   uint8                       endpoint;   // Used to link it into the endpoint descriptor
//   86   uint8                       numOptions; // Number of the following records
//   87   zclOptionRec_t              *options;   // option records
//   88 } zclClusterOptionList;
//   89 
//   90 typedef void *(*zclParseInProfileCmd_t)( zclParseCmd_t *pCmd );
//   91 typedef uint8 (*zclProcessInProfileCmd_t)( zclIncoming_t *pInMsg );
//   92 
//   93 typedef struct
//   94 {
//   95   zclParseInProfileCmd_t   pfnParseInProfile;
//   96   zclProcessInProfileCmd_t pfnProcessInProfile;
//   97 } zclCmdItems_t;
//   98 
//   99 
//  100 /*********************************************************************
//  101  * GLOBAL VARIABLES
//  102  */

        RSEG XDATA_Z:XDATA:NOROOT(0)
//  103 uint8 zcl_TaskID;
zcl_TaskID:
        DS 1
        REQUIRE __INIT_XDATA_Z
//  104 
//  105 // The task Id of the Application where the unprocessed Foundation
//  106 // Command/Response messages will be sent to.

        RSEG XDATA_I:XDATA:NOROOT(0)
        DATA
//  107 uint8 zcl_RegisteredMsgTaskID = TASK_NO_TASK;
zcl_RegisteredMsgTaskID:
        DS 1
        REQUIRE `?<Initializer for zcl_RegisteredMsgTaskID>`
        REQUIRE __INIT_XDATA_I
//  108 
//  109 // The Application should register its attribute data validation function

        RSEG XDATA_Z:XDATA:NOROOT(0)
//  110 zclValidateAttrData_t zcl_ValidateAttrDataCB = NULL;
zcl_ValidateAttrDataCB:
        DS 2
        REQUIRE __INIT_XDATA_Z
//  111 
//  112 // ZCL Sequence number

        RSEG XDATA_Z:XDATA:NOROOT(0)
//  113 uint8 zcl_SeqNum = 0x00;
zcl_SeqNum:
        DS 1
        REQUIRE __INIT_XDATA_Z
//  114    
//  115 /*********************************************************************
//  116  * EXTERNAL VARIABLES
//  117  */
//  118 
//  119 /*********************************************************************
//  120  * EXTERNAL FUNCTIONS
//  121  */
//  122 
//  123 /*********************************************************************
//  124  * LOCAL VARIABLES
//  125  */

        RSEG XDATA_Z:XDATA:NOROOT(0)
//  126 static zclLibPlugin_t *plugins;
plugins:
        DS 2
        REQUIRE __INIT_XDATA_Z

        RSEG XDATA_Z:XDATA:NOROOT(0)
//  127 static zclAttrRecsList *attrList;
attrList:
        DS 2
        REQUIRE __INIT_XDATA_Z

        RSEG XDATA_Z:XDATA:NOROOT(0)
//  128 static zclClusterOptionList *clusterOptionList;
clusterOptionList:
        DS 2
        REQUIRE __INIT_XDATA_Z

        RSEG XDATA_Z:XDATA:NOROOT(0)
//  129 static uint8 zcl_TransID = 0;  // This is the unique message ID (counter)
zcl_TransID:
        DS 1
        REQUIRE __INIT_XDATA_Z
//  130 
//  131 /*********************************************************************
//  132  * LOCAL FUNCTIONS
//  133  */
//  134 void zclProcessMessageMSG( afIncomingMSGPacket_t *pkt );  // Not static for ZNP build.
//  135 
//  136 void zclZigbeeReceiverMSG(afIncomingMSGPacket_t *msg);
//  137 
//  138 static uint8 *zclBuildHdr( zclFrameHdr_t *hdr, uint8 *pData );
//  139 static uint8 zclCalcHdrSize( zclFrameHdr_t *hdr );
//  140 static zclLibPlugin_t *zclFindPlugin( uint16 clusterID, uint16 profileID );
//  141 static zclOptionRec_t *zclFindClusterOption( uint8 endpoint, uint16 clusterID );
//  142 static uint8 zclGetClusterOption( uint8 endpoint, uint16 clusterID );
//  143 static void zclSetSecurityOption( uint8 endpoint, uint16 clusterID, uint8 enable );
//  144 
//  145 static uint8 zcl_DeviceOperational( uint8 srcEP, uint16 clusterID, uint8 frameType, uint8 cmd, uint16 profileID );
//  146 
//  147 #if defined(ZCL_READ) || defined(ZCL_WRITE) || defined(ZCL_REPORT)
//  148   static void zclSerializeData( uint8 dataType, void *attrData, uint8 *buf );
//  149 #endif // ZCL_READ || ZCL_WRITE || ZCL_REPORT
//  150 
//  151 #ifdef ZCL_READ
//  152   static void *zclParseInReadRspCmd( zclParseCmd_t *pCmd );
//  153   static uint8 zclProcessInReadCmd( zclIncoming_t *pInMsg );
//  154 #endif // ZCL_READ
//  155 
//  156 #ifdef ZCL_WRITE
//  157   static uint8 zclWriteAttrData( zclAttrRec_t *pAttr, zclWriteRec_t *pWriteRec );
//  158   static void *zclParseInWriteRspCmd( zclParseCmd_t *pCmd );
//  159   static uint8 zclProcessInWriteCmd( zclIncoming_t *pInMsg );
//  160   static uint8 zclProcessInWriteUndividedCmd( zclIncoming_t *pInMsg );
//  161 #endif // ZCL_WRITE
//  162 
//  163 #ifdef ZCL_REPORT
//  164   static void *zclParseInConfigReportRspCmd( zclParseCmd_t *pCmd );
//  165   static void *zclParseInReadReportCfgRspCmd( zclParseCmd_t *pCmd );
//  166 #endif // ZCL_REPORT
//  167 
//  168 static void *zclParseInDefaultRspCmd( zclParseCmd_t *pCmd );
//  169 
//  170 #ifdef ZCL_DISCOVER
//  171   static uint8 zclFindNextAttrRec( uint8 endpoint, uint16 clusterID, uint16 *attrId, zclAttrRec_t *pAttr );
//  172   static void *zclParseInDiscRspCmd( zclParseCmd_t *pCmd );
//  173   static uint8 zclProcessInDiscCmd( zclIncoming_t *pInMsg );
//  174 #endif // ZCL_DISCOVER
//  175 
//  176 static uint8 zclSendMsg( zclIncoming_t *pInMsg );
//  177 
//  178 /*********************************************************************
//  179  * Parse Profile Command Function Table
//  180  */

        RSEG CODE_C:CODE:REORDER:NOROOT(0)
        DATA
//  181 static CONST zclCmdItems_t zclCmdTable[] =
zclCmdTable:
        DW ??zclParseInReadCmd?relay, ??zclProcessInReadCmd?relay
        DW ??zclParseInReadRspCmd?relay, ??zclSendMsg?relay
        DW ??zclParseInWriteCmd?relay, ??zclProcessInWriteCmd?relay
        DW ??zclParseInWriteCmd?relay, ??zclProcessInWriteUndividedCmd?relay
        DW ??zclParseInWriteRspCmd?relay, ??zclSendMsg?relay
        DW ??zclParseInWriteCmd?relay, ??zclProcessInWriteCmd?relay, 0H, 0H, 0H
        DW 0H, 0H, 0H, 0H, 0H, 0H, 0H, ??zclParseInDefaultRspCmd?relay
        DW ??zclSendMsg?relay, 0H, 0H, 0H, 0H
//  182 {
//  183 #ifdef ZCL_READ
//  184   /* ZCL_CMD_READ */                { zclParseInReadCmd,             zclProcessInReadCmd             },
//  185   /* ZCL_CMD_READ_RSP */            { zclParseInReadRspCmd,          zclSendMsg                      },
//  186 #else
//  187   /* ZCL_CMD_READ */                { NULL,                          NULL                            },
//  188   /* ZCL_CMD_READ_RSP */            { NULL,                          NULL                            },
//  189 #endif // ZCL_READ
//  190 
//  191 #ifdef ZCL_WRITE
//  192   /* ZCL_CMD_WRITE */               { zclParseInWriteCmd,            zclProcessInWriteCmd            },
//  193   /* ZCL_CMD_WRITE_UNDIVIDED */     { zclParseInWriteCmd,            zclProcessInWriteUndividedCmd   },
//  194   /* ZCL_CMD_WRITE_RSP */           { zclParseInWriteRspCmd,         zclSendMsg                      },
//  195   /* ZCL_CMD_WRITE_NO_RSP */        { zclParseInWriteCmd,            zclProcessInWriteCmd            },
//  196 #else
//  197   /* ZCL_CMD_WRITE */               { NULL,                          NULL                            },
//  198   /* ZCL_CMD_WRITE_UNDIVIDED */     { NULL,                          NULL                            },
//  199   /* ZCL_CMD_WRITE_RSP */           { NULL,                          NULL                            },
//  200   /* ZCL_CMD_WRITE_NO_RSP */        { NULL,                          NULL                            },
//  201 #endif // ZCL_WRITE
//  202 
//  203 #ifdef ZCL_REPORT
//  204   /* ZCL_CMD_CONFIG_REPORT */       { zclParseInConfigReportCmd,     zclSendMsg                      },
//  205   /* ZCL_CMD_CONFIG_REPORT_RSP */   { zclParseInConfigReportRspCmd,  zclSendMsg                      },
//  206   /* ZCL_CMD_READ_REPORT_CFG */     { zclParseInReadReportCfgCmd,    zclSendMsg                      },
//  207   /* ZCL_CMD_READ_REPORT_CFG_RSP */ { zclParseInReadReportCfgRspCmd, zclSendMsg                      },
//  208   /* ZCL_CMD_REPORT */              { zclParseInReportCmd,           zclSendMsg                      },
//  209 #else
//  210   /* ZCL_CMD_CONFIG_REPORT */       { NULL,                          NULL                            },
//  211   /* ZCL_CMD_CONFIG_REPORT_RSP */   { NULL,                          NULL                            },
//  212   /* ZCL_CMD_READ_REPORT_CFG */     { NULL,                          NULL                            },
//  213   /* ZCL_CMD_READ_REPORT_CFG_RSP */ { NULL,                          NULL                            },
//  214   /* ZCL_CMD_REPORT */              { NULL,                          NULL                            },
//  215 #endif // ZCL_REPORT
//  216 
//  217   /* ZCL_CMD_DEFAULT_RSP */         { zclParseInDefaultRspCmd,       zclSendMsg                      },
//  218   
//  219 #ifdef ZCL_DISCOVER  
//  220   /* ZCL_CMD_DISCOVER */            { zclParseInDiscCmd,             zclProcessInDiscCmd             },
//  221   /* ZCL_CMD_DISCOVER_RSP */        { zclParseInDiscRspCmd,          zclSendMsg                      }
//  222 #else
//  223   /* ZCL_CMD_DISCOVER */            { NULL,                          NULL                            },
//  224   /* ZCL_CMD_DISCOVER_RSP */        { NULL,                          NULL                            }
//  225 #endif // ZCL_DISCOVER
//  226 };
//  227 
//  228 /*********************************************************************
//  229  * PUBLIC FUNCTIONS
//  230  *********************************************************************/
//  231 
//  232 /*********************************************************************
//  233  * @fn          zcl_Init
//  234  * @brief       Initialization function for the zcl layer.
//  235  * @param       task_id - ZCL task id
//  236  */

        RSEG BANKED_CODE:CODE:NOROOT(0)
//  237 void zcl_Init( uint8 task_id )
zcl_Init:
        CFI Block cfiBlock0 Using cfiCommon0
        CFI Function zcl_Init
//  238 {
        PUSH    DPL
        CFI DPL0 Frame(CFA_SP, 4)
        CFI CFA_SP SP+-4
        PUSH    DPH
        CFI DPH0 Frame(CFA_SP, 5)
        CFI CFA_SP SP+-5
        ; Saved register size: 2
        ; Auto size: 0
//  239   zcl_TaskID = task_id;
        MOV     A,R1
        MOV     DPTR,#zcl_TaskID
        MOVX    @DPTR,A
//  240 
//  241   plugins = (zclLibPlugin_t  *)NULL;
        MOV     DPTR,#plugins
        CLR     A
        MOVX    @DPTR,A
        INC     DPTR
        MOVX    @DPTR,A
//  242   attrList = (zclAttrRecsList *)NULL;
        MOV     DPTR,#attrList
        MOVX    @DPTR,A
        INC     DPTR
        MOVX    @DPTR,A
//  243   clusterOptionList = (zclClusterOptionList *)NULL;
        MOV     DPTR,#clusterOptionList
        MOVX    @DPTR,A
        INC     DPTR
        MOVX    @DPTR,A
//  244 }
        LJMP    ?Subroutine104 & 0xFFFF
        CFI EndBlock cfiBlock0
//  245 
//  246 /*********************************************************************
//  247  * @fn          zcl_event_loop
//  248  * @brief       Event Loop Processor for zcl.
//  249  * @param       task_id - task id
//  250  *              events - event bitmap
//  251  * @return      unprocessed events
//  252  */

        RSEG BANKED_CODE:CODE:NOROOT(0)
//  253 uint16 zcl_event_loop( uint8 task_id, uint16 events )
zcl_event_loop:
        CFI Block cfiBlock1 Using cfiCommon0
        CFI Function zcl_event_loop
//  254 {
        FUNCALL zcl_event_loop, osal_msg_receive
        LOCFRAME ISTACK, 0, STACK
        LOCFRAME PSTACK, 0, STACK
        LOCFRAME XSTACK, 12, STACK
        LOCFRAME IOVERLAY, 0, STATIC
        LOCFRAME DOVERLAY, 0, STATIC
        ARGFRAME ISTACK, 0, STACK
        ARGFRAME PSTACK, 0, STACK
        ARGFRAME XSTACK, 12, STACK
        ARGFRAME IOVERLAY, 0, STATIC
        ARGFRAME DOVERLAY, 0, STATIC
        FUNCALL zcl_event_loop, zclProcessMessageMSG
        LOCFRAME ISTACK, 0, STACK
        LOCFRAME PSTACK, 0, STACK
        LOCFRAME XSTACK, 12, STACK
        LOCFRAME IOVERLAY, 0, STATIC
        LOCFRAME DOVERLAY, 0, STATIC
        ARGFRAME ISTACK, 0, STACK
        ARGFRAME PSTACK, 0, STACK
        ARGFRAME XSTACK, 12, STACK
        ARGFRAME IOVERLAY, 0, STATIC
        ARGFRAME DOVERLAY, 0, STATIC
        FUNCALL zcl_event_loop, osal_msg_deallocate
        LOCFRAME ISTACK, 0, STACK
        LOCFRAME PSTACK, 0, STACK
        LOCFRAME XSTACK, 12, STACK
        LOCFRAME IOVERLAY, 0, STATIC
        LOCFRAME DOVERLAY, 0, STATIC
        ARGFRAME ISTACK, 0, STACK
        ARGFRAME PSTACK, 0, STACK
        ARGFRAME XSTACK, 12, STACK
        ARGFRAME IOVERLAY, 0, STATIC
        ARGFRAME DOVERLAY, 0, STATIC
        FUNCALL zcl_event_loop, osal_msg_receive
        LOCFRAME ISTACK, 0, STACK
        LOCFRAME PSTACK, 0, STACK
        LOCFRAME XSTACK, 12, STACK
        LOCFRAME IOVERLAY, 0, STATIC
        LOCFRAME DOVERLAY, 0, STATIC
        ARGFRAME ISTACK, 0, STACK
        ARGFRAME PSTACK, 0, STACK
        ARGFRAME XSTACK, 12, STACK
        ARGFRAME IOVERLAY, 0, STATIC
        ARGFRAME DOVERLAY, 0, STATIC
        FUNCALL zcl_event_loop, osal_msg_send
        LOCFRAME ISTACK, 0, STACK
        LOCFRAME PSTACK, 0, STACK
        LOCFRAME XSTACK, 12, STACK
        LOCFRAME IOVERLAY, 0, STATIC
        LOCFRAME DOVERLAY, 0, STATIC
        ARGFRAME ISTACK, 0, STACK
        ARGFRAME PSTACK, 0, STACK
        ARGFRAME XSTACK, 12, STACK
        ARGFRAME IOVERLAY, 0, STATIC
        ARGFRAME DOVERLAY, 0, STATIC
        MOV     A,#-0xc
        LCALL   ?BANKED_ENTER_XDATA
        CFI DPH0 load(1, XDATA, add(CFA_XSP16, literal(-1)))
        CFI DPL0 load(1, XDATA, add(CFA_XSP16, literal(-2)))
        CFI ?BRET_EXT load(1, XDATA, add(CFA_XSP16, literal(-3)))
        CFI ?RET_HIGH load(1, XDATA, add(CFA_XSP16, literal(-4)))
        CFI ?RET_LOW load(1, XDATA, add(CFA_XSP16, literal(-5)))
        CFI R7 load(1, XDATA, add(CFA_XSP16, literal(-6)))
        CFI V3 load(1, XDATA, add(CFA_XSP16, literal(-7)))
        CFI V2 load(1, XDATA, add(CFA_XSP16, literal(-8)))
        CFI V1 load(1, XDATA, add(CFA_XSP16, literal(-9)))
        CFI V0 load(1, XDATA, add(CFA_XSP16, literal(-10)))
        CFI VB load(1, XDATA, add(CFA_XSP16, literal(-11)))
        CFI R6 load(1, XDATA, add(CFA_XSP16, literal(-12)))
        CFI CFA_SP SP+0
        CFI CFA_XSP16 add(XSP16, 12)
        ; Saved register size: 12
        ; Auto size: 0
        MOV     ?V0 + 0,R2
        MOV     ?V0 + 1,R3
//  255   uint8 *msgPtr;
//  256   (void)task_id;  // Intentionally unreferenced parameter
//  257   
//  258   if ( events & SYS_EVENT_MSG )
        MOV     A,#-0x80
        ANL     A,?V0 + 1
        MOV     R1,A
        CLR     A
        JNZ     ??zcl_event_loop_0
        MOV     A,R1
??zcl_event_loop_0:
        JZ      ??zcl_event_loop_1
//  259   {
//  260     msgPtr = osal_msg_receive( zcl_TaskID );
        ; Setup parameters for call to function osal_msg_receive
        SJMP    ??zcl_event_loop_2
//  261     while ( msgPtr != NULL )
//  262     {
//  263       uint8 dealloc = TRUE;
//  264       
//  265       if ( *msgPtr == AF_INCOMING_MSG_CMD )
//  266       {
//  267         zclProcessMessageMSG( (afIncomingMSGPacket_t *)msgPtr );
??zcl_event_loop_3:
        ; Setup parameters for call to function zclProcessMessageMSG
        MOV     A,R6
        MOV     R2,A
        MOV     A,R7
        MOV     R3,A
        LCALL   ??zclProcessMessageMSG?relay
//  268       }
//  269       else if ( zcl_RegisteredMsgTaskID != TASK_NO_TASK )
//  270       {
//  271         osal_msg_send( zcl_RegisteredMsgTaskID, msgPtr ); // send it to another task to process.
//  272         dealloc = FALSE;
//  273       }
//  274       if ( dealloc ) // Release the memory
//  275       {
//  276         osal_msg_deallocate( msgPtr );
??zcl_event_loop_4:
        ; Setup parameters for call to function osal_msg_deallocate
        MOV     A,R6
        MOV     R2,A
        MOV     A,R7
        MOV     R3,A
        LCALL   ??osal_msg_deallocate?relay
//  277       }
//  278       msgPtr = osal_msg_receive( zcl_TaskID ); // Next
??zcl_event_loop_2:
        ; Setup parameters for call to function osal_msg_receive
        MOV     DPTR,#zcl_TaskID
        MOVX    A,@DPTR
        MOV     R1,A
        LCALL   ??osal_msg_receive?relay
        MOV     ?V0 + 2,R2
        MOV     ?V0 + 3,R3
        MOV     R6,?V0 + 2
        MOV     R7,?V0 + 3
        MOV     A,R6
        JNZ     ??zcl_event_loop_5
        MOV     A,R7
??zcl_event_loop_5:
        JZ      ??zcl_event_loop_6
        MOV     DPL,R6
        MOV     DPH,R7
        MOVX    A,@DPTR
        XRL     A,#0x1a
        JZ      ??zcl_event_loop_3
        MOV     DPTR,#zcl_RegisteredMsgTaskID
        MOVX    A,@DPTR
        XRL     A,#0xff
        JZ      ??zcl_event_loop_4
        ; Setup parameters for call to function osal_msg_send
        MOV     A,R6
        MOV     R2,A
        MOV     A,R7
        MOV     R3,A
        MOVX    A,@DPTR
        MOV     R1,A
        LCALL   ??osal_msg_send?relay
        SJMP    ??zcl_event_loop_2
//  279     } 
//  280     return (events ^ SYS_EVENT_MSG);// return unprocessed events
??zcl_event_loop_6:
        MOV     R2,?V0 + 0
        MOV     A,#-0x80
        XRL     A,?V0 + 1
        MOV     R3,A
        SJMP    ??zcl_event_loop_7
//  281   }
//  282   return 0; // Discard unknown events
??zcl_event_loop_1:
        MOV     R2,#0x0
        MOV     R3,#0x0
??zcl_event_loop_7:
        LJMP    ?Subroutine105 & 0xFFFF
        CFI EndBlock cfiBlock1
//  283 }
//  284 
//  285 /*********************************************************************
//  286  * @fn          zcl_registerPlugin
//  287  * @brief       Add a Cluster Library handler
//  288  * @param       startClusterID - starting cluster ID
//  289  *              endClusterID - ending cluster ID
//  290  *              pfnHdlr - function pointer to incoming message handler
//  291  * @return      ZSuccess if OK
//  292  */

        RSEG BANKED_CODE:CODE:NOROOT(0)
//  293 ZStatus_t zcl_registerPlugin( uint16 startClusterID,
zcl_registerPlugin:
        CFI Block cfiBlock2 Using cfiCommon0
        CFI Function zcl_registerPlugin
//  294           uint16 endClusterID, zclInHdlr_t pfnIncomingHdlr )
//  295 {
        FUNCALL zcl_registerPlugin, osal_mem_alloc
        LOCFRAME ISTACK, 0, STACK
        LOCFRAME PSTACK, 0, STACK
        LOCFRAME XSTACK, 14, STACK
        LOCFRAME IOVERLAY, 0, STATIC
        LOCFRAME DOVERLAY, 0, STATIC
        ARGFRAME ISTACK, 0, STACK
        ARGFRAME PSTACK, 0, STACK
        ARGFRAME XSTACK, 14, STACK
        ARGFRAME IOVERLAY, 0, STATIC
        ARGFRAME DOVERLAY, 0, STATIC
        MOV     A,#-0xe
        LCALL   ?BANKED_ENTER_XDATA
        CFI DPH0 load(1, XDATA, add(CFA_XSP16, literal(-1)))
        CFI DPL0 load(1, XDATA, add(CFA_XSP16, literal(-2)))
        CFI ?BRET_EXT load(1, XDATA, add(CFA_XSP16, literal(-3)))
        CFI ?RET_HIGH load(1, XDATA, add(CFA_XSP16, literal(-4)))
        CFI ?RET_LOW load(1, XDATA, add(CFA_XSP16, literal(-5)))
        CFI R7 load(1, XDATA, add(CFA_XSP16, literal(-6)))
        CFI V5 load(1, XDATA, add(CFA_XSP16, literal(-7)))
        CFI V4 load(1, XDATA, add(CFA_XSP16, literal(-8)))
        CFI V3 load(1, XDATA, add(CFA_XSP16, literal(-9)))
        CFI V2 load(1, XDATA, add(CFA_XSP16, literal(-10)))
        CFI V1 load(1, XDATA, add(CFA_XSP16, literal(-11)))
        CFI V0 load(1, XDATA, add(CFA_XSP16, literal(-12)))
        CFI VB load(1, XDATA, add(CFA_XSP16, literal(-13)))
        CFI R6 load(1, XDATA, add(CFA_XSP16, literal(-14)))
        CFI CFA_SP SP+0
        CFI CFA_XSP16 add(XSP16, 14)
        ; Saved register size: 14
        ; Auto size: 0
        MOV     ?V0 + 0,R2
        MOV     ?V0 + 1,R3
        MOV     ?V0 + 2,R4
        MOV     ?V0 + 3,R5
        MOV     A,#0xe
        LCALL   ?XSTACK_DISP0_8
        LCALL   ?Subroutine40 & 0xFFFF
//  296   zclLibPlugin_t *pNewItem;
//  297   zclLibPlugin_t *pLoop;
//  298 
//  299   // Fill in the new profile list
//  300   pNewItem = osal_mem_alloc( sizeof( zclLibPlugin_t ) );
??CrossCallReturnLabel_48:
        ; Setup parameters for call to function osal_mem_alloc
        MOV     R2,#0x8
        MOV     R3,#0x0
        LCALL   ??osal_mem_alloc?relay
        MOV     ?V0 + 4,R2
        MOV     ?V0 + 5,R3
        MOV     R0,?V0 + 4
        MOV     R1,?V0 + 5
//  301   if ( pNewItem == NULL )
        MOV     A,R0
        JNZ     ??zcl_registerPlugin_0
        MOV     A,R1
??zcl_registerPlugin_0:
        JNZ     ??zcl_registerPlugin_1
//  302     return (ZMemError);
        MOV     R1,#0x10
        SJMP    ??CrossCallReturnLabel_14
//  303 
//  304   // Fill in the plugin record.
//  305   pNewItem->next = (zclLibPlugin_t *)NULL;
??zcl_registerPlugin_1:
        MOV     DPL,R0
        MOV     DPH,R1
        CLR     A
        MOVX    @DPTR,A
        INC     DPTR
        LCALL   ?Subroutine14 & 0xFFFF
//  306   pNewItem->startClusterID = startClusterID;
??CrossCallReturnLabel_19:
        INC     DPTR
        MOV     A,?V0 + 0
        MOVX    @DPTR,A
        INC     DPTR
        MOV     A,?V0 + 1
        LCALL   ?Subroutine14 & 0xFFFF
//  307   pNewItem->endClusterID = endClusterID;
??CrossCallReturnLabel_20:
        INC     DPTR
        INC     DPTR
        INC     DPTR
        MOV     A,?V0 + 2
        MOVX    @DPTR,A
        INC     DPTR
        MOV     A,?V0 + 3
        MOVX    @DPTR,A
//  308   pNewItem->pfnIncomingHdlr = pfnIncomingHdlr;
        MOV     A,R6
        MOV     R2,A
        MOV     A,R7
        MOV     R3,A
        MOV     DPL,R0
        MOV     DPH,R1
        INC     DPTR
        INC     DPTR
        INC     DPTR
        INC     DPTR
        LCALL   ?Subroutine17 & 0xFFFF
//  309 
//  310   if (  plugins == NULL ) // Find spot in list
??CrossCallReturnLabel_297:
        MOV     DPTR,#plugins
        MOVX    A,@DPTR
        JNZ     ??zcl_registerPlugin_2
        INC     DPTR
        MOVX    A,@DPTR
??zcl_registerPlugin_2:
        MOV     DPTR,#plugins
        JZ      ??zcl_registerPlugin_3
//  311   {
//  312     plugins = pNewItem;
//  313   }
//  314   else
//  315   {
//  316     // Look for end of list
//  317     pLoop = plugins;
        LCALL   ?Subroutine87 & 0xFFFF
??CrossCallReturnLabel_286:
        SJMP    ??zcl_registerPlugin_4
//  318     while ( pLoop->next != NULL )
//  319       pLoop = pLoop->next;
??zcl_registerPlugin_5:
        MOV     A,R2
        MOV     R4,A
        MOV     A,R3
??zcl_registerPlugin_4:
        LCALL   ?Subroutine31 & 0xFFFF
??CrossCallReturnLabel_164:
        JNZ     ??zcl_registerPlugin_6
        MOV     A,R3
??zcl_registerPlugin_6:
        JNZ     ??zcl_registerPlugin_5
//  320 
//  321     pLoop->next = pNewItem; // Put new item at end of list
        MOV     DPL,R4
        MOV     DPH,R5
//  322   }
??zcl_registerPlugin_3:
        LCALL   ?Subroutine11 & 0xFFFF
        CFI EndBlock cfiBlock2
//  323   return ( ZSuccess );
??CrossCallReturnLabel_14:
        REQUIRE ?Subroutine106
        ; // Fall through to label ?Subroutine106
//  324 }

        RSEG BANKED_CODE:CODE:NOROOT(0)
?Subroutine106:
        CFI Block cfiBlock3 Using cfiCommon0
        CFI NoFunction
        CFI CFA_SP SP+0
        CFI CFA_XSP16 add(XSP16, 14)
        CFI VB load(1, XDATA, add(CFA_XSP16, literal(-13)))
        CFI DPL0 load(1, XDATA, add(CFA_XSP16, literal(-2)))
        CFI DPH0 load(1, XDATA, add(CFA_XSP16, literal(-1)))
        CFI R6 load(1, XDATA, add(CFA_XSP16, literal(-14)))
        CFI R7 load(1, XDATA, add(CFA_XSP16, literal(-6)))
        CFI V0 load(1, XDATA, add(CFA_XSP16, literal(-12)))
        CFI V1 load(1, XDATA, add(CFA_XSP16, literal(-11)))
        CFI V2 load(1, XDATA, add(CFA_XSP16, literal(-10)))
        CFI V3 load(1, XDATA, add(CFA_XSP16, literal(-9)))
        CFI V4 load(1, XDATA, add(CFA_XSP16, literal(-8)))
        CFI V5 load(1, XDATA, add(CFA_XSP16, literal(-7)))
        CFI ?BRET_EXT load(1, XDATA, add(CFA_XSP16, literal(-3)))
        CFI ?RET_HIGH load(1, XDATA, add(CFA_XSP16, literal(-4)))
        CFI ?RET_LOW load(1, XDATA, add(CFA_XSP16, literal(-5)))
        MOV     R7,#0x6
        LJMP    ?BANKED_LEAVE_XDATA
        CFI EndBlock cfiBlock3

        RSEG BANKED_CODE:CODE:NOROOT(0)
?Subroutine31:
        CFI Block cfiCond4 Using cfiCommon0
        CFI NoFunction
        CFI Conditional ??CrossCallReturnLabel_164
        CFI R6 load(1, XDATA, add(CFA_XSP16, literal(-14)))
        CFI VB load(1, XDATA, add(CFA_XSP16, literal(-13)))
        CFI V0 load(1, XDATA, add(CFA_XSP16, literal(-12)))
        CFI V1 load(1, XDATA, add(CFA_XSP16, literal(-11)))
        CFI V2 load(1, XDATA, add(CFA_XSP16, literal(-10)))
        CFI V3 load(1, XDATA, add(CFA_XSP16, literal(-9)))
        CFI V4 load(1, XDATA, add(CFA_XSP16, literal(-8)))
        CFI V5 load(1, XDATA, add(CFA_XSP16, literal(-7)))
        CFI R7 load(1, XDATA, add(CFA_XSP16, literal(-6)))
        CFI ?RET_LOW load(1, XDATA, add(CFA_XSP16, literal(-5)))
        CFI ?RET_HIGH load(1, XDATA, add(CFA_XSP16, literal(-4)))
        CFI ?BRET_EXT load(1, XDATA, add(CFA_XSP16, literal(-3)))
        CFI DPL0 load(1, XDATA, add(CFA_XSP16, literal(-2)))
        CFI DPH0 load(1, XDATA, add(CFA_XSP16, literal(-1)))
        CFI CFA_SP SP+0
        CFI CFA_XSP16 add(XSP16, 14)
        CFI Block cfiCond5 Using cfiCommon0
        CFI (cfiCond5) NoFunction
        CFI (cfiCond5) Conditional ??CrossCallReturnLabel_165
        CFI (cfiCond5) R6 load(1, XDATA, add(CFA_XSP16, literal(-12)))
        CFI (cfiCond5) VB load(1, XDATA, add(CFA_XSP16, literal(-11)))
        CFI (cfiCond5) V0 load(1, XDATA, add(CFA_XSP16, literal(-10)))
        CFI (cfiCond5) V1 load(1, XDATA, add(CFA_XSP16, literal(-9)))
        CFI (cfiCond5) V2 load(1, XDATA, add(CFA_XSP16, literal(-8)))
        CFI (cfiCond5) V3 load(1, XDATA, add(CFA_XSP16, literal(-7)))
        CFI (cfiCond5) R7 load(1, XDATA, add(CFA_XSP16, literal(-6)))
        CFI (cfiCond5) ?RET_LOW load(1, XDATA, add(CFA_XSP16, literal(-5)))
        CFI (cfiCond5) ?RET_HIGH load(1, XDATA, add(CFA_XSP16, literal(-4)))
        CFI (cfiCond5) ?BRET_EXT load(1, XDATA, add(CFA_XSP16, literal(-3)))
        CFI (cfiCond5) DPL0 load(1, XDATA, add(CFA_XSP16, literal(-2)))
        CFI (cfiCond5) DPH0 load(1, XDATA, add(CFA_XSP16, literal(-1)))
        CFI (cfiCond5) CFA_SP SP+0
        CFI (cfiCond5) CFA_XSP16 add(XSP16, 12)
        CFI Block cfiCond6 Using cfiCommon0
        CFI (cfiCond6) NoFunction
        CFI (cfiCond6) Conditional ??CrossCallReturnLabel_166
        CFI (cfiCond6) R6 load(1, XDATA, add(CFA_XSP16, literal(-12)))
        CFI (cfiCond6) VB load(1, XDATA, add(CFA_XSP16, literal(-11)))
        CFI (cfiCond6) V0 load(1, XDATA, add(CFA_XSP16, literal(-10)))
        CFI (cfiCond6) V1 load(1, XDATA, add(CFA_XSP16, literal(-9)))
        CFI (cfiCond6) V2 load(1, XDATA, add(CFA_XSP16, literal(-8)))
        CFI (cfiCond6) V3 load(1, XDATA, add(CFA_XSP16, literal(-7)))
        CFI (cfiCond6) R7 load(1, XDATA, add(CFA_XSP16, literal(-6)))
        CFI (cfiCond6) ?RET_LOW load(1, XDATA, add(CFA_XSP16, literal(-5)))
        CFI (cfiCond6) ?RET_HIGH load(1, XDATA, add(CFA_XSP16, literal(-4)))
        CFI (cfiCond6) ?BRET_EXT load(1, XDATA, add(CFA_XSP16, literal(-3)))
        CFI (cfiCond6) DPL0 load(1, XDATA, add(CFA_XSP16, literal(-2)))
        CFI (cfiCond6) DPH0 load(1, XDATA, add(CFA_XSP16, literal(-1)))
        CFI (cfiCond6) CFA_SP SP+0
        CFI (cfiCond6) CFA_XSP16 add(XSP16, 12)
        CFI Block cfiPicker7 Using cfiCommon1
        CFI (cfiPicker7) NoFunction
        CFI (cfiPicker7) Picker
        MOV     R5,A
        MOV     DPL,R4
        MOV     DPH,R5
        CFI EndBlock cfiCond4
        CFI EndBlock cfiCond5
        CFI EndBlock cfiCond6
        CFI EndBlock cfiPicker7
        REQUIRE ??Subroutine121_0
        ; // Fall through to label ??Subroutine121_0

        RSEG BANKED_CODE:CODE:NOROOT(0)
??Subroutine121_0:
        CFI Block cfiCond8 Using cfiCommon0
        CFI NoFunction
        CFI Conditional ??CrossCallReturnLabel_168
        CFI R6 load(1, XDATA, add(CFA_XSP16, literal(-16)))
        CFI VB load(1, XDATA, add(CFA_XSP16, literal(-15)))
        CFI V0 load(1, XDATA, add(CFA_XSP16, literal(-14)))
        CFI V1 load(1, XDATA, add(CFA_XSP16, literal(-13)))
        CFI V2 load(1, XDATA, add(CFA_XSP16, literal(-12)))
        CFI V3 load(1, XDATA, add(CFA_XSP16, literal(-11)))
        CFI V4 load(1, XDATA, add(CFA_XSP16, literal(-10)))
        CFI V5 load(1, XDATA, add(CFA_XSP16, literal(-9)))
        CFI V6 load(1, XDATA, add(CFA_XSP16, literal(-8)))
        CFI V7 load(1, XDATA, add(CFA_XSP16, literal(-7)))
        CFI R7 load(1, XDATA, add(CFA_XSP16, literal(-6)))
        CFI ?RET_LOW load(1, XDATA, add(CFA_XSP16, literal(-5)))
        CFI ?RET_HIGH load(1, XDATA, add(CFA_XSP16, literal(-4)))
        CFI ?BRET_EXT load(1, XDATA, add(CFA_XSP16, literal(-3)))
        CFI DPL0 load(1, XDATA, add(CFA_XSP16, literal(-2)))
        CFI DPH0 load(1, XDATA, add(CFA_XSP16, literal(-1)))
        CFI CFA_SP SP+0
        CFI CFA_XSP16 add(XSP16, 77)
        CFI Block cfiCond9 Using cfiCommon0
        CFI (cfiCond9) NoFunction
        CFI (cfiCond9) Conditional ??CrossCallReturnLabel_167
        CFI (cfiCond9) R6 load(1, XDATA, add(CFA_XSP16, literal(-18)))
        CFI (cfiCond9) VB load(1, XDATA, add(CFA_XSP16, literal(-17)))
        CFI (cfiCond9) V0 load(1, XDATA, add(CFA_XSP16, literal(-16)))
        CFI (cfiCond9) V1 load(1, XDATA, add(CFA_XSP16, literal(-15)))
        CFI (cfiCond9) V2 load(1, XDATA, add(CFA_XSP16, literal(-14)))
        CFI (cfiCond9) V3 load(1, XDATA, add(CFA_XSP16, literal(-13)))
        CFI (cfiCond9) V4 load(1, XDATA, add(CFA_XSP16, literal(-12)))
        CFI (cfiCond9) V5 load(1, XDATA, add(CFA_XSP16, literal(-11)))
        CFI (cfiCond9) V6 load(1, XDATA, add(CFA_XSP16, literal(-10)))
        CFI (cfiCond9) V7 load(1, XDATA, add(CFA_XSP16, literal(-9)))
        CFI (cfiCond9) V8 load(1, XDATA, add(CFA_XSP16, literal(-8)))
        CFI (cfiCond9) V9 load(1, XDATA, add(CFA_XSP16, literal(-7)))
        CFI (cfiCond9) R7 load(1, XDATA, add(CFA_XSP16, literal(-6)))
        CFI (cfiCond9) ?RET_LOW load(1, XDATA, add(CFA_XSP16, literal(-5)))
        CFI (cfiCond9) ?RET_HIGH load(1, XDATA, add(CFA_XSP16, literal(-4)))
        CFI (cfiCond9) ?BRET_EXT load(1, XDATA, add(CFA_XSP16, literal(-3)))
        CFI (cfiCond9) DPL0 load(1, XDATA, add(CFA_XSP16, literal(-2)))
        CFI (cfiCond9) DPH0 load(1, XDATA, add(CFA_XSP16, literal(-1)))
        CFI (cfiCond9) CFA_SP SP+0
        CFI (cfiCond9) CFA_XSP16 add(XSP16, 18)
        CFI Block cfiCond10 Using cfiCommon0
        CFI (cfiCond10) NoFunction
        CFI (cfiCond10) Conditional ??CrossCallReturnLabel_164
        CFI (cfiCond10) R6 load(1, XDATA, add(CFA_XSP16, literal(-14)))
        CFI (cfiCond10) VB load(1, XDATA, add(CFA_XSP16, literal(-13)))
        CFI (cfiCond10) V0 load(1, XDATA, add(CFA_XSP16, literal(-12)))
        CFI (cfiCond10) V1 load(1, XDATA, add(CFA_XSP16, literal(-11)))
        CFI (cfiCond10) V2 load(1, XDATA, add(CFA_XSP16, literal(-10)))
        CFI (cfiCond10) V3 load(1, XDATA, add(CFA_XSP16, literal(-9)))
        CFI (cfiCond10) V4 load(1, XDATA, add(CFA_XSP16, literal(-8)))
        CFI (cfiCond10) V5 load(1, XDATA, add(CFA_XSP16, literal(-7)))
        CFI (cfiCond10) R7 load(1, XDATA, add(CFA_XSP16, literal(-6)))
        CFI (cfiCond10) ?RET_LOW load(1, XDATA, add(CFA_XSP16, literal(-5)))
        CFI (cfiCond10) ?RET_HIGH load(1, XDATA, add(CFA_XSP16, literal(-4)))
        CFI (cfiCond10) ?BRET_EXT load(1, XDATA, add(CFA_XSP16, literal(-3)))
        CFI (cfiCond10) DPL0 load(1, XDATA, add(CFA_XSP16, literal(-2)))
        CFI (cfiCond10) DPH0 load(1, XDATA, add(CFA_XSP16, literal(-1)))
        CFI (cfiCond10) CFA_SP SP+0
        CFI (cfiCond10) CFA_XSP16 add(XSP16, 14)
        CFI Block cfiCond11 Using cfiCommon0
        CFI (cfiCond11) NoFunction
        CFI (cfiCond11) Conditional ??CrossCallReturnLabel_165
        CFI (cfiCond11) R6 load(1, XDATA, add(CFA_XSP16, literal(-12)))
        CFI (cfiCond11) VB load(1, XDATA, add(CFA_XSP16, literal(-11)))
        CFI (cfiCond11) V0 load(1, XDATA, add(CFA_XSP16, literal(-10)))
        CFI (cfiCond11) V1 load(1, XDATA, add(CFA_XSP16, literal(-9)))
        CFI (cfiCond11) V2 load(1, XDATA, add(CFA_XSP16, literal(-8)))
        CFI (cfiCond11) V3 load(1, XDATA, add(CFA_XSP16, literal(-7)))
        CFI (cfiCond11) R7 load(1, XDATA, add(CFA_XSP16, literal(-6)))
        CFI (cfiCond11) ?RET_LOW load(1, XDATA, add(CFA_XSP16, literal(-5)))
        CFI (cfiCond11) ?RET_HIGH load(1, XDATA, add(CFA_XSP16, literal(-4)))
        CFI (cfiCond11) ?BRET_EXT load(1, XDATA, add(CFA_XSP16, literal(-3)))
        CFI (cfiCond11) DPL0 load(1, XDATA, add(CFA_XSP16, literal(-2)))
        CFI (cfiCond11) DPH0 load(1, XDATA, add(CFA_XSP16, literal(-1)))
        CFI (cfiCond11) CFA_SP SP+0
        CFI (cfiCond11) CFA_XSP16 add(XSP16, 12)
        CFI Block cfiCond12 Using cfiCommon0
        CFI (cfiCond12) NoFunction
        CFI (cfiCond12) Conditional ??CrossCallReturnLabel_166
        CFI (cfiCond12) R6 load(1, XDATA, add(CFA_XSP16, literal(-12)))
        CFI (cfiCond12) VB load(1, XDATA, add(CFA_XSP16, literal(-11)))
        CFI (cfiCond12) V0 load(1, XDATA, add(CFA_XSP16, literal(-10)))
        CFI (cfiCond12) V1 load(1, XDATA, add(CFA_XSP16, literal(-9)))
        CFI (cfiCond12) V2 load(1, XDATA, add(CFA_XSP16, literal(-8)))
        CFI (cfiCond12) V3 load(1, XDATA, add(CFA_XSP16, literal(-7)))
        CFI (cfiCond12) R7 load(1, XDATA, add(CFA_XSP16, literal(-6)))
        CFI (cfiCond12) ?RET_LOW load(1, XDATA, add(CFA_XSP16, literal(-5)))
        CFI (cfiCond12) ?RET_HIGH load(1, XDATA, add(CFA_XSP16, literal(-4)))
        CFI (cfiCond12) ?BRET_EXT load(1, XDATA, add(CFA_XSP16, literal(-3)))
        CFI (cfiCond12) DPL0 load(1, XDATA, add(CFA_XSP16, literal(-2)))
        CFI (cfiCond12) DPH0 load(1, XDATA, add(CFA_XSP16, literal(-1)))
        CFI (cfiCond12) CFA_SP SP+0
        CFI (cfiCond12) CFA_XSP16 add(XSP16, 12)
        CFI Block cfiPicker13 Using cfiCommon1
        CFI (cfiPicker13) NoFunction
        CFI (cfiPicker13) Picker
        LCALL   ??Subroutine130_0 & 0xFFFF
??CrossCallReturnLabel_255:
        MOV     A,R2
        RET
        CFI EndBlock cfiCond8
        CFI EndBlock cfiCond9
        CFI EndBlock cfiCond10
        CFI EndBlock cfiCond11
        CFI EndBlock cfiCond12
        CFI EndBlock cfiPicker13
//  325 
//  326 /*********************************************************************
//  327  * @fn          zcl_registerAttrList
//  328  * @brief       Register an Attribute List with ZCL Foundation
//  329  * @param       endpoint - endpoint the attribute list belongs to
//  330  *              numAttr - number of attributes in list
//  331  *              newAttrList - array of Attribute records.
//  332  *
//  333  *              NOTE: THE ATTRIBUTE IDs (FOR A CLUSTER) MUST BE IN ASCENDING ORDER.
//  334  *                    OTHERWISE, THE DISCOVERY RESPONSE COMMAND WILL NOT HAVE THE RIGHT ATTRIBUTE INFO
//  335  * @return      ZSuccess if OK
//  336  */

        RSEG BANKED_CODE:CODE:NOROOT(0)
//  337 ZStatus_t zcl_registerAttrList( uint8 endpoint, uint8 numAttr, CONST zclAttrRec_t newAttrList[] )
zcl_registerAttrList:
        CFI Block cfiBlock14 Using cfiCommon0
        CFI Function zcl_registerAttrList
//  338 {
        FUNCALL zcl_registerAttrList, osal_mem_alloc
        LOCFRAME ISTACK, 0, STACK
        LOCFRAME PSTACK, 0, STACK
        LOCFRAME XSTACK, 12, STACK
        LOCFRAME IOVERLAY, 0, STATIC
        LOCFRAME DOVERLAY, 0, STATIC
        ARGFRAME ISTACK, 0, STACK
        ARGFRAME PSTACK, 0, STACK
        ARGFRAME XSTACK, 12, STACK
        ARGFRAME IOVERLAY, 0, STATIC
        ARGFRAME DOVERLAY, 0, STATIC
        MOV     A,#-0xc
        LCALL   ?BANKED_ENTER_XDATA
        CFI DPH0 load(1, XDATA, add(CFA_XSP16, literal(-1)))
        CFI DPL0 load(1, XDATA, add(CFA_XSP16, literal(-2)))
        CFI ?BRET_EXT load(1, XDATA, add(CFA_XSP16, literal(-3)))
        CFI ?RET_HIGH load(1, XDATA, add(CFA_XSP16, literal(-4)))
        CFI ?RET_LOW load(1, XDATA, add(CFA_XSP16, literal(-5)))
        CFI R7 load(1, XDATA, add(CFA_XSP16, literal(-6)))
        CFI V3 load(1, XDATA, add(CFA_XSP16, literal(-7)))
        CFI V2 load(1, XDATA, add(CFA_XSP16, literal(-8)))
        CFI V1 load(1, XDATA, add(CFA_XSP16, literal(-9)))
        CFI V0 load(1, XDATA, add(CFA_XSP16, literal(-10)))
        CFI VB load(1, XDATA, add(CFA_XSP16, literal(-11)))
        CFI R6 load(1, XDATA, add(CFA_XSP16, literal(-12)))
        CFI CFA_SP SP+0
        CFI CFA_XSP16 add(XSP16, 12)
        ; Saved register size: 12
        ; Auto size: 0
        LCALL   ?Subroutine63 & 0xFFFF
//  339   zclAttrRecsList *pNewItem;
//  340   zclAttrRecsList *pLoop;
//  341 
//  342   pNewItem = osal_mem_alloc( sizeof( zclAttrRecsList ) ); // Fill in the new profile list
//  343   if ( pNewItem == NULL )
??CrossCallReturnLabel_85:
        JNZ     ??zcl_registerAttrList_0
        MOV     A,R1
??zcl_registerAttrList_0:
        JNZ     ??zcl_registerAttrList_1
//  344     return (ZMemError);
        MOV     R1,#0x10
        SJMP    ??CrossCallReturnLabel_15
//  345 
//  346   pNewItem->next = (zclAttrRecsList *)NULL;
??zcl_registerAttrList_1:
        LCALL   ?Subroutine0 & 0xFFFF
//  347   pNewItem->endpoint = endpoint;
//  348   pNewItem->numAttributes = numAttr;
//  349   pNewItem->attrs = newAttrList;
//  350 
//  351   if ( attrList == NULL ) // Find spot in list
??CrossCallReturnLabel_0:
        MOV     DPTR,#attrList
        MOVX    A,@DPTR
        JNZ     ??zcl_registerAttrList_2
        INC     DPTR
        MOVX    A,@DPTR
??zcl_registerAttrList_2:
        MOV     DPTR,#attrList
        JZ      ??zcl_registerAttrList_3
//  352   {
//  353     attrList = pNewItem;
//  354   }
//  355   else
//  356   {
//  357     pLoop = attrList; // Look for end of list
        LCALL   ?Subroutine87 & 0xFFFF
??CrossCallReturnLabel_287:
        SJMP    ??zcl_registerAttrList_4
//  358     while ( pLoop->next != NULL )
//  359       pLoop = pLoop->next;
??zcl_registerAttrList_5:
        MOV     A,R2
        MOV     R4,A
        MOV     A,R3
??zcl_registerAttrList_4:
        LCALL   ?Subroutine31 & 0xFFFF
??CrossCallReturnLabel_165:
        JNZ     ??zcl_registerAttrList_6
        MOV     A,R3
??zcl_registerAttrList_6:
        JNZ     ??zcl_registerAttrList_5
//  360 
//  361     pLoop->next = pNewItem; // Put new item at end of list
        MOV     DPL,R4
        MOV     DPH,R5
//  362   }
??zcl_registerAttrList_3:
        LCALL   ?Subroutine11 & 0xFFFF
//  363   return ( ZSuccess );
??CrossCallReturnLabel_15:
        LJMP    ?Subroutine105 & 0xFFFF
        CFI EndBlock cfiBlock14
//  364 }

        RSEG BANKED_CODE:CODE:NOROOT(0)
?Subroutine11:
        CFI Block cfiCond15 Using cfiCommon0
        CFI NoFunction
        CFI Conditional ??CrossCallReturnLabel_14
        CFI R6 load(1, XDATA, add(CFA_XSP16, literal(-14)))
        CFI VB load(1, XDATA, add(CFA_XSP16, literal(-13)))
        CFI V0 load(1, XDATA, add(CFA_XSP16, literal(-12)))
        CFI V1 load(1, XDATA, add(CFA_XSP16, literal(-11)))
        CFI V2 load(1, XDATA, add(CFA_XSP16, literal(-10)))
        CFI V3 load(1, XDATA, add(CFA_XSP16, literal(-9)))
        CFI V4 load(1, XDATA, add(CFA_XSP16, literal(-8)))
        CFI V5 load(1, XDATA, add(CFA_XSP16, literal(-7)))
        CFI R7 load(1, XDATA, add(CFA_XSP16, literal(-6)))
        CFI ?RET_LOW load(1, XDATA, add(CFA_XSP16, literal(-5)))
        CFI ?RET_HIGH load(1, XDATA, add(CFA_XSP16, literal(-4)))
        CFI ?BRET_EXT load(1, XDATA, add(CFA_XSP16, literal(-3)))
        CFI DPL0 load(1, XDATA, add(CFA_XSP16, literal(-2)))
        CFI DPH0 load(1, XDATA, add(CFA_XSP16, literal(-1)))
        CFI CFA_SP SP+0
        CFI CFA_XSP16 add(XSP16, 14)
        CFI Block cfiCond16 Using cfiCommon0
        CFI (cfiCond16) NoFunction
        CFI (cfiCond16) Conditional ??CrossCallReturnLabel_15
        CFI (cfiCond16) R6 load(1, XDATA, add(CFA_XSP16, literal(-12)))
        CFI (cfiCond16) VB load(1, XDATA, add(CFA_XSP16, literal(-11)))
        CFI (cfiCond16) V0 load(1, XDATA, add(CFA_XSP16, literal(-10)))
        CFI (cfiCond16) V1 load(1, XDATA, add(CFA_XSP16, literal(-9)))
        CFI (cfiCond16) V2 load(1, XDATA, add(CFA_XSP16, literal(-8)))
        CFI (cfiCond16) V3 load(1, XDATA, add(CFA_XSP16, literal(-7)))
        CFI (cfiCond16) R7 load(1, XDATA, add(CFA_XSP16, literal(-6)))
        CFI (cfiCond16) ?RET_LOW load(1, XDATA, add(CFA_XSP16, literal(-5)))
        CFI (cfiCond16) ?RET_HIGH load(1, XDATA, add(CFA_XSP16, literal(-4)))
        CFI (cfiCond16) ?BRET_EXT load(1, XDATA, add(CFA_XSP16, literal(-3)))
        CFI (cfiCond16) DPL0 load(1, XDATA, add(CFA_XSP16, literal(-2)))
        CFI (cfiCond16) DPH0 load(1, XDATA, add(CFA_XSP16, literal(-1)))
        CFI (cfiCond16) CFA_SP SP+0
        CFI (cfiCond16) CFA_XSP16 add(XSP16, 12)
        CFI Block cfiCond17 Using cfiCommon0
        CFI (cfiCond17) NoFunction
        CFI (cfiCond17) Conditional ??CrossCallReturnLabel_16
        CFI (cfiCond17) R6 load(1, XDATA, add(CFA_XSP16, literal(-12)))
        CFI (cfiCond17) VB load(1, XDATA, add(CFA_XSP16, literal(-11)))
        CFI (cfiCond17) V0 load(1, XDATA, add(CFA_XSP16, literal(-10)))
        CFI (cfiCond17) V1 load(1, XDATA, add(CFA_XSP16, literal(-9)))
        CFI (cfiCond17) V2 load(1, XDATA, add(CFA_XSP16, literal(-8)))
        CFI (cfiCond17) V3 load(1, XDATA, add(CFA_XSP16, literal(-7)))
        CFI (cfiCond17) R7 load(1, XDATA, add(CFA_XSP16, literal(-6)))
        CFI (cfiCond17) ?RET_LOW load(1, XDATA, add(CFA_XSP16, literal(-5)))
        CFI (cfiCond17) ?RET_HIGH load(1, XDATA, add(CFA_XSP16, literal(-4)))
        CFI (cfiCond17) ?BRET_EXT load(1, XDATA, add(CFA_XSP16, literal(-3)))
        CFI (cfiCond17) DPL0 load(1, XDATA, add(CFA_XSP16, literal(-2)))
        CFI (cfiCond17) DPH0 load(1, XDATA, add(CFA_XSP16, literal(-1)))
        CFI (cfiCond17) CFA_SP SP+0
        CFI (cfiCond17) CFA_XSP16 add(XSP16, 12)
        CFI Block cfiPicker18 Using cfiCommon1
        CFI (cfiPicker18) NoFunction
        CFI (cfiPicker18) Picker
        MOV     A,R0
        MOVX    @DPTR,A
        INC     DPTR
        MOV     A,R1
        MOVX    @DPTR,A
        MOV     R1,#0x0
        RET
        CFI EndBlock cfiCond15
        CFI EndBlock cfiCond16
        CFI EndBlock cfiCond17
        CFI EndBlock cfiPicker18
//  365 
//  366 /*********************************************************************
//  367  * @fn          zcl_registerClusterOptionList
//  368  * @brief       Register a Cluster Option List with ZCL Foundation
//  369  * @param       endpoint - endpoint the option list belongs to
//  370  *              numOption - number of options in list
//  371  *              optionList - array of cluster option records.
//  372  *                           
//  373  *              NOTE: This API should be called to enable 'Application Link Key' security and/or
//  374  *                    'APS ACK' for a specific Cluster. The 'Application Link Key' is discarded 
//  375  *                    if security isn't enabled on the device. The default behavior is 'Network Key'
//  376  *                    when security is enabled and no 'APS ACK' for the ZCL messages.
//  377  * @return      ZSuccess if OK
//  378  */

        RSEG BANKED_CODE:CODE:NOROOT(0)
//  379 ZStatus_t zcl_registerClusterOptionList( uint8 endpoint, uint8 numOption, zclOptionRec_t optionList[] )
zcl_registerClusterOptionList:
        CFI Block cfiBlock19 Using cfiCommon0
        CFI Function zcl_registerClusterOptionList
//  380 {
        FUNCALL zcl_registerClusterOptionList, osal_mem_alloc
        LOCFRAME ISTACK, 0, STACK
        LOCFRAME PSTACK, 0, STACK
        LOCFRAME XSTACK, 12, STACK
        LOCFRAME IOVERLAY, 0, STATIC
        LOCFRAME DOVERLAY, 0, STATIC
        ARGFRAME ISTACK, 0, STACK
        ARGFRAME PSTACK, 0, STACK
        ARGFRAME XSTACK, 12, STACK
        ARGFRAME IOVERLAY, 0, STATIC
        ARGFRAME DOVERLAY, 0, STATIC
        MOV     A,#-0xc
        LCALL   ?BANKED_ENTER_XDATA
        CFI DPH0 load(1, XDATA, add(CFA_XSP16, literal(-1)))
        CFI DPL0 load(1, XDATA, add(CFA_XSP16, literal(-2)))
        CFI ?BRET_EXT load(1, XDATA, add(CFA_XSP16, literal(-3)))
        CFI ?RET_HIGH load(1, XDATA, add(CFA_XSP16, literal(-4)))
        CFI ?RET_LOW load(1, XDATA, add(CFA_XSP16, literal(-5)))
        CFI R7 load(1, XDATA, add(CFA_XSP16, literal(-6)))
        CFI V3 load(1, XDATA, add(CFA_XSP16, literal(-7)))
        CFI V2 load(1, XDATA, add(CFA_XSP16, literal(-8)))
        CFI V1 load(1, XDATA, add(CFA_XSP16, literal(-9)))
        CFI V0 load(1, XDATA, add(CFA_XSP16, literal(-10)))
        CFI VB load(1, XDATA, add(CFA_XSP16, literal(-11)))
        CFI R6 load(1, XDATA, add(CFA_XSP16, literal(-12)))
        CFI CFA_SP SP+0
        CFI CFA_XSP16 add(XSP16, 12)
        ; Saved register size: 12
        ; Auto size: 0
        LCALL   ?Subroutine63 & 0xFFFF
//  381   zclClusterOptionList *pNewItem;
//  382   zclClusterOptionList *pLoop;
//  383 
//  384   // Fill in the new profile list
//  385   pNewItem = osal_mem_alloc( sizeof( zclClusterOptionList ) );
//  386   if ( pNewItem == NULL )
??CrossCallReturnLabel_86:
        JNZ     ??zcl_registerClusterOptionList_0
        MOV     A,R1
??zcl_registerClusterOptionList_0:
        JNZ     ??zcl_registerClusterOptionList_1
//  387     return (ZMemError);
        MOV     R1,#0x10
        SJMP    ??CrossCallReturnLabel_16
//  388 
//  389   pNewItem->next = (zclClusterOptionList *)NULL;
??zcl_registerClusterOptionList_1:
        LCALL   ?Subroutine0 & 0xFFFF
//  390   pNewItem->endpoint = endpoint;
//  391   pNewItem->numOptions = numOption;
//  392   pNewItem->options = optionList;
//  393 
//  394   // Find spot in list
//  395   if ( clusterOptionList == NULL )
??CrossCallReturnLabel_1:
        MOV     DPTR,#clusterOptionList
        MOVX    A,@DPTR
        JNZ     ??zcl_registerClusterOptionList_2
        INC     DPTR
        MOVX    A,@DPTR
??zcl_registerClusterOptionList_2:
        MOV     DPTR,#clusterOptionList
        JZ      ??zcl_registerClusterOptionList_3
//  396   {
//  397     clusterOptionList = pNewItem;
//  398   }
//  399   else
//  400   {
//  401     // Look for end of list
//  402     pLoop = clusterOptionList;
        LCALL   ?Subroutine87 & 0xFFFF
??CrossCallReturnLabel_288:
        SJMP    ??zcl_registerClusterOptionList_4
//  403     while ( pLoop->next != NULL )
//  404       pLoop = pLoop->next;
??zcl_registerClusterOptionList_5:
        MOV     A,R2
        MOV     R4,A
        MOV     A,R3
??zcl_registerClusterOptionList_4:
        LCALL   ?Subroutine31 & 0xFFFF
??CrossCallReturnLabel_166:
        JNZ     ??zcl_registerClusterOptionList_6
        MOV     A,R3
??zcl_registerClusterOptionList_6:
        JNZ     ??zcl_registerClusterOptionList_5
//  405 
//  406     // Put new item at end of list
//  407     pLoop->next = pNewItem;
        MOV     DPL,R4
        MOV     DPH,R5
//  408   }
??zcl_registerClusterOptionList_3:
        LCALL   ?Subroutine11 & 0xFFFF
//  409 
//  410   return ( ZSuccess );
??CrossCallReturnLabel_16:
        LJMP    ?Subroutine105 & 0xFFFF
        CFI EndBlock cfiBlock19
//  411 }

        RSEG BANKED_CODE:CODE:NOROOT(0)
?Subroutine63:
        CFI Block cfiCond20 Using cfiCommon0
        CFI NoFunction
        CFI Conditional ??CrossCallReturnLabel_85
        CFI R6 load(1, XDATA, add(CFA_XSP16, literal(-12)))
        CFI VB load(1, XDATA, add(CFA_XSP16, literal(-11)))
        CFI V0 load(1, XDATA, add(CFA_XSP16, literal(-10)))
        CFI V1 load(1, XDATA, add(CFA_XSP16, literal(-9)))
        CFI V2 load(1, XDATA, add(CFA_XSP16, literal(-8)))
        CFI V3 load(1, XDATA, add(CFA_XSP16, literal(-7)))
        CFI R7 load(1, XDATA, add(CFA_XSP16, literal(-6)))
        CFI ?RET_LOW load(1, XDATA, add(CFA_XSP16, literal(-5)))
        CFI ?RET_HIGH load(1, XDATA, add(CFA_XSP16, literal(-4)))
        CFI ?BRET_EXT load(1, XDATA, add(CFA_XSP16, literal(-3)))
        CFI DPL0 load(1, XDATA, add(CFA_XSP16, literal(-2)))
        CFI DPH0 load(1, XDATA, add(CFA_XSP16, literal(-1)))
        CFI CFA_SP SP+0
        CFI CFA_XSP16 add(XSP16, 12)
        CFI Block cfiCond21 Using cfiCommon0
        CFI (cfiCond21) NoFunction
        CFI (cfiCond21) Conditional ??CrossCallReturnLabel_86
        CFI (cfiCond21) R6 load(1, XDATA, add(CFA_XSP16, literal(-12)))
        CFI (cfiCond21) VB load(1, XDATA, add(CFA_XSP16, literal(-11)))
        CFI (cfiCond21) V0 load(1, XDATA, add(CFA_XSP16, literal(-10)))
        CFI (cfiCond21) V1 load(1, XDATA, add(CFA_XSP16, literal(-9)))
        CFI (cfiCond21) V2 load(1, XDATA, add(CFA_XSP16, literal(-8)))
        CFI (cfiCond21) V3 load(1, XDATA, add(CFA_XSP16, literal(-7)))
        CFI (cfiCond21) R7 load(1, XDATA, add(CFA_XSP16, literal(-6)))
        CFI (cfiCond21) ?RET_LOW load(1, XDATA, add(CFA_XSP16, literal(-5)))
        CFI (cfiCond21) ?RET_HIGH load(1, XDATA, add(CFA_XSP16, literal(-4)))
        CFI (cfiCond21) ?BRET_EXT load(1, XDATA, add(CFA_XSP16, literal(-3)))
        CFI (cfiCond21) DPL0 load(1, XDATA, add(CFA_XSP16, literal(-2)))
        CFI (cfiCond21) DPH0 load(1, XDATA, add(CFA_XSP16, literal(-1)))
        CFI (cfiCond21) CFA_SP SP+0
        CFI (cfiCond21) CFA_XSP16 add(XSP16, 12)
        CFI Block cfiPicker22 Using cfiCommon1
        CFI (cfiPicker22) NoFunction
        CFI (cfiPicker22) Picker
        MOV     ?V0 + 0,R1
        MOV     ?V0 + 1,R2
        MOV     A,R4
        MOV     R6,A
        MOV     A,R5
        MOV     R7,A
        ; Setup parameters for call to function osal_mem_alloc
        ; Setup parameters for call to function osal_mem_alloc
        MOV     R2,#0x6
        MOV     R3,#0x0
        LCALL   ??osal_mem_alloc?relay
        MOV     ?V0 + 2,R2
        MOV     ?V0 + 3,R3
        MOV     R0,?V0 + 2
        MOV     R1,?V0 + 3
        MOV     A,R0
        RET
        CFI EndBlock cfiCond20
        CFI EndBlock cfiCond21
        CFI EndBlock cfiPicker22

        RSEG BANKED_CODE:CODE:NOROOT(0)
?Subroutine0:
        CFI Block cfiCond23 Using cfiCommon0
        CFI NoFunction
        CFI Conditional ??CrossCallReturnLabel_0
        CFI R6 load(1, XDATA, add(CFA_XSP16, literal(-12)))
        CFI VB load(1, XDATA, add(CFA_XSP16, literal(-11)))
        CFI V0 load(1, XDATA, add(CFA_XSP16, literal(-10)))
        CFI V1 load(1, XDATA, add(CFA_XSP16, literal(-9)))
        CFI V2 load(1, XDATA, add(CFA_XSP16, literal(-8)))
        CFI V3 load(1, XDATA, add(CFA_XSP16, literal(-7)))
        CFI R7 load(1, XDATA, add(CFA_XSP16, literal(-6)))
        CFI ?RET_LOW load(1, XDATA, add(CFA_XSP16, literal(-5)))
        CFI ?RET_HIGH load(1, XDATA, add(CFA_XSP16, literal(-4)))
        CFI ?BRET_EXT load(1, XDATA, add(CFA_XSP16, literal(-3)))
        CFI DPL0 load(1, XDATA, add(CFA_XSP16, literal(-2)))
        CFI DPH0 load(1, XDATA, add(CFA_XSP16, literal(-1)))
        CFI CFA_SP SP+0
        CFI CFA_XSP16 add(XSP16, 12)
        CFI Block cfiCond24 Using cfiCommon0
        CFI (cfiCond24) NoFunction
        CFI (cfiCond24) Conditional ??CrossCallReturnLabel_1
        CFI (cfiCond24) R6 load(1, XDATA, add(CFA_XSP16, literal(-12)))
        CFI (cfiCond24) VB load(1, XDATA, add(CFA_XSP16, literal(-11)))
        CFI (cfiCond24) V0 load(1, XDATA, add(CFA_XSP16, literal(-10)))
        CFI (cfiCond24) V1 load(1, XDATA, add(CFA_XSP16, literal(-9)))
        CFI (cfiCond24) V2 load(1, XDATA, add(CFA_XSP16, literal(-8)))
        CFI (cfiCond24) V3 load(1, XDATA, add(CFA_XSP16, literal(-7)))
        CFI (cfiCond24) R7 load(1, XDATA, add(CFA_XSP16, literal(-6)))
        CFI (cfiCond24) ?RET_LOW load(1, XDATA, add(CFA_XSP16, literal(-5)))
        CFI (cfiCond24) ?RET_HIGH load(1, XDATA, add(CFA_XSP16, literal(-4)))
        CFI (cfiCond24) ?BRET_EXT load(1, XDATA, add(CFA_XSP16, literal(-3)))
        CFI (cfiCond24) DPL0 load(1, XDATA, add(CFA_XSP16, literal(-2)))
        CFI (cfiCond24) DPH0 load(1, XDATA, add(CFA_XSP16, literal(-1)))
        CFI (cfiCond24) CFA_SP SP+0
        CFI (cfiCond24) CFA_XSP16 add(XSP16, 12)
        CFI Block cfiPicker25 Using cfiCommon1
        CFI (cfiPicker25) NoFunction
        CFI (cfiPicker25) Picker
        MOV     DPL,R0
        MOV     DPH,R1
        CLR     A
        MOVX    @DPTR,A
        INC     DPTR
        LCALL   ?Subroutine97 & 0xFFFF
??CrossCallReturnLabel_130:
        INC     DPTR
        MOV     A,?V0 + 0
        LCALL   ?Subroutine78 & 0xFFFF
??CrossCallReturnLabel_106:
        MOV     A,?V0 + 1
        LCALL   ?Subroutine78 & 0xFFFF
??CrossCallReturnLabel_107:
        INC     DPTR
        MOV     A,R6
        MOVX    @DPTR,A
        INC     DPTR
        MOV     A,R7
        MOVX    @DPTR,A
        RET
        CFI EndBlock cfiCond23
        CFI EndBlock cfiCond24
        CFI EndBlock cfiPicker25

        RSEG BANKED_CODE:CODE:NOROOT(0)
?Subroutine78:
        CFI Block cfiCond26 Using cfiCommon0
        CFI NoFunction
        CFI Conditional ??CrossCallReturnLabel_106, ??CrossCallReturnLabel_0
        CFI R6 load(1, XDATA, add(CFA_XSP16, literal(-12)))
        CFI VB load(1, XDATA, add(CFA_XSP16, literal(-11)))
        CFI V0 load(1, XDATA, add(CFA_XSP16, literal(-10)))
        CFI V1 load(1, XDATA, add(CFA_XSP16, literal(-9)))
        CFI V2 load(1, XDATA, add(CFA_XSP16, literal(-8)))
        CFI V3 load(1, XDATA, add(CFA_XSP16, literal(-7)))
        CFI R7 load(1, XDATA, add(CFA_XSP16, literal(-6)))
        CFI ?RET_LOW load(1, XDATA, add(CFA_XSP16, literal(-5)))
        CFI ?RET_HIGH load(1, XDATA, add(CFA_XSP16, literal(-4)))
        CFI ?BRET_EXT load(1, XDATA, add(CFA_XSP16, literal(-3)))
        CFI DPL0 load(1, XDATA, add(CFA_XSP16, literal(-2)))
        CFI DPH0 load(1, XDATA, add(CFA_XSP16, literal(-1)))
        CFI CFA_SP SP+0
        CFI CFA_XSP16 add(XSP16, 12)
        CFI Block cfiCond27 Using cfiCommon0
        CFI (cfiCond27) NoFunction
        CFI (cfiCond27) Conditional ??CrossCallReturnLabel_106, ??CrossCallReturnLabel_1
        CFI (cfiCond27) R6 load(1, XDATA, add(CFA_XSP16, literal(-12)))
        CFI (cfiCond27) VB load(1, XDATA, add(CFA_XSP16, literal(-11)))
        CFI (cfiCond27) V0 load(1, XDATA, add(CFA_XSP16, literal(-10)))
        CFI (cfiCond27) V1 load(1, XDATA, add(CFA_XSP16, literal(-9)))
        CFI (cfiCond27) V2 load(1, XDATA, add(CFA_XSP16, literal(-8)))
        CFI (cfiCond27) V3 load(1, XDATA, add(CFA_XSP16, literal(-7)))
        CFI (cfiCond27) R7 load(1, XDATA, add(CFA_XSP16, literal(-6)))
        CFI (cfiCond27) ?RET_LOW load(1, XDATA, add(CFA_XSP16, literal(-5)))
        CFI (cfiCond27) ?RET_HIGH load(1, XDATA, add(CFA_XSP16, literal(-4)))
        CFI (cfiCond27) ?BRET_EXT load(1, XDATA, add(CFA_XSP16, literal(-3)))
        CFI (cfiCond27) DPL0 load(1, XDATA, add(CFA_XSP16, literal(-2)))
        CFI (cfiCond27) DPH0 load(1, XDATA, add(CFA_XSP16, literal(-1)))
        CFI (cfiCond27) CFA_SP SP+0
        CFI (cfiCond27) CFA_XSP16 add(XSP16, 12)
        CFI Block cfiCond28 Using cfiCommon0
        CFI (cfiCond28) NoFunction
        CFI (cfiCond28) Conditional ??CrossCallReturnLabel_107, ??CrossCallReturnLabel_0
        CFI (cfiCond28) R6 load(1, XDATA, add(CFA_XSP16, literal(-12)))
        CFI (cfiCond28) VB load(1, XDATA, add(CFA_XSP16, literal(-11)))
        CFI (cfiCond28) V0 load(1, XDATA, add(CFA_XSP16, literal(-10)))
        CFI (cfiCond28) V1 load(1, XDATA, add(CFA_XSP16, literal(-9)))
        CFI (cfiCond28) V2 load(1, XDATA, add(CFA_XSP16, literal(-8)))
        CFI (cfiCond28) V3 load(1, XDATA, add(CFA_XSP16, literal(-7)))
        CFI (cfiCond28) R7 load(1, XDATA, add(CFA_XSP16, literal(-6)))
        CFI (cfiCond28) ?RET_LOW load(1, XDATA, add(CFA_XSP16, literal(-5)))
        CFI (cfiCond28) ?RET_HIGH load(1, XDATA, add(CFA_XSP16, literal(-4)))
        CFI (cfiCond28) ?BRET_EXT load(1, XDATA, add(CFA_XSP16, literal(-3)))
        CFI (cfiCond28) DPL0 load(1, XDATA, add(CFA_XSP16, literal(-2)))
        CFI (cfiCond28) DPH0 load(1, XDATA, add(CFA_XSP16, literal(-1)))
        CFI (cfiCond28) CFA_SP SP+0
        CFI (cfiCond28) CFA_XSP16 add(XSP16, 12)
        CFI Block cfiCond29 Using cfiCommon0
        CFI (cfiCond29) NoFunction
        CFI (cfiCond29) Conditional ??CrossCallReturnLabel_107, ??CrossCallReturnLabel_1
        CFI (cfiCond29) R6 load(1, XDATA, add(CFA_XSP16, literal(-12)))
        CFI (cfiCond29) VB load(1, XDATA, add(CFA_XSP16, literal(-11)))
        CFI (cfiCond29) V0 load(1, XDATA, add(CFA_XSP16, literal(-10)))
        CFI (cfiCond29) V1 load(1, XDATA, add(CFA_XSP16, literal(-9)))
        CFI (cfiCond29) V2 load(1, XDATA, add(CFA_XSP16, literal(-8)))
        CFI (cfiCond29) V3 load(1, XDATA, add(CFA_XSP16, literal(-7)))
        CFI (cfiCond29) R7 load(1, XDATA, add(CFA_XSP16, literal(-6)))
        CFI (cfiCond29) ?RET_LOW load(1, XDATA, add(CFA_XSP16, literal(-5)))
        CFI (cfiCond29) ?RET_HIGH load(1, XDATA, add(CFA_XSP16, literal(-4)))
        CFI (cfiCond29) ?BRET_EXT load(1, XDATA, add(CFA_XSP16, literal(-3)))
        CFI (cfiCond29) DPL0 load(1, XDATA, add(CFA_XSP16, literal(-2)))
        CFI (cfiCond29) DPH0 load(1, XDATA, add(CFA_XSP16, literal(-1)))
        CFI (cfiCond29) CFA_SP SP+0
        CFI (cfiCond29) CFA_XSP16 add(XSP16, 12)
        CFI Block cfiPicker30 Using cfiCommon1
        CFI (cfiPicker30) NoFunction
        CFI (cfiPicker30) Picker
        LCALL   ?Subroutine97 & 0xFFFF
??CrossCallReturnLabel_131:
        INC     DPTR
        INC     DPTR
        RET
        CFI EndBlock cfiCond26
        CFI EndBlock cfiCond27
        CFI EndBlock cfiCond28
        CFI EndBlock cfiCond29
        CFI EndBlock cfiPicker30
//  412 
//  413 /*********************************************************************
//  414  * @fn          zcl_registerValidateAttrData
//  415  * @brief       Add a validation function for attribute data
//  416  * @param       pfnValidateAttrData - function pointer to validate routine
//  417  * @return      ZSuccess if OK
//  418  */

        RSEG BANKED_CODE:CODE:NOROOT(0)
//  419 ZStatus_t zcl_registerValidateAttrData( zclValidateAttrData_t pfnValidateAttrData )
zcl_registerValidateAttrData:
        CFI Block cfiBlock31 Using cfiCommon0
        CFI Function zcl_registerValidateAttrData
//  420 {
        PUSH    DPL
        CFI DPL0 Frame(CFA_SP, 4)
        CFI CFA_SP SP+-4
        PUSH    DPH
        CFI DPH0 Frame(CFA_SP, 5)
        CFI CFA_SP SP+-5
        ; Saved register size: 2
        ; Auto size: 0
//  421   zcl_ValidateAttrDataCB = pfnValidateAttrData;
        MOV     DPTR,#zcl_ValidateAttrDataCB
        LCALL   ??Subroutine148_0 & 0xFFFF
//  422   
//  423   return ( ZSuccess );
??CrossCallReturnLabel_293:
        MOV     R1,#0x0
        SJMP    ?Subroutine104
        CFI EndBlock cfiBlock31
//  424 }
//  425 
//  426 /*********************************************************************
//  427  * @fn      zcl_registerForMsg
//  428  * @brief   The ZCL is setup to send all incoming Foundation Command/Response
//  429  *          messages that aren't processed to one task (if a task is
//  430  *          registered).
//  431  * @param   taskId - task Id of the Application where commands will be sent to
//  432  * @return  TRUE if task registeration successful, FALSE otherwise
//  433  *********************************************************************/

        RSEG BANKED_CODE:CODE:NOROOT(0)
//  434 uint8 zcl_registerForMsg( uint8 taskId )
zcl_registerForMsg:
        CFI Block cfiBlock32 Using cfiCommon0
        CFI Function zcl_registerForMsg
//  435 {
        PUSH    DPL
        CFI DPL0 Frame(CFA_SP, 4)
        CFI CFA_SP SP+-4
        PUSH    DPH
        CFI DPH0 Frame(CFA_SP, 5)
        CFI CFA_SP SP+-5
        ; Saved register size: 2
        ; Auto size: 0
//  436   // Allow only the first task
//  437   if ( zcl_RegisteredMsgTaskID == TASK_NO_TASK )
        MOV     DPTR,#zcl_RegisteredMsgTaskID
        MOVX    A,@DPTR
        XRL     A,#0xff
        JNZ     ??zcl_registerForMsg_0
//  438   {
//  439     zcl_RegisteredMsgTaskID = taskId;  
        MOV     A,R1
        MOVX    @DPTR,A
//  440     return ( true );
        MOV     R1,#0x1
        SJMP    ??zcl_registerForMsg_1
//  441   }
//  442   return ( false );
??zcl_registerForMsg_0:
        MOV     R1,#0x0
        CFI EndBlock cfiBlock32
??zcl_registerForMsg_1:
        REQUIRE ?Subroutine104
        ; // Fall through to label ?Subroutine104
//  443 }

        RSEG BANKED_CODE:CODE:NOROOT(0)
?Subroutine104:
        CFI Block cfiBlock33 Using cfiCommon0
        CFI NoFunction
        CFI CFA_SP SP+-5
        CFI DPL0 Frame(CFA_SP, 4)
        CFI DPH0 Frame(CFA_SP, 5)
        POP     DPH
        CFI CFA_SP SP+-4
        CFI DPH0 SameValue
        POP     DPL
        CFI CFA_SP SP+-3
        CFI DPL0 SameValue
        LJMP    ?BRET
        CFI EndBlock cfiBlock33
//  444 
//  445 /*********************************************************************
//  446  * @fn      zcl_DeviceOperational
//  447  * @brief   Used to see whether or not the device can send or respond 
//  448  *          to application level commands.
//  449  * @param   srcEP - source endpoint
//  450  *          clusterID - cluster ID
//  451  *          frameType - command type
//  452  *          cmd - command ID
//  453  * @return  TRUE if device is operational, FALSE otherwise
//  454  */

        RSEG BANKED_CODE:CODE:NOROOT(0)
//  455 static uint8 zcl_DeviceOperational( uint8 srcEP, uint16 clusterID, 
zcl_DeviceOperational:
        CFI Block cfiBlock34 Using cfiCommon0
        CFI Function zcl_DeviceOperational
//  456                                     uint8 frameType, uint8 cmd, uint16 profileID )
//  457 {
        FUNCALL zcl_DeviceOperational, zclFindAttrRec
        LOCFRAME ISTACK, 0, STACK
        LOCFRAME PSTACK, 0, STACK
        LOCFRAME XSTACK, 21, STACK
        LOCFRAME IOVERLAY, 0, STATIC
        LOCFRAME DOVERLAY, 0, STATIC
        ARGFRAME ISTACK, 0, STACK
        ARGFRAME PSTACK, 0, STACK
        ARGFRAME XSTACK, 21, STACK
        ARGFRAME IOVERLAY, 0, STATIC
        ARGFRAME DOVERLAY, 0, STATIC
        FUNCALL zcl_DeviceOperational, zclReadAttrData
        LOCFRAME ISTACK, 0, STACK
        LOCFRAME PSTACK, 0, STACK
        LOCFRAME XSTACK, 19, STACK
        LOCFRAME IOVERLAY, 0, STATIC
        LOCFRAME DOVERLAY, 0, STATIC
        ARGFRAME ISTACK, 0, STACK
        ARGFRAME PSTACK, 0, STACK
        ARGFRAME XSTACK, 19, STACK
        ARGFRAME IOVERLAY, 0, STATIC
        ARGFRAME DOVERLAY, 0, STATIC
        MOV     A,#-0xa
        LCALL   ?BANKED_ENTER_XDATA
        CFI DPH0 load(1, XDATA, add(CFA_XSP16, literal(-1)))
        CFI DPL0 load(1, XDATA, add(CFA_XSP16, literal(-2)))
        CFI ?BRET_EXT load(1, XDATA, add(CFA_XSP16, literal(-3)))
        CFI ?RET_HIGH load(1, XDATA, add(CFA_XSP16, literal(-4)))
        CFI ?RET_LOW load(1, XDATA, add(CFA_XSP16, literal(-5)))
        CFI R7 load(1, XDATA, add(CFA_XSP16, literal(-6)))
        CFI V1 load(1, XDATA, add(CFA_XSP16, literal(-7)))
        CFI V0 load(1, XDATA, add(CFA_XSP16, literal(-8)))
        CFI VB load(1, XDATA, add(CFA_XSP16, literal(-9)))
        CFI R6 load(1, XDATA, add(CFA_XSP16, literal(-10)))
        CFI CFA_SP SP+0
        CFI CFA_XSP16 add(XSP16, 10)
        ; Saved register size: 10
        ; Auto size: 9
        MOV     A,#-0x9
        LCALL   ?ALLOC_XSTACK8
        CFI CFA_XSP16 add(XSP16, 19)
//  458   zclAttrRec_t attrRec;
//  459   uint8 deviceEnabled = DEVICE_ENABLED; // default value
        MOV     A,#0x1
        MOV     DPL,?XSP + 0
        MOV     DPH,?XSP + 1
        MOVX    @DPTR,A
//  460   
//  461   (void)profileID;  // Intentionally unreferenced parameter
//  462   
//  463   // If the device is Disabled (DeviceEnabled attribute is set to Disabled), it 
//  464   // cannot send or respond to application level commands, other than commands
//  465   // to read or write attributes. Note that the Identify cluster cannot be 
//  466   // disabled, and remains functional regardless of this setting.
//  467   if ( zcl_ProfileCmd( frameType ) && cmd <= ZCL_CMD_WRITE_NO_RSP )
        MOV     A,R4
        JNZ     ??zcl_DeviceOperational_0
        MOV     A,R5
        CLR     C
        SUBB    A,#0x6
        JNC     ??zcl_DeviceOperational_0
//  468     return ( TRUE );
??zcl_DeviceOperational_1:
        MOV     R1,#0x1
        SJMP    ??zcl_DeviceOperational_2
//  469   
//  470   if ( clusterID == ZCL_CLUSTER_ID_GEN_IDENTIFY )
??zcl_DeviceOperational_0:
        MOV     A,#0x3
        XRL     A,R2
        JNZ     ??zcl_DeviceOperational_3
        MOV     A,R3
??zcl_DeviceOperational_3:
        JZ      ??zcl_DeviceOperational_1
//  471     return ( TRUE );
//  472   
//  473   // Is device enabled?
//  474   if ( zclFindAttrRec( srcEP, ZCL_CLUSTER_ID_GEN_BASIC, ATTRID_BASIC_DEVICE_ENABLED, &attrRec ) )
        ; Setup parameters for call to function zclFindAttrRec
        MOV     A,#0x1
        LCALL   ?XSTACK_DISP0_8
        MOV     ?V0 + 0,DPL
        MOV     ?V0 + 1,DPH
        MOV     R0,#?V0 + 0
        LCALL   ?PUSH_XSTACK_I_TWO
        CFI CFA_XSP16 add(XSP16, 21)
        MOV     R4,#0x12
        MOV     R5,#0x0
        MOV     R2,#0x0
        MOV     R3,#0x0
        LCALL   ??zclFindAttrRec?relay
        MOV     A,#0x2
        LCALL   ?DEALLOC_XSTACK8
        CFI CFA_XSP16 add(XSP16, 19)
        MOV     A,R1
        JZ      ??zcl_DeviceOperational_4
//  475     zclReadAttrData( &deviceEnabled, &attrRec );
        ; Setup parameters for call to function zclReadAttrData
        MOV     A,#0x1
        LCALL   ?XSTACK_DISP0_8
        MOV     R4,DPL
        MOV     R5,DPH
        MOV     DPL,?XSP + 0
        MOV     DPH,?XSP + 1
        MOV     R2,DPL
        MOV     R3,DPH
        LCALL   ??zclReadAttrData?relay
//  476   
//  477   return ( deviceEnabled == DEVICE_ENABLED ? TRUE : FALSE );
??zcl_DeviceOperational_4:
        MOV     DPL,?XSP + 0
        MOV     DPH,?XSP + 1
        MOVX    A,@DPTR
        XRL     A,#0x1
        JZ      ??zcl_DeviceOperational_1
        MOV     R1,#0x0
??zcl_DeviceOperational_2:
        MOV     A,#0x9
        LCALL   ?DEALLOC_XSTACK8
        CFI CFA_XSP16 add(XSP16, 10)
        LJMP    ?Subroutine114 & 0xFFFF
        CFI EndBlock cfiBlock34
//  478 }
//  479 
//  480 /*********************************************************************
//  481  * @fn      zcl_SendCommand
//  482  * @brief   Used to send Profile and Cluster Specific Command messages.
//  483  *          NOTE: The calling application is responsible for incrementing the Sequence Number.                
//  484  * @param   srcEp - source endpoint
//  485  *          destAddr - destination address 
//  486  *          clusterID - cluster ID
//  487  *          cmd - command ID
//  488  *          specific - whether the command is Cluster Specific
//  489  *          direction - client/server direction of the command
//  490  *          disableDefaultRsp - disable Default Response command
//  491  *          manuCode - manufacturer code for proprietary extensions to a profile
//  492  *          seqNumber - identification number for the transaction
//  493  *          cmdFormatLen - length of the command to be sent
//  494  *          cmdFormat - command to be sent
//  495  * @return  ZSuccess if OK
//  496  */

        RSEG BANKED_CODE:CODE:NOROOT(0)
//  497 ZStatus_t zcl_SendCommand( uint8 srcEP, afAddrType_t *destAddr,
zcl_SendCommand:
        CFI Block cfiBlock35 Using cfiCommon0
        CFI Function zcl_SendCommand
//  498                            uint16 clusterID, uint8 cmd, uint8 specific, uint8 direction,
//  499                            uint8 disableDefaultRsp, uint16 manuCode, uint8 seqNum,
//  500                            uint16 cmdFormatLen, uint8 *cmdFormat )
//  501 {
        FUNCALL zcl_SendCommand, osal_memcpy
        LOCFRAME ISTACK, 0, STACK
        LOCFRAME PSTACK, 0, STACK
        LOCFRAME XSTACK, 45, STACK
        LOCFRAME IOVERLAY, 0, STATIC
        LOCFRAME DOVERLAY, 0, STATIC
        ARGFRAME ISTACK, 0, STACK
        ARGFRAME PSTACK, 0, STACK
        ARGFRAME XSTACK, 45, STACK
        ARGFRAME IOVERLAY, 0, STATIC
        ARGFRAME DOVERLAY, 0, STATIC
        FUNCALL zcl_SendCommand, afFindEndPointDesc
        LOCFRAME ISTACK, 0, STACK
        LOCFRAME PSTACK, 0, STACK
        LOCFRAME XSTACK, 42, STACK
        LOCFRAME IOVERLAY, 0, STATIC
        LOCFRAME DOVERLAY, 0, STATIC
        ARGFRAME ISTACK, 0, STACK
        ARGFRAME PSTACK, 0, STACK
        ARGFRAME XSTACK, 42, STACK
        ARGFRAME IOVERLAY, 0, STATIC
        ARGFRAME DOVERLAY, 0, STATIC
        FUNCALL zcl_SendCommand, zclGetClusterOption
        LOCFRAME ISTACK, 0, STACK
        LOCFRAME PSTACK, 0, STACK
        LOCFRAME XSTACK, 42, STACK
        LOCFRAME IOVERLAY, 0, STATIC
        LOCFRAME DOVERLAY, 0, STATIC
        ARGFRAME ISTACK, 0, STACK
        ARGFRAME PSTACK, 0, STACK
        ARGFRAME XSTACK, 42, STACK
        ARGFRAME IOVERLAY, 0, STATIC
        ARGFRAME DOVERLAY, 0, STATIC
        FUNCALL zcl_SendCommand, osal_memset
        LOCFRAME ISTACK, 0, STACK
        LOCFRAME PSTACK, 0, STACK
        LOCFRAME XSTACK, 42, STACK
        LOCFRAME IOVERLAY, 0, STATIC
        LOCFRAME DOVERLAY, 0, STATIC
        ARGFRAME ISTACK, 0, STACK
        ARGFRAME PSTACK, 0, STACK
        ARGFRAME XSTACK, 42, STACK
        ARGFRAME IOVERLAY, 0, STATIC
        ARGFRAME DOVERLAY, 0, STATIC
        FUNCALL zcl_SendCommand, zcl_DeviceOperational
        LOCFRAME ISTACK, 0, STACK
        LOCFRAME PSTACK, 0, STACK
        LOCFRAME XSTACK, 44, STACK
        LOCFRAME IOVERLAY, 0, STATIC
        LOCFRAME DOVERLAY, 0, STATIC
        ARGFRAME ISTACK, 0, STACK
        ARGFRAME PSTACK, 0, STACK
        ARGFRAME XSTACK, 44, STACK
        ARGFRAME IOVERLAY, 0, STATIC
        ARGFRAME DOVERLAY, 0, STATIC
        FUNCALL zcl_SendCommand, osal_mem_alloc
        LOCFRAME ISTACK, 0, STACK
        LOCFRAME PSTACK, 0, STACK
        LOCFRAME XSTACK, 42, STACK
        LOCFRAME IOVERLAY, 0, STATIC
        LOCFRAME DOVERLAY, 0, STATIC
        ARGFRAME ISTACK, 0, STACK
        ARGFRAME PSTACK, 0, STACK
        ARGFRAME XSTACK, 42, STACK
        ARGFRAME IOVERLAY, 0, STATIC
        ARGFRAME DOVERLAY, 0, STATIC
        FUNCALL zcl_SendCommand, zclBuildHdr
        LOCFRAME ISTACK, 0, STACK
        LOCFRAME PSTACK, 0, STACK
        LOCFRAME XSTACK, 45, STACK
        LOCFRAME IOVERLAY, 0, STATIC
        LOCFRAME DOVERLAY, 0, STATIC
        ARGFRAME ISTACK, 0, STACK
        ARGFRAME PSTACK, 0, STACK
        ARGFRAME XSTACK, 45, STACK
        ARGFRAME IOVERLAY, 0, STATIC
        ARGFRAME DOVERLAY, 0, STATIC
        FUNCALL zcl_SendCommand, osal_memcpy
        LOCFRAME ISTACK, 0, STACK
        LOCFRAME PSTACK, 0, STACK
        LOCFRAME XSTACK, 45, STACK
        LOCFRAME IOVERLAY, 0, STATIC
        LOCFRAME DOVERLAY, 0, STATIC
        ARGFRAME ISTACK, 0, STACK
        ARGFRAME PSTACK, 0, STACK
        ARGFRAME XSTACK, 45, STACK
        ARGFRAME IOVERLAY, 0, STATIC
        ARGFRAME DOVERLAY, 0, STATIC
        FUNCALL zcl_SendCommand, AF_DataRequest
        LOCFRAME ISTACK, 0, STACK
        LOCFRAME PSTACK, 0, STACK
        LOCFRAME XSTACK, 51, STACK
        LOCFRAME IOVERLAY, 0, STATIC
        LOCFRAME DOVERLAY, 0, STATIC
        ARGFRAME ISTACK, 0, STACK
        ARGFRAME PSTACK, 0, STACK
        ARGFRAME XSTACK, 51, STACK
        ARGFRAME IOVERLAY, 0, STATIC
        ARGFRAME DOVERLAY, 0, STATIC
        FUNCALL zcl_SendCommand, osal_mem_free
        LOCFRAME ISTACK, 0, STACK
        LOCFRAME PSTACK, 0, STACK
        LOCFRAME XSTACK, 42, STACK
        LOCFRAME IOVERLAY, 0, STATIC
        LOCFRAME DOVERLAY, 0, STATIC
        ARGFRAME ISTACK, 0, STACK
        ARGFRAME PSTACK, 0, STACK
        ARGFRAME XSTACK, 42, STACK
        ARGFRAME IOVERLAY, 0, STATIC
        ARGFRAME DOVERLAY, 0, STATIC
        MOV     A,#-0x18
        LCALL   ?BANKED_ENTER_XDATA
        CFI DPH0 load(1, XDATA, add(CFA_XSP16, literal(-1)))
        CFI DPL0 load(1, XDATA, add(CFA_XSP16, literal(-2)))
        CFI ?BRET_EXT load(1, XDATA, add(CFA_XSP16, literal(-3)))
        CFI ?RET_HIGH load(1, XDATA, add(CFA_XSP16, literal(-4)))
        CFI ?RET_LOW load(1, XDATA, add(CFA_XSP16, literal(-5)))
        CFI R7 load(1, XDATA, add(CFA_XSP16, literal(-6)))
        CFI V15 load(1, XDATA, add(CFA_XSP16, literal(-7)))
        CFI V14 load(1, XDATA, add(CFA_XSP16, literal(-8)))
        CFI V13 load(1, XDATA, add(CFA_XSP16, literal(-9)))
        CFI V12 load(1, XDATA, add(CFA_XSP16, literal(-10)))
        CFI V11 load(1, XDATA, add(CFA_XSP16, literal(-11)))
        CFI V10 load(1, XDATA, add(CFA_XSP16, literal(-12)))
        CFI V9 load(1, XDATA, add(CFA_XSP16, literal(-13)))
        CFI V8 load(1, XDATA, add(CFA_XSP16, literal(-14)))
        CFI V7 load(1, XDATA, add(CFA_XSP16, literal(-15)))
        CFI V6 load(1, XDATA, add(CFA_XSP16, literal(-16)))
        CFI V5 load(1, XDATA, add(CFA_XSP16, literal(-17)))
        CFI V4 load(1, XDATA, add(CFA_XSP16, literal(-18)))
        CFI V3 load(1, XDATA, add(CFA_XSP16, literal(-19)))
        CFI V2 load(1, XDATA, add(CFA_XSP16, literal(-20)))
        CFI V1 load(1, XDATA, add(CFA_XSP16, literal(-21)))
        CFI V0 load(1, XDATA, add(CFA_XSP16, literal(-22)))
        CFI VB load(1, XDATA, add(CFA_XSP16, literal(-23)))
        CFI R6 load(1, XDATA, add(CFA_XSP16, literal(-24)))
        CFI CFA_SP SP+0
        CFI CFA_XSP16 add(XSP16, 24)
        ; Saved register size: 24
        ; Auto size: 18
        MOV     A,#-0x12
        LCALL   ?ALLOC_XSTACK8
        CFI CFA_XSP16 add(XSP16, 42)
        MOV     A,R1
        MOV     R7,A
        MOV     ?V0 + 0,R4
        MOV     ?V0 + 1,R5
        MOV     A,#0x2a
        LCALL   ?XSTACK_DISP0_8
        MOVX    A,@DPTR
        MOV     R6,A
        MOV     A,#0x2b
        LCALL   ?XSTACK_DISP0_8
        MOVX    A,@DPTR
        MOV     ?V0 + 3,A
        MOV     A,#0x2c
        LCALL   ?XSTACK_DISP0_8
        MOVX    A,@DPTR
        MOV     ?V0 + 9,A
        MOV     A,#0x2d
        LCALL   ?XSTACK_DISP0_8
        MOVX    A,@DPTR
        MOV     ?V0 + 8,A
        MOV     A,#0x2e
        LCALL   ?XSTACK_DISP0_8
        MOVX    A,@DPTR
        MOV     ?V0 + 12,A
        INC     DPTR
        MOVX    A,@DPTR
        MOV     ?V0 + 13,A
        MOV     A,#0x30
        LCALL   ?XSTACK_DISP0_8
        MOVX    A,@DPTR
        MOV     ?V0 + 7,A
        MOV     A,#0x31
        LCALL   ?XSTACK_DISP0_8
        MOVX    A,@DPTR
        MOV     ?V0 + 14,A
        INC     DPTR
        MOVX    A,@DPTR
        MOV     ?V0 + 15,A
//  502   endPointDesc_t *epDesc;
//  503   zclFrameHdr_t hdr;
//  504   uint8 *msgBuf;
//  505   uint16 msgLen;
//  506   uint8 *pBuf;
//  507   afAddrType_t dstAddr;
//  508   uint8 options;
//  509   ZStatus_t status;
//  510 
//  511   osal_memcpy( &dstAddr, destAddr, sizeof ( afAddrType_t ) );
        ; Setup parameters for call to function osal_memcpy
        MOV     ?V0 + 4,R2
        MOV     ?V0 + 5,R3
        MOV     ?V0 + 6,#0x0
        MOV     R0,#?V0 + 4
        LCALL   ?PUSH_XSTACK_I_THREE
        CFI CFA_XSP16 add(XSP16, 45)
        MOV     R4,#0xc
        MOV     R5,#0x0
        MOV     A,#0x9
        LCALL   ?XSTACK_DISP0_8
        MOV     R2,DPL
        MOV     R3,DPH
        LCALL   ?Subroutine108 & 0xFFFF
??CrossCallReturnLabel_147:
        LCALL   ?DEALLOC_XSTACK8
        CFI CFA_XSP16 add(XSP16, 42)
//  512 
//  513   epDesc = afFindEndPointDesc( srcEP );
        ; Setup parameters for call to function afFindEndPointDesc
        MOV     A,R7
        MOV     R1,A
        LCALL   ??afFindEndPointDesc?relay
        MOV     ?V0 + 10,R2
        MOV     ?V0 + 11,R3
//  514   if ( epDesc == NULL )
        MOV     A,R2
        JNZ     ??zcl_SendCommand_0
        MOV     A,R3
??zcl_SendCommand_0:
        JNZ     ??zcl_SendCommand_1
//  515     return ( ZInvalidParameter ); // EMBEDDED RETURN
??zcl_SendCommand_2:
        MOV     R1,#0x2
        LJMP    ??zcl_SendCommand_3 & 0xFFFF
//  516 
//  517   if ( clusterID == ZCL_INVALID_CLUSTER_ID )
??zcl_SendCommand_1:
        MOV     A,#-0x1
        XRL     A,?V0 + 0
        JNZ     ??zcl_SendCommand_4
        MOV     A,#-0x1
        XRL     A,?V0 + 1
??zcl_SendCommand_4:
        JZ      ??zcl_SendCommand_2
//  518     return ( ZInvalidParameter ); // EMBEDDED RETURN
//  519 
//  520 #if defined ( INTER_PAN )
//  521   if ( StubAPS_InterPan( destAddr->panId, destAddr->endPoint ) )
//  522     options = AF_TX_OPTIONS_NONE;
//  523   else
//  524 #endif
//  525     options = zclGetClusterOption( srcEP, clusterID );
        ; Setup parameters for call to function zclGetClusterOption
        MOV     R2,?V0 + 0
        MOV     R3,?V0 + 1
        MOV     A,R7
        MOV     R1,A
        LCALL   ??zclGetClusterOption?relay
        MOV     A,R1
        MOV     ?V0 + 2,A
//  526   
//  527   osal_memset( &hdr, 0, sizeof( zclFrameHdr_t ) );
        ; Setup parameters for call to function osal_memset
        MOV     R4,#0x6
        MOV     R5,#0x0
        MOV     R1,#0x0
        MOV     DPL,?XSP + 0
        MOV     DPH,?XSP + 1
        MOV     R2,DPL
        MOV     R3,DPH
        LCALL   ??osal_memset?relay
//  528 
//  529   // Not Profile wide command (like READ, WRITE)
//  530   if ( specific )
        MOV     A,?V0 + 3
        MOV     DPL,?XSP + 0
        MOV     DPH,?XSP + 1
        JZ      ??zcl_SendCommand_5
//  531     hdr.fc.type = ZCL_FRAME_TYPE_SPECIFIC_CMD;
        MOVX    A,@DPTR
        ANL     A,#0xfc
        MOV     R0,A
        INC     DPTR
        MOVX    A,@DPTR
        MOV     R1,A
        MOV     A,#0x1
        ORL     A,R0
        MOV     DPL,?XSP + 0
        MOV     DPH,?XSP + 1
        MOVX    @DPTR,A
        INC     DPTR
        MOV     A,R1
        SJMP    ??zcl_SendCommand_6
//  532   else
//  533     hdr.fc.type = ZCL_FRAME_TYPE_PROFILE_CMD;
??zcl_SendCommand_5:
        MOVX    A,@DPTR
        ANL     A,#0xfc
        MOVX    @DPTR,A
        INC     DPTR
        MOVX    A,@DPTR
??zcl_SendCommand_6:
        MOVX    @DPTR,A
//  534 
//  535   if ((epDesc->simpleDesc == NULL) ||
//  536       (zcl_DeviceOperational(srcEP, clusterID, hdr.fc.type, cmd, epDesc->simpleDesc->AppProfId) == FALSE))
        MOV     DPL,?V0 + 10
        MOV     DPH,?V0 + 11
        INC     DPTR
        INC     DPTR
        INC     DPTR
        LCALL   ?Subroutine41 & 0xFFFF
??CrossCallReturnLabel_53:
        JNZ     ??zcl_SendCommand_7
        MOV     A,DPH
??zcl_SendCommand_7:
        JZ      ??zcl_SendCommand_8
        ; Setup parameters for call to function zcl_DeviceOperational
        INC     DPTR
        LCALL   ?PUSH_XSTACK8_X_TWO
        CFI CFA_XSP16 add(XSP16, 44)
        MOV     A,R6
        MOV     R5,A
        MOV     A,#0x2
        LCALL   ?XSTACK_DISP0_8
        MOVX    A,@DPTR
        ANL     A,#0x3
        MOV     R4,A
        MOV     R2,?V0 + 0
        MOV     R3,?V0 + 1
        MOV     A,R7
        MOV     R1,A
        LCALL   ??zcl_DeviceOperational?relay
        MOV     A,#0x2
        LCALL   ?DEALLOC_XSTACK8
        CFI CFA_XSP16 add(XSP16, 42)
        MOV     A,R1
        JNZ     ??zcl_SendCommand_9
//  537     return ( ZFailure ); // EMBEDDED RETURN
??zcl_SendCommand_8:
        MOV     R1,#0x1
        LJMP    ??zcl_SendCommand_3 & 0xFFFF
//  538   
//  539   if ( manuCode != 0 ) // Fill in the Maufacturer Code
??zcl_SendCommand_9:
        MOV     A,?V0 + 12
        JNZ     ??zcl_SendCommand_10
        MOV     A,?V0 + 13
??zcl_SendCommand_10:
        JZ      ??zcl_SendCommand_11
//  540   {
//  541     hdr.fc.manuSpecific = 1;
        MOV     DPL,?XSP + 0
        MOV     DPH,?XSP + 1
        MOVX    A,@DPTR
        ORL     A,#0x4
        MOVX    @DPTR,A
        INC     DPTR
        MOVX    A,@DPTR
        MOVX    @DPTR,A
//  542     hdr.manuCode = manuCode;
        MOV     A,#0x2
        LCALL   ?XSTACK_DISP0_8
        MOV     A,?V0 + 12
        MOVX    @DPTR,A
        INC     DPTR
        MOV     A,?V0 + 13
        MOVX    @DPTR,A
//  543   }
//  544   
//  545   if ( direction ) // Set the Command Direction
??zcl_SendCommand_11:
        MOV     A,?V0 + 9
        MOV     DPL,?XSP + 0
        MOV     DPH,?XSP + 1
        JZ      ??zcl_SendCommand_12
//  546     hdr.fc.direction = ZCL_FRAME_SERVER_CLIENT_DIR;
        MOVX    A,@DPTR
        ORL     A,#0x8
        SJMP    ??zcl_SendCommand_13
//  547   else
//  548     hdr.fc.direction = ZCL_FRAME_CLIENT_SERVER_DIR;
??zcl_SendCommand_12:
        MOVX    A,@DPTR
        ANL     A,#0xf7
??zcl_SendCommand_13:
        MOVX    @DPTR,A
        INC     DPTR
        MOVX    A,@DPTR
        MOVX    @DPTR,A
//  549 
//  550   if ( disableDefaultRsp ) // Set the Disable Default Response field
        MOV     A,?V0 + 8
        MOV     DPL,?XSP + 0
        MOV     DPH,?XSP + 1
        JZ      ??zcl_SendCommand_14
//  551     hdr.fc.disableDefaultRsp = 1;
        MOVX    A,@DPTR
        ORL     A,#0x10
        SJMP    ??zcl_SendCommand_15
//  552   else
//  553     hdr.fc.disableDefaultRsp = 0;
??zcl_SendCommand_14:
        MOVX    A,@DPTR
        ANL     A,#0xef
??zcl_SendCommand_15:
        MOVX    @DPTR,A
        INC     DPTR
        MOVX    A,@DPTR
        MOVX    @DPTR,A
//  554                      
//  555   hdr.transSeqNum = seqNum; // Fill in the Transaction Sequence Number
        MOV     A,#0x4
        LCALL   ?XSTACK_DISP0_8
        MOV     A,?V0 + 7
        MOVX    @DPTR,A
//  556   
//  557   hdr.commandID = cmd; // Fill in the command
        MOV     A,#0x5
        LCALL   ?XSTACK_DISP0_8
        MOV     A,R6
        MOVX    @DPTR,A
//  558   
//  559   msgLen = zclCalcHdrSize( &hdr ); // calculate the needed buffer size
        MOV     ?V0 + 4,#0x3
        MOV     DPL,?XSP + 0
        MOV     DPH,?XSP + 1
        MOVX    A,@DPTR
        ANL     A,#0x4
        JZ      ??zcl_SendCommand_16
        MOV     ?V0 + 4,#0x5
//  560   msgLen += cmdFormatLen;
??zcl_SendCommand_16:
        MOV     A,?V0 + 14
        ADD     A,?V0 + 4
        MOV     ?V0 + 12,A
        MOV     A,?V0 + 15
        ADDC    A,#0x0
        MOV     ?V0 + 13,A
//  561 
//  562   msgBuf = osal_mem_alloc( msgLen ); // Allocate the buffer needed
        ; Setup parameters for call to function osal_mem_alloc
        MOV     R2,?V0 + 12
        MOV     R3,A
        LCALL   ??osal_mem_alloc?relay
        MOV     ?V0 + 8,R2
        MOV     ?V0 + 9,R3
//  563   if ( msgBuf != NULL )
        MOV     A,R2
        JNZ     ??zcl_SendCommand_17
        MOV     A,R3
??zcl_SendCommand_17:
        JZ      ??zcl_SendCommand_18
//  564   {
//  565     pBuf = zclBuildHdr( &hdr, msgBuf ); // Fill in the ZCL Header
//  566 
//  567     osal_memcpy( pBuf, cmdFormat, cmdFormatLen ); // Fill in the command frame
        ; Setup parameters for call to function osal_memcpy
        MOV     A,#0x33
        LCALL   ?XSTACK_DISP0_8
        LCALL   ?Subroutine79 & 0xFFFF
??CrossCallReturnLabel_108:
        MOV     R0,#?V0 + 4
        LCALL   ?PUSH_XSTACK_I_THREE
        CFI CFA_XSP16 add(XSP16, 45)
        ; Setup parameters for call to function zclBuildHdr
        MOV     R4,?V0 + 8
        MOV     R5,?V0 + 9
        MOV     A,#0x3
        LCALL   ?XSTACK_DISP0_8
        MOV     R2,DPL
        MOV     R3,DPH
        LCALL   ??zclBuildHdr?relay
        MOV     R4,?V0 + 14
        MOV     R5,?V0 + 15
        LCALL   ?Subroutine108 & 0xFFFF
??CrossCallReturnLabel_148:
        LCALL   ?DEALLOC_XSTACK8
        CFI CFA_XSP16 add(XSP16, 42)
//  568 
//  569     status = AF_DataRequest( &dstAddr, epDesc, clusterID, msgLen, msgBuf, 
//  570                              &zcl_TransID, options, AF_DEFAULT_RADIUS );  
        ; Setup parameters for call to function AF_DataRequest
        MOV     ?V0 + 3,#0x1e
        MOV     R0,#?V0 + 3
        LCALL   ?PUSH_XSTACK_I_ONE
        CFI CFA_XSP16 add(XSP16, 43)
        MOV     ?V0 + 4,#(zcl_TransID & 0xff)
        MOV     ?V0 + 5,#((zcl_TransID >> 8) & 0xff)
        MOV     R0,#?V0 + 4
        LCALL   ?PUSH_XSTACK_I_TWO
        CFI CFA_XSP16 add(XSP16, 45)
        MOV     R0,#?V0 + 8
        LCALL   ?PUSH_XSTACK_I_TWO
        CFI CFA_XSP16 add(XSP16, 47)
        MOV     R0,#?V0 + 12
        LCALL   ?PUSH_XSTACK_I_TWO
        CFI CFA_XSP16 add(XSP16, 49)
        MOV     R0,#?V0 + 0
        LCALL   ?PUSH_XSTACK_I_TWO
        CFI CFA_XSP16 add(XSP16, 51)
        MOV     R1,?V0 + 2
        MOV     R4,?V0 + 10
        MOV     R5,?V0 + 11
        MOV     A,#0xf
        LCALL   ?XSTACK_DISP0_8
        MOV     R2,DPL
        MOV     R3,DPH
        LCALL   ??AF_DataRequest?relay
        MOV     A,#0x9
        LCALL   ?DEALLOC_XSTACK8
        CFI CFA_XSP16 add(XSP16, 42)
        MOV     A,R1
        MOV     R6,A
//  571     osal_mem_free ( msgBuf );
        ; Setup parameters for call to function osal_mem_free
        MOV     R2,?V0 + 8
        MOV     R3,?V0 + 9
        LCALL   ??osal_mem_free?relay
        SJMP    ??zcl_SendCommand_19
//  572   }
//  573   else
//  574     status = ZMemError;
??zcl_SendCommand_18:
        MOV     R6,#0x10
//  575 
//  576   return ( status );
??zcl_SendCommand_19:
        MOV     A,R6
        MOV     R1,A
        CFI EndBlock cfiBlock35
??zcl_SendCommand_3:
        REQUIRE ?Subroutine120
        ; // Fall through to label ?Subroutine120
//  577 }

        RSEG BANKED_CODE:CODE:NOROOT(0)
?Subroutine120:
        CFI Block cfiBlock36 Using cfiCommon0
        CFI NoFunction
        CFI CFA_SP SP+0
        CFI CFA_XSP16 add(XSP16, 42)
        CFI VB load(1, XDATA, add(CFA_XSP16, literal(-23)))
        CFI DPL0 load(1, XDATA, add(CFA_XSP16, literal(-2)))
        CFI DPH0 load(1, XDATA, add(CFA_XSP16, literal(-1)))
        CFI R6 load(1, XDATA, add(CFA_XSP16, literal(-24)))
        CFI R7 load(1, XDATA, add(CFA_XSP16, literal(-6)))
        CFI V0 load(1, XDATA, add(CFA_XSP16, literal(-22)))
        CFI V1 load(1, XDATA, add(CFA_XSP16, literal(-21)))
        CFI V2 load(1, XDATA, add(CFA_XSP16, literal(-20)))
        CFI V3 load(1, XDATA, add(CFA_XSP16, literal(-19)))
        CFI V4 load(1, XDATA, add(CFA_XSP16, literal(-18)))
        CFI V5 load(1, XDATA, add(CFA_XSP16, literal(-17)))
        CFI V6 load(1, XDATA, add(CFA_XSP16, literal(-16)))
        CFI V7 load(1, XDATA, add(CFA_XSP16, literal(-15)))
        CFI V8 load(1, XDATA, add(CFA_XSP16, literal(-14)))
        CFI V9 load(1, XDATA, add(CFA_XSP16, literal(-13)))
        CFI V10 load(1, XDATA, add(CFA_XSP16, literal(-12)))
        CFI V11 load(1, XDATA, add(CFA_XSP16, literal(-11)))
        CFI V12 load(1, XDATA, add(CFA_XSP16, literal(-10)))
        CFI V13 load(1, XDATA, add(CFA_XSP16, literal(-9)))
        CFI V14 load(1, XDATA, add(CFA_XSP16, literal(-8)))
        CFI V15 load(1, XDATA, add(CFA_XSP16, literal(-7)))
        CFI ?BRET_EXT load(1, XDATA, add(CFA_XSP16, literal(-3)))
        CFI ?RET_HIGH load(1, XDATA, add(CFA_XSP16, literal(-4)))
        CFI ?RET_LOW load(1, XDATA, add(CFA_XSP16, literal(-5)))
        MOV     A,#0x12
        SJMP    ??Subroutine122_0
        CFI EndBlock cfiBlock36
//  578 
//  579 #ifdef ZCL_READ
//  580 /*********************************************************************
//  581  * @fn      zcl_SendRead
//  582  * @brief   Send a Read command
//  583  * @param   srcEP - Application's endpoint
//  584  *          dstAddr - destination address
//  585  *          clusterID - cluster ID
//  586  *          readCmd - read command to be sent
//  587  *          direction - direction of the command
//  588  *          seqNum - transaction sequence number
//  589  * @return  ZSuccess if OK
//  590  */
//  591 ZStatus_t zcl_SendRead( uint8 srcEP, afAddrType_t *dstAddr,
//  592                         uint16 clusterID, zclReadCmd_t *readCmd,
//  593                         uint8 direction, uint8 disableDefaultRsp, uint8 seqNum)
//  594 {
//  595   uint8 dataLen;
//  596   uint8 *buf;
//  597   uint8 *pBuf;
//  598   ZStatus_t status;
//  599 
//  600   dataLen = readCmd->numAttr * 2; // Attribute ID
//  601 
//  602   buf = osal_mem_alloc( dataLen );
//  603   if ( buf != NULL )
//  604   {
//  605     uint8 i;
//  606 
//  607     pBuf = buf; // Load the buffer - serially
//  608     for (i = 0; i < readCmd->numAttr; i++)
//  609     {
//  610       *pBuf++ = LO_UINT16( readCmd->attrID[i] );
//  611       *pBuf++ = HI_UINT16( readCmd->attrID[i] );
//  612     }
//  613     status = zcl_SendCommand( srcEP, dstAddr, clusterID, ZCL_CMD_READ, FALSE,
//  614                               direction, disableDefaultRsp, 0, seqNum, dataLen, buf );  
//  615     osal_mem_free( buf );
//  616   }
//  617   else
//  618     status = ZMemError;
//  619 
//  620   return ( status );
//  621 }
//  622 
//  623 /*********************************************************************
//  624  * @fn      zcl_SendReadRsp
//  625  * @brief   Send a Read Response command.
//  626  * @param   srcEP - Application's endpoint
//  627  *          dstAddr - destination address
//  628  *          clusterID - cluster ID
//  629  *          readRspCmd - read response command to be sent
//  630  *          direction - direction of the command
//  631  *          seqNum - transaction sequence number
//  632  * @return  ZSuccess if OK
//  633  */

        RSEG BANKED_CODE:CODE:NOROOT(0)
?Subroutine115:
        CFI Block cfiBlock37 Using cfiCommon0
        CFI NoFunction
        CFI CFA_SP SP+0
        CFI CFA_XSP16 add(XSP16, 28)
        CFI VB load(1, XDATA, add(CFA_XSP16, literal(-23)))
        CFI DPL0 load(1, XDATA, add(CFA_XSP16, literal(-2)))
        CFI DPH0 load(1, XDATA, add(CFA_XSP16, literal(-1)))
        CFI R6 load(1, XDATA, add(CFA_XSP16, literal(-24)))
        CFI R7 load(1, XDATA, add(CFA_XSP16, literal(-6)))
        CFI V0 load(1, XDATA, add(CFA_XSP16, literal(-22)))
        CFI V1 load(1, XDATA, add(CFA_XSP16, literal(-21)))
        CFI V2 load(1, XDATA, add(CFA_XSP16, literal(-20)))
        CFI V3 load(1, XDATA, add(CFA_XSP16, literal(-19)))
        CFI V4 load(1, XDATA, add(CFA_XSP16, literal(-18)))
        CFI V5 load(1, XDATA, add(CFA_XSP16, literal(-17)))
        CFI V6 load(1, XDATA, add(CFA_XSP16, literal(-16)))
        CFI V7 load(1, XDATA, add(CFA_XSP16, literal(-15)))
        CFI V8 load(1, XDATA, add(CFA_XSP16, literal(-14)))
        CFI V9 load(1, XDATA, add(CFA_XSP16, literal(-13)))
        CFI V10 load(1, XDATA, add(CFA_XSP16, literal(-12)))
        CFI V11 load(1, XDATA, add(CFA_XSP16, literal(-11)))
        CFI V12 load(1, XDATA, add(CFA_XSP16, literal(-10)))
        CFI V13 load(1, XDATA, add(CFA_XSP16, literal(-9)))
        CFI V14 load(1, XDATA, add(CFA_XSP16, literal(-8)))
        CFI V15 load(1, XDATA, add(CFA_XSP16, literal(-7)))
        CFI ?BRET_EXT load(1, XDATA, add(CFA_XSP16, literal(-3)))
        CFI ?RET_HIGH load(1, XDATA, add(CFA_XSP16, literal(-4)))
        CFI ?RET_LOW load(1, XDATA, add(CFA_XSP16, literal(-5)))
        MOV     A,R6
        MOV     R1,A
        MOV     A,#0x4
        CFI EndBlock cfiBlock37
        REQUIRE ??Subroutine122_0
        ; // Fall through to label ??Subroutine122_0

        RSEG BANKED_CODE:CODE:NOROOT(0)
??Subroutine122_0:
        CFI Block cfiBlock38 Using cfiCommon0
        CFI NoFunction
        CFI CFA_SP SP+0
        CFI CFA_XSP16 add(XSP16, 42)
        CFI VB load(1, XDATA, add(CFA_XSP16, literal(-23)))
        CFI DPL0 load(1, XDATA, add(CFA_XSP16, literal(-2)))
        CFI DPH0 load(1, XDATA, add(CFA_XSP16, literal(-1)))
        CFI R6 load(1, XDATA, add(CFA_XSP16, literal(-24)))
        CFI R7 load(1, XDATA, add(CFA_XSP16, literal(-6)))
        CFI V0 load(1, XDATA, add(CFA_XSP16, literal(-22)))
        CFI V1 load(1, XDATA, add(CFA_XSP16, literal(-21)))
        CFI V2 load(1, XDATA, add(CFA_XSP16, literal(-20)))
        CFI V3 load(1, XDATA, add(CFA_XSP16, literal(-19)))
        CFI V4 load(1, XDATA, add(CFA_XSP16, literal(-18)))
        CFI V5 load(1, XDATA, add(CFA_XSP16, literal(-17)))
        CFI V6 load(1, XDATA, add(CFA_XSP16, literal(-16)))
        CFI V7 load(1, XDATA, add(CFA_XSP16, literal(-15)))
        CFI V8 load(1, XDATA, add(CFA_XSP16, literal(-14)))
        CFI V9 load(1, XDATA, add(CFA_XSP16, literal(-13)))
        CFI V10 load(1, XDATA, add(CFA_XSP16, literal(-12)))
        CFI V11 load(1, XDATA, add(CFA_XSP16, literal(-11)))
        CFI V12 load(1, XDATA, add(CFA_XSP16, literal(-10)))
        CFI V13 load(1, XDATA, add(CFA_XSP16, literal(-9)))
        CFI V14 load(1, XDATA, add(CFA_XSP16, literal(-8)))
        CFI V15 load(1, XDATA, add(CFA_XSP16, literal(-7)))
        CFI ?BRET_EXT load(1, XDATA, add(CFA_XSP16, literal(-3)))
        CFI ?RET_HIGH load(1, XDATA, add(CFA_XSP16, literal(-4)))
        CFI ?RET_LOW load(1, XDATA, add(CFA_XSP16, literal(-5)))
        CFI Invalid
        LCALL   ?DEALLOC_XSTACK8
        CFI CFA_XSP16 add(XSP16, 24)
        CFI Valid
        MOV     R7,#0x10
        LJMP    ?BANKED_LEAVE_XDATA
        CFI EndBlock cfiBlock38

        RSEG BANKED_CODE:CODE:NOROOT(0)
zcl_SendRead:
        CFI Block cfiBlock39 Using cfiCommon0
        CFI Function zcl_SendRead
        FUNCALL zcl_SendRead, osal_mem_alloc
        LOCFRAME ISTACK, 0, STACK
        LOCFRAME PSTACK, 0, STACK
        LOCFRAME XSTACK, 22, STACK
        LOCFRAME IOVERLAY, 0, STATIC
        LOCFRAME DOVERLAY, 0, STATIC
        ARGFRAME ISTACK, 0, STACK
        ARGFRAME PSTACK, 0, STACK
        ARGFRAME XSTACK, 22, STACK
        ARGFRAME IOVERLAY, 0, STATIC
        ARGFRAME DOVERLAY, 0, STATIC
        FUNCALL zcl_SendRead, zcl_SendCommand
        LOCFRAME ISTACK, 0, STACK
        LOCFRAME PSTACK, 0, STACK
        LOCFRAME XSTACK, 33, STACK
        LOCFRAME IOVERLAY, 0, STATIC
        LOCFRAME DOVERLAY, 0, STATIC
        ARGFRAME ISTACK, 0, STACK
        ARGFRAME PSTACK, 0, STACK
        ARGFRAME XSTACK, 33, STACK
        ARGFRAME IOVERLAY, 0, STATIC
        ARGFRAME DOVERLAY, 0, STATIC
        FUNCALL zcl_SendRead, osal_mem_free
        LOCFRAME ISTACK, 0, STACK
        LOCFRAME PSTACK, 0, STACK
        LOCFRAME XSTACK, 22, STACK
        LOCFRAME IOVERLAY, 0, STATIC
        LOCFRAME DOVERLAY, 0, STATIC
        ARGFRAME ISTACK, 0, STACK
        ARGFRAME PSTACK, 0, STACK
        ARGFRAME XSTACK, 22, STACK
        ARGFRAME IOVERLAY, 0, STATIC
        ARGFRAME DOVERLAY, 0, STATIC
        MOV     A,#-0x16
        LCALL   ?BANKED_ENTER_XDATA
        CFI DPH0 load(1, XDATA, add(CFA_XSP16, literal(-1)))
        CFI DPL0 load(1, XDATA, add(CFA_XSP16, literal(-2)))
        CFI ?BRET_EXT load(1, XDATA, add(CFA_XSP16, literal(-3)))
        CFI ?RET_HIGH load(1, XDATA, add(CFA_XSP16, literal(-4)))
        CFI ?RET_LOW load(1, XDATA, add(CFA_XSP16, literal(-5)))
        CFI R7 load(1, XDATA, add(CFA_XSP16, literal(-6)))
        CFI V13 load(1, XDATA, add(CFA_XSP16, literal(-7)))
        CFI V12 load(1, XDATA, add(CFA_XSP16, literal(-8)))
        CFI V11 load(1, XDATA, add(CFA_XSP16, literal(-9)))
        CFI V10 load(1, XDATA, add(CFA_XSP16, literal(-10)))
        CFI V9 load(1, XDATA, add(CFA_XSP16, literal(-11)))
        CFI V8 load(1, XDATA, add(CFA_XSP16, literal(-12)))
        CFI V7 load(1, XDATA, add(CFA_XSP16, literal(-13)))
        CFI V6 load(1, XDATA, add(CFA_XSP16, literal(-14)))
        CFI V5 load(1, XDATA, add(CFA_XSP16, literal(-15)))
        CFI V4 load(1, XDATA, add(CFA_XSP16, literal(-16)))
        CFI V3 load(1, XDATA, add(CFA_XSP16, literal(-17)))
        CFI V2 load(1, XDATA, add(CFA_XSP16, literal(-18)))
        CFI V1 load(1, XDATA, add(CFA_XSP16, literal(-19)))
        CFI V0 load(1, XDATA, add(CFA_XSP16, literal(-20)))
        CFI VB load(1, XDATA, add(CFA_XSP16, literal(-21)))
        CFI R6 load(1, XDATA, add(CFA_XSP16, literal(-22)))
        CFI CFA_SP SP+0
        CFI CFA_XSP16 add(XSP16, 22)
        ; Saved register size: 22
        ; Auto size: 0
        MOV     ?V0 + 8,R1
        MOV     A,R2
        MOV     R6,A
        MOV     A,R3
        MOV     R7,A
        MOV     ?V0 + 0,R4
        MOV     ?V0 + 1,R5
        MOV     A,#0x16
        LCALL   ?XSTACK_DISP0_8
        LCALL   ?Subroutine57 & 0xFFFF
??CrossCallReturnLabel_79:
        LCALL   ?XSTACK_DISP0_8
        MOVX    A,@DPTR
        MOV     ?V0 + 9,A
        MOV     A,#0x19
        LCALL   ?XSTACK_DISP0_8
        MOVX    A,@DPTR
        MOV     ?V0 + 12,A
        MOV     A,#0x1a
        LCALL   ?XSTACK_DISP0_8
        MOVX    A,@DPTR
        MOV     ?V0 + 13,A
        MOV     DPL,?V0 + 4
        MOV     DPH,?V0 + 5
        MOVX    A,@DPTR
        CLR     C
        RLC     A
        MOV     R2,A
        MOV     DPL,R2
        MOV     ?V0 + 6,DPL
        MOV     ?V0 + 7,#0x0
        ; Setup parameters for call to function osal_mem_alloc
        LCALL   ?Subroutine64 & 0xFFFF
??CrossCallReturnLabel_87:
        JNZ     ??zcl_SendRead_0
        MOV     A,R3
??zcl_SendRead_0:
        JNZ     $+5
        LJMP    ??zcl_SendRead_1 & 0xFFFF
        MOV     R0,?V0 + 2
        MOV     R1,?V0 + 3
        MOV     ?V0 + 10,#0x0
        SJMP    ??zcl_SendRead_2
??zcl_SendRead_3:
        MOV     A,?V0 + 10
        CLR     C
        RLC     A
        MOV     R2,A
        CLR     A
        RLC     A
        MOV     R3,A
        MOV     A,?V0 + 4
        ADD     A,R2
        MOV     DPL,A
        MOV     A,?V0 + 5
        ADDC    A,R3
        MOV     DPH,A
        INC     DPTR
        MOV     R2,DPL
        MOV     R3,DPH
        LCALL   ?Subroutine42 & 0xFFFF
??CrossCallReturnLabel_160:
        LCALL   ?Subroutine29 & 0xFFFF
??CrossCallReturnLabel_170:
        INC     ?V0 + 10
??zcl_SendRead_2:
        MOV     DPL,?V0 + 4
        MOV     DPH,?V0 + 5
        MOVX    A,@DPTR
        MOV     R2,A
        MOV     A,?V0 + 10
        CLR     C
        SUBB    A,R2
        JC      ??zcl_SendRead_3
        ; Setup parameters for call to function zcl_SendCommand
        MOV     R0,#?V0 + 2
        LCALL   ?PUSH_XSTACK_I_TWO
        CFI CFA_XSP16 add(XSP16, 24)
        MOV     R0,#?V0 + 6
        LCALL   ?PUSH_XSTACK_I_TWO
        CFI CFA_XSP16 add(XSP16, 26)
        MOV     A,?V0 + 13
        MOV     ?V0 + 4,A
        MOV     R0,#?V0 + 4
        LCALL   ?PUSH_XSTACK_I_ONE
        CFI CFA_XSP16 add(XSP16, 27)
        MOV     ?V0 + 4,#0x0
        MOV     ?V0 + 5,#0x0
        MOV     R0,#?V0 + 4
        LCALL   ?PUSH_XSTACK_I_TWO
        CFI CFA_XSP16 add(XSP16, 29)
        MOV     A,?V0 + 12
        MOV     ?V0 + 4,A
        MOV     R0,#?V0 + 4
        LCALL   ?PUSH_XSTACK_I_ONE
        CFI CFA_XSP16 add(XSP16, 30)
        MOV     A,?V0 + 9
        MOV     ?V0 + 4,A
        MOV     R0,#?V0 + 4
        LCALL   ?PUSH_XSTACK_I_ONE
        CFI CFA_XSP16 add(XSP16, 31)
        MOV     ?V0 + 4,#0x0
        MOV     R0,#?V0 + 4
        LCALL   ?PUSH_XSTACK_I_ONE
        CFI CFA_XSP16 add(XSP16, 32)
        MOV     R0,#?V0 + 4
        LCALL   ?PUSH_XSTACK_I_ONE
        CFI CFA_XSP16 add(XSP16, 33)
        MOV     R4,?V0 + 0
        MOV     R5,?V0 + 1
        MOV     A,R6
        MOV     R2,A
        MOV     A,R7
        MOV     R3,A
        MOV     R1,?V0 + 8
        LCALL   ?Subroutine93 & 0xFFFF
??CrossCallReturnLabel_122:
        LCALL   ?DEALLOC_XSTACK8
        CFI CFA_XSP16 add(XSP16, 22)
        MOV     A,R1
        MOV     R6,A
        ; Setup parameters for call to function osal_mem_free
        MOV     R2,?V0 + 2
        MOV     R3,?V0 + 3
        LCALL   ??osal_mem_free?relay
        SJMP    ??zcl_SendRead_4
??zcl_SendRead_1:
        MOV     R6,#0x10
        CFI EndBlock cfiBlock39
??zcl_SendRead_4:
        REQUIRE ?Subroutine116
        ; // Fall through to label ?Subroutine116

        RSEG BANKED_CODE:CODE:NOROOT(0)
?Subroutine116:
        CFI Block cfiBlock40 Using cfiCommon0
        CFI NoFunction
        CFI CFA_SP SP+0
        CFI CFA_XSP16 add(XSP16, 22)
        CFI VB load(1, XDATA, add(CFA_XSP16, literal(-21)))
        CFI DPL0 load(1, XDATA, add(CFA_XSP16, literal(-2)))
        CFI DPH0 load(1, XDATA, add(CFA_XSP16, literal(-1)))
        CFI R6 load(1, XDATA, add(CFA_XSP16, literal(-22)))
        CFI R7 load(1, XDATA, add(CFA_XSP16, literal(-6)))
        CFI V0 load(1, XDATA, add(CFA_XSP16, literal(-20)))
        CFI V1 load(1, XDATA, add(CFA_XSP16, literal(-19)))
        CFI V2 load(1, XDATA, add(CFA_XSP16, literal(-18)))
        CFI V3 load(1, XDATA, add(CFA_XSP16, literal(-17)))
        CFI V4 load(1, XDATA, add(CFA_XSP16, literal(-16)))
        CFI V5 load(1, XDATA, add(CFA_XSP16, literal(-15)))
        CFI V6 load(1, XDATA, add(CFA_XSP16, literal(-14)))
        CFI V7 load(1, XDATA, add(CFA_XSP16, literal(-13)))
        CFI V8 load(1, XDATA, add(CFA_XSP16, literal(-12)))
        CFI V9 load(1, XDATA, add(CFA_XSP16, literal(-11)))
        CFI V10 load(1, XDATA, add(CFA_XSP16, literal(-10)))
        CFI V11 load(1, XDATA, add(CFA_XSP16, literal(-9)))
        CFI V12 load(1, XDATA, add(CFA_XSP16, literal(-8)))
        CFI V13 load(1, XDATA, add(CFA_XSP16, literal(-7)))
        CFI ?BRET_EXT load(1, XDATA, add(CFA_XSP16, literal(-3)))
        CFI ?RET_HIGH load(1, XDATA, add(CFA_XSP16, literal(-4)))
        CFI ?RET_LOW load(1, XDATA, add(CFA_XSP16, literal(-5)))
        MOV     A,R6
        MOV     R1,A
        CFI EndBlock cfiBlock40
        REQUIRE ??Subroutine123_0
        ; // Fall through to label ??Subroutine123_0

        RSEG BANKED_CODE:CODE:NOROOT(0)
??Subroutine123_0:
        CFI Block cfiBlock41 Using cfiCommon0
        CFI NoFunction
        CFI CFA_SP SP+0
        CFI CFA_XSP16 add(XSP16, 22)
        CFI VB load(1, XDATA, add(CFA_XSP16, literal(-21)))
        CFI DPL0 load(1, XDATA, add(CFA_XSP16, literal(-2)))
        CFI DPH0 load(1, XDATA, add(CFA_XSP16, literal(-1)))
        CFI R6 load(1, XDATA, add(CFA_XSP16, literal(-22)))
        CFI R7 load(1, XDATA, add(CFA_XSP16, literal(-6)))
        CFI V0 load(1, XDATA, add(CFA_XSP16, literal(-20)))
        CFI V1 load(1, XDATA, add(CFA_XSP16, literal(-19)))
        CFI V2 load(1, XDATA, add(CFA_XSP16, literal(-18)))
        CFI V3 load(1, XDATA, add(CFA_XSP16, literal(-17)))
        CFI V4 load(1, XDATA, add(CFA_XSP16, literal(-16)))
        CFI V5 load(1, XDATA, add(CFA_XSP16, literal(-15)))
        CFI V6 load(1, XDATA, add(CFA_XSP16, literal(-14)))
        CFI V7 load(1, XDATA, add(CFA_XSP16, literal(-13)))
        CFI V8 load(1, XDATA, add(CFA_XSP16, literal(-12)))
        CFI V9 load(1, XDATA, add(CFA_XSP16, literal(-11)))
        CFI V10 load(1, XDATA, add(CFA_XSP16, literal(-10)))
        CFI V11 load(1, XDATA, add(CFA_XSP16, literal(-9)))
        CFI V12 load(1, XDATA, add(CFA_XSP16, literal(-8)))
        CFI V13 load(1, XDATA, add(CFA_XSP16, literal(-7)))
        CFI ?BRET_EXT load(1, XDATA, add(CFA_XSP16, literal(-3)))
        CFI ?RET_HIGH load(1, XDATA, add(CFA_XSP16, literal(-4)))
        CFI ?RET_LOW load(1, XDATA, add(CFA_XSP16, literal(-5)))
        MOV     R7,#0xe
        LJMP    ?BANKED_LEAVE_XDATA
        CFI EndBlock cfiBlock41

        RSEG BANKED_CODE:CODE:NOROOT(0)
?Subroutine29:
        CFI Block cfiCond42 Using cfiCommon0
        CFI NoFunction
        CFI Conditional ??CrossCallReturnLabel_170
        CFI R6 load(1, XDATA, add(CFA_XSP16, literal(-22)))
        CFI VB load(1, XDATA, add(CFA_XSP16, literal(-21)))
        CFI V0 load(1, XDATA, add(CFA_XSP16, literal(-20)))
        CFI V1 load(1, XDATA, add(CFA_XSP16, literal(-19)))
        CFI V2 load(1, XDATA, add(CFA_XSP16, literal(-18)))
        CFI V3 load(1, XDATA, add(CFA_XSP16, literal(-17)))
        CFI V4 load(1, XDATA, add(CFA_XSP16, literal(-16)))
        CFI V5 load(1, XDATA, add(CFA_XSP16, literal(-15)))
        CFI V6 load(1, XDATA, add(CFA_XSP16, literal(-14)))
        CFI V7 load(1, XDATA, add(CFA_XSP16, literal(-13)))
        CFI V8 load(1, XDATA, add(CFA_XSP16, literal(-12)))
        CFI V9 load(1, XDATA, add(CFA_XSP16, literal(-11)))
        CFI V10 load(1, XDATA, add(CFA_XSP16, literal(-10)))
        CFI V11 load(1, XDATA, add(CFA_XSP16, literal(-9)))
        CFI V12 load(1, XDATA, add(CFA_XSP16, literal(-8)))
        CFI V13 load(1, XDATA, add(CFA_XSP16, literal(-7)))
        CFI R7 load(1, XDATA, add(CFA_XSP16, literal(-6)))
        CFI ?RET_LOW load(1, XDATA, add(CFA_XSP16, literal(-5)))
        CFI ?RET_HIGH load(1, XDATA, add(CFA_XSP16, literal(-4)))
        CFI ?BRET_EXT load(1, XDATA, add(CFA_XSP16, literal(-3)))
        CFI DPL0 load(1, XDATA, add(CFA_XSP16, literal(-2)))
        CFI DPH0 load(1, XDATA, add(CFA_XSP16, literal(-1)))
        CFI CFA_SP SP+0
        CFI CFA_XSP16 add(XSP16, 22)
        CFI Block cfiCond43 Using cfiCommon0
        CFI (cfiCond43) NoFunction
        CFI (cfiCond43) Conditional ??CrossCallReturnLabel_171
        CFI (cfiCond43) R6 load(1, XDATA, add(CFA_XSP16, literal(-22)))
        CFI (cfiCond43) VB load(1, XDATA, add(CFA_XSP16, literal(-21)))
        CFI (cfiCond43) V0 load(1, XDATA, add(CFA_XSP16, literal(-20)))
        CFI (cfiCond43) V1 load(1, XDATA, add(CFA_XSP16, literal(-19)))
        CFI (cfiCond43) V2 load(1, XDATA, add(CFA_XSP16, literal(-18)))
        CFI (cfiCond43) V3 load(1, XDATA, add(CFA_XSP16, literal(-17)))
        CFI (cfiCond43) V4 load(1, XDATA, add(CFA_XSP16, literal(-16)))
        CFI (cfiCond43) V5 load(1, XDATA, add(CFA_XSP16, literal(-15)))
        CFI (cfiCond43) V6 load(1, XDATA, add(CFA_XSP16, literal(-14)))
        CFI (cfiCond43) V7 load(1, XDATA, add(CFA_XSP16, literal(-13)))
        CFI (cfiCond43) V8 load(1, XDATA, add(CFA_XSP16, literal(-12)))
        CFI (cfiCond43) V9 load(1, XDATA, add(CFA_XSP16, literal(-11)))
        CFI (cfiCond43) V10 load(1, XDATA, add(CFA_XSP16, literal(-10)))
        CFI (cfiCond43) V11 load(1, XDATA, add(CFA_XSP16, literal(-9)))
        CFI (cfiCond43) V12 load(1, XDATA, add(CFA_XSP16, literal(-8)))
        CFI (cfiCond43) V13 load(1, XDATA, add(CFA_XSP16, literal(-7)))
        CFI (cfiCond43) R7 load(1, XDATA, add(CFA_XSP16, literal(-6)))
        CFI (cfiCond43) ?RET_LOW load(1, XDATA, add(CFA_XSP16, literal(-5)))
        CFI (cfiCond43) ?RET_HIGH load(1, XDATA, add(CFA_XSP16, literal(-4)))
        CFI (cfiCond43) ?BRET_EXT load(1, XDATA, add(CFA_XSP16, literal(-3)))
        CFI (cfiCond43) DPL0 load(1, XDATA, add(CFA_XSP16, literal(-2)))
        CFI (cfiCond43) DPH0 load(1, XDATA, add(CFA_XSP16, literal(-1)))
        CFI (cfiCond43) CFA_SP SP+0
        CFI (cfiCond43) CFA_XSP16 add(XSP16, 22)
        CFI Block cfiPicker44 Using cfiCommon1
        CFI (cfiPicker44) NoFunction
        CFI (cfiPicker44) Picker
        MOV     DPL,R2
        MOV     DPH,R3
        INC     DPTR
        CFI EndBlock cfiCond42
        CFI EndBlock cfiCond43
        CFI EndBlock cfiPicker44
        REQUIRE ??Subroutine124_0
        ; // Fall through to label ??Subroutine124_0

        RSEG BANKED_CODE:CODE:NOROOT(0)
??Subroutine124_0:
        CFI Block cfiCond45 Using cfiCommon0
        CFI NoFunction
        CFI Conditional ??CrossCallReturnLabel_169
        CFI R6 load(1, XDATA, add(CFA_XSP16, literal(-22)))
        CFI VB load(1, XDATA, add(CFA_XSP16, literal(-21)))
        CFI V0 load(1, XDATA, add(CFA_XSP16, literal(-20)))
        CFI V1 load(1, XDATA, add(CFA_XSP16, literal(-19)))
        CFI V2 load(1, XDATA, add(CFA_XSP16, literal(-18)))
        CFI V3 load(1, XDATA, add(CFA_XSP16, literal(-17)))
        CFI V4 load(1, XDATA, add(CFA_XSP16, literal(-16)))
        CFI V5 load(1, XDATA, add(CFA_XSP16, literal(-15)))
        CFI V6 load(1, XDATA, add(CFA_XSP16, literal(-14)))
        CFI V7 load(1, XDATA, add(CFA_XSP16, literal(-13)))
        CFI V8 load(1, XDATA, add(CFA_XSP16, literal(-12)))
        CFI V9 load(1, XDATA, add(CFA_XSP16, literal(-11)))
        CFI V10 load(1, XDATA, add(CFA_XSP16, literal(-10)))
        CFI V11 load(1, XDATA, add(CFA_XSP16, literal(-9)))
        CFI V12 load(1, XDATA, add(CFA_XSP16, literal(-8)))
        CFI V13 load(1, XDATA, add(CFA_XSP16, literal(-7)))
        CFI R7 load(1, XDATA, add(CFA_XSP16, literal(-6)))
        CFI ?RET_LOW load(1, XDATA, add(CFA_XSP16, literal(-5)))
        CFI ?RET_HIGH load(1, XDATA, add(CFA_XSP16, literal(-4)))
        CFI ?BRET_EXT load(1, XDATA, add(CFA_XSP16, literal(-3)))
        CFI DPL0 load(1, XDATA, add(CFA_XSP16, literal(-2)))
        CFI DPH0 load(1, XDATA, add(CFA_XSP16, literal(-1)))
        CFI CFA_SP SP+0
        CFI CFA_XSP16 add(XSP16, 22)
        CFI Block cfiCond46 Using cfiCommon0
        CFI (cfiCond46) NoFunction
        CFI (cfiCond46) Conditional ??CrossCallReturnLabel_170
        CFI (cfiCond46) R6 load(1, XDATA, add(CFA_XSP16, literal(-22)))
        CFI (cfiCond46) VB load(1, XDATA, add(CFA_XSP16, literal(-21)))
        CFI (cfiCond46) V0 load(1, XDATA, add(CFA_XSP16, literal(-20)))
        CFI (cfiCond46) V1 load(1, XDATA, add(CFA_XSP16, literal(-19)))
        CFI (cfiCond46) V2 load(1, XDATA, add(CFA_XSP16, literal(-18)))
        CFI (cfiCond46) V3 load(1, XDATA, add(CFA_XSP16, literal(-17)))
        CFI (cfiCond46) V4 load(1, XDATA, add(CFA_XSP16, literal(-16)))
        CFI (cfiCond46) V5 load(1, XDATA, add(CFA_XSP16, literal(-15)))
        CFI (cfiCond46) V6 load(1, XDATA, add(CFA_XSP16, literal(-14)))
        CFI (cfiCond46) V7 load(1, XDATA, add(CFA_XSP16, literal(-13)))
        CFI (cfiCond46) V8 load(1, XDATA, add(CFA_XSP16, literal(-12)))
        CFI (cfiCond46) V9 load(1, XDATA, add(CFA_XSP16, literal(-11)))
        CFI (cfiCond46) V10 load(1, XDATA, add(CFA_XSP16, literal(-10)))
        CFI (cfiCond46) V11 load(1, XDATA, add(CFA_XSP16, literal(-9)))
        CFI (cfiCond46) V12 load(1, XDATA, add(CFA_XSP16, literal(-8)))
        CFI (cfiCond46) V13 load(1, XDATA, add(CFA_XSP16, literal(-7)))
        CFI (cfiCond46) R7 load(1, XDATA, add(CFA_XSP16, literal(-6)))
        CFI (cfiCond46) ?RET_LOW load(1, XDATA, add(CFA_XSP16, literal(-5)))
        CFI (cfiCond46) ?RET_HIGH load(1, XDATA, add(CFA_XSP16, literal(-4)))
        CFI (cfiCond46) ?BRET_EXT load(1, XDATA, add(CFA_XSP16, literal(-3)))
        CFI (cfiCond46) DPL0 load(1, XDATA, add(CFA_XSP16, literal(-2)))
        CFI (cfiCond46) DPH0 load(1, XDATA, add(CFA_XSP16, literal(-1)))
        CFI (cfiCond46) CFA_SP SP+0
        CFI (cfiCond46) CFA_XSP16 add(XSP16, 22)
        CFI Block cfiCond47 Using cfiCommon0
        CFI (cfiCond47) NoFunction
        CFI (cfiCond47) Conditional ??CrossCallReturnLabel_171
        CFI (cfiCond47) R6 load(1, XDATA, add(CFA_XSP16, literal(-22)))
        CFI (cfiCond47) VB load(1, XDATA, add(CFA_XSP16, literal(-21)))
        CFI (cfiCond47) V0 load(1, XDATA, add(CFA_XSP16, literal(-20)))
        CFI (cfiCond47) V1 load(1, XDATA, add(CFA_XSP16, literal(-19)))
        CFI (cfiCond47) V2 load(1, XDATA, add(CFA_XSP16, literal(-18)))
        CFI (cfiCond47) V3 load(1, XDATA, add(CFA_XSP16, literal(-17)))
        CFI (cfiCond47) V4 load(1, XDATA, add(CFA_XSP16, literal(-16)))
        CFI (cfiCond47) V5 load(1, XDATA, add(CFA_XSP16, literal(-15)))
        CFI (cfiCond47) V6 load(1, XDATA, add(CFA_XSP16, literal(-14)))
        CFI (cfiCond47) V7 load(1, XDATA, add(CFA_XSP16, literal(-13)))
        CFI (cfiCond47) V8 load(1, XDATA, add(CFA_XSP16, literal(-12)))
        CFI (cfiCond47) V9 load(1, XDATA, add(CFA_XSP16, literal(-11)))
        CFI (cfiCond47) V10 load(1, XDATA, add(CFA_XSP16, literal(-10)))
        CFI (cfiCond47) V11 load(1, XDATA, add(CFA_XSP16, literal(-9)))
        CFI (cfiCond47) V12 load(1, XDATA, add(CFA_XSP16, literal(-8)))
        CFI (cfiCond47) V13 load(1, XDATA, add(CFA_XSP16, literal(-7)))
        CFI (cfiCond47) R7 load(1, XDATA, add(CFA_XSP16, literal(-6)))
        CFI (cfiCond47) ?RET_LOW load(1, XDATA, add(CFA_XSP16, literal(-5)))
        CFI (cfiCond47) ?RET_HIGH load(1, XDATA, add(CFA_XSP16, literal(-4)))
        CFI (cfiCond47) ?BRET_EXT load(1, XDATA, add(CFA_XSP16, literal(-3)))
        CFI (cfiCond47) DPL0 load(1, XDATA, add(CFA_XSP16, literal(-2)))
        CFI (cfiCond47) DPH0 load(1, XDATA, add(CFA_XSP16, literal(-1)))
        CFI (cfiCond47) CFA_SP SP+0
        CFI (cfiCond47) CFA_XSP16 add(XSP16, 22)
        CFI Block cfiPicker48 Using cfiCommon1
        CFI (cfiPicker48) NoFunction
        CFI (cfiPicker48) Picker
        MOVX    A,@DPTR
        MOV     DPL,R0
        MOV     DPH,R1
        MOVX    @DPTR,A
        INC     DPTR
        INC     R0
        MOV     R1,DPH
        RET
        CFI EndBlock cfiCond45
        CFI EndBlock cfiCond46
        CFI EndBlock cfiCond47
        CFI EndBlock cfiPicker48

        RSEG BANKED_CODE:CODE:NOROOT(0)
//  634 ZStatus_t zcl_SendReadRsp( uint8 srcEP, afAddrType_t *dstAddr,
zcl_SendReadRsp:
        CFI Block cfiBlock49 Using cfiCommon0
        CFI Function zcl_SendReadRsp
//  635                            uint16 clusterID, zclReadRspCmd_t *readRspCmd,
//  636                            uint8 direction, uint8 disableDefaultRsp, uint8 seqNum )
//  637 {
        FUNCALL zcl_SendReadRsp, zclGetAttrDataLength
        LOCFRAME ISTACK, 0, STACK
        LOCFRAME PSTACK, 0, STACK
        LOCFRAME XSTACK, 28, STACK
        LOCFRAME IOVERLAY, 0, STATIC
        LOCFRAME DOVERLAY, 0, STATIC
        ARGFRAME ISTACK, 0, STACK
        ARGFRAME PSTACK, 0, STACK
        ARGFRAME XSTACK, 28, STACK
        ARGFRAME IOVERLAY, 0, STATIC
        ARGFRAME DOVERLAY, 0, STATIC
        FUNCALL zcl_SendReadRsp, osal_mem_alloc
        LOCFRAME ISTACK, 0, STACK
        LOCFRAME PSTACK, 0, STACK
        LOCFRAME XSTACK, 28, STACK
        LOCFRAME IOVERLAY, 0, STATIC
        LOCFRAME DOVERLAY, 0, STATIC
        ARGFRAME ISTACK, 0, STACK
        ARGFRAME PSTACK, 0, STACK
        ARGFRAME XSTACK, 28, STACK
        ARGFRAME IOVERLAY, 0, STATIC
        ARGFRAME DOVERLAY, 0, STATIC
        FUNCALL zcl_SendReadRsp, zclSerializeData
        LOCFRAME ISTACK, 0, STACK
        LOCFRAME PSTACK, 0, STACK
        LOCFRAME XSTACK, 28, STACK
        LOCFRAME IOVERLAY, 0, STATIC
        LOCFRAME DOVERLAY, 0, STATIC
        ARGFRAME ISTACK, 0, STACK
        ARGFRAME PSTACK, 0, STACK
        ARGFRAME XSTACK, 28, STACK
        ARGFRAME IOVERLAY, 0, STATIC
        ARGFRAME DOVERLAY, 0, STATIC
        FUNCALL zcl_SendReadRsp, zclGetAttrDataLength
        LOCFRAME ISTACK, 0, STACK
        LOCFRAME PSTACK, 0, STACK
        LOCFRAME XSTACK, 28, STACK
        LOCFRAME IOVERLAY, 0, STATIC
        LOCFRAME DOVERLAY, 0, STATIC
        ARGFRAME ISTACK, 0, STACK
        ARGFRAME PSTACK, 0, STACK
        ARGFRAME XSTACK, 28, STACK
        ARGFRAME IOVERLAY, 0, STATIC
        ARGFRAME DOVERLAY, 0, STATIC
        FUNCALL zcl_SendReadRsp, zcl_SendCommand
        LOCFRAME ISTACK, 0, STACK
        LOCFRAME PSTACK, 0, STACK
        LOCFRAME XSTACK, 39, STACK
        LOCFRAME IOVERLAY, 0, STATIC
        LOCFRAME DOVERLAY, 0, STATIC
        ARGFRAME ISTACK, 0, STACK
        ARGFRAME PSTACK, 0, STACK
        ARGFRAME XSTACK, 39, STACK
        ARGFRAME IOVERLAY, 0, STATIC
        ARGFRAME DOVERLAY, 0, STATIC
        FUNCALL zcl_SendReadRsp, osal_mem_free
        LOCFRAME ISTACK, 0, STACK
        LOCFRAME PSTACK, 0, STACK
        LOCFRAME XSTACK, 28, STACK
        LOCFRAME IOVERLAY, 0, STATIC
        LOCFRAME DOVERLAY, 0, STATIC
        ARGFRAME ISTACK, 0, STACK
        ARGFRAME PSTACK, 0, STACK
        ARGFRAME XSTACK, 28, STACK
        ARGFRAME IOVERLAY, 0, STATIC
        ARGFRAME DOVERLAY, 0, STATIC
        MOV     A,#-0x18
        LCALL   ?BANKED_ENTER_XDATA
        CFI DPH0 load(1, XDATA, add(CFA_XSP16, literal(-1)))
        CFI DPL0 load(1, XDATA, add(CFA_XSP16, literal(-2)))
        CFI ?BRET_EXT load(1, XDATA, add(CFA_XSP16, literal(-3)))
        CFI ?RET_HIGH load(1, XDATA, add(CFA_XSP16, literal(-4)))
        CFI ?RET_LOW load(1, XDATA, add(CFA_XSP16, literal(-5)))
        CFI R7 load(1, XDATA, add(CFA_XSP16, literal(-6)))
        CFI V15 load(1, XDATA, add(CFA_XSP16, literal(-7)))
        CFI V14 load(1, XDATA, add(CFA_XSP16, literal(-8)))
        CFI V13 load(1, XDATA, add(CFA_XSP16, literal(-9)))
        CFI V12 load(1, XDATA, add(CFA_XSP16, literal(-10)))
        CFI V11 load(1, XDATA, add(CFA_XSP16, literal(-11)))
        CFI V10 load(1, XDATA, add(CFA_XSP16, literal(-12)))
        CFI V9 load(1, XDATA, add(CFA_XSP16, literal(-13)))
        CFI V8 load(1, XDATA, add(CFA_XSP16, literal(-14)))
        CFI V7 load(1, XDATA, add(CFA_XSP16, literal(-15)))
        CFI V6 load(1, XDATA, add(CFA_XSP16, literal(-16)))
        CFI V5 load(1, XDATA, add(CFA_XSP16, literal(-17)))
        CFI V4 load(1, XDATA, add(CFA_XSP16, literal(-18)))
        CFI V3 load(1, XDATA, add(CFA_XSP16, literal(-19)))
        CFI V2 load(1, XDATA, add(CFA_XSP16, literal(-20)))
        CFI V1 load(1, XDATA, add(CFA_XSP16, literal(-21)))
        CFI V0 load(1, XDATA, add(CFA_XSP16, literal(-22)))
        CFI VB load(1, XDATA, add(CFA_XSP16, literal(-23)))
        CFI R6 load(1, XDATA, add(CFA_XSP16, literal(-24)))
        CFI CFA_SP SP+0
        CFI CFA_XSP16 add(XSP16, 24)
        ; Saved register size: 24
        ; Auto size: 4
        MOV     A,#-0x4
        LCALL   ?ALLOC_XSTACK8
        CFI CFA_XSP16 add(XSP16, 28)
        MOV     A,#0x2
        LCALL   ?XSTACK_DISP0_8
        LCALL   ?Subroutine2 & 0xFFFF
??CrossCallReturnLabel_4:
        LCALL   ?XSTACK_DISP0_8
        LCALL   ?Subroutine58 & 0xFFFF
??CrossCallReturnLabel_81:
        LCALL   ?XSTACK_DISP0_8
        MOVX    A,@DPTR
        MOV     ?V0 + 10,A
        MOV     A,#0x1f
        LCALL   ?XSTACK_DISP0_8
        MOVX    A,@DPTR
        MOV     ?V0 + 9,A
        MOV     A,#0x20
        LCALL   ?XSTACK_DISP0_8
        MOVX    A,@DPTR
        MOV     ?V0 + 8,A
//  638   uint8 *buf;
//  639   uint8 *pBuf;
//  640   zclReadRspStatus_t *statusRec;
//  641   uint8 len = 0;
        MOV     R6,#0x0
//  642   uint8 i;
//  643   ZStatus_t status;
//  644   
//  645   // calculate the size of the command
//  646   for ( i = 0; i < readRspCmd->numAttr; i++ )
        MOV     ?V0 + 5,R6
        SJMP    ??zcl_SendReadRsp_0
//  647   {
//  648     statusRec = &(readRspCmd->attrList[i]);
??zcl_SendReadRsp_1:
        MOV     A,?V0 + 5
        MOV     B,#0x6
        LCALL   ?Subroutine73 & 0xFFFF
//  649     
//  650     len += 2 + 1; // Attribute ID + Status
??CrossCallReturnLabel_97:
        INC     R6
        INC     R6
        INC     R6
//  651 
//  652     if ( statusRec->status == ZCL_STATUS_SUCCESS )
        INC     DPTR
        INC     DPTR
        MOVX    A,@DPTR
        JNZ     ??zcl_SendReadRsp_2
//  653     {
//  654       len++; // Attribute Data Type
//  655       len += zclGetAttrDataLength( statusRec->dataType, statusRec->data); // Attribute Data
        ; Setup parameters for call to function zclGetAttrDataLength
        MOV     DPL,R0
        MOV     DPH,R1
        INC     DPTR
        LCALL   ?Subroutine43 & 0xFFFF
//  656     }
//  657   }
??CrossCallReturnLabel_55:
        INC     DPTR
        LCALL   ?Subroutine86 & 0xFFFF
??CrossCallReturnLabel_183:
        INC     A
        ADD     A,R6
        MOV     R6,A
??zcl_SendReadRsp_2:
        INC     ?V0 + 5
??zcl_SendReadRsp_0:
        LCALL   ?Subroutine38 & 0xFFFF
??CrossCallReturnLabel_42:
        JC      ??zcl_SendReadRsp_1
//  658 
//  659   buf = osal_mem_alloc( len );
        LCALL   ?Subroutine65 & 0xFFFF
//  660   if ( buf != NULL )
??CrossCallReturnLabel_89:
        JNZ     ??zcl_SendReadRsp_3
        MOV     A,R3
??zcl_SendReadRsp_3:
        JNZ     $+5
        LJMP    ??zcl_SendReadRsp_4 & 0xFFFF
//  661   {
//  662     // Load the buffer - serially
//  663     pBuf = buf;
        MOV     R6,?V0 + 6
        MOV     R7,?V0 + 7
//  664     for ( i = 0; i < readRspCmd->numAttr; i++ )
        MOV     ?V0 + 5,#0x0
        SJMP    ??zcl_SendReadRsp_5
//  665     {
//  666       statusRec = &(readRspCmd->attrList[i]);
??zcl_SendReadRsp_6:
        MOV     A,?V0 + 5
        MOV     B,#0x6
        LCALL   ?Subroutine1 & 0xFFFF
//  667       
//  668       *pBuf++ = LO_UINT16( statusRec->attrID );
//  669       *pBuf++ = HI_UINT16( statusRec->attrID );
//  670       *pBuf++ = statusRec->status;
??CrossCallReturnLabel_2:
        MOV     R2,A
        MOV     A,R1
        ADDC    A,#0x0
        MOV     R3,A
        MOV     DPL,R2
        MOV     DPH,R3
        LCALL   ?Subroutine99 & 0xFFFF
//  671 
//  672       if ( statusRec->status == ZCL_STATUS_SUCCESS )
??CrossCallReturnLabel_133:
        MOV     DPL,R2
        MOV     DPH,R3
        MOVX    A,@DPTR
        JNZ     ??CrossCallReturnLabel_156
//  673       {
//  674         *pBuf++ = statusRec->dataType;
        MOV     A,R0
        ADD     A,#0x3
        LCALL   ?Subroutine45 & 0xFFFF
//  675         zclSerializeData( statusRec->dataType, statusRec->data, pBuf );
//  676         
//  677         // move pass attribute data
//  678         pBuf += zclGetAttrDataLength( statusRec->dataType, statusRec->data );
//  679       }
//  680     } // for loop
??CrossCallReturnLabel_59:
        ADD     A,#0x4
        LCALL   ?Subroutine21 & 0xFFFF
??CrossCallReturnLabel_156:
        INC     ?V0 + 5
??zcl_SendReadRsp_5:
        LCALL   ?Subroutine38 & 0xFFFF
??CrossCallReturnLabel_43:
        JC      ??zcl_SendReadRsp_6
//  681 
//  682     status = zcl_SendCommand( srcEP, dstAddr, clusterID, ZCL_CMD_READ_RSP, FALSE, 
//  683                               direction, disableDefaultRsp, 0, seqNum, len, buf );
        ; Setup parameters for call to function zcl_SendCommand
        MOV     R0,#?V0 + 6
        LCALL   ?PUSH_XSTACK_I_TWO
        CFI CFA_XSP16 add(XSP16, 30)
        MOV     R0,#?V0 + 0
        LCALL   ?PUSH_XSTACK_I_TWO
        CFI CFA_XSP16 add(XSP16, 32)
        MOV     A,?V0 + 8
        MOV     ?V0 + 0,A
        MOV     R0,#?V0 + 0
        LCALL   ?PUSH_XSTACK_I_ONE
        CFI CFA_XSP16 add(XSP16, 33)
        MOV     ?V0 + 0,#0x0
        MOV     R0,#?V0 + 0
        LCALL   ?PUSH_XSTACK_I_TWO
        CFI CFA_XSP16 add(XSP16, 35)
        MOV     A,?V0 + 9
        MOV     ?V0 + 0,A
        MOV     R0,#?V0 + 0
        LCALL   ?PUSH_XSTACK_I_ONE
        CFI CFA_XSP16 add(XSP16, 36)
        MOV     A,?V0 + 10
        MOV     ?V0 + 0,A
        MOV     R0,#?V0 + 0
        LCALL   ?PUSH_XSTACK_I_ONE
        CFI CFA_XSP16 add(XSP16, 37)
        MOV     ?V0 + 0,#0x0
        MOV     R0,#?V0 + 0
        LCALL   ?PUSH_XSTACK_I_ONE
        CFI CFA_XSP16 add(XSP16, 38)
        MOV     ?V0 + 0,#0x1
        MOV     R0,#?V0 + 0
        LCALL   ?PUSH_XSTACK_I_ONE
        CFI CFA_XSP16 add(XSP16, 39)
        MOV     A,#0xb
        LCALL   ?XSTACK_DISP0_8
        LCALL   ??Subroutine147_0 & 0xFFFF
??CrossCallReturnLabel_277:
        MOV     A,#0xd
        LCALL   ?XSTACK_DISP0_8
        LCALL   ?Subroutine37 & 0xFFFF
??CrossCallReturnLabel_40:
        LCALL   ?DEALLOC_XSTACK8
        CFI CFA_XSP16 add(XSP16, 28)
        MOV     A,R1
        MOV     R6,A
//  684     osal_mem_free( buf );
        ; Setup parameters for call to function osal_mem_free
        MOV     R2,?V0 + 6
        MOV     R3,?V0 + 7
        LCALL   ??osal_mem_free?relay
        SJMP    ??zcl_SendReadRsp_7
//  685   }
//  686   else
//  687     status = ZMemError;
??zcl_SendReadRsp_4:
        MOV     R6,#0x10
//  688 
//  689   return ( status );
??zcl_SendReadRsp_7:
        LJMP    ?Subroutine115 & 0xFFFF
        CFI EndBlock cfiBlock49
//  690 }
//  691 #endif // ZCL_READ
//  692 
//  693 #ifdef ZCL_WRITE
//  694 /*********************************************************************
//  695  * @fn      sendWriteRequest
//  696  * @brief   Send a Write command
//  697  * @param   dstAddr - destination address
//  698  *          clusterID - cluster ID
//  699  *          writeCmd - write command to be sent
//  700  *          cmd - ZCL_CMD_WRITE, ZCL_CMD_WRITE_UNDIVIDED or ZCL_CMD_WRITE_NO_RSP
//  701  *          direction - direction of the command
//  702  *          seqNum - transaction sequence number
//  703  * @return  ZSuccess if OK
//  704  */

        RSEG BANKED_CODE:CODE:NOROOT(0)
//  705 ZStatus_t zcl_SendWriteRequest( uint8 srcEP, afAddrType_t *dstAddr, uint16 clusterID, 
zcl_SendWriteRequest:
        CFI Block cfiBlock50 Using cfiCommon0
        CFI Function zcl_SendWriteRequest
//  706                                 zclWriteCmd_t *writeCmd, uint8 cmd, uint8 direction, 
//  707                                 uint8 disableDefaultRsp, uint8 seqNum )
//  708 {
        FUNCALL zcl_SendWriteRequest, zclGetAttrDataLength
        LOCFRAME ISTACK, 0, STACK
        LOCFRAME PSTACK, 0, STACK
        LOCFRAME XSTACK, 28, STACK
        LOCFRAME IOVERLAY, 0, STATIC
        LOCFRAME DOVERLAY, 0, STATIC
        ARGFRAME ISTACK, 0, STACK
        ARGFRAME PSTACK, 0, STACK
        ARGFRAME XSTACK, 28, STACK
        ARGFRAME IOVERLAY, 0, STATIC
        ARGFRAME DOVERLAY, 0, STATIC
        FUNCALL zcl_SendWriteRequest, osal_mem_alloc
        LOCFRAME ISTACK, 0, STACK
        LOCFRAME PSTACK, 0, STACK
        LOCFRAME XSTACK, 28, STACK
        LOCFRAME IOVERLAY, 0, STATIC
        LOCFRAME DOVERLAY, 0, STATIC
        ARGFRAME ISTACK, 0, STACK
        ARGFRAME PSTACK, 0, STACK
        ARGFRAME XSTACK, 28, STACK
        ARGFRAME IOVERLAY, 0, STATIC
        ARGFRAME DOVERLAY, 0, STATIC
        FUNCALL zcl_SendWriteRequest, zclSerializeData
        LOCFRAME ISTACK, 0, STACK
        LOCFRAME PSTACK, 0, STACK
        LOCFRAME XSTACK, 28, STACK
        LOCFRAME IOVERLAY, 0, STATIC
        LOCFRAME DOVERLAY, 0, STATIC
        ARGFRAME ISTACK, 0, STACK
        ARGFRAME PSTACK, 0, STACK
        ARGFRAME XSTACK, 28, STACK
        ARGFRAME IOVERLAY, 0, STATIC
        ARGFRAME DOVERLAY, 0, STATIC
        FUNCALL zcl_SendWriteRequest, zclGetAttrDataLength
        LOCFRAME ISTACK, 0, STACK
        LOCFRAME PSTACK, 0, STACK
        LOCFRAME XSTACK, 28, STACK
        LOCFRAME IOVERLAY, 0, STATIC
        LOCFRAME DOVERLAY, 0, STATIC
        ARGFRAME ISTACK, 0, STACK
        ARGFRAME PSTACK, 0, STACK
        ARGFRAME XSTACK, 28, STACK
        ARGFRAME IOVERLAY, 0, STATIC
        ARGFRAME DOVERLAY, 0, STATIC
        FUNCALL zcl_SendWriteRequest, zcl_SendCommand
        LOCFRAME ISTACK, 0, STACK
        LOCFRAME PSTACK, 0, STACK
        LOCFRAME XSTACK, 39, STACK
        LOCFRAME IOVERLAY, 0, STATIC
        LOCFRAME DOVERLAY, 0, STATIC
        ARGFRAME ISTACK, 0, STACK
        ARGFRAME PSTACK, 0, STACK
        ARGFRAME XSTACK, 39, STACK
        ARGFRAME IOVERLAY, 0, STATIC
        ARGFRAME DOVERLAY, 0, STATIC
        FUNCALL zcl_SendWriteRequest, osal_mem_free
        LOCFRAME ISTACK, 0, STACK
        LOCFRAME PSTACK, 0, STACK
        LOCFRAME XSTACK, 28, STACK
        LOCFRAME IOVERLAY, 0, STATIC
        LOCFRAME DOVERLAY, 0, STATIC
        ARGFRAME ISTACK, 0, STACK
        ARGFRAME PSTACK, 0, STACK
        ARGFRAME XSTACK, 28, STACK
        ARGFRAME IOVERLAY, 0, STATIC
        ARGFRAME DOVERLAY, 0, STATIC
        MOV     A,#-0x18
        LCALL   ?BANKED_ENTER_XDATA
        CFI DPH0 load(1, XDATA, add(CFA_XSP16, literal(-1)))
        CFI DPL0 load(1, XDATA, add(CFA_XSP16, literal(-2)))
        CFI ?BRET_EXT load(1, XDATA, add(CFA_XSP16, literal(-3)))
        CFI ?RET_HIGH load(1, XDATA, add(CFA_XSP16, literal(-4)))
        CFI ?RET_LOW load(1, XDATA, add(CFA_XSP16, literal(-5)))
        CFI R7 load(1, XDATA, add(CFA_XSP16, literal(-6)))
        CFI V15 load(1, XDATA, add(CFA_XSP16, literal(-7)))
        CFI V14 load(1, XDATA, add(CFA_XSP16, literal(-8)))
        CFI V13 load(1, XDATA, add(CFA_XSP16, literal(-9)))
        CFI V12 load(1, XDATA, add(CFA_XSP16, literal(-10)))
        CFI V11 load(1, XDATA, add(CFA_XSP16, literal(-11)))
        CFI V10 load(1, XDATA, add(CFA_XSP16, literal(-12)))
        CFI V9 load(1, XDATA, add(CFA_XSP16, literal(-13)))
        CFI V8 load(1, XDATA, add(CFA_XSP16, literal(-14)))
        CFI V7 load(1, XDATA, add(CFA_XSP16, literal(-15)))
        CFI V6 load(1, XDATA, add(CFA_XSP16, literal(-16)))
        CFI V5 load(1, XDATA, add(CFA_XSP16, literal(-17)))
        CFI V4 load(1, XDATA, add(CFA_XSP16, literal(-18)))
        CFI V3 load(1, XDATA, add(CFA_XSP16, literal(-19)))
        CFI V2 load(1, XDATA, add(CFA_XSP16, literal(-20)))
        CFI V1 load(1, XDATA, add(CFA_XSP16, literal(-21)))
        CFI V0 load(1, XDATA, add(CFA_XSP16, literal(-22)))
        CFI VB load(1, XDATA, add(CFA_XSP16, literal(-23)))
        CFI R6 load(1, XDATA, add(CFA_XSP16, literal(-24)))
        CFI CFA_SP SP+0
        CFI CFA_XSP16 add(XSP16, 24)
        ; Saved register size: 24
        ; Auto size: 4
        MOV     A,#-0x4
        LCALL   ?ALLOC_XSTACK8
        CFI CFA_XSP16 add(XSP16, 28)
        MOV     A,#0x2
        LCALL   ?XSTACK_DISP0_8
        LCALL   ?Subroutine2 & 0xFFFF
??CrossCallReturnLabel_5:
        LCALL   ?XSTACK_DISP0_8
        LCALL   ?Subroutine58 & 0xFFFF
??CrossCallReturnLabel_82:
        LCALL   ?XSTACK_DISP0_8
        MOVX    A,@DPTR
        MOV     ?V0 + 11,A
        MOV     A,#0x1f
        LCALL   ?XSTACK_DISP0_8
        MOVX    A,@DPTR
        MOV     ?V0 + 10,A
        MOV     A,#0x20
        LCALL   ?XSTACK_DISP0_8
        MOVX    A,@DPTR
        MOV     ?V0 + 9,A
        MOV     A,#0x21
        LCALL   ?XSTACK_DISP0_8
        MOVX    A,@DPTR
        MOV     ?V0 + 8,A
//  709   uint8 *buf;
//  710   uint8 *pBuf;
//  711   zclWriteRec_t *statusRec;
//  712   uint8 attrDataLen;
//  713   uint8 dataLen = 0;
        MOV     R6,#0x0
//  714   uint8 i;
//  715   ZStatus_t status;
//  716   
//  717   for ( i = 0; i < writeCmd->numAttr; i++ )
        MOV     ?V0 + 5,R6
        SJMP    ??zcl_SendWriteRequest_0
//  718   {
//  719     statusRec = &(writeCmd->attrList[i]);
??zcl_SendWriteRequest_1:
        MOV     A,?V0 + 5
        MOV     B,#0x5
        LCALL   ?Subroutine73 & 0xFFFF
//  720     
//  721     attrDataLen = zclGetAttrDataLength( statusRec->dataType, statusRec->attrData );
//  722     dataLen += 2 + 1 + attrDataLen; // Attribute ID + Attribute Type + Attribute Data
??CrossCallReturnLabel_98:
        ; Setup parameters for call to function zclGetAttrDataLength
        LCALL   ?Subroutine43 & 0xFFFF
//  723   }
??CrossCallReturnLabel_56:
        LCALL   ?Subroutine86 & 0xFFFF
??CrossCallReturnLabel_184:
        ADD     A,#0x3
        ADD     A,R6
        MOV     R6,A
        INC     ?V0 + 5
??zcl_SendWriteRequest_0:
        LCALL   ?Subroutine38 & 0xFFFF
??CrossCallReturnLabel_44:
        JC      ??zcl_SendWriteRequest_1
//  724 
//  725   buf = osal_mem_alloc( dataLen );
        LCALL   ?Subroutine65 & 0xFFFF
//  726   if ( buf != NULL )
??CrossCallReturnLabel_90:
        JNZ     ??zcl_SendWriteRequest_2
        MOV     A,R3
??zcl_SendWriteRequest_2:
        JZ      ??zcl_SendWriteRequest_3
//  727   {
//  728     // Load the buffer - serially
//  729     pBuf = buf;
        MOV     R6,?V0 + 6
        MOV     R7,?V0 + 7
//  730     for ( i = 0; i < writeCmd->numAttr; i++ )
        MOV     ?V0 + 5,#0x0
        SJMP    ??zcl_SendWriteRequest_4
//  731     { 
//  732       statusRec = &(writeCmd->attrList[i]);
??zcl_SendWriteRequest_5:
        MOV     A,?V0 + 5
        MOV     B,#0x5
        LCALL   ?Subroutine1 & 0xFFFF
//  733       
//  734       *pBuf++ = LO_UINT16( statusRec->attrID );
//  735       *pBuf++ = HI_UINT16( statusRec->attrID );
//  736       *pBuf++ = statusRec->dataType;
//  737       
//  738       zclSerializeData( statusRec->dataType, statusRec->attrData, pBuf );
//  739       
//  740       attrDataLen = zclGetAttrDataLength( statusRec->dataType, statusRec->attrData );
//  741       pBuf += attrDataLen; // move pass attribute data
//  742     }
??CrossCallReturnLabel_3:
        LCALL   ?Subroutine45 & 0xFFFF
??CrossCallReturnLabel_60:
        ADD     A,#0x3
        LCALL   ?Subroutine21 & 0xFFFF
??CrossCallReturnLabel_157:
        INC     ?V0 + 5
??zcl_SendWriteRequest_4:
        LCALL   ?Subroutine38 & 0xFFFF
??CrossCallReturnLabel_45:
        JC      ??zcl_SendWriteRequest_5
//  743 
//  744     status = zcl_SendCommand( srcEP, dstAddr, clusterID, cmd, FALSE, 
//  745                               direction, disableDefaultRsp, 0, seqNum, dataLen, buf );
        ; Setup parameters for call to function zcl_SendCommand
        MOV     R0,#?V0 + 6
        LCALL   ?PUSH_XSTACK_I_TWO
        CFI CFA_XSP16 add(XSP16, 30)
        MOV     R0,#?V0 + 0
        LCALL   ?PUSH_XSTACK_I_TWO
        CFI CFA_XSP16 add(XSP16, 32)
        MOV     A,?V0 + 8
        MOV     ?V0 + 0,A
        MOV     R0,#?V0 + 0
        LCALL   ?PUSH_XSTACK_I_ONE
        CFI CFA_XSP16 add(XSP16, 33)
        MOV     ?V0 + 0,#0x0
        MOV     R0,#?V0 + 0
        LCALL   ?PUSH_XSTACK_I_TWO
        CFI CFA_XSP16 add(XSP16, 35)
        MOV     A,?V0 + 9
        MOV     ?V0 + 0,A
        MOV     R0,#?V0 + 0
        LCALL   ?PUSH_XSTACK_I_ONE
        CFI CFA_XSP16 add(XSP16, 36)
        MOV     A,?V0 + 10
        MOV     ?V0 + 0,A
        MOV     R0,#?V0 + 0
        LCALL   ?PUSH_XSTACK_I_ONE
        CFI CFA_XSP16 add(XSP16, 37)
        MOV     ?V0 + 0,#0x0
        MOV     R0,#?V0 + 0
        LCALL   ?PUSH_XSTACK_I_ONE
        CFI CFA_XSP16 add(XSP16, 38)
        MOV     A,?V0 + 11
        MOV     ?V0 + 0,A
        MOV     R0,#?V0 + 0
        LCALL   ?PUSH_XSTACK_I_ONE
        CFI CFA_XSP16 add(XSP16, 39)
        MOV     A,#0xb
        LCALL   ?XSTACK_DISP0_8
        LCALL   ??Subroutine147_0 & 0xFFFF
??CrossCallReturnLabel_278:
        MOV     A,#0xd
        LCALL   ?XSTACK_DISP0_8
        LCALL   ?Subroutine37 & 0xFFFF
??CrossCallReturnLabel_41:
        LCALL   ?DEALLOC_XSTACK8
        CFI CFA_XSP16 add(XSP16, 28)
        MOV     A,R1
        MOV     R6,A
//  746     osal_mem_free( buf );
        ; Setup parameters for call to function osal_mem_free
        MOV     R2,?V0 + 6
        MOV     R3,?V0 + 7
        LCALL   ??osal_mem_free?relay
        SJMP    ??zcl_SendWriteRequest_6
//  747   }
//  748   else
//  749     status = ZMemError;
??zcl_SendWriteRequest_3:
        MOV     R6,#0x10
//  750 
//  751   return ( status);
??zcl_SendWriteRequest_6:
        LJMP    ?Subroutine115 & 0xFFFF
        CFI EndBlock cfiBlock50
//  752 }

        RSEG BANKED_CODE:CODE:NOROOT(0)
?Subroutine86:
        CFI Block cfiCond51 Using cfiCommon0
        CFI NoFunction
        CFI Conditional ??CrossCallReturnLabel_183
        CFI R6 load(1, XDATA, add(CFA_XSP16, literal(-24)))
        CFI VB load(1, XDATA, add(CFA_XSP16, literal(-23)))
        CFI V0 load(1, XDATA, add(CFA_XSP16, literal(-22)))
        CFI V1 load(1, XDATA, add(CFA_XSP16, literal(-21)))
        CFI V2 load(1, XDATA, add(CFA_XSP16, literal(-20)))
        CFI V3 load(1, XDATA, add(CFA_XSP16, literal(-19)))
        CFI V4 load(1, XDATA, add(CFA_XSP16, literal(-18)))
        CFI V5 load(1, XDATA, add(CFA_XSP16, literal(-17)))
        CFI V6 load(1, XDATA, add(CFA_XSP16, literal(-16)))
        CFI V7 load(1, XDATA, add(CFA_XSP16, literal(-15)))
        CFI V8 load(1, XDATA, add(CFA_XSP16, literal(-14)))
        CFI V9 load(1, XDATA, add(CFA_XSP16, literal(-13)))
        CFI V10 load(1, XDATA, add(CFA_XSP16, literal(-12)))
        CFI V11 load(1, XDATA, add(CFA_XSP16, literal(-11)))
        CFI V12 load(1, XDATA, add(CFA_XSP16, literal(-10)))
        CFI V13 load(1, XDATA, add(CFA_XSP16, literal(-9)))
        CFI V14 load(1, XDATA, add(CFA_XSP16, literal(-8)))
        CFI V15 load(1, XDATA, add(CFA_XSP16, literal(-7)))
        CFI R7 load(1, XDATA, add(CFA_XSP16, literal(-6)))
        CFI ?RET_LOW load(1, XDATA, add(CFA_XSP16, literal(-5)))
        CFI ?RET_HIGH load(1, XDATA, add(CFA_XSP16, literal(-4)))
        CFI ?BRET_EXT load(1, XDATA, add(CFA_XSP16, literal(-3)))
        CFI DPL0 load(1, XDATA, add(CFA_XSP16, literal(-2)))
        CFI DPH0 load(1, XDATA, add(CFA_XSP16, literal(-1)))
        CFI CFA_SP SP+0
        CFI CFA_XSP16 add(XSP16, 28)
        CFI Block cfiCond52 Using cfiCommon0
        CFI (cfiCond52) NoFunction
        CFI (cfiCond52) Conditional ??CrossCallReturnLabel_184
        CFI (cfiCond52) R6 load(1, XDATA, add(CFA_XSP16, literal(-24)))
        CFI (cfiCond52) VB load(1, XDATA, add(CFA_XSP16, literal(-23)))
        CFI (cfiCond52) V0 load(1, XDATA, add(CFA_XSP16, literal(-22)))
        CFI (cfiCond52) V1 load(1, XDATA, add(CFA_XSP16, literal(-21)))
        CFI (cfiCond52) V2 load(1, XDATA, add(CFA_XSP16, literal(-20)))
        CFI (cfiCond52) V3 load(1, XDATA, add(CFA_XSP16, literal(-19)))
        CFI (cfiCond52) V4 load(1, XDATA, add(CFA_XSP16, literal(-18)))
        CFI (cfiCond52) V5 load(1, XDATA, add(CFA_XSP16, literal(-17)))
        CFI (cfiCond52) V6 load(1, XDATA, add(CFA_XSP16, literal(-16)))
        CFI (cfiCond52) V7 load(1, XDATA, add(CFA_XSP16, literal(-15)))
        CFI (cfiCond52) V8 load(1, XDATA, add(CFA_XSP16, literal(-14)))
        CFI (cfiCond52) V9 load(1, XDATA, add(CFA_XSP16, literal(-13)))
        CFI (cfiCond52) V10 load(1, XDATA, add(CFA_XSP16, literal(-12)))
        CFI (cfiCond52) V11 load(1, XDATA, add(CFA_XSP16, literal(-11)))
        CFI (cfiCond52) V12 load(1, XDATA, add(CFA_XSP16, literal(-10)))
        CFI (cfiCond52) V13 load(1, XDATA, add(CFA_XSP16, literal(-9)))
        CFI (cfiCond52) V14 load(1, XDATA, add(CFA_XSP16, literal(-8)))
        CFI (cfiCond52) V15 load(1, XDATA, add(CFA_XSP16, literal(-7)))
        CFI (cfiCond52) R7 load(1, XDATA, add(CFA_XSP16, literal(-6)))
        CFI (cfiCond52) ?RET_LOW load(1, XDATA, add(CFA_XSP16, literal(-5)))
        CFI (cfiCond52) ?RET_HIGH load(1, XDATA, add(CFA_XSP16, literal(-4)))
        CFI (cfiCond52) ?BRET_EXT load(1, XDATA, add(CFA_XSP16, literal(-3)))
        CFI (cfiCond52) DPL0 load(1, XDATA, add(CFA_XSP16, literal(-2)))
        CFI (cfiCond52) DPH0 load(1, XDATA, add(CFA_XSP16, literal(-1)))
        CFI (cfiCond52) CFA_SP SP+0
        CFI (cfiCond52) CFA_XSP16 add(XSP16, 28)
        CFI Block cfiCond53 Using cfiCommon0
        CFI (cfiCond53) NoFunction
        CFI (cfiCond53) Conditional ??CrossCallReturnLabel_185, ??CrossCallReturnLabel_179
        CFI (cfiCond53) R6 load(1, XDATA, add(CFA_XSP16, literal(-11)))
        CFI (cfiCond53) VB load(1, XDATA, add(CFA_XSP16, literal(-10)))
        CFI (cfiCond53) V0 load(1, XDATA, add(CFA_XSP16, literal(-9)))
        CFI (cfiCond53) V1 load(1, XDATA, add(CFA_XSP16, literal(-8)))
        CFI (cfiCond53) V2 load(1, XDATA, add(CFA_XSP16, literal(-7)))
        CFI (cfiCond53) R7 load(1, XDATA, add(CFA_XSP16, literal(-6)))
        CFI (cfiCond53) ?RET_LOW load(1, XDATA, add(CFA_XSP16, literal(-5)))
        CFI (cfiCond53) ?RET_HIGH load(1, XDATA, add(CFA_XSP16, literal(-4)))
        CFI (cfiCond53) ?BRET_EXT load(1, XDATA, add(CFA_XSP16, literal(-3)))
        CFI (cfiCond53) DPL0 load(1, XDATA, add(CFA_XSP16, literal(-2)))
        CFI (cfiCond53) DPH0 load(1, XDATA, add(CFA_XSP16, literal(-1)))
        CFI (cfiCond53) CFA_SP SP+0
        CFI (cfiCond53) CFA_XSP16 add(XSP16, 11)
        CFI Block cfiCond54 Using cfiCommon0
        CFI (cfiCond54) NoFunction
        CFI (cfiCond54) Conditional ??CrossCallReturnLabel_185, ??CrossCallReturnLabel_180
        CFI (cfiCond54) R6 load(1, XDATA, add(CFA_XSP16, literal(-15)))
        CFI (cfiCond54) VB load(1, XDATA, add(CFA_XSP16, literal(-14)))
        CFI (cfiCond54) V0 load(1, XDATA, add(CFA_XSP16, literal(-13)))
        CFI (cfiCond54) V1 load(1, XDATA, add(CFA_XSP16, literal(-12)))
        CFI (cfiCond54) V2 load(1, XDATA, add(CFA_XSP16, literal(-11)))
        CFI (cfiCond54) V3 load(1, XDATA, add(CFA_XSP16, literal(-10)))
        CFI (cfiCond54) V4 load(1, XDATA, add(CFA_XSP16, literal(-9)))
        CFI (cfiCond54) V5 load(1, XDATA, add(CFA_XSP16, literal(-8)))
        CFI (cfiCond54) V6 load(1, XDATA, add(CFA_XSP16, literal(-7)))
        CFI (cfiCond54) R7 load(1, XDATA, add(CFA_XSP16, literal(-6)))
        CFI (cfiCond54) ?RET_LOW load(1, XDATA, add(CFA_XSP16, literal(-5)))
        CFI (cfiCond54) ?RET_HIGH load(1, XDATA, add(CFA_XSP16, literal(-4)))
        CFI (cfiCond54) ?BRET_EXT load(1, XDATA, add(CFA_XSP16, literal(-3)))
        CFI (cfiCond54) DPL0 load(1, XDATA, add(CFA_XSP16, literal(-2)))
        CFI (cfiCond54) DPH0 load(1, XDATA, add(CFA_XSP16, literal(-1)))
        CFI (cfiCond54) CFA_SP SP+0
        CFI (cfiCond54) CFA_XSP16 add(XSP16, 15)
        CFI Block cfiCond55 Using cfiCommon0
        CFI (cfiCond55) NoFunction
        CFI (cfiCond55) Conditional ??CrossCallReturnLabel_185, ??CrossCallReturnLabel_181
        CFI (cfiCond55) R6 load(1, XDATA, add(CFA_XSP16, literal(-24)))
        CFI (cfiCond55) VB load(1, XDATA, add(CFA_XSP16, literal(-23)))
        CFI (cfiCond55) V0 load(1, XDATA, add(CFA_XSP16, literal(-22)))
        CFI (cfiCond55) V1 load(1, XDATA, add(CFA_XSP16, literal(-21)))
        CFI (cfiCond55) V2 load(1, XDATA, add(CFA_XSP16, literal(-20)))
        CFI (cfiCond55) V3 load(1, XDATA, add(CFA_XSP16, literal(-19)))
        CFI (cfiCond55) V4 load(1, XDATA, add(CFA_XSP16, literal(-18)))
        CFI (cfiCond55) V5 load(1, XDATA, add(CFA_XSP16, literal(-17)))
        CFI (cfiCond55) V6 load(1, XDATA, add(CFA_XSP16, literal(-16)))
        CFI (cfiCond55) V7 load(1, XDATA, add(CFA_XSP16, literal(-15)))
        CFI (cfiCond55) V8 load(1, XDATA, add(CFA_XSP16, literal(-14)))
        CFI (cfiCond55) V9 load(1, XDATA, add(CFA_XSP16, literal(-13)))
        CFI (cfiCond55) V10 load(1, XDATA, add(CFA_XSP16, literal(-12)))
        CFI (cfiCond55) V11 load(1, XDATA, add(CFA_XSP16, literal(-11)))
        CFI (cfiCond55) V12 load(1, XDATA, add(CFA_XSP16, literal(-10)))
        CFI (cfiCond55) V13 load(1, XDATA, add(CFA_XSP16, literal(-9)))
        CFI (cfiCond55) V14 load(1, XDATA, add(CFA_XSP16, literal(-8)))
        CFI (cfiCond55) V15 load(1, XDATA, add(CFA_XSP16, literal(-7)))
        CFI (cfiCond55) R7 load(1, XDATA, add(CFA_XSP16, literal(-6)))
        CFI (cfiCond55) ?RET_LOW load(1, XDATA, add(CFA_XSP16, literal(-5)))
        CFI (cfiCond55) ?RET_HIGH load(1, XDATA, add(CFA_XSP16, literal(-4)))
        CFI (cfiCond55) ?BRET_EXT load(1, XDATA, add(CFA_XSP16, literal(-3)))
        CFI (cfiCond55) DPL0 load(1, XDATA, add(CFA_XSP16, literal(-2)))
        CFI (cfiCond55) DPH0 load(1, XDATA, add(CFA_XSP16, literal(-1)))
        CFI (cfiCond55) CFA_SP SP+0
        CFI (cfiCond55) CFA_XSP16 add(XSP16, 42)
        CFI Block cfiCond56 Using cfiCommon0
        CFI (cfiCond56) NoFunction
        CFI (cfiCond56) Conditional ??CrossCallReturnLabel_185, ??CrossCallReturnLabel_182
        CFI (cfiCond56) R6 load(1, XDATA, add(CFA_XSP16, literal(-24)))
        CFI (cfiCond56) VB load(1, XDATA, add(CFA_XSP16, literal(-23)))
        CFI (cfiCond56) V0 load(1, XDATA, add(CFA_XSP16, literal(-22)))
        CFI (cfiCond56) V1 load(1, XDATA, add(CFA_XSP16, literal(-21)))
        CFI (cfiCond56) V2 load(1, XDATA, add(CFA_XSP16, literal(-20)))
        CFI (cfiCond56) V3 load(1, XDATA, add(CFA_XSP16, literal(-19)))
        CFI (cfiCond56) V4 load(1, XDATA, add(CFA_XSP16, literal(-18)))
        CFI (cfiCond56) V5 load(1, XDATA, add(CFA_XSP16, literal(-17)))
        CFI (cfiCond56) V6 load(1, XDATA, add(CFA_XSP16, literal(-16)))
        CFI (cfiCond56) V7 load(1, XDATA, add(CFA_XSP16, literal(-15)))
        CFI (cfiCond56) V8 load(1, XDATA, add(CFA_XSP16, literal(-14)))
        CFI (cfiCond56) V9 load(1, XDATA, add(CFA_XSP16, literal(-13)))
        CFI (cfiCond56) V10 load(1, XDATA, add(CFA_XSP16, literal(-12)))
        CFI (cfiCond56) V11 load(1, XDATA, add(CFA_XSP16, literal(-11)))
        CFI (cfiCond56) V12 load(1, XDATA, add(CFA_XSP16, literal(-10)))
        CFI (cfiCond56) V13 load(1, XDATA, add(CFA_XSP16, literal(-9)))
        CFI (cfiCond56) V14 load(1, XDATA, add(CFA_XSP16, literal(-8)))
        CFI (cfiCond56) V15 load(1, XDATA, add(CFA_XSP16, literal(-7)))
        CFI (cfiCond56) R7 load(1, XDATA, add(CFA_XSP16, literal(-6)))
        CFI (cfiCond56) ?RET_LOW load(1, XDATA, add(CFA_XSP16, literal(-5)))
        CFI (cfiCond56) ?RET_HIGH load(1, XDATA, add(CFA_XSP16, literal(-4)))
        CFI (cfiCond56) ?BRET_EXT load(1, XDATA, add(CFA_XSP16, literal(-3)))
        CFI (cfiCond56) DPL0 load(1, XDATA, add(CFA_XSP16, literal(-2)))
        CFI (cfiCond56) DPH0 load(1, XDATA, add(CFA_XSP16, literal(-1)))
        CFI (cfiCond56) CFA_SP SP+0
        CFI (cfiCond56) CFA_XSP16 add(XSP16, 42)
        CFI Block cfiPicker57 Using cfiCommon1
        CFI (cfiPicker57) NoFunction
        CFI (cfiPicker57) Picker
        MOVX    A,@DPTR
        MOV     R1,A
        LCALL   ??zclGetAttrDataLength?relay
        MOV     A,R1
        RET
        CFI EndBlock cfiCond51
        CFI EndBlock cfiCond52
        CFI EndBlock cfiCond53
        CFI EndBlock cfiCond54
        CFI EndBlock cfiCond55
        CFI EndBlock cfiCond56
        CFI EndBlock cfiPicker57

        RSEG BANKED_CODE:CODE:NOROOT(0)
?Subroutine73:
        CFI Block cfiCond58 Using cfiCommon0
        CFI NoFunction
        CFI Conditional ??CrossCallReturnLabel_97
        CFI R6 load(1, XDATA, add(CFA_XSP16, literal(-24)))
        CFI VB load(1, XDATA, add(CFA_XSP16, literal(-23)))
        CFI V0 load(1, XDATA, add(CFA_XSP16, literal(-22)))
        CFI V1 load(1, XDATA, add(CFA_XSP16, literal(-21)))
        CFI V2 load(1, XDATA, add(CFA_XSP16, literal(-20)))
        CFI V3 load(1, XDATA, add(CFA_XSP16, literal(-19)))
        CFI V4 load(1, XDATA, add(CFA_XSP16, literal(-18)))
        CFI V5 load(1, XDATA, add(CFA_XSP16, literal(-17)))
        CFI V6 load(1, XDATA, add(CFA_XSP16, literal(-16)))
        CFI V7 load(1, XDATA, add(CFA_XSP16, literal(-15)))
        CFI V8 load(1, XDATA, add(CFA_XSP16, literal(-14)))
        CFI V9 load(1, XDATA, add(CFA_XSP16, literal(-13)))
        CFI V10 load(1, XDATA, add(CFA_XSP16, literal(-12)))
        CFI V11 load(1, XDATA, add(CFA_XSP16, literal(-11)))
        CFI V12 load(1, XDATA, add(CFA_XSP16, literal(-10)))
        CFI V13 load(1, XDATA, add(CFA_XSP16, literal(-9)))
        CFI V14 load(1, XDATA, add(CFA_XSP16, literal(-8)))
        CFI V15 load(1, XDATA, add(CFA_XSP16, literal(-7)))
        CFI R7 load(1, XDATA, add(CFA_XSP16, literal(-6)))
        CFI ?RET_LOW load(1, XDATA, add(CFA_XSP16, literal(-5)))
        CFI ?RET_HIGH load(1, XDATA, add(CFA_XSP16, literal(-4)))
        CFI ?BRET_EXT load(1, XDATA, add(CFA_XSP16, literal(-3)))
        CFI DPL0 load(1, XDATA, add(CFA_XSP16, literal(-2)))
        CFI DPH0 load(1, XDATA, add(CFA_XSP16, literal(-1)))
        CFI CFA_SP SP+0
        CFI CFA_XSP16 add(XSP16, 28)
        CFI Block cfiCond59 Using cfiCommon0
        CFI (cfiCond59) NoFunction
        CFI (cfiCond59) Conditional ??CrossCallReturnLabel_98
        CFI (cfiCond59) R6 load(1, XDATA, add(CFA_XSP16, literal(-24)))
        CFI (cfiCond59) VB load(1, XDATA, add(CFA_XSP16, literal(-23)))
        CFI (cfiCond59) V0 load(1, XDATA, add(CFA_XSP16, literal(-22)))
        CFI (cfiCond59) V1 load(1, XDATA, add(CFA_XSP16, literal(-21)))
        CFI (cfiCond59) V2 load(1, XDATA, add(CFA_XSP16, literal(-20)))
        CFI (cfiCond59) V3 load(1, XDATA, add(CFA_XSP16, literal(-19)))
        CFI (cfiCond59) V4 load(1, XDATA, add(CFA_XSP16, literal(-18)))
        CFI (cfiCond59) V5 load(1, XDATA, add(CFA_XSP16, literal(-17)))
        CFI (cfiCond59) V6 load(1, XDATA, add(CFA_XSP16, literal(-16)))
        CFI (cfiCond59) V7 load(1, XDATA, add(CFA_XSP16, literal(-15)))
        CFI (cfiCond59) V8 load(1, XDATA, add(CFA_XSP16, literal(-14)))
        CFI (cfiCond59) V9 load(1, XDATA, add(CFA_XSP16, literal(-13)))
        CFI (cfiCond59) V10 load(1, XDATA, add(CFA_XSP16, literal(-12)))
        CFI (cfiCond59) V11 load(1, XDATA, add(CFA_XSP16, literal(-11)))
        CFI (cfiCond59) V12 load(1, XDATA, add(CFA_XSP16, literal(-10)))
        CFI (cfiCond59) V13 load(1, XDATA, add(CFA_XSP16, literal(-9)))
        CFI (cfiCond59) V14 load(1, XDATA, add(CFA_XSP16, literal(-8)))
        CFI (cfiCond59) V15 load(1, XDATA, add(CFA_XSP16, literal(-7)))
        CFI (cfiCond59) R7 load(1, XDATA, add(CFA_XSP16, literal(-6)))
        CFI (cfiCond59) ?RET_LOW load(1, XDATA, add(CFA_XSP16, literal(-5)))
        CFI (cfiCond59) ?RET_HIGH load(1, XDATA, add(CFA_XSP16, literal(-4)))
        CFI (cfiCond59) ?BRET_EXT load(1, XDATA, add(CFA_XSP16, literal(-3)))
        CFI (cfiCond59) DPL0 load(1, XDATA, add(CFA_XSP16, literal(-2)))
        CFI (cfiCond59) DPH0 load(1, XDATA, add(CFA_XSP16, literal(-1)))
        CFI (cfiCond59) CFA_SP SP+0
        CFI (cfiCond59) CFA_XSP16 add(XSP16, 28)
        CFI Block cfiPicker60 Using cfiCommon1
        CFI (cfiPicker60) NoFunction
        CFI (cfiPicker60) Picker
        LCALL   ?Subroutine94 & 0xFFFF
??CrossCallReturnLabel_163:
        RET
        CFI EndBlock cfiCond58
        CFI EndBlock cfiCond59
        CFI EndBlock cfiPicker60

        RSEG BANKED_CODE:CODE:NOROOT(0)
?Subroutine94:
        CFI Block cfiCond61 Using cfiCommon0
        CFI NoFunction
        CFI Conditional ??CrossCallReturnLabel_163, ??CrossCallReturnLabel_97
        CFI R6 load(1, XDATA, add(CFA_XSP16, literal(-24)))
        CFI VB load(1, XDATA, add(CFA_XSP16, literal(-23)))
        CFI V0 load(1, XDATA, add(CFA_XSP16, literal(-22)))
        CFI V1 load(1, XDATA, add(CFA_XSP16, literal(-21)))
        CFI V2 load(1, XDATA, add(CFA_XSP16, literal(-20)))
        CFI V3 load(1, XDATA, add(CFA_XSP16, literal(-19)))
        CFI V4 load(1, XDATA, add(CFA_XSP16, literal(-18)))
        CFI V5 load(1, XDATA, add(CFA_XSP16, literal(-17)))
        CFI V6 load(1, XDATA, add(CFA_XSP16, literal(-16)))
        CFI V7 load(1, XDATA, add(CFA_XSP16, literal(-15)))
        CFI V8 load(1, XDATA, add(CFA_XSP16, literal(-14)))
        CFI V9 load(1, XDATA, add(CFA_XSP16, literal(-13)))
        CFI V10 load(1, XDATA, add(CFA_XSP16, literal(-12)))
        CFI V11 load(1, XDATA, add(CFA_XSP16, literal(-11)))
        CFI V12 load(1, XDATA, add(CFA_XSP16, literal(-10)))
        CFI V13 load(1, XDATA, add(CFA_XSP16, literal(-9)))
        CFI V14 load(1, XDATA, add(CFA_XSP16, literal(-8)))
        CFI V15 load(1, XDATA, add(CFA_XSP16, literal(-7)))
        CFI R7 load(1, XDATA, add(CFA_XSP16, literal(-6)))
        CFI ?RET_LOW load(1, XDATA, add(CFA_XSP16, literal(-5)))
        CFI ?RET_HIGH load(1, XDATA, add(CFA_XSP16, literal(-4)))
        CFI ?BRET_EXT load(1, XDATA, add(CFA_XSP16, literal(-3)))
        CFI DPL0 load(1, XDATA, add(CFA_XSP16, literal(-2)))
        CFI DPH0 load(1, XDATA, add(CFA_XSP16, literal(-1)))
        CFI CFA_SP SP+0
        CFI CFA_XSP16 add(XSP16, 28)
        CFI Block cfiCond62 Using cfiCommon0
        CFI (cfiCond62) NoFunction
        CFI (cfiCond62) Conditional ??CrossCallReturnLabel_163, ??CrossCallReturnLabel_98
        CFI (cfiCond62) R6 load(1, XDATA, add(CFA_XSP16, literal(-24)))
        CFI (cfiCond62) VB load(1, XDATA, add(CFA_XSP16, literal(-23)))
        CFI (cfiCond62) V0 load(1, XDATA, add(CFA_XSP16, literal(-22)))
        CFI (cfiCond62) V1 load(1, XDATA, add(CFA_XSP16, literal(-21)))
        CFI (cfiCond62) V2 load(1, XDATA, add(CFA_XSP16, literal(-20)))
        CFI (cfiCond62) V3 load(1, XDATA, add(CFA_XSP16, literal(-19)))
        CFI (cfiCond62) V4 load(1, XDATA, add(CFA_XSP16, literal(-18)))
        CFI (cfiCond62) V5 load(1, XDATA, add(CFA_XSP16, literal(-17)))
        CFI (cfiCond62) V6 load(1, XDATA, add(CFA_XSP16, literal(-16)))
        CFI (cfiCond62) V7 load(1, XDATA, add(CFA_XSP16, literal(-15)))
        CFI (cfiCond62) V8 load(1, XDATA, add(CFA_XSP16, literal(-14)))
        CFI (cfiCond62) V9 load(1, XDATA, add(CFA_XSP16, literal(-13)))
        CFI (cfiCond62) V10 load(1, XDATA, add(CFA_XSP16, literal(-12)))
        CFI (cfiCond62) V11 load(1, XDATA, add(CFA_XSP16, literal(-11)))
        CFI (cfiCond62) V12 load(1, XDATA, add(CFA_XSP16, literal(-10)))
        CFI (cfiCond62) V13 load(1, XDATA, add(CFA_XSP16, literal(-9)))
        CFI (cfiCond62) V14 load(1, XDATA, add(CFA_XSP16, literal(-8)))
        CFI (cfiCond62) V15 load(1, XDATA, add(CFA_XSP16, literal(-7)))
        CFI (cfiCond62) R7 load(1, XDATA, add(CFA_XSP16, literal(-6)))
        CFI (cfiCond62) ?RET_LOW load(1, XDATA, add(CFA_XSP16, literal(-5)))
        CFI (cfiCond62) ?RET_HIGH load(1, XDATA, add(CFA_XSP16, literal(-4)))
        CFI (cfiCond62) ?BRET_EXT load(1, XDATA, add(CFA_XSP16, literal(-3)))
        CFI (cfiCond62) DPL0 load(1, XDATA, add(CFA_XSP16, literal(-2)))
        CFI (cfiCond62) DPH0 load(1, XDATA, add(CFA_XSP16, literal(-1)))
        CFI (cfiCond62) CFA_SP SP+0
        CFI (cfiCond62) CFA_XSP16 add(XSP16, 28)
        CFI Block cfiCond63 Using cfiCommon0
        CFI (cfiCond63) NoFunction
        CFI (cfiCond63) Conditional ??CrossCallReturnLabel_162, ??CrossCallReturnLabel_2
        CFI (cfiCond63) R6 load(1, XDATA, add(CFA_XSP16, literal(-24)))
        CFI (cfiCond63) VB load(1, XDATA, add(CFA_XSP16, literal(-23)))
        CFI (cfiCond63) V0 load(1, XDATA, add(CFA_XSP16, literal(-22)))
        CFI (cfiCond63) V1 load(1, XDATA, add(CFA_XSP16, literal(-21)))
        CFI (cfiCond63) V2 load(1, XDATA, add(CFA_XSP16, literal(-20)))
        CFI (cfiCond63) V3 load(1, XDATA, add(CFA_XSP16, literal(-19)))
        CFI (cfiCond63) V4 load(1, XDATA, add(CFA_XSP16, literal(-18)))
        CFI (cfiCond63) V5 load(1, XDATA, add(CFA_XSP16, literal(-17)))
        CFI (cfiCond63) V6 load(1, XDATA, add(CFA_XSP16, literal(-16)))
        CFI (cfiCond63) V7 load(1, XDATA, add(CFA_XSP16, literal(-15)))
        CFI (cfiCond63) V8 load(1, XDATA, add(CFA_XSP16, literal(-14)))
        CFI (cfiCond63) V9 load(1, XDATA, add(CFA_XSP16, literal(-13)))
        CFI (cfiCond63) V10 load(1, XDATA, add(CFA_XSP16, literal(-12)))
        CFI (cfiCond63) V11 load(1, XDATA, add(CFA_XSP16, literal(-11)))
        CFI (cfiCond63) V12 load(1, XDATA, add(CFA_XSP16, literal(-10)))
        CFI (cfiCond63) V13 load(1, XDATA, add(CFA_XSP16, literal(-9)))
        CFI (cfiCond63) V14 load(1, XDATA, add(CFA_XSP16, literal(-8)))
        CFI (cfiCond63) V15 load(1, XDATA, add(CFA_XSP16, literal(-7)))
        CFI (cfiCond63) R7 load(1, XDATA, add(CFA_XSP16, literal(-6)))
        CFI (cfiCond63) ?RET_LOW load(1, XDATA, add(CFA_XSP16, literal(-5)))
        CFI (cfiCond63) ?RET_HIGH load(1, XDATA, add(CFA_XSP16, literal(-4)))
        CFI (cfiCond63) ?BRET_EXT load(1, XDATA, add(CFA_XSP16, literal(-3)))
        CFI (cfiCond63) DPL0 load(1, XDATA, add(CFA_XSP16, literal(-2)))
        CFI (cfiCond63) DPH0 load(1, XDATA, add(CFA_XSP16, literal(-1)))
        CFI (cfiCond63) CFA_SP SP+0
        CFI (cfiCond63) CFA_XSP16 add(XSP16, 28)
        CFI Block cfiCond64 Using cfiCommon0
        CFI (cfiCond64) NoFunction
        CFI (cfiCond64) Conditional ??CrossCallReturnLabel_162, ??CrossCallReturnLabel_3
        CFI (cfiCond64) R6 load(1, XDATA, add(CFA_XSP16, literal(-24)))
        CFI (cfiCond64) VB load(1, XDATA, add(CFA_XSP16, literal(-23)))
        CFI (cfiCond64) V0 load(1, XDATA, add(CFA_XSP16, literal(-22)))
        CFI (cfiCond64) V1 load(1, XDATA, add(CFA_XSP16, literal(-21)))
        CFI (cfiCond64) V2 load(1, XDATA, add(CFA_XSP16, literal(-20)))
        CFI (cfiCond64) V3 load(1, XDATA, add(CFA_XSP16, literal(-19)))
        CFI (cfiCond64) V4 load(1, XDATA, add(CFA_XSP16, literal(-18)))
        CFI (cfiCond64) V5 load(1, XDATA, add(CFA_XSP16, literal(-17)))
        CFI (cfiCond64) V6 load(1, XDATA, add(CFA_XSP16, literal(-16)))
        CFI (cfiCond64) V7 load(1, XDATA, add(CFA_XSP16, literal(-15)))
        CFI (cfiCond64) V8 load(1, XDATA, add(CFA_XSP16, literal(-14)))
        CFI (cfiCond64) V9 load(1, XDATA, add(CFA_XSP16, literal(-13)))
        CFI (cfiCond64) V10 load(1, XDATA, add(CFA_XSP16, literal(-12)))
        CFI (cfiCond64) V11 load(1, XDATA, add(CFA_XSP16, literal(-11)))
        CFI (cfiCond64) V12 load(1, XDATA, add(CFA_XSP16, literal(-10)))
        CFI (cfiCond64) V13 load(1, XDATA, add(CFA_XSP16, literal(-9)))
        CFI (cfiCond64) V14 load(1, XDATA, add(CFA_XSP16, literal(-8)))
        CFI (cfiCond64) V15 load(1, XDATA, add(CFA_XSP16, literal(-7)))
        CFI (cfiCond64) R7 load(1, XDATA, add(CFA_XSP16, literal(-6)))
        CFI (cfiCond64) ?RET_LOW load(1, XDATA, add(CFA_XSP16, literal(-5)))
        CFI (cfiCond64) ?RET_HIGH load(1, XDATA, add(CFA_XSP16, literal(-4)))
        CFI (cfiCond64) ?BRET_EXT load(1, XDATA, add(CFA_XSP16, literal(-3)))
        CFI (cfiCond64) DPL0 load(1, XDATA, add(CFA_XSP16, literal(-2)))
        CFI (cfiCond64) DPH0 load(1, XDATA, add(CFA_XSP16, literal(-1)))
        CFI (cfiCond64) CFA_SP SP+0
        CFI (cfiCond64) CFA_XSP16 add(XSP16, 28)
        CFI Block cfiPicker65 Using cfiCommon1
        CFI (cfiPicker65) NoFunction
        CFI (cfiPicker65) Picker
        MUL     AB
        MOV     R0,A
        MOV     R1,B
        LCALL   ?Subroutine102 & 0xFFFF
        CFI EndBlock cfiCond61
        CFI EndBlock cfiCond62
        CFI EndBlock cfiCond63
        CFI EndBlock cfiCond64
        CFI EndBlock cfiPicker65
??CrossCallReturnLabel_139:
        REQUIRE ?Subroutine111
        ; // Fall through to label ?Subroutine111

        RSEG BANKED_CODE:CODE:NOROOT(0)
?Subroutine111:
        CFI Block cfiCond66 Using cfiCommon0
        CFI NoFunction
        CFI Conditional ??CrossCallReturnLabel_163, ??CrossCallReturnLabel_97
        CFI R6 load(1, XDATA, add(CFA_XSP16, literal(-24)))
        CFI VB load(1, XDATA, add(CFA_XSP16, literal(-23)))
        CFI V0 load(1, XDATA, add(CFA_XSP16, literal(-22)))
        CFI V1 load(1, XDATA, add(CFA_XSP16, literal(-21)))
        CFI V2 load(1, XDATA, add(CFA_XSP16, literal(-20)))
        CFI V3 load(1, XDATA, add(CFA_XSP16, literal(-19)))
        CFI V4 load(1, XDATA, add(CFA_XSP16, literal(-18)))
        CFI V5 load(1, XDATA, add(CFA_XSP16, literal(-17)))
        CFI V6 load(1, XDATA, add(CFA_XSP16, literal(-16)))
        CFI V7 load(1, XDATA, add(CFA_XSP16, literal(-15)))
        CFI V8 load(1, XDATA, add(CFA_XSP16, literal(-14)))
        CFI V9 load(1, XDATA, add(CFA_XSP16, literal(-13)))
        CFI V10 load(1, XDATA, add(CFA_XSP16, literal(-12)))
        CFI V11 load(1, XDATA, add(CFA_XSP16, literal(-11)))
        CFI V12 load(1, XDATA, add(CFA_XSP16, literal(-10)))
        CFI V13 load(1, XDATA, add(CFA_XSP16, literal(-9)))
        CFI V14 load(1, XDATA, add(CFA_XSP16, literal(-8)))
        CFI V15 load(1, XDATA, add(CFA_XSP16, literal(-7)))
        CFI R7 load(1, XDATA, add(CFA_XSP16, literal(-6)))
        CFI ?RET_LOW load(1, XDATA, add(CFA_XSP16, literal(-5)))
        CFI ?RET_HIGH load(1, XDATA, add(CFA_XSP16, literal(-4)))
        CFI ?BRET_EXT load(1, XDATA, add(CFA_XSP16, literal(-3)))
        CFI DPL0 load(1, XDATA, add(CFA_XSP16, literal(-2)))
        CFI DPH0 load(1, XDATA, add(CFA_XSP16, literal(-1)))
        CFI CFA_SP SP+0
        CFI CFA_XSP16 add(XSP16, 28)
        CFI Block cfiCond67 Using cfiCommon0
        CFI (cfiCond67) NoFunction
        CFI (cfiCond67) Conditional ??CrossCallReturnLabel_163, ??CrossCallReturnLabel_98
        CFI (cfiCond67) R6 load(1, XDATA, add(CFA_XSP16, literal(-24)))
        CFI (cfiCond67) VB load(1, XDATA, add(CFA_XSP16, literal(-23)))
        CFI (cfiCond67) V0 load(1, XDATA, add(CFA_XSP16, literal(-22)))
        CFI (cfiCond67) V1 load(1, XDATA, add(CFA_XSP16, literal(-21)))
        CFI (cfiCond67) V2 load(1, XDATA, add(CFA_XSP16, literal(-20)))
        CFI (cfiCond67) V3 load(1, XDATA, add(CFA_XSP16, literal(-19)))
        CFI (cfiCond67) V4 load(1, XDATA, add(CFA_XSP16, literal(-18)))
        CFI (cfiCond67) V5 load(1, XDATA, add(CFA_XSP16, literal(-17)))
        CFI (cfiCond67) V6 load(1, XDATA, add(CFA_XSP16, literal(-16)))
        CFI (cfiCond67) V7 load(1, XDATA, add(CFA_XSP16, literal(-15)))
        CFI (cfiCond67) V8 load(1, XDATA, add(CFA_XSP16, literal(-14)))
        CFI (cfiCond67) V9 load(1, XDATA, add(CFA_XSP16, literal(-13)))
        CFI (cfiCond67) V10 load(1, XDATA, add(CFA_XSP16, literal(-12)))
        CFI (cfiCond67) V11 load(1, XDATA, add(CFA_XSP16, literal(-11)))
        CFI (cfiCond67) V12 load(1, XDATA, add(CFA_XSP16, literal(-10)))
        CFI (cfiCond67) V13 load(1, XDATA, add(CFA_XSP16, literal(-9)))
        CFI (cfiCond67) V14 load(1, XDATA, add(CFA_XSP16, literal(-8)))
        CFI (cfiCond67) V15 load(1, XDATA, add(CFA_XSP16, literal(-7)))
        CFI (cfiCond67) R7 load(1, XDATA, add(CFA_XSP16, literal(-6)))
        CFI (cfiCond67) ?RET_LOW load(1, XDATA, add(CFA_XSP16, literal(-5)))
        CFI (cfiCond67) ?RET_HIGH load(1, XDATA, add(CFA_XSP16, literal(-4)))
        CFI (cfiCond67) ?BRET_EXT load(1, XDATA, add(CFA_XSP16, literal(-3)))
        CFI (cfiCond67) DPL0 load(1, XDATA, add(CFA_XSP16, literal(-2)))
        CFI (cfiCond67) DPH0 load(1, XDATA, add(CFA_XSP16, literal(-1)))
        CFI (cfiCond67) CFA_SP SP+0
        CFI (cfiCond67) CFA_XSP16 add(XSP16, 28)
        CFI Block cfiCond68 Using cfiCommon0
        CFI (cfiCond68) NoFunction
        CFI (cfiCond68) Conditional ??CrossCallReturnLabel_162, ??CrossCallReturnLabel_2
        CFI (cfiCond68) R6 load(1, XDATA, add(CFA_XSP16, literal(-24)))
        CFI (cfiCond68) VB load(1, XDATA, add(CFA_XSP16, literal(-23)))
        CFI (cfiCond68) V0 load(1, XDATA, add(CFA_XSP16, literal(-22)))
        CFI (cfiCond68) V1 load(1, XDATA, add(CFA_XSP16, literal(-21)))
        CFI (cfiCond68) V2 load(1, XDATA, add(CFA_XSP16, literal(-20)))
        CFI (cfiCond68) V3 load(1, XDATA, add(CFA_XSP16, literal(-19)))
        CFI (cfiCond68) V4 load(1, XDATA, add(CFA_XSP16, literal(-18)))
        CFI (cfiCond68) V5 load(1, XDATA, add(CFA_XSP16, literal(-17)))
        CFI (cfiCond68) V6 load(1, XDATA, add(CFA_XSP16, literal(-16)))
        CFI (cfiCond68) V7 load(1, XDATA, add(CFA_XSP16, literal(-15)))
        CFI (cfiCond68) V8 load(1, XDATA, add(CFA_XSP16, literal(-14)))
        CFI (cfiCond68) V9 load(1, XDATA, add(CFA_XSP16, literal(-13)))
        CFI (cfiCond68) V10 load(1, XDATA, add(CFA_XSP16, literal(-12)))
        CFI (cfiCond68) V11 load(1, XDATA, add(CFA_XSP16, literal(-11)))
        CFI (cfiCond68) V12 load(1, XDATA, add(CFA_XSP16, literal(-10)))
        CFI (cfiCond68) V13 load(1, XDATA, add(CFA_XSP16, literal(-9)))
        CFI (cfiCond68) V14 load(1, XDATA, add(CFA_XSP16, literal(-8)))
        CFI (cfiCond68) V15 load(1, XDATA, add(CFA_XSP16, literal(-7)))
        CFI (cfiCond68) R7 load(1, XDATA, add(CFA_XSP16, literal(-6)))
        CFI (cfiCond68) ?RET_LOW load(1, XDATA, add(CFA_XSP16, literal(-5)))
        CFI (cfiCond68) ?RET_HIGH load(1, XDATA, add(CFA_XSP16, literal(-4)))
        CFI (cfiCond68) ?BRET_EXT load(1, XDATA, add(CFA_XSP16, literal(-3)))
        CFI (cfiCond68) DPL0 load(1, XDATA, add(CFA_XSP16, literal(-2)))
        CFI (cfiCond68) DPH0 load(1, XDATA, add(CFA_XSP16, literal(-1)))
        CFI (cfiCond68) CFA_SP SP+0
        CFI (cfiCond68) CFA_XSP16 add(XSP16, 28)
        CFI Block cfiCond69 Using cfiCommon0
        CFI (cfiCond69) NoFunction
        CFI (cfiCond69) Conditional ??CrossCallReturnLabel_162, ??CrossCallReturnLabel_3
        CFI (cfiCond69) R6 load(1, XDATA, add(CFA_XSP16, literal(-24)))
        CFI (cfiCond69) VB load(1, XDATA, add(CFA_XSP16, literal(-23)))
        CFI (cfiCond69) V0 load(1, XDATA, add(CFA_XSP16, literal(-22)))
        CFI (cfiCond69) V1 load(1, XDATA, add(CFA_XSP16, literal(-21)))
        CFI (cfiCond69) V2 load(1, XDATA, add(CFA_XSP16, literal(-20)))
        CFI (cfiCond69) V3 load(1, XDATA, add(CFA_XSP16, literal(-19)))
        CFI (cfiCond69) V4 load(1, XDATA, add(CFA_XSP16, literal(-18)))
        CFI (cfiCond69) V5 load(1, XDATA, add(CFA_XSP16, literal(-17)))
        CFI (cfiCond69) V6 load(1, XDATA, add(CFA_XSP16, literal(-16)))
        CFI (cfiCond69) V7 load(1, XDATA, add(CFA_XSP16, literal(-15)))
        CFI (cfiCond69) V8 load(1, XDATA, add(CFA_XSP16, literal(-14)))
        CFI (cfiCond69) V9 load(1, XDATA, add(CFA_XSP16, literal(-13)))
        CFI (cfiCond69) V10 load(1, XDATA, add(CFA_XSP16, literal(-12)))
        CFI (cfiCond69) V11 load(1, XDATA, add(CFA_XSP16, literal(-11)))
        CFI (cfiCond69) V12 load(1, XDATA, add(CFA_XSP16, literal(-10)))
        CFI (cfiCond69) V13 load(1, XDATA, add(CFA_XSP16, literal(-9)))
        CFI (cfiCond69) V14 load(1, XDATA, add(CFA_XSP16, literal(-8)))
        CFI (cfiCond69) V15 load(1, XDATA, add(CFA_XSP16, literal(-7)))
        CFI (cfiCond69) R7 load(1, XDATA, add(CFA_XSP16, literal(-6)))
        CFI (cfiCond69) ?RET_LOW load(1, XDATA, add(CFA_XSP16, literal(-5)))
        CFI (cfiCond69) ?RET_HIGH load(1, XDATA, add(CFA_XSP16, literal(-4)))
        CFI (cfiCond69) ?BRET_EXT load(1, XDATA, add(CFA_XSP16, literal(-3)))
        CFI (cfiCond69) DPL0 load(1, XDATA, add(CFA_XSP16, literal(-2)))
        CFI (cfiCond69) DPH0 load(1, XDATA, add(CFA_XSP16, literal(-1)))
        CFI (cfiCond69) CFA_SP SP+0
        CFI (cfiCond69) CFA_XSP16 add(XSP16, 28)
        CFI Block cfiCond70 Using cfiCommon0
        CFI (cfiCond70) NoFunction
        CFI (cfiCond70) Conditional ??CrossCallReturnLabel_160
        CFI (cfiCond70) R6 load(1, XDATA, add(CFA_XSP16, literal(-22)))
        CFI (cfiCond70) VB load(1, XDATA, add(CFA_XSP16, literal(-21)))
        CFI (cfiCond70) V0 load(1, XDATA, add(CFA_XSP16, literal(-20)))
        CFI (cfiCond70) V1 load(1, XDATA, add(CFA_XSP16, literal(-19)))
        CFI (cfiCond70) V2 load(1, XDATA, add(CFA_XSP16, literal(-18)))
        CFI (cfiCond70) V3 load(1, XDATA, add(CFA_XSP16, literal(-17)))
        CFI (cfiCond70) V4 load(1, XDATA, add(CFA_XSP16, literal(-16)))
        CFI (cfiCond70) V5 load(1, XDATA, add(CFA_XSP16, literal(-15)))
        CFI (cfiCond70) V6 load(1, XDATA, add(CFA_XSP16, literal(-14)))
        CFI (cfiCond70) V7 load(1, XDATA, add(CFA_XSP16, literal(-13)))
        CFI (cfiCond70) V8 load(1, XDATA, add(CFA_XSP16, literal(-12)))
        CFI (cfiCond70) V9 load(1, XDATA, add(CFA_XSP16, literal(-11)))
        CFI (cfiCond70) V10 load(1, XDATA, add(CFA_XSP16, literal(-10)))
        CFI (cfiCond70) V11 load(1, XDATA, add(CFA_XSP16, literal(-9)))
        CFI (cfiCond70) V12 load(1, XDATA, add(CFA_XSP16, literal(-8)))
        CFI (cfiCond70) V13 load(1, XDATA, add(CFA_XSP16, literal(-7)))
        CFI (cfiCond70) R7 load(1, XDATA, add(CFA_XSP16, literal(-6)))
        CFI (cfiCond70) ?RET_LOW load(1, XDATA, add(CFA_XSP16, literal(-5)))
        CFI (cfiCond70) ?RET_HIGH load(1, XDATA, add(CFA_XSP16, literal(-4)))
        CFI (cfiCond70) ?BRET_EXT load(1, XDATA, add(CFA_XSP16, literal(-3)))
        CFI (cfiCond70) DPL0 load(1, XDATA, add(CFA_XSP16, literal(-2)))
        CFI (cfiCond70) DPH0 load(1, XDATA, add(CFA_XSP16, literal(-1)))
        CFI (cfiCond70) CFA_SP SP+0
        CFI (cfiCond70) CFA_XSP16 add(XSP16, 22)
        CFI Block cfiCond71 Using cfiCommon0
        CFI (cfiCond71) NoFunction
        CFI (cfiCond71) Conditional ??CrossCallReturnLabel_161
        CFI (cfiCond71) R6 load(1, XDATA, add(CFA_XSP16, literal(-22)))
        CFI (cfiCond71) VB load(1, XDATA, add(CFA_XSP16, literal(-21)))
        CFI (cfiCond71) V0 load(1, XDATA, add(CFA_XSP16, literal(-20)))
        CFI (cfiCond71) V1 load(1, XDATA, add(CFA_XSP16, literal(-19)))
        CFI (cfiCond71) V2 load(1, XDATA, add(CFA_XSP16, literal(-18)))
        CFI (cfiCond71) V3 load(1, XDATA, add(CFA_XSP16, literal(-17)))
        CFI (cfiCond71) V4 load(1, XDATA, add(CFA_XSP16, literal(-16)))
        CFI (cfiCond71) V5 load(1, XDATA, add(CFA_XSP16, literal(-15)))
        CFI (cfiCond71) V6 load(1, XDATA, add(CFA_XSP16, literal(-14)))
        CFI (cfiCond71) V7 load(1, XDATA, add(CFA_XSP16, literal(-13)))
        CFI (cfiCond71) V8 load(1, XDATA, add(CFA_XSP16, literal(-12)))
        CFI (cfiCond71) V9 load(1, XDATA, add(CFA_XSP16, literal(-11)))
        CFI (cfiCond71) V10 load(1, XDATA, add(CFA_XSP16, literal(-10)))
        CFI (cfiCond71) V11 load(1, XDATA, add(CFA_XSP16, literal(-9)))
        CFI (cfiCond71) V12 load(1, XDATA, add(CFA_XSP16, literal(-8)))
        CFI (cfiCond71) V13 load(1, XDATA, add(CFA_XSP16, literal(-7)))
        CFI (cfiCond71) R7 load(1, XDATA, add(CFA_XSP16, literal(-6)))
        CFI (cfiCond71) ?RET_LOW load(1, XDATA, add(CFA_XSP16, literal(-5)))
        CFI (cfiCond71) ?RET_HIGH load(1, XDATA, add(CFA_XSP16, literal(-4)))
        CFI (cfiCond71) ?BRET_EXT load(1, XDATA, add(CFA_XSP16, literal(-3)))
        CFI (cfiCond71) DPL0 load(1, XDATA, add(CFA_XSP16, literal(-2)))
        CFI (cfiCond71) DPH0 load(1, XDATA, add(CFA_XSP16, literal(-1)))
        CFI (cfiCond71) CFA_SP SP+0
        CFI (cfiCond71) CFA_XSP16 add(XSP16, 22)
        CFI Block cfiPicker72 Using cfiCommon1
        CFI (cfiPicker72) NoFunction
        CFI (cfiPicker72) Picker
        MOV     R0,DPL
        MOV     R1,DPH
        RET
        CFI EndBlock cfiCond66
        CFI EndBlock cfiCond67
        CFI EndBlock cfiCond68
        CFI EndBlock cfiCond69
        CFI EndBlock cfiCond70
        CFI EndBlock cfiCond71
        CFI EndBlock cfiPicker72

        RSEG BANKED_CODE:CODE:NOROOT(0)
?Subroutine65:
        CFI Block cfiCond73 Using cfiCommon0
        CFI NoFunction
        CFI Conditional ??CrossCallReturnLabel_89
        CFI R6 load(1, XDATA, add(CFA_XSP16, literal(-24)))
        CFI VB load(1, XDATA, add(CFA_XSP16, literal(-23)))
        CFI V0 load(1, XDATA, add(CFA_XSP16, literal(-22)))
        CFI V1 load(1, XDATA, add(CFA_XSP16, literal(-21)))
        CFI V2 load(1, XDATA, add(CFA_XSP16, literal(-20)))
        CFI V3 load(1, XDATA, add(CFA_XSP16, literal(-19)))
        CFI V4 load(1, XDATA, add(CFA_XSP16, literal(-18)))
        CFI V5 load(1, XDATA, add(CFA_XSP16, literal(-17)))
        CFI V6 load(1, XDATA, add(CFA_XSP16, literal(-16)))
        CFI V7 load(1, XDATA, add(CFA_XSP16, literal(-15)))
        CFI V8 load(1, XDATA, add(CFA_XSP16, literal(-14)))
        CFI V9 load(1, XDATA, add(CFA_XSP16, literal(-13)))
        CFI V10 load(1, XDATA, add(CFA_XSP16, literal(-12)))
        CFI V11 load(1, XDATA, add(CFA_XSP16, literal(-11)))
        CFI V12 load(1, XDATA, add(CFA_XSP16, literal(-10)))
        CFI V13 load(1, XDATA, add(CFA_XSP16, literal(-9)))
        CFI V14 load(1, XDATA, add(CFA_XSP16, literal(-8)))
        CFI V15 load(1, XDATA, add(CFA_XSP16, literal(-7)))
        CFI R7 load(1, XDATA, add(CFA_XSP16, literal(-6)))
        CFI ?RET_LOW load(1, XDATA, add(CFA_XSP16, literal(-5)))
        CFI ?RET_HIGH load(1, XDATA, add(CFA_XSP16, literal(-4)))
        CFI ?BRET_EXT load(1, XDATA, add(CFA_XSP16, literal(-3)))
        CFI DPL0 load(1, XDATA, add(CFA_XSP16, literal(-2)))
        CFI DPH0 load(1, XDATA, add(CFA_XSP16, literal(-1)))
        CFI CFA_SP SP+0
        CFI CFA_XSP16 add(XSP16, 28)
        CFI Block cfiCond74 Using cfiCommon0
        CFI (cfiCond74) NoFunction
        CFI (cfiCond74) Conditional ??CrossCallReturnLabel_90
        CFI (cfiCond74) R6 load(1, XDATA, add(CFA_XSP16, literal(-24)))
        CFI (cfiCond74) VB load(1, XDATA, add(CFA_XSP16, literal(-23)))
        CFI (cfiCond74) V0 load(1, XDATA, add(CFA_XSP16, literal(-22)))
        CFI (cfiCond74) V1 load(1, XDATA, add(CFA_XSP16, literal(-21)))
        CFI (cfiCond74) V2 load(1, XDATA, add(CFA_XSP16, literal(-20)))
        CFI (cfiCond74) V3 load(1, XDATA, add(CFA_XSP16, literal(-19)))
        CFI (cfiCond74) V4 load(1, XDATA, add(CFA_XSP16, literal(-18)))
        CFI (cfiCond74) V5 load(1, XDATA, add(CFA_XSP16, literal(-17)))
        CFI (cfiCond74) V6 load(1, XDATA, add(CFA_XSP16, literal(-16)))
        CFI (cfiCond74) V7 load(1, XDATA, add(CFA_XSP16, literal(-15)))
        CFI (cfiCond74) V8 load(1, XDATA, add(CFA_XSP16, literal(-14)))
        CFI (cfiCond74) V9 load(1, XDATA, add(CFA_XSP16, literal(-13)))
        CFI (cfiCond74) V10 load(1, XDATA, add(CFA_XSP16, literal(-12)))
        CFI (cfiCond74) V11 load(1, XDATA, add(CFA_XSP16, literal(-11)))
        CFI (cfiCond74) V12 load(1, XDATA, add(CFA_XSP16, literal(-10)))
        CFI (cfiCond74) V13 load(1, XDATA, add(CFA_XSP16, literal(-9)))
        CFI (cfiCond74) V14 load(1, XDATA, add(CFA_XSP16, literal(-8)))
        CFI (cfiCond74) V15 load(1, XDATA, add(CFA_XSP16, literal(-7)))
        CFI (cfiCond74) R7 load(1, XDATA, add(CFA_XSP16, literal(-6)))
        CFI (cfiCond74) ?RET_LOW load(1, XDATA, add(CFA_XSP16, literal(-5)))
        CFI (cfiCond74) ?RET_HIGH load(1, XDATA, add(CFA_XSP16, literal(-4)))
        CFI (cfiCond74) ?BRET_EXT load(1, XDATA, add(CFA_XSP16, literal(-3)))
        CFI (cfiCond74) DPL0 load(1, XDATA, add(CFA_XSP16, literal(-2)))
        CFI (cfiCond74) DPH0 load(1, XDATA, add(CFA_XSP16, literal(-1)))
        CFI (cfiCond74) CFA_SP SP+0
        CFI (cfiCond74) CFA_XSP16 add(XSP16, 28)
        CFI Block cfiPicker75 Using cfiCommon1
        CFI (cfiPicker75) NoFunction
        CFI (cfiPicker75) Picker
        MOV     DPL,R6
        MOV     ?V0 + 0,DPL
        MOV     ?V0 + 1,#0x0
        ; Setup parameters for call to function osal_mem_alloc
        ; Setup parameters for call to function osal_mem_alloc
        MOV     R2,?V0 + 0
        MOV     R3,#0x0
        LCALL   ??osal_mem_alloc?relay
        MOV     ?V0 + 6,R2
        MOV     ?V0 + 7,R3
        MOV     A,R2
        RET
        CFI EndBlock cfiCond73
        CFI EndBlock cfiCond74
        CFI EndBlock cfiPicker75

        RSEG BANKED_CODE:CODE:NOROOT(0)
?Subroutine58:
        CFI Block cfiCond76 Using cfiCommon0
        CFI NoFunction
        CFI Conditional ??CrossCallReturnLabel_81
        CFI R6 load(1, XDATA, add(CFA_XSP16, literal(-24)))
        CFI VB load(1, XDATA, add(CFA_XSP16, literal(-23)))
        CFI V0 load(1, XDATA, add(CFA_XSP16, literal(-22)))
        CFI V1 load(1, XDATA, add(CFA_XSP16, literal(-21)))
        CFI V2 load(1, XDATA, add(CFA_XSP16, literal(-20)))
        CFI V3 load(1, XDATA, add(CFA_XSP16, literal(-19)))
        CFI V4 load(1, XDATA, add(CFA_XSP16, literal(-18)))
        CFI V5 load(1, XDATA, add(CFA_XSP16, literal(-17)))
        CFI V6 load(1, XDATA, add(CFA_XSP16, literal(-16)))
        CFI V7 load(1, XDATA, add(CFA_XSP16, literal(-15)))
        CFI V8 load(1, XDATA, add(CFA_XSP16, literal(-14)))
        CFI V9 load(1, XDATA, add(CFA_XSP16, literal(-13)))
        CFI V10 load(1, XDATA, add(CFA_XSP16, literal(-12)))
        CFI V11 load(1, XDATA, add(CFA_XSP16, literal(-11)))
        CFI V12 load(1, XDATA, add(CFA_XSP16, literal(-10)))
        CFI V13 load(1, XDATA, add(CFA_XSP16, literal(-9)))
        CFI V14 load(1, XDATA, add(CFA_XSP16, literal(-8)))
        CFI V15 load(1, XDATA, add(CFA_XSP16, literal(-7)))
        CFI R7 load(1, XDATA, add(CFA_XSP16, literal(-6)))
        CFI ?RET_LOW load(1, XDATA, add(CFA_XSP16, literal(-5)))
        CFI ?RET_HIGH load(1, XDATA, add(CFA_XSP16, literal(-4)))
        CFI ?BRET_EXT load(1, XDATA, add(CFA_XSP16, literal(-3)))
        CFI DPL0 load(1, XDATA, add(CFA_XSP16, literal(-2)))
        CFI DPH0 load(1, XDATA, add(CFA_XSP16, literal(-1)))
        CFI CFA_SP SP+0
        CFI CFA_XSP16 add(XSP16, 28)
        CFI Block cfiCond77 Using cfiCommon0
        CFI (cfiCond77) NoFunction
        CFI (cfiCond77) Conditional ??CrossCallReturnLabel_82
        CFI (cfiCond77) R6 load(1, XDATA, add(CFA_XSP16, literal(-24)))
        CFI (cfiCond77) VB load(1, XDATA, add(CFA_XSP16, literal(-23)))
        CFI (cfiCond77) V0 load(1, XDATA, add(CFA_XSP16, literal(-22)))
        CFI (cfiCond77) V1 load(1, XDATA, add(CFA_XSP16, literal(-21)))
        CFI (cfiCond77) V2 load(1, XDATA, add(CFA_XSP16, literal(-20)))
        CFI (cfiCond77) V3 load(1, XDATA, add(CFA_XSP16, literal(-19)))
        CFI (cfiCond77) V4 load(1, XDATA, add(CFA_XSP16, literal(-18)))
        CFI (cfiCond77) V5 load(1, XDATA, add(CFA_XSP16, literal(-17)))
        CFI (cfiCond77) V6 load(1, XDATA, add(CFA_XSP16, literal(-16)))
        CFI (cfiCond77) V7 load(1, XDATA, add(CFA_XSP16, literal(-15)))
        CFI (cfiCond77) V8 load(1, XDATA, add(CFA_XSP16, literal(-14)))
        CFI (cfiCond77) V9 load(1, XDATA, add(CFA_XSP16, literal(-13)))
        CFI (cfiCond77) V10 load(1, XDATA, add(CFA_XSP16, literal(-12)))
        CFI (cfiCond77) V11 load(1, XDATA, add(CFA_XSP16, literal(-11)))
        CFI (cfiCond77) V12 load(1, XDATA, add(CFA_XSP16, literal(-10)))
        CFI (cfiCond77) V13 load(1, XDATA, add(CFA_XSP16, literal(-9)))
        CFI (cfiCond77) V14 load(1, XDATA, add(CFA_XSP16, literal(-8)))
        CFI (cfiCond77) V15 load(1, XDATA, add(CFA_XSP16, literal(-7)))
        CFI (cfiCond77) R7 load(1, XDATA, add(CFA_XSP16, literal(-6)))
        CFI (cfiCond77) ?RET_LOW load(1, XDATA, add(CFA_XSP16, literal(-5)))
        CFI (cfiCond77) ?RET_HIGH load(1, XDATA, add(CFA_XSP16, literal(-4)))
        CFI (cfiCond77) ?BRET_EXT load(1, XDATA, add(CFA_XSP16, literal(-3)))
        CFI (cfiCond77) DPL0 load(1, XDATA, add(CFA_XSP16, literal(-2)))
        CFI (cfiCond77) DPH0 load(1, XDATA, add(CFA_XSP16, literal(-1)))
        CFI (cfiCond77) CFA_SP SP+0
        CFI (cfiCond77) CFA_XSP16 add(XSP16, 28)
        CFI Block cfiPicker78 Using cfiCommon1
        CFI (cfiPicker78) NoFunction
        CFI (cfiPicker78) Picker
        MOVX    A,@DPTR
        MOV     ?V0 + 2,A
        INC     DPTR
        MOVX    A,@DPTR
        MOV     ?V0 + 3,A
        MOV     A,#0x1e
        RET
        CFI EndBlock cfiCond76
        CFI EndBlock cfiCond77
        CFI EndBlock cfiPicker78

        RSEG BANKED_CODE:CODE:NOROOT(0)
?Subroutine45:
        CFI Block cfiCond79 Using cfiCommon0
        CFI NoFunction
        CFI Conditional ??CrossCallReturnLabel_59
        CFI R6 load(1, XDATA, add(CFA_XSP16, literal(-24)))
        CFI VB load(1, XDATA, add(CFA_XSP16, literal(-23)))
        CFI V0 load(1, XDATA, add(CFA_XSP16, literal(-22)))
        CFI V1 load(1, XDATA, add(CFA_XSP16, literal(-21)))
        CFI V2 load(1, XDATA, add(CFA_XSP16, literal(-20)))
        CFI V3 load(1, XDATA, add(CFA_XSP16, literal(-19)))
        CFI V4 load(1, XDATA, add(CFA_XSP16, literal(-18)))
        CFI V5 load(1, XDATA, add(CFA_XSP16, literal(-17)))
        CFI V6 load(1, XDATA, add(CFA_XSP16, literal(-16)))
        CFI V7 load(1, XDATA, add(CFA_XSP16, literal(-15)))
        CFI V8 load(1, XDATA, add(CFA_XSP16, literal(-14)))
        CFI V9 load(1, XDATA, add(CFA_XSP16, literal(-13)))
        CFI V10 load(1, XDATA, add(CFA_XSP16, literal(-12)))
        CFI V11 load(1, XDATA, add(CFA_XSP16, literal(-11)))
        CFI V12 load(1, XDATA, add(CFA_XSP16, literal(-10)))
        CFI V13 load(1, XDATA, add(CFA_XSP16, literal(-9)))
        CFI V14 load(1, XDATA, add(CFA_XSP16, literal(-8)))
        CFI V15 load(1, XDATA, add(CFA_XSP16, literal(-7)))
        CFI R7 load(1, XDATA, add(CFA_XSP16, literal(-6)))
        CFI ?RET_LOW load(1, XDATA, add(CFA_XSP16, literal(-5)))
        CFI ?RET_HIGH load(1, XDATA, add(CFA_XSP16, literal(-4)))
        CFI ?BRET_EXT load(1, XDATA, add(CFA_XSP16, literal(-3)))
        CFI DPL0 load(1, XDATA, add(CFA_XSP16, literal(-2)))
        CFI DPH0 load(1, XDATA, add(CFA_XSP16, literal(-1)))
        CFI CFA_SP SP+0
        CFI CFA_XSP16 add(XSP16, 28)
        CFI Block cfiCond80 Using cfiCommon0
        CFI (cfiCond80) NoFunction
        CFI (cfiCond80) Conditional ??CrossCallReturnLabel_60
        CFI (cfiCond80) R6 load(1, XDATA, add(CFA_XSP16, literal(-24)))
        CFI (cfiCond80) VB load(1, XDATA, add(CFA_XSP16, literal(-23)))
        CFI (cfiCond80) V0 load(1, XDATA, add(CFA_XSP16, literal(-22)))
        CFI (cfiCond80) V1 load(1, XDATA, add(CFA_XSP16, literal(-21)))
        CFI (cfiCond80) V2 load(1, XDATA, add(CFA_XSP16, literal(-20)))
        CFI (cfiCond80) V3 load(1, XDATA, add(CFA_XSP16, literal(-19)))
        CFI (cfiCond80) V4 load(1, XDATA, add(CFA_XSP16, literal(-18)))
        CFI (cfiCond80) V5 load(1, XDATA, add(CFA_XSP16, literal(-17)))
        CFI (cfiCond80) V6 load(1, XDATA, add(CFA_XSP16, literal(-16)))
        CFI (cfiCond80) V7 load(1, XDATA, add(CFA_XSP16, literal(-15)))
        CFI (cfiCond80) V8 load(1, XDATA, add(CFA_XSP16, literal(-14)))
        CFI (cfiCond80) V9 load(1, XDATA, add(CFA_XSP16, literal(-13)))
        CFI (cfiCond80) V10 load(1, XDATA, add(CFA_XSP16, literal(-12)))
        CFI (cfiCond80) V11 load(1, XDATA, add(CFA_XSP16, literal(-11)))
        CFI (cfiCond80) V12 load(1, XDATA, add(CFA_XSP16, literal(-10)))
        CFI (cfiCond80) V13 load(1, XDATA, add(CFA_XSP16, literal(-9)))
        CFI (cfiCond80) V14 load(1, XDATA, add(CFA_XSP16, literal(-8)))
        CFI (cfiCond80) V15 load(1, XDATA, add(CFA_XSP16, literal(-7)))
        CFI (cfiCond80) R7 load(1, XDATA, add(CFA_XSP16, literal(-6)))
        CFI (cfiCond80) ?RET_LOW load(1, XDATA, add(CFA_XSP16, literal(-5)))
        CFI (cfiCond80) ?RET_HIGH load(1, XDATA, add(CFA_XSP16, literal(-4)))
        CFI (cfiCond80) ?BRET_EXT load(1, XDATA, add(CFA_XSP16, literal(-3)))
        CFI (cfiCond80) DPL0 load(1, XDATA, add(CFA_XSP16, literal(-2)))
        CFI (cfiCond80) DPH0 load(1, XDATA, add(CFA_XSP16, literal(-1)))
        CFI (cfiCond80) CFA_SP SP+0
        CFI (cfiCond80) CFA_XSP16 add(XSP16, 28)
        CFI Block cfiPicker81 Using cfiCommon1
        CFI (cfiPicker81) NoFunction
        CFI (cfiPicker81) Picker
        MOV     ?V0 + 12,A
        MOV     A,R1
        ADDC    A,#0x0
        MOV     ?V0 + 13,A
        MOV     DPL,?V0 + 12
        MOV     DPH,A
        LCALL   ?Subroutine84 & 0xFFFF
??CrossCallReturnLabel_116:
        RET
        CFI EndBlock cfiCond79
        CFI EndBlock cfiCond80
        CFI EndBlock cfiPicker81

        RSEG BANKED_CODE:CODE:NOROOT(0)
?Subroutine84:
        CFI Block cfiCond82 Using cfiCommon0
        CFI NoFunction
        CFI Conditional ??CrossCallReturnLabel_116, ??CrossCallReturnLabel_59
        CFI R6 load(1, XDATA, add(CFA_XSP16, literal(-24)))
        CFI VB load(1, XDATA, add(CFA_XSP16, literal(-23)))
        CFI V0 load(1, XDATA, add(CFA_XSP16, literal(-22)))
        CFI V1 load(1, XDATA, add(CFA_XSP16, literal(-21)))
        CFI V2 load(1, XDATA, add(CFA_XSP16, literal(-20)))
        CFI V3 load(1, XDATA, add(CFA_XSP16, literal(-19)))
        CFI V4 load(1, XDATA, add(CFA_XSP16, literal(-18)))
        CFI V5 load(1, XDATA, add(CFA_XSP16, literal(-17)))
        CFI V6 load(1, XDATA, add(CFA_XSP16, literal(-16)))
        CFI V7 load(1, XDATA, add(CFA_XSP16, literal(-15)))
        CFI V8 load(1, XDATA, add(CFA_XSP16, literal(-14)))
        CFI V9 load(1, XDATA, add(CFA_XSP16, literal(-13)))
        CFI V10 load(1, XDATA, add(CFA_XSP16, literal(-12)))
        CFI V11 load(1, XDATA, add(CFA_XSP16, literal(-11)))
        CFI V12 load(1, XDATA, add(CFA_XSP16, literal(-10)))
        CFI V13 load(1, XDATA, add(CFA_XSP16, literal(-9)))
        CFI V14 load(1, XDATA, add(CFA_XSP16, literal(-8)))
        CFI V15 load(1, XDATA, add(CFA_XSP16, literal(-7)))
        CFI R7 load(1, XDATA, add(CFA_XSP16, literal(-6)))
        CFI ?RET_LOW load(1, XDATA, add(CFA_XSP16, literal(-5)))
        CFI ?RET_HIGH load(1, XDATA, add(CFA_XSP16, literal(-4)))
        CFI ?BRET_EXT load(1, XDATA, add(CFA_XSP16, literal(-3)))
        CFI DPL0 load(1, XDATA, add(CFA_XSP16, literal(-2)))
        CFI DPH0 load(1, XDATA, add(CFA_XSP16, literal(-1)))
        CFI CFA_SP SP+0
        CFI CFA_XSP16 add(XSP16, 28)
        CFI Block cfiCond83 Using cfiCommon0
        CFI (cfiCond83) NoFunction
        CFI (cfiCond83) Conditional ??CrossCallReturnLabel_116, ??CrossCallReturnLabel_60
        CFI (cfiCond83) R6 load(1, XDATA, add(CFA_XSP16, literal(-24)))
        CFI (cfiCond83) VB load(1, XDATA, add(CFA_XSP16, literal(-23)))
        CFI (cfiCond83) V0 load(1, XDATA, add(CFA_XSP16, literal(-22)))
        CFI (cfiCond83) V1 load(1, XDATA, add(CFA_XSP16, literal(-21)))
        CFI (cfiCond83) V2 load(1, XDATA, add(CFA_XSP16, literal(-20)))
        CFI (cfiCond83) V3 load(1, XDATA, add(CFA_XSP16, literal(-19)))
        CFI (cfiCond83) V4 load(1, XDATA, add(CFA_XSP16, literal(-18)))
        CFI (cfiCond83) V5 load(1, XDATA, add(CFA_XSP16, literal(-17)))
        CFI (cfiCond83) V6 load(1, XDATA, add(CFA_XSP16, literal(-16)))
        CFI (cfiCond83) V7 load(1, XDATA, add(CFA_XSP16, literal(-15)))
        CFI (cfiCond83) V8 load(1, XDATA, add(CFA_XSP16, literal(-14)))
        CFI (cfiCond83) V9 load(1, XDATA, add(CFA_XSP16, literal(-13)))
        CFI (cfiCond83) V10 load(1, XDATA, add(CFA_XSP16, literal(-12)))
        CFI (cfiCond83) V11 load(1, XDATA, add(CFA_XSP16, literal(-11)))
        CFI (cfiCond83) V12 load(1, XDATA, add(CFA_XSP16, literal(-10)))
        CFI (cfiCond83) V13 load(1, XDATA, add(CFA_XSP16, literal(-9)))
        CFI (cfiCond83) V14 load(1, XDATA, add(CFA_XSP16, literal(-8)))
        CFI (cfiCond83) V15 load(1, XDATA, add(CFA_XSP16, literal(-7)))
        CFI (cfiCond83) R7 load(1, XDATA, add(CFA_XSP16, literal(-6)))
        CFI (cfiCond83) ?RET_LOW load(1, XDATA, add(CFA_XSP16, literal(-5)))
        CFI (cfiCond83) ?RET_HIGH load(1, XDATA, add(CFA_XSP16, literal(-4)))
        CFI (cfiCond83) ?BRET_EXT load(1, XDATA, add(CFA_XSP16, literal(-3)))
        CFI (cfiCond83) DPL0 load(1, XDATA, add(CFA_XSP16, literal(-2)))
        CFI (cfiCond83) DPH0 load(1, XDATA, add(CFA_XSP16, literal(-1)))
        CFI (cfiCond83) CFA_SP SP+0
        CFI (cfiCond83) CFA_XSP16 add(XSP16, 28)
        CFI Block cfiCond84 Using cfiCommon0
        CFI (cfiCond84) NoFunction
        CFI (cfiCond84) Conditional ??CrossCallReturnLabel_117, ??CrossCallReturnLabel_2
        CFI (cfiCond84) R6 load(1, XDATA, add(CFA_XSP16, literal(-24)))
        CFI (cfiCond84) VB load(1, XDATA, add(CFA_XSP16, literal(-23)))
        CFI (cfiCond84) V0 load(1, XDATA, add(CFA_XSP16, literal(-22)))
        CFI (cfiCond84) V1 load(1, XDATA, add(CFA_XSP16, literal(-21)))
        CFI (cfiCond84) V2 load(1, XDATA, add(CFA_XSP16, literal(-20)))
        CFI (cfiCond84) V3 load(1, XDATA, add(CFA_XSP16, literal(-19)))
        CFI (cfiCond84) V4 load(1, XDATA, add(CFA_XSP16, literal(-18)))
        CFI (cfiCond84) V5 load(1, XDATA, add(CFA_XSP16, literal(-17)))
        CFI (cfiCond84) V6 load(1, XDATA, add(CFA_XSP16, literal(-16)))
        CFI (cfiCond84) V7 load(1, XDATA, add(CFA_XSP16, literal(-15)))
        CFI (cfiCond84) V8 load(1, XDATA, add(CFA_XSP16, literal(-14)))
        CFI (cfiCond84) V9 load(1, XDATA, add(CFA_XSP16, literal(-13)))
        CFI (cfiCond84) V10 load(1, XDATA, add(CFA_XSP16, literal(-12)))
        CFI (cfiCond84) V11 load(1, XDATA, add(CFA_XSP16, literal(-11)))
        CFI (cfiCond84) V12 load(1, XDATA, add(CFA_XSP16, literal(-10)))
        CFI (cfiCond84) V13 load(1, XDATA, add(CFA_XSP16, literal(-9)))
        CFI (cfiCond84) V14 load(1, XDATA, add(CFA_XSP16, literal(-8)))
        CFI (cfiCond84) V15 load(1, XDATA, add(CFA_XSP16, literal(-7)))
        CFI (cfiCond84) R7 load(1, XDATA, add(CFA_XSP16, literal(-6)))
        CFI (cfiCond84) ?RET_LOW load(1, XDATA, add(CFA_XSP16, literal(-5)))
        CFI (cfiCond84) ?RET_HIGH load(1, XDATA, add(CFA_XSP16, literal(-4)))
        CFI (cfiCond84) ?BRET_EXT load(1, XDATA, add(CFA_XSP16, literal(-3)))
        CFI (cfiCond84) DPL0 load(1, XDATA, add(CFA_XSP16, literal(-2)))
        CFI (cfiCond84) DPH0 load(1, XDATA, add(CFA_XSP16, literal(-1)))
        CFI (cfiCond84) CFA_SP SP+0
        CFI (cfiCond84) CFA_XSP16 add(XSP16, 28)
        CFI Block cfiCond85 Using cfiCommon0
        CFI (cfiCond85) NoFunction
        CFI (cfiCond85) Conditional ??CrossCallReturnLabel_117, ??CrossCallReturnLabel_3
        CFI (cfiCond85) R6 load(1, XDATA, add(CFA_XSP16, literal(-24)))
        CFI (cfiCond85) VB load(1, XDATA, add(CFA_XSP16, literal(-23)))
        CFI (cfiCond85) V0 load(1, XDATA, add(CFA_XSP16, literal(-22)))
        CFI (cfiCond85) V1 load(1, XDATA, add(CFA_XSP16, literal(-21)))
        CFI (cfiCond85) V2 load(1, XDATA, add(CFA_XSP16, literal(-20)))
        CFI (cfiCond85) V3 load(1, XDATA, add(CFA_XSP16, literal(-19)))
        CFI (cfiCond85) V4 load(1, XDATA, add(CFA_XSP16, literal(-18)))
        CFI (cfiCond85) V5 load(1, XDATA, add(CFA_XSP16, literal(-17)))
        CFI (cfiCond85) V6 load(1, XDATA, add(CFA_XSP16, literal(-16)))
        CFI (cfiCond85) V7 load(1, XDATA, add(CFA_XSP16, literal(-15)))
        CFI (cfiCond85) V8 load(1, XDATA, add(CFA_XSP16, literal(-14)))
        CFI (cfiCond85) V9 load(1, XDATA, add(CFA_XSP16, literal(-13)))
        CFI (cfiCond85) V10 load(1, XDATA, add(CFA_XSP16, literal(-12)))
        CFI (cfiCond85) V11 load(1, XDATA, add(CFA_XSP16, literal(-11)))
        CFI (cfiCond85) V12 load(1, XDATA, add(CFA_XSP16, literal(-10)))
        CFI (cfiCond85) V13 load(1, XDATA, add(CFA_XSP16, literal(-9)))
        CFI (cfiCond85) V14 load(1, XDATA, add(CFA_XSP16, literal(-8)))
        CFI (cfiCond85) V15 load(1, XDATA, add(CFA_XSP16, literal(-7)))
        CFI (cfiCond85) R7 load(1, XDATA, add(CFA_XSP16, literal(-6)))
        CFI (cfiCond85) ?RET_LOW load(1, XDATA, add(CFA_XSP16, literal(-5)))
        CFI (cfiCond85) ?RET_HIGH load(1, XDATA, add(CFA_XSP16, literal(-4)))
        CFI (cfiCond85) ?BRET_EXT load(1, XDATA, add(CFA_XSP16, literal(-3)))
        CFI (cfiCond85) DPL0 load(1, XDATA, add(CFA_XSP16, literal(-2)))
        CFI (cfiCond85) DPH0 load(1, XDATA, add(CFA_XSP16, literal(-1)))
        CFI (cfiCond85) CFA_SP SP+0
        CFI (cfiCond85) CFA_XSP16 add(XSP16, 28)
        CFI Block cfiPicker86 Using cfiCommon1
        CFI (cfiPicker86) NoFunction
        CFI (cfiPicker86) Picker
        LCALL   ?Subroutine99 & 0xFFFF
??CrossCallReturnLabel_134:
        MOV     A,R0
        RET
        CFI EndBlock cfiCond82
        CFI EndBlock cfiCond83
        CFI EndBlock cfiCond84
        CFI EndBlock cfiCond85
        CFI EndBlock cfiPicker86

        RSEG BANKED_CODE:CODE:NOROOT(0)
?Subroutine99:
        CFI Block cfiCond87 Using cfiCommon0
        CFI NoFunction
        CFI Conditional ??CrossCallReturnLabel_133
        CFI R6 load(1, XDATA, add(CFA_XSP16, literal(-24)))
        CFI VB load(1, XDATA, add(CFA_XSP16, literal(-23)))
        CFI V0 load(1, XDATA, add(CFA_XSP16, literal(-22)))
        CFI V1 load(1, XDATA, add(CFA_XSP16, literal(-21)))
        CFI V2 load(1, XDATA, add(CFA_XSP16, literal(-20)))
        CFI V3 load(1, XDATA, add(CFA_XSP16, literal(-19)))
        CFI V4 load(1, XDATA, add(CFA_XSP16, literal(-18)))
        CFI V5 load(1, XDATA, add(CFA_XSP16, literal(-17)))
        CFI V6 load(1, XDATA, add(CFA_XSP16, literal(-16)))
        CFI V7 load(1, XDATA, add(CFA_XSP16, literal(-15)))
        CFI V8 load(1, XDATA, add(CFA_XSP16, literal(-14)))
        CFI V9 load(1, XDATA, add(CFA_XSP16, literal(-13)))
        CFI V10 load(1, XDATA, add(CFA_XSP16, literal(-12)))
        CFI V11 load(1, XDATA, add(CFA_XSP16, literal(-11)))
        CFI V12 load(1, XDATA, add(CFA_XSP16, literal(-10)))
        CFI V13 load(1, XDATA, add(CFA_XSP16, literal(-9)))
        CFI V14 load(1, XDATA, add(CFA_XSP16, literal(-8)))
        CFI V15 load(1, XDATA, add(CFA_XSP16, literal(-7)))
        CFI R7 load(1, XDATA, add(CFA_XSP16, literal(-6)))
        CFI ?RET_LOW load(1, XDATA, add(CFA_XSP16, literal(-5)))
        CFI ?RET_HIGH load(1, XDATA, add(CFA_XSP16, literal(-4)))
        CFI ?BRET_EXT load(1, XDATA, add(CFA_XSP16, literal(-3)))
        CFI DPL0 load(1, XDATA, add(CFA_XSP16, literal(-2)))
        CFI DPH0 load(1, XDATA, add(CFA_XSP16, literal(-1)))
        CFI CFA_SP SP+0
        CFI CFA_XSP16 add(XSP16, 28)
        CFI Block cfiCond88 Using cfiCommon0
        CFI (cfiCond88) NoFunction
        CFI (cfiCond88) Conditional ??CrossCallReturnLabel_134, ??CrossCallReturnLabel_116, ??CrossCallReturnLabel_59
        CFI (cfiCond88) R6 load(1, XDATA, add(CFA_XSP16, literal(-24)))
        CFI (cfiCond88) VB load(1, XDATA, add(CFA_XSP16, literal(-23)))
        CFI (cfiCond88) V0 load(1, XDATA, add(CFA_XSP16, literal(-22)))
        CFI (cfiCond88) V1 load(1, XDATA, add(CFA_XSP16, literal(-21)))
        CFI (cfiCond88) V2 load(1, XDATA, add(CFA_XSP16, literal(-20)))
        CFI (cfiCond88) V3 load(1, XDATA, add(CFA_XSP16, literal(-19)))
        CFI (cfiCond88) V4 load(1, XDATA, add(CFA_XSP16, literal(-18)))
        CFI (cfiCond88) V5 load(1, XDATA, add(CFA_XSP16, literal(-17)))
        CFI (cfiCond88) V6 load(1, XDATA, add(CFA_XSP16, literal(-16)))
        CFI (cfiCond88) V7 load(1, XDATA, add(CFA_XSP16, literal(-15)))
        CFI (cfiCond88) V8 load(1, XDATA, add(CFA_XSP16, literal(-14)))
        CFI (cfiCond88) V9 load(1, XDATA, add(CFA_XSP16, literal(-13)))
        CFI (cfiCond88) V10 load(1, XDATA, add(CFA_XSP16, literal(-12)))
        CFI (cfiCond88) V11 load(1, XDATA, add(CFA_XSP16, literal(-11)))
        CFI (cfiCond88) V12 load(1, XDATA, add(CFA_XSP16, literal(-10)))
        CFI (cfiCond88) V13 load(1, XDATA, add(CFA_XSP16, literal(-9)))
        CFI (cfiCond88) V14 load(1, XDATA, add(CFA_XSP16, literal(-8)))
        CFI (cfiCond88) V15 load(1, XDATA, add(CFA_XSP16, literal(-7)))
        CFI (cfiCond88) R7 load(1, XDATA, add(CFA_XSP16, literal(-6)))
        CFI (cfiCond88) ?RET_LOW load(1, XDATA, add(CFA_XSP16, literal(-5)))
        CFI (cfiCond88) ?RET_HIGH load(1, XDATA, add(CFA_XSP16, literal(-4)))
        CFI (cfiCond88) ?BRET_EXT load(1, XDATA, add(CFA_XSP16, literal(-3)))
        CFI (cfiCond88) DPL0 load(1, XDATA, add(CFA_XSP16, literal(-2)))
        CFI (cfiCond88) DPH0 load(1, XDATA, add(CFA_XSP16, literal(-1)))
        CFI (cfiCond88) CFA_SP SP+0
        CFI (cfiCond88) CFA_XSP16 add(XSP16, 28)
        CFI Block cfiCond89 Using cfiCommon0
        CFI (cfiCond89) NoFunction
        CFI (cfiCond89) Conditional ??CrossCallReturnLabel_134, ??CrossCallReturnLabel_116, ??CrossCallReturnLabel_60
        CFI (cfiCond89) R6 load(1, XDATA, add(CFA_XSP16, literal(-24)))
        CFI (cfiCond89) VB load(1, XDATA, add(CFA_XSP16, literal(-23)))
        CFI (cfiCond89) V0 load(1, XDATA, add(CFA_XSP16, literal(-22)))
        CFI (cfiCond89) V1 load(1, XDATA, add(CFA_XSP16, literal(-21)))
        CFI (cfiCond89) V2 load(1, XDATA, add(CFA_XSP16, literal(-20)))
        CFI (cfiCond89) V3 load(1, XDATA, add(CFA_XSP16, literal(-19)))
        CFI (cfiCond89) V4 load(1, XDATA, add(CFA_XSP16, literal(-18)))
        CFI (cfiCond89) V5 load(1, XDATA, add(CFA_XSP16, literal(-17)))
        CFI (cfiCond89) V6 load(1, XDATA, add(CFA_XSP16, literal(-16)))
        CFI (cfiCond89) V7 load(1, XDATA, add(CFA_XSP16, literal(-15)))
        CFI (cfiCond89) V8 load(1, XDATA, add(CFA_XSP16, literal(-14)))
        CFI (cfiCond89) V9 load(1, XDATA, add(CFA_XSP16, literal(-13)))
        CFI (cfiCond89) V10 load(1, XDATA, add(CFA_XSP16, literal(-12)))
        CFI (cfiCond89) V11 load(1, XDATA, add(CFA_XSP16, literal(-11)))
        CFI (cfiCond89) V12 load(1, XDATA, add(CFA_XSP16, literal(-10)))
        CFI (cfiCond89) V13 load(1, XDATA, add(CFA_XSP16, literal(-9)))
        CFI (cfiCond89) V14 load(1, XDATA, add(CFA_XSP16, literal(-8)))
        CFI (cfiCond89) V15 load(1, XDATA, add(CFA_XSP16, literal(-7)))
        CFI (cfiCond89) R7 load(1, XDATA, add(CFA_XSP16, literal(-6)))
        CFI (cfiCond89) ?RET_LOW load(1, XDATA, add(CFA_XSP16, literal(-5)))
        CFI (cfiCond89) ?RET_HIGH load(1, XDATA, add(CFA_XSP16, literal(-4)))
        CFI (cfiCond89) ?BRET_EXT load(1, XDATA, add(CFA_XSP16, literal(-3)))
        CFI (cfiCond89) DPL0 load(1, XDATA, add(CFA_XSP16, literal(-2)))
        CFI (cfiCond89) DPH0 load(1, XDATA, add(CFA_XSP16, literal(-1)))
        CFI (cfiCond89) CFA_SP SP+0
        CFI (cfiCond89) CFA_XSP16 add(XSP16, 28)
        CFI Block cfiCond90 Using cfiCommon0
        CFI (cfiCond90) NoFunction
        CFI (cfiCond90) Conditional ??CrossCallReturnLabel_134, ??CrossCallReturnLabel_117, ??CrossCallReturnLabel_2
        CFI (cfiCond90) R6 load(1, XDATA, add(CFA_XSP16, literal(-24)))
        CFI (cfiCond90) VB load(1, XDATA, add(CFA_XSP16, literal(-23)))
        CFI (cfiCond90) V0 load(1, XDATA, add(CFA_XSP16, literal(-22)))
        CFI (cfiCond90) V1 load(1, XDATA, add(CFA_XSP16, literal(-21)))
        CFI (cfiCond90) V2 load(1, XDATA, add(CFA_XSP16, literal(-20)))
        CFI (cfiCond90) V3 load(1, XDATA, add(CFA_XSP16, literal(-19)))
        CFI (cfiCond90) V4 load(1, XDATA, add(CFA_XSP16, literal(-18)))
        CFI (cfiCond90) V5 load(1, XDATA, add(CFA_XSP16, literal(-17)))
        CFI (cfiCond90) V6 load(1, XDATA, add(CFA_XSP16, literal(-16)))
        CFI (cfiCond90) V7 load(1, XDATA, add(CFA_XSP16, literal(-15)))
        CFI (cfiCond90) V8 load(1, XDATA, add(CFA_XSP16, literal(-14)))
        CFI (cfiCond90) V9 load(1, XDATA, add(CFA_XSP16, literal(-13)))
        CFI (cfiCond90) V10 load(1, XDATA, add(CFA_XSP16, literal(-12)))
        CFI (cfiCond90) V11 load(1, XDATA, add(CFA_XSP16, literal(-11)))
        CFI (cfiCond90) V12 load(1, XDATA, add(CFA_XSP16, literal(-10)))
        CFI (cfiCond90) V13 load(1, XDATA, add(CFA_XSP16, literal(-9)))
        CFI (cfiCond90) V14 load(1, XDATA, add(CFA_XSP16, literal(-8)))
        CFI (cfiCond90) V15 load(1, XDATA, add(CFA_XSP16, literal(-7)))
        CFI (cfiCond90) R7 load(1, XDATA, add(CFA_XSP16, literal(-6)))
        CFI (cfiCond90) ?RET_LOW load(1, XDATA, add(CFA_XSP16, literal(-5)))
        CFI (cfiCond90) ?RET_HIGH load(1, XDATA, add(CFA_XSP16, literal(-4)))
        CFI (cfiCond90) ?BRET_EXT load(1, XDATA, add(CFA_XSP16, literal(-3)))
        CFI (cfiCond90) DPL0 load(1, XDATA, add(CFA_XSP16, literal(-2)))
        CFI (cfiCond90) DPH0 load(1, XDATA, add(CFA_XSP16, literal(-1)))
        CFI (cfiCond90) CFA_SP SP+0
        CFI (cfiCond90) CFA_XSP16 add(XSP16, 28)
        CFI Block cfiCond91 Using cfiCommon0
        CFI (cfiCond91) NoFunction
        CFI (cfiCond91) Conditional ??CrossCallReturnLabel_134, ??CrossCallReturnLabel_117, ??CrossCallReturnLabel_3
        CFI (cfiCond91) R6 load(1, XDATA, add(CFA_XSP16, literal(-24)))
        CFI (cfiCond91) VB load(1, XDATA, add(CFA_XSP16, literal(-23)))
        CFI (cfiCond91) V0 load(1, XDATA, add(CFA_XSP16, literal(-22)))
        CFI (cfiCond91) V1 load(1, XDATA, add(CFA_XSP16, literal(-21)))
        CFI (cfiCond91) V2 load(1, XDATA, add(CFA_XSP16, literal(-20)))
        CFI (cfiCond91) V3 load(1, XDATA, add(CFA_XSP16, literal(-19)))
        CFI (cfiCond91) V4 load(1, XDATA, add(CFA_XSP16, literal(-18)))
        CFI (cfiCond91) V5 load(1, XDATA, add(CFA_XSP16, literal(-17)))
        CFI (cfiCond91) V6 load(1, XDATA, add(CFA_XSP16, literal(-16)))
        CFI (cfiCond91) V7 load(1, XDATA, add(CFA_XSP16, literal(-15)))
        CFI (cfiCond91) V8 load(1, XDATA, add(CFA_XSP16, literal(-14)))
        CFI (cfiCond91) V9 load(1, XDATA, add(CFA_XSP16, literal(-13)))
        CFI (cfiCond91) V10 load(1, XDATA, add(CFA_XSP16, literal(-12)))
        CFI (cfiCond91) V11 load(1, XDATA, add(CFA_XSP16, literal(-11)))
        CFI (cfiCond91) V12 load(1, XDATA, add(CFA_XSP16, literal(-10)))
        CFI (cfiCond91) V13 load(1, XDATA, add(CFA_XSP16, literal(-9)))
        CFI (cfiCond91) V14 load(1, XDATA, add(CFA_XSP16, literal(-8)))
        CFI (cfiCond91) V15 load(1, XDATA, add(CFA_XSP16, literal(-7)))
        CFI (cfiCond91) R7 load(1, XDATA, add(CFA_XSP16, literal(-6)))
        CFI (cfiCond91) ?RET_LOW load(1, XDATA, add(CFA_XSP16, literal(-5)))
        CFI (cfiCond91) ?RET_HIGH load(1, XDATA, add(CFA_XSP16, literal(-4)))
        CFI (cfiCond91) ?BRET_EXT load(1, XDATA, add(CFA_XSP16, literal(-3)))
        CFI (cfiCond91) DPL0 load(1, XDATA, add(CFA_XSP16, literal(-2)))
        CFI (cfiCond91) DPH0 load(1, XDATA, add(CFA_XSP16, literal(-1)))
        CFI (cfiCond91) CFA_SP SP+0
        CFI (cfiCond91) CFA_XSP16 add(XSP16, 28)
        CFI Block cfiPicker92 Using cfiCommon1
        CFI (cfiPicker92) NoFunction
        CFI (cfiPicker92) Picker
        MOVX    A,@DPTR
        MOV     DPL,R6
        MOV     DPH,R7
        MOVX    @DPTR,A
        INC     DPTR
        INC     R6
        MOV     R7,DPH
        RET
        CFI EndBlock cfiCond87
        CFI EndBlock cfiCond88
        CFI EndBlock cfiCond89
        CFI EndBlock cfiCond90
        CFI EndBlock cfiCond91
        CFI EndBlock cfiPicker92

        RSEG BANKED_CODE:CODE:NOROOT(0)
?Subroutine43:
        CFI Block cfiCond93 Using cfiCommon0
        CFI NoFunction
        CFI Conditional ??CrossCallReturnLabel_55
        CFI R6 load(1, XDATA, add(CFA_XSP16, literal(-24)))
        CFI VB load(1, XDATA, add(CFA_XSP16, literal(-23)))
        CFI V0 load(1, XDATA, add(CFA_XSP16, literal(-22)))
        CFI V1 load(1, XDATA, add(CFA_XSP16, literal(-21)))
        CFI V2 load(1, XDATA, add(CFA_XSP16, literal(-20)))
        CFI V3 load(1, XDATA, add(CFA_XSP16, literal(-19)))
        CFI V4 load(1, XDATA, add(CFA_XSP16, literal(-18)))
        CFI V5 load(1, XDATA, add(CFA_XSP16, literal(-17)))
        CFI V6 load(1, XDATA, add(CFA_XSP16, literal(-16)))
        CFI V7 load(1, XDATA, add(CFA_XSP16, literal(-15)))
        CFI V8 load(1, XDATA, add(CFA_XSP16, literal(-14)))
        CFI V9 load(1, XDATA, add(CFA_XSP16, literal(-13)))
        CFI V10 load(1, XDATA, add(CFA_XSP16, literal(-12)))
        CFI V11 load(1, XDATA, add(CFA_XSP16, literal(-11)))
        CFI V12 load(1, XDATA, add(CFA_XSP16, literal(-10)))
        CFI V13 load(1, XDATA, add(CFA_XSP16, literal(-9)))
        CFI V14 load(1, XDATA, add(CFA_XSP16, literal(-8)))
        CFI V15 load(1, XDATA, add(CFA_XSP16, literal(-7)))
        CFI R7 load(1, XDATA, add(CFA_XSP16, literal(-6)))
        CFI ?RET_LOW load(1, XDATA, add(CFA_XSP16, literal(-5)))
        CFI ?RET_HIGH load(1, XDATA, add(CFA_XSP16, literal(-4)))
        CFI ?BRET_EXT load(1, XDATA, add(CFA_XSP16, literal(-3)))
        CFI DPL0 load(1, XDATA, add(CFA_XSP16, literal(-2)))
        CFI DPH0 load(1, XDATA, add(CFA_XSP16, literal(-1)))
        CFI CFA_SP SP+0
        CFI CFA_XSP16 add(XSP16, 28)
        CFI Block cfiCond94 Using cfiCommon0
        CFI (cfiCond94) NoFunction
        CFI (cfiCond94) Conditional ??CrossCallReturnLabel_56
        CFI (cfiCond94) R6 load(1, XDATA, add(CFA_XSP16, literal(-24)))
        CFI (cfiCond94) VB load(1, XDATA, add(CFA_XSP16, literal(-23)))
        CFI (cfiCond94) V0 load(1, XDATA, add(CFA_XSP16, literal(-22)))
        CFI (cfiCond94) V1 load(1, XDATA, add(CFA_XSP16, literal(-21)))
        CFI (cfiCond94) V2 load(1, XDATA, add(CFA_XSP16, literal(-20)))
        CFI (cfiCond94) V3 load(1, XDATA, add(CFA_XSP16, literal(-19)))
        CFI (cfiCond94) V4 load(1, XDATA, add(CFA_XSP16, literal(-18)))
        CFI (cfiCond94) V5 load(1, XDATA, add(CFA_XSP16, literal(-17)))
        CFI (cfiCond94) V6 load(1, XDATA, add(CFA_XSP16, literal(-16)))
        CFI (cfiCond94) V7 load(1, XDATA, add(CFA_XSP16, literal(-15)))
        CFI (cfiCond94) V8 load(1, XDATA, add(CFA_XSP16, literal(-14)))
        CFI (cfiCond94) V9 load(1, XDATA, add(CFA_XSP16, literal(-13)))
