###############################################################################
#                                                                             #
# IAR C/C++ Compiler V7.51A/W32 for 8051                21/Aug/2013  17:50:05 #
# Copyright 2004-2009 IAR Systems AB.                                         #
#                                                                             #
#    Core               =  plain                                              #
#    Code model         =  banked                                             #
#    Data model         =  large                                              #
#    Calling convention =  xdata reentrant                                    #
#    Constant location  =  data_rom                                           #
#    Dptr setup         =  1,16                                               #
#    Source file        =  D:\GitHub\z-stack\Sensor Network                   #
#                          Example\Components\stack\zcl\zcl.c                 #
#    Command line       =  -f "D:\GitHub\z-stack\Sensor Network               #
#                          Example\Projects\zstack\Sensor Network             #
#                          Application\ZIGBEE Endpoint &                      #
#                          Device\CC2530DB\..\..\..\Tools\CC2530DB\f8wEndev.c #
#                          fg" (-DCPU32MHZ -DROOT=__near_func -DBLINK_LEDS)   #
#                          -f "D:\GitHub\z-stack\Sensor Network               #
#                          Example\Projects\zstack\Sensor Network             #
#                          Application\ZIGBEE Endpoint &                      #
#                          Device\CC2530DB\..\..\..\Tools\CC2530DB\f8wConfig. #
#                          cfg" (-DSECURE=0 -DZG_SECURE_DYNAMIC=0             #
#                          -DREFLECTOR -DDEFAULT_CHANLIST=0x00000800          #
#                          -DZDAPP_CONFIG_PAN_ID=0xFFFF                       #
#                          -DNWK_START_DELAY=100 -DEXTENDED_JOINING_RANDOM_MA #
#                          SK=0x007F -DBEACON_REQUEST_DELAY=100               #
#                          -DBEACON_REQ_DELAY_MASK=0x00FF                     #
#                          -DROUTE_EXPIRY_TIME=30 -DAPSC_ACK_WAIT_DURATION_PO #
#                          LLED=3000 -DNWK_INDIRECT_MSG_TIMEOUT=7             #
#                          -DMAX_RREQ_ENTRIES=8 -DAPSC_MAX_FRAME_RETRIES=3    #
#                          -DNWK_MAX_DATA_RETRIES=2                           #
#                          -DMAX_POLL_FAILURE_RETRIES=2 -DMAX_BCAST=9         #
#                          -DAPS_MAX_GROUPS=16 -DMAX_RTG_ENTRIES=40           #
#                          -DNWK_MAX_BINDING_ENTRIES=4                        #
#                          -DMAX_BINDING_CLUSTER_IDS=4 "-DDEFAULT_KEY={0x01,  #
#                          0x03, 0x05, 0x07, 0x09, 0x0B, 0x0D, 0x0F, 0x00,    #
#                          0x02, 0x04, 0x06, 0x08, 0x0A, 0x0C, 0x0D}"         #
#                          -DMAC_MAX_FRAME_SIZE=116 "-DCONST=const __code"    #
#                          -DGENERIC=__generic -DRFD_RCVC_ALWAYS_ON=TRUE      #
#                          -DPOLL_RATE=1000 -DQUEUED_POLL_RATE=100            #
#                          -DRESPONSE_POLL_RATE=100 -DREJOIN_POLL_RATE=440)   #
#                          -f "D:\GitHub\z-stack\Sensor Network               #
#                          Example\Projects\zstack\Sensor Network             #
#                          Application\ZIGBEE Endpoint &                      #
#                          Device\CC2530DB\..\..\..\Tools\CC2530DB\f8wZCL.cfg #
#                          " (-DZCL_READ -DZCL_WRITE -DZCL_BASIC              #
#                          -DZCL_IDENTIFY -DZCL_ON_OFF -DZCL_KEY_ESTABLISH    #
#                          -DZCL_LOAD_CONTROL -DZCL_SIMPLE_METERING           #
#                          -DZCL_PRICING) -DZCL_MESSAGE                       #
#                          "D:\GitHub\z-stack\Sensor Network                  #
#                          Example\Components\stack\zcl\zcl.c" -D             #
#                          NWK_AUTO_POLL -D ZTOOL_P1 -D MT_TASK -D            #
#                          MT_APP_FUNC -D MT_SYS_FUNC -D MT_ZDO_FUNC -D       #
#                          LCD_SUPPORTED=DEBUG -D xPOWER_SAVING -D            #
#                          End_Device -D M140 -D xPA2591 -lC                  #
#                          "D:\GitHub\z-stack\Sensor Network                  #
#                          Example\Projects\zstack\Sensor Network             #
#                          Application\ZIGBEE Endpoint &                      #
#                          Device\CC2530DB\EndDeviceKB_M140\List\" -lA        #
#                          "D:\GitHub\z-stack\Sensor Network                  #
#                          Example\Projects\zstack\Sensor Network             #
#                          Application\ZIGBEE Endpoint &                      #
#                          Device\CC2530DB\EndDeviceKB_M140\List\"            #
#                          --diag_suppress Pe001,Pa010 -o                     #
#                          "D:\GitHub\z-stack\Sensor Network                  #
#                          Example\Projects\zstack\Sensor Network             #
#                          Application\ZIGBEE Endpoint &                      #
#                          Device\CC2530DB\EndDeviceKB_M140\Obj\" -e          #
#                          --require_prototypes --debug --core=plain          #
#                          --dptr=16,1 --data_model=large                     #
#                          --code_model=banked --calling_convention=xdata_ree #
#                          ntrant --place_constants=data_rom                  #
#                          --nr_virtual_regs 16 -I "D:\GitHub\z-stack\Sensor  #
#                          Network Example\Projects\zstack\Sensor Network     #
#                          Application\ZIGBEE Endpoint & Device\CC2530DB\"    #
#                          -I "D:\GitHub\z-stack\Sensor Network               #
#                          Example\Projects\zstack\Sensor Network             #
#                          Application\ZIGBEE Endpoint &                      #
#                          Device\CC2530DB\..\SOURCE\" -I                     #
#                          "D:\GitHub\z-stack\Sensor Network                  #
#                          Example\Projects\zstack\Sensor Network             #
#                          Application\ZIGBEE Endpoint &                      #
#                          Device\CC2530DB\..\..\SOURCE\" -I                  #
#                          "D:\GitHub\z-stack\Sensor Network                  #
#                          Example\Projects\zstack\Sensor Network             #
#                          Application\ZIGBEE Endpoint &                      #
#                          Device\CC2530DB\..\..\..\ZMAIN\TI2530DB\" -I       #
#                          "D:\GitHub\z-stack\Sensor Network                  #
#                          Example\Projects\zstack\Sensor Network             #
#                          Application\ZIGBEE Endpoint &                      #
#                          Device\CC2530DB\..\..\..\..\..\COMPONENTS\MT\" -I  #
#                          "D:\GitHub\z-stack\Sensor Network                  #
#                          Example\Projects\zstack\Sensor Network             #
#                          Application\ZIGBEE Endpoint &                      #
#                          Device\CC2530DB\..\..\..\..\..\COMPONENTS\HAL\INCL #
#                          UDE\" -I "D:\GitHub\z-stack\Sensor Network         #
#                          Example\Projects\zstack\Sensor Network             #
#                          Application\ZIGBEE Endpoint &                      #
#                          Device\CC2530DB\..\..\..\..\..\COMPONENTS\HAL\MODU #
#                          LE\" -I "D:\GitHub\z-stack\Sensor Network          #
#                          Example\Projects\zstack\Sensor Network             #
#                          Application\ZIGBEE Endpoint &                      #
#                          Device\CC2530DB\..\..\..\..\..\COMPONENTS\HAL\TARG #
#                          ET\CC2530KB\" -I "D:\GitHub\z-stack\Sensor         #
#                          Network Example\Projects\zstack\Sensor Network     #
#                          Application\ZIGBEE Endpoint &                      #
#                          Device\CC2530DB\..\..\..\..\..\COMPONENTS\OSAL\MCU #
#                          \CCSOC\" -I "D:\GitHub\z-stack\Sensor Network      #
#                          Example\Projects\zstack\Sensor Network             #
#                          Application\ZIGBEE Endpoint &                      #
#                          Device\CC2530DB\..\..\..\..\..\COMPONENTS\OSAL\INC #
#                          LUDE\" -I "D:\GitHub\z-stack\Sensor Network        #
#                          Example\Projects\zstack\Sensor Network             #
#                          Application\ZIGBEE Endpoint &                      #
#                          Device\CC2530DB\..\..\..\..\..\COMPONENTS\STACK\AF #
#                          \" -I "D:\GitHub\z-stack\Sensor Network            #
#                          Example\Projects\zstack\Sensor Network             #
#                          Application\ZIGBEE Endpoint &                      #
#                          Device\CC2530DB\..\..\..\..\..\COMPONENTS\STACK\NW #
#                          K\" -I "D:\GitHub\z-stack\Sensor Network           #
#                          Example\Projects\zstack\Sensor Network             #
#                          Application\ZIGBEE Endpoint &                      #
#                          Device\CC2530DB\..\..\..\..\..\COMPONENTS\STACK\SE #
#                          C\" -I "D:\GitHub\z-stack\Sensor Network           #
#                          Example\Projects\zstack\Sensor Network             #
#                          Application\ZIGBEE Endpoint &                      #
#                          Device\CC2530DB\..\..\..\..\..\COMPONENTS\STACK\SA #
#                          PI\" -I "D:\GitHub\z-stack\Sensor Network          #
#                          Example\Projects\zstack\Sensor Network             #
#                          Application\ZIGBEE Endpoint &                      #
#                          Device\CC2530DB\..\..\..\..\..\COMPONENTS\STACK\SY #
#                          S\" -I "D:\GitHub\z-stack\Sensor Network           #
#                          Example\Projects\zstack\Sensor Network             #
#                          Application\ZIGBEE Endpoint &                      #
#                          Device\CC2530DB\..\..\..\..\..\COMPONENTS\STACK\ZC #
#                          L\" -I "D:\GitHub\z-stack\Sensor Network           #
#                          Example\Projects\zstack\Sensor Network             #
#                          Application\ZIGBEE Endpoint &                      #
#                          Device\CC2530DB\..\..\..\..\..\COMPONENTS\STACK\ZD #
#                          O\" -I "D:\GitHub\z-stack\Sensor Network           #
#                          Example\Projects\zstack\Sensor Network             #
#                          Application\ZIGBEE Endpoint &                      #
#                          Device\CC2530DB\..\..\..\..\..\COMPONENTS\ZMAC\F8W #
#                          \" -I "D:\GitHub\z-stack\Sensor Network            #
#                          Example\Projects\zstack\Sensor Network             #
#                          Application\ZIGBEE Endpoint &                      #
#                          Device\CC2530DB\..\..\..\..\..\COMPONENTS\ZMAC\"   #
#                          -I "D:\GitHub\z-stack\Sensor Network               #
#                          Example\Projects\zstack\Sensor Network             #
#                          Application\ZIGBEE Endpoint &                      #
#                          Device\CC2530DB\..\..\..\..\..\COMPONENTS\SERVICES #
#                          \SADDR\" -I "D:\GitHub\z-stack\Sensor Network      #
#                          Example\Projects\zstack\Sensor Network             #
#                          Application\ZIGBEE Endpoint &                      #
#                          Device\CC2530DB\..\..\..\..\..\COMPONENTS\SERVICES #
#                          \SDATA\" -I "D:\GitHub\z-stack\Sensor Network      #
#                          Example\Projects\zstack\Sensor Network             #
#                          Application\ZIGBEE Endpoint &                      #
#                          Device\CC2530DB\..\..\..\..\..\COMPONENTS\MAC\INCL #
#                          UDE\" -I "D:\GitHub\z-stack\Sensor Network         #
#                          Example\Projects\zstack\Sensor Network             #
#                          Application\ZIGBEE Endpoint &                      #
#                          Device\CC2530DB\..\..\..\..\..\COMPONENTS\MAC\HIGH #
#                          _LEVEL\" -I "D:\GitHub\z-stack\Sensor Network      #
#                          Example\Projects\zstack\Sensor Network             #
#                          Application\ZIGBEE Endpoint &                      #
#                          Device\CC2530DB\..\..\..\..\..\COMPONENTS\MAC\LOW_ #
#                          LEVEL\srf04\" -I "D:\GitHub\z-stack\Sensor         #
#                          Network Example\Projects\zstack\Sensor Network     #
#                          Application\ZIGBEE Endpoint &                      #
#                          Device\CC2530DB\..\..\..\..\..\COMPONENTS\MAC\LOW_ #
#                          LEVEL\srf04\SINGLE_CHIP\" -I "C:\Program Files     #
#                          (x86)\IAR Systems\Embedded Workbench               #
#                          5.3\8051\INC\" -I "C:\Program Files (x86)\IAR      #
#                          Systems\Embedded Workbench 5.3\8051\INC\CLIB\"     #
#                          -Ohz                                               #
#    List file          =  D:\GitHub\z-stack\Sensor Network                   #
#                          Example\Projects\zstack\Sensor Network             #
#                          Application\ZIGBEE Endpoint &                      #
#                          Device\CC2530DB\EndDeviceKB_M140\List\zcl.lst      #
#    Object file        =  D:\GitHub\z-stack\Sensor Network                   #
#                          Example\Projects\zstack\Sensor Network             #
#                          Application\ZIGBEE Endpoint &                      #
#                          Device\CC2530DB\EndDeviceKB_M140\Obj\zcl.r51       #
#                                                                             #
#                                                                             #
###############################################################################

D:\GitHub\z-stack\Sensor Network Example\Components\stack\zcl\zcl.c
      1          #include "ZComDef.h"
      2          #include "OSAL.h"
      3          #include "OSAL_Tasks.h"
      4          #include "AF.h"
      5          #include "ZDConfig.h"
      6          #include "zcl.h"
      7          #include "zcl_general.h"
      8          #include <string.h>
      9          #include <stdio.h>
     10          
     11          #if defined ( INTER_PAN )
     12            #include "stub_aps.h"
     13          #endif
     14          
     15          /* HAL */
     16          #include "hal_uart.h"
     17          #include "hal_timer.h"
     18          #include "hal_led.h"
     19          #if defined (LCD_SUPPORTED)
     20            #include "hal_lcd.h"
     21          #endif
     22          
     23          /* MT */
     24          #include "MT_UART.h"
     25          #include "MT.h"
     26          
     27          /*********************************************************************
     28           * MACROS
     29           */
     30          /*** Frame Control ***/
     31          #define zcl_FCType( a )               ( (a) & ZCL_FRAME_CONTROL_TYPE )
     32          #define zcl_FCManuSpecific( a )       ( (a) & ZCL_FRAME_CONTROL_MANU_SPECIFIC )
     33          #define zcl_FCDirection( a )          ( (a) & ZCL_FRAME_CONTROL_DIRECTION )
     34          #define zcl_FCDisableDefaultRsp( a )  ( (a) & ZCL_FRAME_CONTROL_DISABLE_DEFAULT_RSP )
     35          
     36          /*** Attribute Access Control ***/
     37          #define zcl_AccessCtrlRead( a )       ( (a) & ACCESS_CONTROL_READ )
     38          #define zcl_AccessCtrlWrite( a )      ( (a) & ACCESS_CONTROL_WRITE )
     39          #define zcl_AccessCtrlCmd( a )        ( (a) & ACCESS_CONTROL_CMD )
     40          
     41          #define zclParseCmd( a, b )           zclCmdTable[(a)].pfnParseInProfile( (b) )
     42          #define zclProcessCmd( a, b )         zclCmdTable[(a)].pfnProcessInProfile( (b) )
     43          
     44          #define zcl_DefaultRspCmd( zclHdr )   ( zcl_ProfileCmd( (zclHdr).fc.type )     && \
     45                                                  (zclHdr).fc.manuSpecific == 0          && \
     46                                                  (zclHdr).commandID == ZCL_CMD_DEFAULT_RSP )
     47          
     48          // Commands that have corresponding responses
     49          #define CMD_HAS_RSP( cmd )            ( (cmd) == ZCL_CMD_READ            || \
     50                                                  (cmd) == ZCL_CMD_WRITE           || \
     51                                                  (cmd) == ZCL_CMD_WRITE_UNDIVIDED || \
     52                                                  (cmd) == ZCL_CMD_CONFIG_REPORT   || \
     53                                                  (cmd) == ZCL_CMD_READ_REPORT_CFG || \
     54                                                  (cmd) == ZCL_CMD_DISCOVER        || \
     55                                                  (cmd) == ZCL_CMD_DEFAULT_RSP ) // exception
     56          
     57          /*********************************************************************
     58           * CONSTANTS
     59           */
     60          
     61          /*********************************************************************
     62           * TYPEDEFS
     63           */
     64          typedef struct zclLibPlugin
     65          {
     66            struct zclLibPlugin *next;
     67            uint16              startClusterID;    // starting cluster ID
     68            uint16              endClusterID;      // ending cluster ID
     69            zclInHdlr_t         pfnIncomingHdlr;    // function to handle incoming message
     70          } zclLibPlugin_t;
     71          
     72          // Attribute record list item
     73          typedef struct zclAttrRecsList
     74          {
     75            struct zclAttrRecsList *next;
     76            uint8                  endpoint;      // Used to link it into the endpoint descriptor
     77            uint8                  numAttributes; // Number of the following records
     78            CONST zclAttrRec_t     *attrs;        // attribute records
     79          } zclAttrRecsList;
     80          
     81          // Cluster option list item
     82          typedef struct zclClusterOptionList
     83          {
     84            struct zclClusterOptionList *next;
     85            uint8                       endpoint;   // Used to link it into the endpoint descriptor
     86            uint8                       numOptions; // Number of the following records
     87            zclOptionRec_t              *options;   // option records
     88          } zclClusterOptionList;
     89          
     90          typedef void *(*zclParseInProfileCmd_t)( zclParseCmd_t *pCmd );
     91          typedef uint8 (*zclProcessInProfileCmd_t)( zclIncoming_t *pInMsg );
     92          
     93          typedef struct
     94          {
     95            zclParseInProfileCmd_t   pfnParseInProfile;
     96            zclProcessInProfileCmd_t pfnProcessInProfile;
     97          } zclCmdItems_t;
     98          
     99          
    100          /*********************************************************************
    101           * GLOBAL VARIABLES
    102           */

   \                                 In  segment XDATA_Z, align 1, keep-with-next
    103          uint8 zcl_TaskID;
   \                     zcl_TaskID:
   \   000000                DS 1
   \   000001                REQUIRE __INIT_XDATA_Z
    104          
    105          // The task Id of the Application where the unprocessed Foundation
    106          // Command/Response messages will be sent to.

   \                                 In  segment XDATA_I, align 1, keep-with-next
    107          uint8 zcl_RegisteredMsgTaskID = TASK_NO_TASK;
   \                     zcl_RegisteredMsgTaskID:
   \   000000                DS 1
   \   000001                REQUIRE `?<Initializer for zcl_RegisteredMsgTaskID>`
   \   000001                REQUIRE __INIT_XDATA_I
    108          
    109          // The Application should register its attribute data validation function

   \                                 In  segment XDATA_Z, align 1, keep-with-next
    110          zclValidateAttrData_t zcl_ValidateAttrDataCB = NULL;
   \                     zcl_ValidateAttrDataCB:
   \   000000                DS 2
   \   000002                REQUIRE __INIT_XDATA_Z
    111          
    112          // ZCL Sequence number

   \                                 In  segment XDATA_Z, align 1, keep-with-next
    113          uint8 zcl_SeqNum = 0x00;
   \                     zcl_SeqNum:
   \   000000                DS 1
   \   000001                REQUIRE __INIT_XDATA_Z
    114             
    115          /*********************************************************************
    116           * EXTERNAL VARIABLES
    117           */
    118          
    119          /*********************************************************************
    120           * EXTERNAL FUNCTIONS
    121           */
    122          
    123          /*********************************************************************
    124           * LOCAL VARIABLES
    125           */

   \                                 In  segment XDATA_Z, align 1, keep-with-next
    126          static zclLibPlugin_t *plugins;
   \                     plugins:
   \   000000                DS 2
   \   000002                REQUIRE __INIT_XDATA_Z

   \                                 In  segment XDATA_Z, align 1, keep-with-next
    127          static zclAttrRecsList *attrList;
   \                     attrList:
   \   000000                DS 2
   \   000002                REQUIRE __INIT_XDATA_Z

   \                                 In  segment XDATA_Z, align 1, keep-with-next
    128          static zclClusterOptionList *clusterOptionList;
   \                     clusterOptionList:
   \   000000                DS 2
   \   000002                REQUIRE __INIT_XDATA_Z

   \                                 In  segment XDATA_Z, align 1, keep-with-next
    129          static uint8 zcl_TransID = 0;  // This is the unique message ID (counter)
   \                     zcl_TransID:
   \   000000                DS 1
   \   000001                REQUIRE __INIT_XDATA_Z
    130          
    131          /*********************************************************************
    132           * LOCAL FUNCTIONS
    133           */
    134          void zclProcessMessageMSG( afIncomingMSGPacket_t *pkt );  // Not static for ZNP build.
    135          
    136          void zclZigbeeReceiverMSG(afIncomingMSGPacket_t *msg);
    137          
    138          static uint8 *zclBuildHdr( zclFrameHdr_t *hdr, uint8 *pData );
    139          static uint8 zclCalcHdrSize( zclFrameHdr_t *hdr );
    140          static zclLibPlugin_t *zclFindPlugin( uint16 clusterID, uint16 profileID );
    141          static zclOptionRec_t *zclFindClusterOption( uint8 endpoint, uint16 clusterID );
    142          static uint8 zclGetClusterOption( uint8 endpoint, uint16 clusterID );
    143          static void zclSetSecurityOption( uint8 endpoint, uint16 clusterID, uint8 enable );
    144          
    145          static uint8 zcl_DeviceOperational( uint8 srcEP, uint16 clusterID, uint8 frameType, uint8 cmd, uint16 profileID );
    146          
    147          #if defined(ZCL_READ) || defined(ZCL_WRITE) || defined(ZCL_REPORT)
    148            static void zclSerializeData( uint8 dataType, void *attrData, uint8 *buf );
    149          #endif // ZCL_READ || ZCL_WRITE || ZCL_REPORT
    150          
    151          #ifdef ZCL_READ
    152            static void *zclParseInReadRspCmd( zclParseCmd_t *pCmd );
    153            static uint8 zclProcessInReadCmd( zclIncoming_t *pInMsg );
    154          #endif // ZCL_READ
    155          
    156          #ifdef ZCL_WRITE
    157            static uint8 zclWriteAttrData( zclAttrRec_t *pAttr, zclWriteRec_t *pWriteRec );
    158            static void *zclParseInWriteRspCmd( zclParseCmd_t *pCmd );
    159            static uint8 zclProcessInWriteCmd( zclIncoming_t *pInMsg );
    160            static uint8 zclProcessInWriteUndividedCmd( zclIncoming_t *pInMsg );
    161          #endif // ZCL_WRITE
    162          
    163          #ifdef ZCL_REPORT
    164            static void *zclParseInConfigReportRspCmd( zclParseCmd_t *pCmd );
    165            static void *zclParseInReadReportCfgRspCmd( zclParseCmd_t *pCmd );
    166          #endif // ZCL_REPORT
    167          
    168          static void *zclParseInDefaultRspCmd( zclParseCmd_t *pCmd );
    169          
    170          #ifdef ZCL_DISCOVER
    171            static uint8 zclFindNextAttrRec( uint8 endpoint, uint16 clusterID, uint16 *attrId, zclAttrRec_t *pAttr );
    172            static void *zclParseInDiscRspCmd( zclParseCmd_t *pCmd );
    173            static uint8 zclProcessInDiscCmd( zclIncoming_t *pInMsg );
    174          #endif // ZCL_DISCOVER
    175          
    176          static uint8 zclSendMsg( zclIncoming_t *pInMsg );
    177          
    178          /*********************************************************************
    179           * Parse Profile Command Function Table
    180           */

   \                                 In  segment CODE_C, align 1
    181          static CONST zclCmdItems_t zclCmdTable[] =
   \                     zclCmdTable:
   \   000000   ........     DW ??zclParseInReadCmd?relay, ??zclProcessInReadCmd?relay
   \   000004   ........     DW ??zclParseInReadRspCmd?relay, ??zclSendMsg?relay
   \   000008   ........     DW ??zclParseInWriteCmd?relay, ??zclProcessInWriteCmd?relay
   \   00000C   ........     DW ??zclParseInWriteCmd?relay, ??zclProcessInWriteUndividedCmd?relay
   \   000010   ........     DW ??zclParseInWriteRspCmd?relay, ??zclSendMsg?relay
   \   000014   ........     DW ??zclParseInWriteCmd?relay, ??zclProcessInWriteCmd?relay, 0H, 0H, 0H
   \            00000000
   \            0000    
   \   00001E   00000000     DW 0H, 0H, 0H, 0H, 0H, 0H, 0H, ??zclParseInDefaultRspCmd?relay
   \            00000000
   \            00000000
   \            0000....
   \   00002E   ....0000     DW ??zclSendMsg?relay, 0H, 0H, 0H, 0H
   \            00000000
   \            0000    
    182          {
    183          #ifdef ZCL_READ
    184            /* ZCL_CMD_READ */                { zclParseInReadCmd,             zclProcessInReadCmd             },
    185            /* ZCL_CMD_READ_RSP */            { zclParseInReadRspCmd,          zclSendMsg                      },
    186          #else
    187            /* ZCL_CMD_READ */                { NULL,                          NULL                            },
    188            /* ZCL_CMD_READ_RSP */            { NULL,                          NULL                            },
    189          #endif // ZCL_READ
    190          
    191          #ifdef ZCL_WRITE
    192            /* ZCL_CMD_WRITE */               { zclParseInWriteCmd,            zclProcessInWriteCmd            },
    193            /* ZCL_CMD_WRITE_UNDIVIDED */     { zclParseInWriteCmd,            zclProcessInWriteUndividedCmd   },
    194            /* ZCL_CMD_WRITE_RSP */           { zclParseInWriteRspCmd,         zclSendMsg                      },
    195            /* ZCL_CMD_WRITE_NO_RSP */        { zclParseInWriteCmd,            zclProcessInWriteCmd            },
    196          #else
    197            /* ZCL_CMD_WRITE */               { NULL,                          NULL                            },
    198            /* ZCL_CMD_WRITE_UNDIVIDED */     { NULL,                          NULL                            },
    199            /* ZCL_CMD_WRITE_RSP */           { NULL,                          NULL                            },
    200            /* ZCL_CMD_WRITE_NO_RSP */        { NULL,                          NULL                            },
    201          #endif // ZCL_WRITE
    202          
    203          #ifdef ZCL_REPORT
    204            /* ZCL_CMD_CONFIG_REPORT */       { zclParseInConfigReportCmd,     zclSendMsg                      },
    205            /* ZCL_CMD_CONFIG_REPORT_RSP */   { zclParseInConfigReportRspCmd,  zclSendMsg                      },
    206            /* ZCL_CMD_READ_REPORT_CFG */     { zclParseInReadReportCfgCmd,    zclSendMsg                      },
    207            /* ZCL_CMD_READ_REPORT_CFG_RSP */ { zclParseInReadReportCfgRspCmd, zclSendMsg                      },
    208            /* ZCL_CMD_REPORT */              { zclParseInReportCmd,           zclSendMsg                      },
    209          #else
    210            /* ZCL_CMD_CONFIG_REPORT */       { NULL,                          NULL                            },
    211            /* ZCL_CMD_CONFIG_REPORT_RSP */   { NULL,                          NULL                            },
    212            /* ZCL_CMD_READ_REPORT_CFG */     { NULL,                          NULL                            },
    213            /* ZCL_CMD_READ_REPORT_CFG_RSP */ { NULL,                          NULL                            },
    214            /* ZCL_CMD_REPORT */              { NULL,                          NULL                            },
    215          #endif // ZCL_REPORT
    216          
    217            /* ZCL_CMD_DEFAULT_RSP */         { zclParseInDefaultRspCmd,       zclSendMsg                      },
    218            
    219          #ifdef ZCL_DISCOVER  
    220            /* ZCL_CMD_DISCOVER */            { zclParseInDiscCmd,             zclProcessInDiscCmd             },
    221            /* ZCL_CMD_DISCOVER_RSP */        { zclParseInDiscRspCmd,          zclSendMsg                      }
    222          #else
    223            /* ZCL_CMD_DISCOVER */            { NULL,                          NULL                            },
    224            /* ZCL_CMD_DISCOVER_RSP */        { NULL,                          NULL                            }
    225          #endif // ZCL_DISCOVER
    226          };
    227          
    228          /*********************************************************************
    229           * PUBLIC FUNCTIONS
    230           *********************************************************************/
    231          
    232          /*********************************************************************
    233           * @fn          zcl_Init
    234           * @brief       Initialization function for the zcl layer.
    235           * @param       task_id - ZCL task id
    236           */

   \                                 In  segment BANKED_CODE, align 1, keep-with-next
    237          void zcl_Init( uint8 task_id )
   \                     zcl_Init:
    238          {
   \   000000   C082         PUSH    DPL
   \   000002   C083         PUSH    DPH
   \   000004                ; Saved register size: 2
   \   000004                ; Auto size: 0
    239            zcl_TaskID = task_id;
   \   000004   E9           MOV     A,R1
   \   000005   90....       MOV     DPTR,#zcl_TaskID
   \   000008   F0           MOVX    @DPTR,A
    240          
    241            plugins = (zclLibPlugin_t  *)NULL;
   \   000009   90....       MOV     DPTR,#plugins
   \   00000C   E4           CLR     A
   \   00000D   F0           MOVX    @DPTR,A
   \   00000E   A3           INC     DPTR
   \   00000F   F0           MOVX    @DPTR,A
    242            attrList = (zclAttrRecsList *)NULL;
   \   000010   90....       MOV     DPTR,#attrList
   \   000013   F0           MOVX    @DPTR,A
   \   000014   A3           INC     DPTR
   \   000015   F0           MOVX    @DPTR,A
    243            clusterOptionList = (zclClusterOptionList *)NULL;
   \   000016   90....       MOV     DPTR,#clusterOptionList
   \   000019   F0           MOVX    @DPTR,A
   \   00001A   A3           INC     DPTR
   \   00001B   F0           MOVX    @DPTR,A
    244          }
   \   00001C   02....       LJMP    ?Subroutine104 & 0xFFFF

   \                                 In  segment BANKED_CODE, align 1, keep-with-next
   \                     ?Subroutine104:
   \   000000   D083         POP     DPH
   \   000002   D082         POP     DPL
   \   000004   02....       LJMP    ?BRET
    245          
    246          /*********************************************************************
    247           * @fn          zcl_event_loop
    248           * @brief       Event Loop Processor for zcl.
    249           * @param       task_id - task id
    250           *              events - event bitmap
    251           * @return      unprocessed events
    252           */

   \                                 In  segment BANKED_CODE, align 1, keep-with-next
    253          uint16 zcl_event_loop( uint8 task_id, uint16 events )
   \                     zcl_event_loop:
    254          {
   \   000000   74F4         MOV     A,#-0xc
   \   000002   12....       LCALL   ?BANKED_ENTER_XDATA
   \   000005                ; Saved register size: 12
   \   000005                ; Auto size: 0
   \   000005   8A..         MOV     ?V0 + 0,R2
   \   000007   8B..         MOV     ?V0 + 1,R3
    255            uint8 *msgPtr;
    256            (void)task_id;  // Intentionally unreferenced parameter
    257            
    258            if ( events & SYS_EVENT_MSG )
   \   000009   7480         MOV     A,#-0x80
   \   00000B   55..         ANL     A,?V0 + 1
   \   00000D   F9           MOV     R1,A
   \   00000E   E4           CLR     A
   \   00000F   7001         JNZ     ??zcl_event_loop_0
   \   000011   E9           MOV     A,R1
   \                     ??zcl_event_loop_0:
   \   000012   604B         JZ      ??zcl_event_loop_1
    259            {
    260              msgPtr = osal_msg_receive( zcl_TaskID );
   \   000014                ; Setup parameters for call to function osal_msg_receive
   \   000014   800E         SJMP    ??zcl_event_loop_2
    261              while ( msgPtr != NULL )
    262              {
    263                uint8 dealloc = TRUE;
    264                
    265                if ( *msgPtr == AF_INCOMING_MSG_CMD )
    266                {
    267                  zclProcessMessageMSG( (afIncomingMSGPacket_t *)msgPtr );
   \                     ??zcl_event_loop_3:
   \   000016                ; Setup parameters for call to function zclProcessMessageMSG
   \   000016   EE           MOV     A,R6
   \   000017   FA           MOV     R2,A
   \   000018   EF           MOV     A,R7
   \   000019   FB           MOV     R3,A
   \   00001A   12....       LCALL   ??zclProcessMessageMSG?relay
    268                }
    269                else if ( zcl_RegisteredMsgTaskID != TASK_NO_TASK )
    270                {
    271                  osal_msg_send( zcl_RegisteredMsgTaskID, msgPtr ); // send it to another task to process.
    272                  dealloc = FALSE;
    273                }
    274                if ( dealloc ) // Release the memory
    275                {
    276                  osal_msg_deallocate( msgPtr );
   \                     ??zcl_event_loop_4:
   \   00001D                ; Setup parameters for call to function osal_msg_deallocate
   \   00001D   EE           MOV     A,R6
   \   00001E   FA           MOV     R2,A
   \   00001F   EF           MOV     A,R7
   \   000020   FB           MOV     R3,A
   \   000021   12....       LCALL   ??osal_msg_deallocate?relay
    277                }
    278                msgPtr = osal_msg_receive( zcl_TaskID ); // Next
   \                     ??zcl_event_loop_2:
   \   000024                ; Setup parameters for call to function osal_msg_receive
   \   000024   90....       MOV     DPTR,#zcl_TaskID
   \   000027   E0           MOVX    A,@DPTR
   \   000028   F9           MOV     R1,A
   \   000029   12....       LCALL   ??osal_msg_receive?relay
   \   00002C   8A..         MOV     ?V0 + 2,R2
   \   00002E   8B..         MOV     ?V0 + 3,R3
   \   000030   AE..         MOV     R6,?V0 + 2
   \   000032   AF..         MOV     R7,?V0 + 3
   \   000034   EE           MOV     A,R6
   \   000035   7001         JNZ     ??zcl_event_loop_5
   \   000037   EF           MOV     A,R7
   \                     ??zcl_event_loop_5:
   \   000038   601C         JZ      ??zcl_event_loop_6
   \   00003A   8E82         MOV     DPL,R6
   \   00003C   8F83         MOV     DPH,R7
   \   00003E   E0           MOVX    A,@DPTR
   \   00003F   641A         XRL     A,#0x1a
   \   000041   60D3         JZ      ??zcl_event_loop_3
   \   000043   90....       MOV     DPTR,#zcl_RegisteredMsgTaskID
   \   000046   E0           MOVX    A,@DPTR
   \   000047   64FF         XRL     A,#0xff
   \   000049   60D2         JZ      ??zcl_event_loop_4
   \   00004B                ; Setup parameters for call to function osal_msg_send
   \   00004B   EE           MOV     A,R6
   \   00004C   FA           MOV     R2,A
   \   00004D   EF           MOV     A,R7
   \   00004E   FB           MOV     R3,A
   \   00004F   E0           MOVX    A,@DPTR
   \   000050   F9           MOV     R1,A
   \   000051   12....       LCALL   ??osal_msg_send?relay
   \   000054   80CE         SJMP    ??zcl_event_loop_2
    279              } 
    280              return (events ^ SYS_EVENT_MSG);// return unprocessed events
   \                     ??zcl_event_loop_6:
   \   000056   AA..         MOV     R2,?V0 + 0
   \   000058   7480         MOV     A,#-0x80
   \   00005A   65..         XRL     A,?V0 + 1
   \   00005C   FB           MOV     R3,A
   \   00005D   8004         SJMP    ??zcl_event_loop_7
    281            }
    282            return 0; // Discard unknown events
   \                     ??zcl_event_loop_1:
   \   00005F   7A00         MOV     R2,#0x0
   \   000061   7B00         MOV     R3,#0x0
   \                     ??zcl_event_loop_7:
   \   000063   02....       LJMP    ?Subroutine105 & 0xFFFF
    283          }

   \                                 In  segment BANKED_CODE, align 1, keep-with-next
   \                     ?Subroutine105:
   \   000000   7F04         MOV     R7,#0x4
   \   000002   02....       LJMP    ?BANKED_LEAVE_XDATA
    284          
    285          /*********************************************************************
    286           * @fn          zcl_registerPlugin
    287           * @brief       Add a Cluster Library handler
    288           * @param       startClusterID - starting cluster ID
    289           *              endClusterID - ending cluster ID
    290           *              pfnHdlr - function pointer to incoming message handler
    291           * @return      ZSuccess if OK
    292           */

   \                                 In  segment BANKED_CODE, align 1, keep-with-next
    293          ZStatus_t zcl_registerPlugin( uint16 startClusterID,
   \                     zcl_registerPlugin:
    294                    uint16 endClusterID, zclInHdlr_t pfnIncomingHdlr )
    295          {
   \   000000   74F2         MOV     A,#-0xe
   \   000002   12....       LCALL   ?BANKED_ENTER_XDATA
   \   000005                ; Saved register size: 14
   \   000005                ; Auto size: 0
   \   000005   8A..         MOV     ?V0 + 0,R2
   \   000007   8B..         MOV     ?V0 + 1,R3
   \   000009   8C..         MOV     ?V0 + 2,R4
   \   00000B   8D..         MOV     ?V0 + 3,R5
   \   00000D   740E         MOV     A,#0xe
   \   00000F   12....       LCALL   ?XSTACK_DISP0_8
   \   000012   12....       LCALL   ?Subroutine40 & 0xFFFF
    296            zclLibPlugin_t *pNewItem;
    297            zclLibPlugin_t *pLoop;
    298          
    299            // Fill in the new profile list
    300            pNewItem = osal_mem_alloc( sizeof( zclLibPlugin_t ) );
   \                     ??CrossCallReturnLabel_48:
   \   000015                ; Setup parameters for call to function osal_mem_alloc
   \   000015   7A08         MOV     R2,#0x8
   \   000017   7B00         MOV     R3,#0x0
   \   000019   12....       LCALL   ??osal_mem_alloc?relay
   \   00001C   8A..         MOV     ?V0 + 4,R2
   \   00001E   8B..         MOV     ?V0 + 5,R3
   \   000020   A8..         MOV     R0,?V0 + 4
   \   000022   A9..         MOV     R1,?V0 + 5
    301            if ( pNewItem == NULL )
   \   000024   E8           MOV     A,R0
   \   000025   7001         JNZ     ??zcl_registerPlugin_0
   \   000027   E9           MOV     A,R1
   \                     ??zcl_registerPlugin_0:
   \   000028   7004         JNZ     ??zcl_registerPlugin_1
    302              return (ZMemError);
   \   00002A   7910         MOV     R1,#0x10
   \   00002C   8051         SJMP    ??CrossCallReturnLabel_14
    303          
    304            // Fill in the plugin record.
    305            pNewItem->next = (zclLibPlugin_t *)NULL;
   \                     ??zcl_registerPlugin_1:
   \   00002E   8882         MOV     DPL,R0
   \   000030   8983         MOV     DPH,R1
   \   000032   E4           CLR     A
   \   000033   F0           MOVX    @DPTR,A
   \   000034   A3           INC     DPTR
   \   000035   12....       LCALL   ?Subroutine14 & 0xFFFF
    306            pNewItem->startClusterID = startClusterID;
   \                     ??CrossCallReturnLabel_19:
   \   000038   A3           INC     DPTR
   \   000039   E5..         MOV     A,?V0 + 0
   \   00003B   F0           MOVX    @DPTR,A
   \   00003C   A3           INC     DPTR
   \   00003D   E5..         MOV     A,?V0 + 1
   \   00003F   12....       LCALL   ?Subroutine14 & 0xFFFF
    307            pNewItem->endClusterID = endClusterID;
   \                     ??CrossCallReturnLabel_20:
   \   000042   A3           INC     DPTR
   \   000043   A3           INC     DPTR
   \   000044   A3           INC     DPTR
   \   000045   E5..         MOV     A,?V0 + 2
   \   000047   F0           MOVX    @DPTR,A
   \   000048   A3           INC     DPTR
   \   000049   E5..         MOV     A,?V0 + 3
   \   00004B   F0           MOVX    @DPTR,A
    308            pNewItem->pfnIncomingHdlr = pfnIncomingHdlr;
   \   00004C   EE           MOV     A,R6
   \   00004D   FA           MOV     R2,A
   \   00004E   EF           MOV     A,R7
   \   00004F   FB           MOV     R3,A
   \   000050   8882         MOV     DPL,R0
   \   000052   8983         MOV     DPH,R1
   \   000054   A3           INC     DPTR
   \   000055   A3           INC     DPTR
   \   000056   A3           INC     DPTR
   \   000057   A3           INC     DPTR
   \   000058   12....       LCALL   ?Subroutine17 & 0xFFFF
    309          
    310            if (  plugins == NULL ) // Find spot in list
   \                     ??CrossCallReturnLabel_297:
   \   00005B   90....       MOV     DPTR,#plugins
   \   00005E   E0           MOVX    A,@DPTR
   \   00005F   7002         JNZ     ??zcl_registerPlugin_2
   \   000061   A3           INC     DPTR
   \   000062   E0           MOVX    A,@DPTR
   \                     ??zcl_registerPlugin_2:
   \   000063   90....       MOV     DPTR,#plugins
   \   000066   6014         JZ      ??zcl_registerPlugin_3
    311            {
    312              plugins = pNewItem;
    313            }
    314            else
    315            {
    316              // Look for end of list
    317              pLoop = plugins;
   \   000068   12....       LCALL   ?Subroutine87 & 0xFFFF
   \                     ??CrossCallReturnLabel_286:
   \   00006B   8003         SJMP    ??zcl_registerPlugin_4
    318              while ( pLoop->next != NULL )
    319                pLoop = pLoop->next;
   \                     ??zcl_registerPlugin_5:
   \   00006D   EA           MOV     A,R2
   \   00006E   FC           MOV     R4,A
   \   00006F   EB           MOV     A,R3
   \                     ??zcl_registerPlugin_4:
   \   000070   12....       LCALL   ?Subroutine31 & 0xFFFF
   \                     ??CrossCallReturnLabel_164:
   \   000073   7001         JNZ     ??zcl_registerPlugin_6
   \   000075   EB           MOV     A,R3
   \                     ??zcl_registerPlugin_6:
   \   000076   70F5         JNZ     ??zcl_registerPlugin_5
    320          
    321              pLoop->next = pNewItem; // Put new item at end of list
   \   000078   8C82         MOV     DPL,R4
   \   00007A   8D83         MOV     DPH,R5
    322            }
   \                     ??zcl_registerPlugin_3:
   \   00007C   12....       LCALL   ?Subroutine11 & 0xFFFF
    323            return ( ZSuccess );
   \                     ??CrossCallReturnLabel_14:
   \   00007F                REQUIRE ?Subroutine106
   \   00007F                ; // Fall through to label ?Subroutine106
    324          }

   \                                 In  segment BANKED_CODE, align 1, keep-with-next
   \                     ?Subroutine106:
   \   000000   7F06         MOV     R7,#0x6
   \   000002   02....       LJMP    ?BANKED_LEAVE_XDATA

   \                                 In  segment BANKED_CODE, align 1, keep-with-next
   \                     ?Subroutine31:
   \   000000   FD           MOV     R5,A
   \   000001   8C82         MOV     DPL,R4
   \   000003   8D83         MOV     DPH,R5
   \   000005                REQUIRE ??Subroutine121_0
   \   000005                ; // Fall through to label ??Subroutine121_0

   \                                 In  segment BANKED_CODE, align 1, keep-with-next
   \                     ??Subroutine121_0:
   \   000000   12....       LCALL   ??Subroutine130_0 & 0xFFFF
   \                     ??CrossCallReturnLabel_255:
   \   000003   EA           MOV     A,R2
   \   000004   22           RET

   \                                 In  segment BANKED_CODE, align 1, keep-with-next
   \                     ?Subroutine11:
   \   000000   E8           MOV     A,R0
   \   000001   F0           MOVX    @DPTR,A
   \   000002   A3           INC     DPTR
   \   000003   E9           MOV     A,R1
   \   000004   F0           MOVX    @DPTR,A
   \   000005   7900         MOV     R1,#0x0
   \   000007   22           RET

   \                                 In  segment BANKED_CODE, align 1, keep-with-next
   \                     ?Subroutine14:
   \   000000   12....       LCALL   ?Subroutine97 & 0xFFFF
   \                     ??CrossCallReturnLabel_132:
   \   000003   22           RET

   \                                 In  segment BANKED_CODE, align 1, keep-with-next
   \                     ?Subroutine97:
   \   000000   F0           MOVX    @DPTR,A
   \   000001   8882         MOV     DPL,R0
   \   000003   8983         MOV     DPH,R1
   \   000005   A3           INC     DPTR
   \   000006   22           RET

   \                                 In  segment BANKED_CODE, align 1, keep-with-next
   \                     ??Subroutine130_0:
   \   000000   E0           MOVX    A,@DPTR
   \   000001   FA           MOV     R2,A
   \   000002   A3           INC     DPTR
   \   000003   E0           MOVX    A,@DPTR
   \   000004   FB           MOV     R3,A
   \   000005   22           RET

   \                                 In  segment BANKED_CODE, align 1, keep-with-next
   \                     ?Subroutine87:
   \   000000   E0           MOVX    A,@DPTR
   \   000001   FC           MOV     R4,A
   \   000002   A3           INC     DPTR
   \   000003   E0           MOVX    A,@DPTR
   \   000004   22           RET

   \                                 In  segment BANKED_CODE, align 1, keep-with-next
   \                     ?Subroutine40:
   \   000000   E0           MOVX    A,@DPTR
   \   000001   FE           MOV     R6,A
   \   000002   A3           INC     DPTR
   \   000003   E0           MOVX    A,@DPTR
   \   000004   FF           MOV     R7,A
   \   000005   22           RET

   \                                 In  segment BANKED_CODE, align 1, keep-with-next
   \                     ?Subroutine17:
   \   000000   A3           INC     DPTR
   \   000001   A3           INC     DPTR
   \   000002                REQUIRE ??Subroutine148_0
   \   000002                ; // Fall through to label ??Subroutine148_0

   \                                 In  segment BANKED_CODE, align 1, keep-with-next
   \                     ??Subroutine148_0:
   \   000000   EA           MOV     A,R2
   \   000001   F0           MOVX    @DPTR,A
   \   000002   A3           INC     DPTR
   \   000003   EB           MOV     A,R3
   \   000004   F0           MOVX    @DPTR,A
   \   000005   22           RET
    325          
    326          /*********************************************************************
    327           * @fn          zcl_registerAttrList
    328           * @brief       Register an Attribute List with ZCL Foundation
    329           * @param       endpoint - endpoint the attribute list belongs to
    330           *              numAttr - number of attributes in list
    331           *              newAttrList - array of Attribute records.
    332           *
    333           *              NOTE: THE ATTRIBUTE IDs (FOR A CLUSTER) MUST BE IN ASCENDING ORDER.
    334           *                    OTHERWISE, THE DISCOVERY RESPONSE COMMAND WILL NOT HAVE THE RIGHT ATTRIBUTE INFO
    335           * @return      ZSuccess if OK
    336           */

   \                                 In  segment BANKED_CODE, align 1, keep-with-next
    337          ZStatus_t zcl_registerAttrList( uint8 endpoint, uint8 numAttr, CONST zclAttrRec_t newAttrList[] )
   \                     zcl_registerAttrList:
    338          {
   \   000000   74F4         MOV     A,#-0xc
   \   000002   12....       LCALL   ?BANKED_ENTER_XDATA
   \   000005                ; Saved register size: 12
   \   000005                ; Auto size: 0
   \   000005   12....       LCALL   ?Subroutine63 & 0xFFFF
    339            zclAttrRecsList *pNewItem;
    340            zclAttrRecsList *pLoop;
    341          
    342            pNewItem = osal_mem_alloc( sizeof( zclAttrRecsList ) ); // Fill in the new profile list
    343            if ( pNewItem == NULL )
   \                     ??CrossCallReturnLabel_85:
   \   000008   7001         JNZ     ??zcl_registerAttrList_0
   \   00000A   E9           MOV     A,R1
   \                     ??zcl_registerAttrList_0:
   \   00000B   7004         JNZ     ??zcl_registerAttrList_1
    344              return (ZMemError);
   \   00000D   7910         MOV     R1,#0x10
   \   00000F   8027         SJMP    ??CrossCallReturnLabel_15
    345          
    346            pNewItem->next = (zclAttrRecsList *)NULL;
   \                     ??zcl_registerAttrList_1:
   \   000011   12....       LCALL   ?Subroutine0 & 0xFFFF
    347            pNewItem->endpoint = endpoint;
    348            pNewItem->numAttributes = numAttr;
    349            pNewItem->attrs = newAttrList;
    350          
    351            if ( attrList == NULL ) // Find spot in list
   \                     ??CrossCallReturnLabel_0:
   \   000014   90....       MOV     DPTR,#attrList
   \   000017   E0           MOVX    A,@DPTR
   \   000018   7002         JNZ     ??zcl_registerAttrList_2
   \   00001A   A3           INC     DPTR
   \   00001B   E0           MOVX    A,@DPTR
   \                     ??zcl_registerAttrList_2:
   \   00001C   90....       MOV     DPTR,#attrList
   \   00001F   6014         JZ      ??zcl_registerAttrList_3
    352            {
    353              attrList = pNewItem;
    354            }
    355            else
    356            {
    357              pLoop = attrList; // Look for end of list
   \   000021   12....       LCALL   ?Subroutine87 & 0xFFFF
   \                     ??CrossCallReturnLabel_287:
   \   000024   8003         SJMP    ??zcl_registerAttrList_4
    358              while ( pLoop->next != NULL )
    359                pLoop = pLoop->next;
   \                     ??zcl_registerAttrList_5:
   \   000026   EA           MOV     A,R2
   \   000027   FC           MOV     R4,A
   \   000028   EB           MOV     A,R3
   \                     ??zcl_registerAttrList_4:
   \   000029   12....       LCALL   ?Subroutine31 & 0xFFFF
   \                     ??CrossCallReturnLabel_165:
   \   00002C   7001         JNZ     ??zcl_registerAttrList_6
   \   00002E   EB           MOV     A,R3
   \                     ??zcl_registerAttrList_6:
   \   00002F   70F5         JNZ     ??zcl_registerAttrList_5
    360          
    361              pLoop->next = pNewItem; // Put new item at end of list
   \   000031   8C82         MOV     DPL,R4
   \   000033   8D83         MOV     DPH,R5
    362            }
   \                     ??zcl_registerAttrList_3:
   \   000035   12....       LCALL   ?Subroutine11 & 0xFFFF
    363            return ( ZSuccess );
   \                     ??CrossCallReturnLabel_15:
   \   000038   02....       LJMP    ?Subroutine105 & 0xFFFF
    364          }

   \                                 In  segment BANKED_CODE, align 1, keep-with-next
   \                     ?Subroutine63:
   \   000000   89..         MOV     ?V0 + 0,R1
   \   000002   8A..         MOV     ?V0 + 1,R2
   \   000004   EC           MOV     A,R4
   \   000005   FE           MOV     R6,A
   \   000006   ED           MOV     A,R5
   \   000007   FF           MOV     R7,A
   \   000008                ; Setup parameters for call to function osal_mem_alloc
   \   000008                ; Setup parameters for call to function osal_mem_alloc
   \   000008   7A06         MOV     R2,#0x6
   \   00000A   7B00         MOV     R3,#0x0
   \   00000C   12....       LCALL   ??osal_mem_alloc?relay
   \   00000F   8A..         MOV     ?V0 + 2,R2
   \   000011   8B..         MOV     ?V0 + 3,R3
   \   000013   A8..         MOV     R0,?V0 + 2
   \   000015   A9..         MOV     R1,?V0 + 3
   \   000017   E8           MOV     A,R0
   \   000018   22           RET

   \                                 In  segment BANKED_CODE, align 1, keep-with-next
   \                     ?Subroutine0:
   \   000000   8882         MOV     DPL,R0
   \   000002   8983         MOV     DPH,R1
   \   000004   E4           CLR     A
   \   000005   F0           MOVX    @DPTR,A
   \   000006   A3           INC     DPTR
   \   000007   12....       LCALL   ?Subroutine97 & 0xFFFF
   \                     ??CrossCallReturnLabel_130:
   \   00000A   A3           INC     DPTR
   \   00000B   E5..         MOV     A,?V0 + 0
   \   00000D   12....       LCALL   ?Subroutine78 & 0xFFFF
   \                     ??CrossCallReturnLabel_106:
   \   000010   E5..         MOV     A,?V0 + 1
   \   000012   12....       LCALL   ?Subroutine78 & 0xFFFF
   \                     ??CrossCallReturnLabel_107:
   \   000015   A3           INC     DPTR
   \   000016   EE           MOV     A,R6
   \   000017   F0           MOVX    @DPTR,A
   \   000018   A3           INC     DPTR
   \   000019   EF           MOV     A,R7
   \   00001A   F0           MOVX    @DPTR,A
   \   00001B   22           RET

   \                                 In  segment BANKED_CODE, align 1, keep-with-next
   \                     ?Subroutine78:
   \   000000   12....       LCALL   ?Subroutine97 & 0xFFFF
   \                     ??CrossCallReturnLabel_131:
   \   000003   A3           INC     DPTR
   \   000004   A3           INC     DPTR
   \   000005   22           RET
    365          
    366          /*********************************************************************
    367           * @fn          zcl_registerClusterOptionList
    368           * @brief       Register a Cluster Option List with ZCL Foundation
    369           * @param       endpoint - endpoint the option list belongs to
    370           *              numOption - number of options in list
    371           *              optionList - array of cluster option records.
    372           *                           
    373           *              NOTE: This API should be called to enable 'Application Link Key' security and/or
    374           *                    'APS ACK' for a specific Cluster. The 'Application Link Key' is discarded 
    375           *                    if security isn't enabled on the device. The default behavior is 'Network Key'
    376           *                    when security is enabled and no 'APS ACK' for the ZCL messages.
    377           * @return      ZSuccess if OK
    378           */

   \                                 In  segment BANKED_CODE, align 1, keep-with-next
    379          ZStatus_t zcl_registerClusterOptionList( uint8 endpoint, uint8 numOption, zclOptionRec_t optionList[] )
   \                     zcl_registerClusterOptionList:
    380          {
   \   000000   74F4         MOV     A,#-0xc
   \   000002   12....       LCALL   ?BANKED_ENTER_XDATA
   \   000005                ; Saved register size: 12
   \   000005                ; Auto size: 0
   \   000005   12....       LCALL   ?Subroutine63 & 0xFFFF
    381            zclClusterOptionList *pNewItem;
    382            zclClusterOptionList *pLoop;
    383          
    384            // Fill in the new profile list
    385            pNewItem = osal_mem_alloc( sizeof( zclClusterOptionList ) );
    386            if ( pNewItem == NULL )
   \                     ??CrossCallReturnLabel_86:
   \   000008   7001         JNZ     ??zcl_registerClusterOptionList_0
   \   00000A   E9           MOV     A,R1
   \                     ??zcl_registerClusterOptionList_0:
   \   00000B   7004         JNZ     ??zcl_registerClusterOptionList_1
    387              return (ZMemError);
   \   00000D   7910         MOV     R1,#0x10
   \   00000F   8027         SJMP    ??CrossCallReturnLabel_16
    388          
    389            pNewItem->next = (zclClusterOptionList *)NULL;
   \                     ??zcl_registerClusterOptionList_1:
   \   000011   12....       LCALL   ?Subroutine0 & 0xFFFF
    390            pNewItem->endpoint = endpoint;
    391            pNewItem->numOptions = numOption;
    392            pNewItem->options = optionList;
    393          
    394            // Find spot in list
    395            if ( clusterOptionList == NULL )
   \                     ??CrossCallReturnLabel_1:
   \   000014   90....       MOV     DPTR,#clusterOptionList
   \   000017   E0           MOVX    A,@DPTR
   \   000018   7002         JNZ     ??zcl_registerClusterOptionList_2
   \   00001A   A3           INC     DPTR
   \   00001B   E0           MOVX    A,@DPTR
   \                     ??zcl_registerClusterOptionList_2:
   \   00001C   90....       MOV     DPTR,#clusterOptionList
   \   00001F   6014         JZ      ??zcl_registerClusterOptionList_3
    396            {
    397              clusterOptionList = pNewItem;
    398            }
    399            else
    400            {
    401              // Look for end of list
    402              pLoop = clusterOptionList;
   \   000021   12....       LCALL   ?Subroutine87 & 0xFFFF
   \                     ??CrossCallReturnLabel_288:
   \   000024   8003         SJMP    ??zcl_registerClusterOptionList_4
    403              while ( pLoop->next != NULL )
    404                pLoop = pLoop->next;
   \                     ??zcl_registerClusterOptionList_5:
   \   000026   EA           MOV     A,R2
   \   000027   FC           MOV     R4,A
   \   000028   EB           MOV     A,R3
   \                     ??zcl_registerClusterOptionList_4:
   \   000029   12....       LCALL   ?Subroutine31 & 0xFFFF
   \                     ??CrossCallReturnLabel_166:
   \   00002C   7001         JNZ     ??zcl_registerClusterOptionList_6
   \   00002E   EB           MOV     A,R3
   \                     ??zcl_registerClusterOptionList_6:
   \   00002F   70F5         JNZ     ??zcl_registerClusterOptionList_5
    405          
    406              // Put new item at end of list
    407              pLoop->next = pNewItem;
   \   000031   8C82         MOV     DPL,R4
   \   000033   8D83         MOV     DPH,R5
    408            }
   \                     ??zcl_registerClusterOptionList_3:
   \   000035   12....       LCALL   ?Subroutine11 & 0xFFFF
    409          
    410            return ( ZSuccess );
   \                     ??CrossCallReturnLabel_16:
   \   000038   02....       LJMP    ?Subroutine105 & 0xFFFF
    411          }
    412          
    413          /*********************************************************************
    414           * @fn          zcl_registerValidateAttrData
    415           * @brief       Add a validation function for attribute data
    416           * @param       pfnValidateAttrData - function pointer to validate routine
    417           * @return      ZSuccess if OK
    418           */

   \                                 In  segment BANKED_CODE, align 1, keep-with-next
    419          ZStatus_t zcl_registerValidateAttrData( zclValidateAttrData_t pfnValidateAttrData )
   \                     zcl_registerValidateAttrData:
    420          {
   \   000000   C082         PUSH    DPL
   \   000002   C083         PUSH    DPH
   \   000004                ; Saved register size: 2
   \   000004                ; Auto size: 0
    421            zcl_ValidateAttrDataCB = pfnValidateAttrData;
   \   000004   90....       MOV     DPTR,#zcl_ValidateAttrDataCB
   \   000007   12....       LCALL   ??Subroutine148_0 & 0xFFFF
    422            
    423            return ( ZSuccess );
   \                     ??CrossCallReturnLabel_293:
   \   00000A   7900         MOV     R1,#0x0
   \   00000C   80..         SJMP    ?Subroutine104
    424          }
    425          
    426          /*********************************************************************
    427           * @fn      zcl_registerForMsg
    428           * @brief   The ZCL is setup to send all incoming Foundation Command/Response
    429           *          messages that aren't processed to one task (if a task is
    430           *          registered).
    431           * @param   taskId - task Id of the Application where commands will be sent to
    432           * @return  TRUE if task registeration successful, FALSE otherwise
    433           *********************************************************************/

   \                                 In  segment BANKED_CODE, align 1, keep-with-next
    434          uint8 zcl_registerForMsg( uint8 taskId )
   \                     zcl_registerForMsg:
    435          {
   \   000000   C082         PUSH    DPL
   \   000002   C083         PUSH    DPH
   \   000004                ; Saved register size: 2
   \   000004                ; Auto size: 0
    436            // Allow only the first task
    437            if ( zcl_RegisteredMsgTaskID == TASK_NO_TASK )
   \   000004   90....       MOV     DPTR,#zcl_RegisteredMsgTaskID
   \   000007   E0           MOVX    A,@DPTR
   \   000008   64FF         XRL     A,#0xff
   \   00000A   7006         JNZ     ??zcl_registerForMsg_0
    438            {
    439              zcl_RegisteredMsgTaskID = taskId;  
   \   00000C   E9           MOV     A,R1
   \   00000D   F0           MOVX    @DPTR,A
    440              return ( true );
   \   00000E   7901         MOV     R1,#0x1
   \   000010   8002         SJMP    ??zcl_registerForMsg_1
    441            }
    442            return ( false );
   \                     ??zcl_registerForMsg_0:
   \   000012   7900         MOV     R1,#0x0
   \                     ??zcl_registerForMsg_1:
   \   000014                REQUIRE ?Subroutine104
   \   000014                ; // Fall through to label ?Subroutine104
    443          }
    444          
    445          /*********************************************************************
    446           * @fn      zcl_DeviceOperational
    447           * @brief   Used to see whether or not the device can send or respond 
    448           *          to application level commands.
    449           * @param   srcEP - source endpoint
    450           *          clusterID - cluster ID
    451           *          frameType - command type
    452           *          cmd - command ID
    453           * @return  TRUE if device is operational, FALSE otherwise
    454           */

   \                                 In  segment BANKED_CODE, align 1, keep-with-next
    455          static uint8 zcl_DeviceOperational( uint8 srcEP, uint16 clusterID, 
   \                     zcl_DeviceOperational:
    456                                              uint8 frameType, uint8 cmd, uint16 profileID )
    457          {
   \   000000   74F6         MOV     A,#-0xa
   \   000002   12....       LCALL   ?BANKED_ENTER_XDATA
   \   000005                ; Saved register size: 10
   \   000005                ; Auto size: 9
   \   000005   74F7         MOV     A,#-0x9
   \   000007   12....       LCALL   ?ALLOC_XSTACK8
    458            zclAttrRec_t attrRec;
    459            uint8 deviceEnabled = DEVICE_ENABLED; // default value
   \   00000A   7401         MOV     A,#0x1
   \   00000C   85..82       MOV     DPL,?XSP + 0
   \   00000F   85..83       MOV     DPH,?XSP + 1
   \   000012   F0           MOVX    @DPTR,A
    460            
    461            (void)profileID;  // Intentionally unreferenced parameter
    462            
    463            // If the device is Disabled (DeviceEnabled attribute is set to Disabled), it 
    464            // cannot send or respond to application level commands, other than commands
    465            // to read or write attributes. Note that the Identify cluster cannot be 
    466            // disabled, and remains functional regardless of this setting.
    467            if ( zcl_ProfileCmd( frameType ) && cmd <= ZCL_CMD_WRITE_NO_RSP )
   \   000013   EC           MOV     A,R4
   \   000014   700A         JNZ     ??zcl_DeviceOperational_0
   \   000016   ED           MOV     A,R5
   \   000017   C3           CLR     C
   \   000018   9406         SUBB    A,#0x6
   \   00001A   5004         JNC     ??zcl_DeviceOperational_0
    468              return ( TRUE );
   \                     ??zcl_DeviceOperational_1:
   \   00001C   7901         MOV     R1,#0x1
   \   00001E   804E         SJMP    ??zcl_DeviceOperational_2
    469            
    470            if ( clusterID == ZCL_CLUSTER_ID_GEN_IDENTIFY )
   \                     ??zcl_DeviceOperational_0:
   \   000020   7403         MOV     A,#0x3
   \   000022   6A           XRL     A,R2
   \   000023   7001         JNZ     ??zcl_DeviceOperational_3
   \   000025   EB           MOV     A,R3
   \                     ??zcl_DeviceOperational_3:
   \   000026   60F4         JZ      ??zcl_DeviceOperational_1
    471              return ( TRUE );
    472            
    473            // Is device enabled?
    474            if ( zclFindAttrRec( srcEP, ZCL_CLUSTER_ID_GEN_BASIC, ATTRID_BASIC_DEVICE_ENABLED, &attrRec ) )
   \   000028                ; Setup parameters for call to function zclFindAttrRec
   \   000028   7401         MOV     A,#0x1
   \   00002A   12....       LCALL   ?XSTACK_DISP0_8
   \   00002D   8582..       MOV     ?V0 + 0,DPL
   \   000030   8583..       MOV     ?V0 + 1,DPH
   \   000033   78..         MOV     R0,#?V0 + 0
   \   000035   12....       LCALL   ?PUSH_XSTACK_I_TWO
   \   000038   7C12         MOV     R4,#0x12
   \   00003A   7D00         MOV     R5,#0x0
   \   00003C   7A00         MOV     R2,#0x0
   \   00003E   7B00         MOV     R3,#0x0
   \   000040   12....       LCALL   ??zclFindAttrRec?relay
   \   000043   7402         MOV     A,#0x2
   \   000045   12....       LCALL   ?DEALLOC_XSTACK8
   \   000048   E9           MOV     A,R1
   \   000049   6016         JZ      ??zcl_DeviceOperational_4
    475              zclReadAttrData( &deviceEnabled, &attrRec );
   \   00004B                ; Setup parameters for call to function zclReadAttrData
   \   00004B   7401         MOV     A,#0x1
   \   00004D   12....       LCALL   ?XSTACK_DISP0_8
   \   000050   AC82         MOV     R4,DPL
   \   000052   AD83         MOV     R5,DPH
   \   000054   85..82       MOV     DPL,?XSP + 0
   \   000057   85..83       MOV     DPH,?XSP + 1
   \   00005A   AA82         MOV     R2,DPL
   \   00005C   AB83         MOV     R3,DPH
   \   00005E   12....       LCALL   ??zclReadAttrData?relay
    476            
    477            return ( deviceEnabled == DEVICE_ENABLED ? TRUE : FALSE );
   \                     ??zcl_DeviceOperational_4:
   \   000061   85..82       MOV     DPL,?XSP + 0
   \   000064   85..83       MOV     DPH,?XSP + 1
   \   000067   E0           MOVX    A,@DPTR
   \   000068   6401         XRL     A,#0x1
   \   00006A   60B0         JZ      ??zcl_DeviceOperational_1
   \   00006C   7900         MOV     R1,#0x0
   \                     ??zcl_DeviceOperational_2:
   \   00006E   7409         MOV     A,#0x9
   \   000070   12....       LCALL   ?DEALLOC_XSTACK8
   \   000073   02....       LJMP    ?Subroutine114 & 0xFFFF
    478          }

   \                                 In  segment BANKED_CODE, align 1, keep-with-next
   \                     ?Subroutine114:
   \   000000   7F02         MOV     R7,#0x2
   \   000002   02....       LJMP    ?BANKED_LEAVE_XDATA
    479          
    480          /*********************************************************************
    481           * @fn      zcl_SendCommand
    482           * @brief   Used to send Profile and Cluster Specific Command messages.
    483           *          NOTE: The calling application is responsible for incrementing the Sequence Number.                
    484           * @param   srcEp - source endpoint
    485           *          destAddr - destination address 
    486           *          clusterID - cluster ID
    487           *          cmd - command ID
    488           *          specific - whether the command is Cluster Specific
    489           *          direction - client/server direction of the command
    490           *          disableDefaultRsp - disable Default Response command
    491           *          manuCode - manufacturer code for proprietary extensions to a profile
    492           *          seqNumber - identification number for the transaction
    493           *          cmdFormatLen - length of the command to be sent
    494           *          cmdFormat - command to be sent
    495           * @return  ZSuccess if OK
    496           */

   \                                 In  segment BANKED_CODE, align 1, keep-with-next
    497          ZStatus_t zcl_SendCommand( uint8 srcEP, afAddrType_t *destAddr,
   \                     zcl_SendCommand:
    498                                     uint16 clusterID, uint8 cmd, uint8 specific, uint8 direction,
    499                                     uint8 disableDefaultRsp, uint16 manuCode, uint8 seqNum,
    500                                     uint16 cmdFormatLen, uint8 *cmdFormat )
    501          {
   \   000000   74E8         MOV     A,#-0x18
   \   000002   12....       LCALL   ?BANKED_ENTER_XDATA
   \   000005                ; Saved register size: 24
   \   000005                ; Auto size: 18
   \   000005   74EE         MOV     A,#-0x12
   \   000007   12....       LCALL   ?ALLOC_XSTACK8
   \   00000A   E9           MOV     A,R1
   \   00000B   FF           MOV     R7,A
   \   00000C   8C..         MOV     ?V0 + 0,R4
   \   00000E   8D..         MOV     ?V0 + 1,R5
   \   000010   742A         MOV     A,#0x2a
   \   000012   12....       LCALL   ?XSTACK_DISP0_8
   \   000015   E0           MOVX    A,@DPTR
   \   000016   FE           MOV     R6,A
   \   000017   742B         MOV     A,#0x2b
   \   000019   12....       LCALL   ?XSTACK_DISP0_8
   \   00001C   E0           MOVX    A,@DPTR
   \   00001D   F5..         MOV     ?V0 + 3,A
   \   00001F   742C         MOV     A,#0x2c
   \   000021   12....       LCALL   ?XSTACK_DISP0_8
   \   000024   E0           MOVX    A,@DPTR
   \   000025   F5..         MOV     ?V0 + 9,A
   \   000027   742D         MOV     A,#0x2d
   \   000029   12....       LCALL   ?XSTACK_DISP0_8
   \   00002C   E0           MOVX    A,@DPTR
   \   00002D   F5..         MOV     ?V0 + 8,A
   \   00002F   742E         MOV     A,#0x2e
   \   000031   12....       LCALL   ?XSTACK_DISP0_8
   \   000034   E0           MOVX    A,@DPTR
   \   000035   F5..         MOV     ?V0 + 12,A
   \   000037   A3           INC     DPTR
   \   000038   E0           MOVX    A,@DPTR
   \   000039   F5..         MOV     ?V0 + 13,A
   \   00003B   7430         MOV     A,#0x30
   \   00003D   12....       LCALL   ?XSTACK_DISP0_8
   \   000040   E0           MOVX    A,@DPTR
   \   000041   F5..         MOV     ?V0 + 7,A
   \   000043   7431         MOV     A,#0x31
   \   000045   12....       LCALL   ?XSTACK_DISP0_8
   \   000048   E0           MOVX    A,@DPTR
   \   000049   F5..         MOV     ?V0 + 14,A
   \   00004B   A3           INC     DPTR
   \   00004C   E0           MOVX    A,@DPTR
   \   00004D   F5..         MOV     ?V0 + 15,A
    502            endPointDesc_t *epDesc;
    503            zclFrameHdr_t hdr;
    504            uint8 *msgBuf;
    505            uint16 msgLen;
    506            uint8 *pBuf;
    507            afAddrType_t dstAddr;
    508            uint8 options;
    509            ZStatus_t status;
    510          
    511            osal_memcpy( &dstAddr, destAddr, sizeof ( afAddrType_t ) );
   \   00004F                ; Setup parameters for call to function osal_memcpy
   \   00004F   8A..         MOV     ?V0 + 4,R2
   \   000051   8B..         MOV     ?V0 + 5,R3
   \   000053   75..00       MOV     ?V0 + 6,#0x0
   \   000056   78..         MOV     R0,#?V0 + 4
   \   000058   12....       LCALL   ?PUSH_XSTACK_I_THREE
   \   00005B   7C0C         MOV     R4,#0xc
   \   00005D   7D00         MOV     R5,#0x0
   \   00005F   7409         MOV     A,#0x9
   \   000061   12....       LCALL   ?XSTACK_DISP0_8
   \   000064   AA82         MOV     R2,DPL
   \   000066   AB83         MOV     R3,DPH
   \   000068   12....       LCALL   ?Subroutine108 & 0xFFFF
   \                     ??CrossCallReturnLabel_147:
   \   00006B   12....       LCALL   ?DEALLOC_XSTACK8
    512          
    513            epDesc = afFindEndPointDesc( srcEP );
   \   00006E                ; Setup parameters for call to function afFindEndPointDesc
   \   00006E   EF           MOV     A,R7
   \   00006F   F9           MOV     R1,A
   \   000070   12....       LCALL   ??afFindEndPointDesc?relay
   \   000073   8A..         MOV     ?V0 + 10,R2
   \   000075   8B..         MOV     ?V0 + 11,R3
    514            if ( epDesc == NULL )
   \   000077   EA           MOV     A,R2
   \   000078   7001         JNZ     ??zcl_SendCommand_0
   \   00007A   EB           MOV     A,R3
   \                     ??zcl_SendCommand_0:
   \   00007B   7005         JNZ     ??zcl_SendCommand_1
    515              return ( ZInvalidParameter ); // EMBEDDED RETURN
   \                     ??zcl_SendCommand_2:
   \   00007D   7902         MOV     R1,#0x2
   \   00007F   02....       LJMP    ??zcl_SendCommand_3 & 0xFFFF
    516          
    517            if ( clusterID == ZCL_INVALID_CLUSTER_ID )
   \                     ??zcl_SendCommand_1:
   \   000082   74FF         MOV     A,#-0x1
   \   000084   65..         XRL     A,?V0 + 0
   \   000086   7004         JNZ     ??zcl_SendCommand_4
   \   000088   74FF         MOV     A,#-0x1
   \   00008A   65..         XRL     A,?V0 + 1
   \                     ??zcl_SendCommand_4:
   \   00008C   60EF         JZ      ??zcl_SendCommand_2
    518              return ( ZInvalidParameter ); // EMBEDDED RETURN
    519          
    520          #if defined ( INTER_PAN )
    521            if ( StubAPS_InterPan( destAddr->panId, destAddr->endPoint ) )
    522              options = AF_TX_OPTIONS_NONE;
    523            else
    524          #endif
    525              options = zclGetClusterOption( srcEP, clusterID );
   \   00008E                ; Setup parameters for call to function zclGetClusterOption
   \   00008E   AA..         MOV     R2,?V0 + 0
   \   000090   AB..         MOV     R3,?V0 + 1
   \   000092   EF           MOV     A,R7
   \   000093   F9           MOV     R1,A
   \   000094   12....       LCALL   ??zclGetClusterOption?relay
   \   000097   E9           MOV     A,R1
   \   000098   F5..         MOV     ?V0 + 2,A
    526            
    527            osal_memset( &hdr, 0, sizeof( zclFrameHdr_t ) );
   \   00009A                ; Setup parameters for call to function osal_memset
   \   00009A   7C06         MOV     R4,#0x6
   \   00009C   7D00         MOV     R5,#0x0
   \   00009E   7900         MOV     R1,#0x0
   \   0000A0   85..82       MOV     DPL,?XSP + 0
   \   0000A3   85..83       MOV     DPH,?XSP + 1
   \   0000A6   AA82         MOV     R2,DPL
   \   0000A8   AB83         MOV     R3,DPH
   \   0000AA   12....       LCALL   ??osal_memset?relay
    528          
    529            // Not Profile wide command (like READ, WRITE)
    530            if ( specific )
   \   0000AD   E5..         MOV     A,?V0 + 3
   \   0000AF   85..82       MOV     DPL,?XSP + 0
   \   0000B2   85..83       MOV     DPH,?XSP + 1
   \   0000B5   6015         JZ      ??zcl_SendCommand_5
    531              hdr.fc.type = ZCL_FRAME_TYPE_SPECIFIC_CMD;
   \   0000B7   E0           MOVX    A,@DPTR
   \   0000B8   54FC         ANL     A,#0xfc
   \   0000BA   F8           MOV     R0,A
   \   0000BB   A3           INC     DPTR
   \   0000BC   E0           MOVX    A,@DPTR
   \   0000BD   F9           MOV     R1,A
   \   0000BE   7401         MOV     A,#0x1
   \   0000C0   48           ORL     A,R0
   \   0000C1   85..82       MOV     DPL,?XSP + 0
   \   0000C4   85..83       MOV     DPH,?XSP + 1
   \   0000C7   F0           MOVX    @DPTR,A
   \   0000C8   A3           INC     DPTR
   \   0000C9   E9           MOV     A,R1
   \   0000CA   8006         SJMP    ??zcl_SendCommand_6
    532            else
    533              hdr.fc.type = ZCL_FRAME_TYPE_PROFILE_CMD;
   \                     ??zcl_SendCommand_5:
   \   0000CC   E0           MOVX    A,@DPTR
   \   0000CD   54FC         ANL     A,#0xfc
   \   0000CF   F0           MOVX    @DPTR,A
   \   0000D0   A3           INC     DPTR
   \   0000D1   E0           MOVX    A,@DPTR
   \                     ??zcl_SendCommand_6:
   \   0000D2   F0           MOVX    @DPTR,A
    534          
    535            if ((epDesc->simpleDesc == NULL) ||
    536                (zcl_DeviceOperational(srcEP, clusterID, hdr.fc.type, cmd, epDesc->simpleDesc->AppProfId) == FALSE))
   \   0000D3   85..82       MOV     DPL,?V0 + 10
   \   0000D6   85..83       MOV     DPH,?V0 + 11
   \   0000D9   A3           INC     DPTR
   \   0000DA   A3           INC     DPTR
   \   0000DB   A3           INC     DPTR
   \   0000DC   12....       LCALL   ?Subroutine41 & 0xFFFF
   \                     ??CrossCallReturnLabel_53:
   \   0000DF   7002         JNZ     ??zcl_SendCommand_7
   \   0000E1   E583         MOV     A,DPH
   \                     ??zcl_SendCommand_7:
   \   0000E3   6020         JZ      ??zcl_SendCommand_8
   \   0000E5                ; Setup parameters for call to function zcl_DeviceOperational
   \   0000E5   A3           INC     DPTR
   \   0000E6   12....       LCALL   ?PUSH_XSTACK8_X_TWO
   \   0000E9   EE           MOV     A,R6
   \   0000EA   FD           MOV     R5,A
   \   0000EB   7402         MOV     A,#0x2
   \   0000ED   12....       LCALL   ?XSTACK_DISP0_8
   \   0000F0   E0           MOVX    A,@DPTR
   \   0000F1   5403         ANL     A,#0x3
   \   0000F3   FC           MOV     R4,A
   \   0000F4   AA..         MOV     R2,?V0 + 0
   \   0000F6   AB..         MOV     R3,?V0 + 1
   \   0000F8   EF           MOV     A,R7
   \   0000F9   F9           MOV     R1,A
   \   0000FA   12....       LCALL   ??zcl_DeviceOperational?relay
   \   0000FD   7402         MOV     A,#0x2
   \   0000FF   12....       LCALL   ?DEALLOC_XSTACK8
   \   000102   E9           MOV     A,R1
   \   000103   7005         JNZ     ??zcl_SendCommand_9
    537              return ( ZFailure ); // EMBEDDED RETURN
   \                     ??zcl_SendCommand_8:
   \   000105   7901         MOV     R1,#0x1
   \   000107   02....       LJMP    ??zcl_SendCommand_3 & 0xFFFF
    538            
    539            if ( manuCode != 0 ) // Fill in the Maufacturer Code
   \                     ??zcl_SendCommand_9:
   \   00010A   E5..         MOV     A,?V0 + 12
   \   00010C   7002         JNZ     ??zcl_SendCommand_10
   \   00010E   E5..         MOV     A,?V0 + 13
   \                     ??zcl_SendCommand_10:
   \   000110   6019         JZ      ??zcl_SendCommand_11
    540            {
    541              hdr.fc.manuSpecific = 1;
   \   000112   85..82       MOV     DPL,?XSP + 0
   \   000115   85..83       MOV     DPH,?XSP + 1
   \   000118   E0           MOVX    A,@DPTR
   \   000119   4404         ORL     A,#0x4
   \   00011B   F0           MOVX    @DPTR,A
   \   00011C   A3           INC     DPTR
   \   00011D   E0           MOVX    A,@DPTR
   \   00011E   F0           MOVX    @DPTR,A
    542              hdr.manuCode = manuCode;
   \   00011F   7402         MOV     A,#0x2
   \   000121   12....       LCALL   ?XSTACK_DISP0_8
   \   000124   E5..         MOV     A,?V0 + 12
   \   000126   F0           MOVX    @DPTR,A
   \   000127   A3           INC     DPTR
   \   000128   E5..         MOV     A,?V0 + 13
   \   00012A   F0           MOVX    @DPTR,A
    543            }
    544            
    545            if ( direction ) // Set the Command Direction
   \                     ??zcl_SendCommand_11:
   \   00012B   E5..         MOV     A,?V0 + 9
   \   00012D   85..82       MOV     DPL,?XSP + 0
   \   000130   85..83       MOV     DPH,?XSP + 1
   \   000133   6005         JZ      ??zcl_SendCommand_12
    546              hdr.fc.direction = ZCL_FRAME_SERVER_CLIENT_DIR;
   \   000135   E0           MOVX    A,@DPTR
   \   000136   4408         ORL     A,#0x8
   \   000138   8003         SJMP    ??zcl_SendCommand_13
    547            else
    548              hdr.fc.direction = ZCL_FRAME_CLIENT_SERVER_DIR;
   \                     ??zcl_SendCommand_12:
   \   00013A   E0           MOVX    A,@DPTR
   \   00013B   54F7         ANL     A,#0xf7
   \                     ??zcl_SendCommand_13:
   \   00013D   F0           MOVX    @DPTR,A
   \   00013E   A3           INC     DPTR
   \   00013F   E0           MOVX    A,@DPTR
   \   000140   F0           MOVX    @DPTR,A
    549          
    550            if ( disableDefaultRsp ) // Set the Disable Default Response field
   \   000141   E5..         MOV     A,?V0 + 8
   \   000143   85..82       MOV     DPL,?XSP + 0
   \   000146   85..83       MOV     DPH,?XSP + 1
   \   000149   6005         JZ      ??zcl_SendCommand_14
    551              hdr.fc.disableDefaultRsp = 1;
   \   00014B   E0           MOVX    A,@DPTR
   \   00014C   4410         ORL     A,#0x10
   \   00014E   8003         SJMP    ??zcl_SendCommand_15
    552            else
    553              hdr.fc.disableDefaultRsp = 0;
   \                     ??zcl_SendCommand_14:
   \   000150   E0           MOVX    A,@DPTR
   \   000151   54EF         ANL     A,#0xef
   \                     ??zcl_SendCommand_15:
   \   000153   F0           MOVX    @DPTR,A
   \   000154   A3           INC     DPTR
   \   000155   E0           MOVX    A,@DPTR
   \   000156   F0           MOVX    @DPTR,A
    554                               
    555            hdr.transSeqNum = seqNum; // Fill in the Transaction Sequence Number
   \   000157   7404         MOV     A,#0x4
   \   000159   12....       LCALL   ?XSTACK_DISP0_8
   \   00015C   E5..         MOV     A,?V0 + 7
   \   00015E   F0           MOVX    @DPTR,A
    556            
    557            hdr.commandID = cmd; // Fill in the command
   \   00015F   7405         MOV     A,#0x5
   \   000161   12....       LCALL   ?XSTACK_DISP0_8
   \   000164   EE           MOV     A,R6
   \   000165   F0           MOVX    @DPTR,A
    558            
    559            msgLen = zclCalcHdrSize( &hdr ); // calculate the needed buffer size
   \   000166   75..03       MOV     ?V0 + 4,#0x3
   \   000169   85..82       MOV     DPL,?XSP + 0
   \   00016C   85..83       MOV     DPH,?XSP + 1
   \   00016F   E0           MOVX    A,@DPTR
   \   000170   5404         ANL     A,#0x4
   \   000172   6003         JZ      ??zcl_SendCommand_16
   \   000174   75..05       MOV     ?V0 + 4,#0x5
    560            msgLen += cmdFormatLen;
   \                     ??zcl_SendCommand_16:
   \   000177   E5..         MOV     A,?V0 + 14
   \   000179   25..         ADD     A,?V0 + 4
   \   00017B   F5..         MOV     ?V0 + 12,A
   \   00017D   E5..         MOV     A,?V0 + 15
   \   00017F   3400         ADDC    A,#0x0
   \   000181   F5..         MOV     ?V0 + 13,A
    561          
    562            msgBuf = osal_mem_alloc( msgLen ); // Allocate the buffer needed
   \   000183                ; Setup parameters for call to function osal_mem_alloc
   \   000183   AA..         MOV     R2,?V0 + 12
   \   000185   FB           MOV     R3,A
   \   000186   12....       LCALL   ??osal_mem_alloc?relay
   \   000189   8A..         MOV     ?V0 + 8,R2
   \   00018B   8B..         MOV     ?V0 + 9,R3
    563            if ( msgBuf != NULL )
   \   00018D   EA           MOV     A,R2
   \   00018E   7001         JNZ     ??zcl_SendCommand_17
   \   000190   EB           MOV     A,R3
   \                     ??zcl_SendCommand_17:
   \   000191   606B         JZ      ??zcl_SendCommand_18
    564            {
    565              pBuf = zclBuildHdr( &hdr, msgBuf ); // Fill in the ZCL Header
    566          
    567              osal_memcpy( pBuf, cmdFormat, cmdFormatLen ); // Fill in the command frame
   \   000193                ; Setup parameters for call to function osal_memcpy
   \   000193   7433         MOV     A,#0x33
   \   000195   12....       LCALL   ?XSTACK_DISP0_8
   \   000198   12....       LCALL   ?Subroutine79 & 0xFFFF
   \                     ??CrossCallReturnLabel_108:
   \   00019B   78..         MOV     R0,#?V0 + 4
   \   00019D   12....       LCALL   ?PUSH_XSTACK_I_THREE
   \   0001A0                ; Setup parameters for call to function zclBuildHdr
   \   0001A0   AC..         MOV     R4,?V0 + 8
   \   0001A2   AD..         MOV     R5,?V0 + 9
   \   0001A4   7403         MOV     A,#0x3
   \   0001A6   12....       LCALL   ?XSTACK_DISP0_8
   \   0001A9   AA82         MOV     R2,DPL
   \   0001AB   AB83         MOV     R3,DPH
   \   0001AD   12....       LCALL   ??zclBuildHdr?relay
   \   0001B0   AC..         MOV     R4,?V0 + 14
   \   0001B2   AD..         MOV     R5,?V0 + 15
   \   0001B4   12....       LCALL   ?Subroutine108 & 0xFFFF
   \                     ??CrossCallReturnLabel_148:
   \   0001B7   12....       LCALL   ?DEALLOC_XSTACK8
    568          
    569              status = AF_DataRequest( &dstAddr, epDesc, clusterID, msgLen, msgBuf, 
    570                                       &zcl_TransID, options, AF_DEFAULT_RADIUS );  
   \   0001BA                ; Setup parameters for call to function AF_DataRequest
   \   0001BA   75..1E       MOV     ?V0 + 3,#0x1e
   \   0001BD   78..         MOV     R0,#?V0 + 3
   \   0001BF   12....       LCALL   ?PUSH_XSTACK_I_ONE
   \   0001C2   75....       MOV     ?V0 + 4,#(zcl_TransID & 0xff)
   \   0001C5   75....       MOV     ?V0 + 5,#((zcl_TransID >> 8) & 0xff)
   \   0001C8   78..         MOV     R0,#?V0 + 4
   \   0001CA   12....       LCALL   ?PUSH_XSTACK_I_TWO
   \   0001CD   78..         MOV     R0,#?V0 + 8
   \   0001CF   12....       LCALL   ?PUSH_XSTACK_I_TWO
   \   0001D2   78..         MOV     R0,#?V0 + 12
   \   0001D4   12....       LCALL   ?PUSH_XSTACK_I_TWO
   \   0001D7   78..         MOV     R0,#?V0 + 0
   \   0001D9   12....       LCALL   ?PUSH_XSTACK_I_TWO
   \   0001DC   A9..         MOV     R1,?V0 + 2
   \   0001DE   AC..         MOV     R4,?V0 + 10
   \   0001E0   AD..         MOV     R5,?V0 + 11
   \   0001E2   740F         MOV     A,#0xf
   \   0001E4   12....       LCALL   ?XSTACK_DISP0_8
   \   0001E7   AA82         MOV     R2,DPL
   \   0001E9   AB83         MOV     R3,DPH
   \   0001EB   12....       LCALL   ??AF_DataRequest?relay
   \   0001EE   7409         MOV     A,#0x9
   \   0001F0   12....       LCALL   ?DEALLOC_XSTACK8
   \   0001F3   E9           MOV     A,R1
   \   0001F4   FE           MOV     R6,A
    571              osal_mem_free ( msgBuf );
   \   0001F5                ; Setup parameters for call to function osal_mem_free
   \   0001F5   AA..         MOV     R2,?V0 + 8
   \   0001F7   AB..         MOV     R3,?V0 + 9
   \   0001F9   12....       LCALL   ??osal_mem_free?relay
   \   0001FC   8002         SJMP    ??zcl_SendCommand_19
    572            }
    573            else
    574              status = ZMemError;
   \                     ??zcl_SendCommand_18:
   \   0001FE   7E10         MOV     R6,#0x10
    575          
    576            return ( status );
   \                     ??zcl_SendCommand_19:
   \   000200   EE           MOV     A,R6
   \   000201   F9           MOV     R1,A
   \                     ??zcl_SendCommand_3:
   \   000202                REQUIRE ?Subroutine120
   \   000202                ; // Fall through to label ?Subroutine120
    577          }

   \                                 In  segment BANKED_CODE, align 1, keep-with-next
   \                     ?Subroutine120:
   \   000000   7412         MOV     A,#0x12
   \   000002   80..         SJMP    ??Subroutine122_0

   \                                 In  segment BANKED_CODE, align 1, keep-with-next
   \                     ??Subroutine122_0:
   \   000000   12....       LCALL   ?DEALLOC_XSTACK8
   \   000003   7F10         MOV     R7,#0x10
   \   000005   02....       LJMP    ?BANKED_LEAVE_XDATA

   \                                 In  segment BANKED_CODE, align 1, keep-with-next
   \                     ?Subroutine41:
   \   000000   12....       LCALL   ?Subroutine88 & 0xFFFF
   \                     ??CrossCallReturnLabel_201:
   \   000003   8882         MOV     DPL,R0
   \   000005   8983         MOV     DPH,R1
   \   000007   E582         MOV     A,DPL
   \   000009   22           RET

   \                                 In  segment BANKED_CODE, align 1, keep-with-next
   \                     ?Subroutine108:
   \   000000   12....       LCALL   ??osal_memcpy?relay
   \   000003   7403         MOV     A,#0x3
   \   000005   22           RET

   \                                 In  segment BANKED_CODE, align 1, keep-with-next
   \                     ?Subroutine88:
   \   000000   E0           MOVX    A,@DPTR
   \   000001   F8           MOV     R0,A
   \   000002   A3           INC     DPTR
   \   000003   E0           MOVX    A,@DPTR
   \   000004   F9           MOV     R1,A
   \   000005   22           RET

   \                                 In  segment BANKED_CODE, align 1, keep-with-next
   \                     ?Subroutine79:
   \   000000   E0           MOVX    A,@DPTR
   \   000001   F5..         MOV     ?V0 + 4,A
   \   000003   A3           INC     DPTR
   \   000004   E0           MOVX    A,@DPTR
   \   000005   F5..         MOV     ?V0 + 5,A
   \   000007   22           RET
    578          
    579          #ifdef ZCL_READ
    580          /*********************************************************************
    581           * @fn      zcl_SendRead
    582           * @brief   Send a Read command
    583           * @param   srcEP - Application's endpoint
    584           *          dstAddr - destination address
    585           *          clusterID - cluster ID
    586           *          readCmd - read command to be sent
    587           *          direction - direction of the command
    588           *          seqNum - transaction sequence number
    589           * @return  ZSuccess if OK
    590           */

   \                                 In  segment BANKED_CODE, align 1, keep-with-next
    591          ZStatus_t zcl_SendRead( uint8 srcEP, afAddrType_t *dstAddr,
   \                     zcl_SendRead:
    592                                  uint16 clusterID, zclReadCmd_t *readCmd,
    593                                  uint8 direction, uint8 disableDefaultRsp, uint8 seqNum)
    594          {
   \   000000   74EA         MOV     A,#-0x16
   \   000002   12....       LCALL   ?BANKED_ENTER_XDATA
   \   000005                ; Saved register size: 22
   \   000005                ; Auto size: 0
   \   000005   89..         MOV     ?V0 + 8,R1
   \   000007   EA           MOV     A,R2
   \   000008   FE           MOV     R6,A
   \   000009   EB           MOV     A,R3
   \   00000A   FF           MOV     R7,A
   \   00000B   8C..         MOV     ?V0 + 0,R4
   \   00000D   8D..         MOV     ?V0 + 1,R5
   \   00000F   7416         MOV     A,#0x16
   \   000011   12....       LCALL   ?XSTACK_DISP0_8
   \   000014   12....       LCALL   ?Subroutine57 & 0xFFFF
   \                     ??CrossCallReturnLabel_79:
   \   000017   12....       LCALL   ?XSTACK_DISP0_8
   \   00001A   E0           MOVX    A,@DPTR
   \   00001B   F5..         MOV     ?V0 + 9,A
   \   00001D   7419         MOV     A,#0x19
   \   00001F   12....       LCALL   ?XSTACK_DISP0_8
   \   000022   E0           MOVX    A,@DPTR
   \   000023   F5..         MOV     ?V0 + 12,A
   \   000025   741A         MOV     A,#0x1a
   \   000027   12....       LCALL   ?XSTACK_DISP0_8
   \   00002A   E0           MOVX    A,@DPTR
   \   00002B   F5..         MOV     ?V0 + 13,A
    595            uint8 dataLen;
    596            uint8 *buf;
    597            uint8 *pBuf;
    598            ZStatus_t status;
    599          
    600            dataLen = readCmd->numAttr * 2; // Attribute ID
   \   00002D   85..82       MOV     DPL,?V0 + 4
   \   000030   85..83       MOV     DPH,?V0 + 5
   \   000033   E0           MOVX    A,@DPTR
   \   000034   C3           CLR     C
   \   000035   33           RLC     A
   \   000036   FA           MOV     R2,A
    601          
    602            buf = osal_mem_alloc( dataLen );
   \   000037   8A82         MOV     DPL,R2
   \   000039   8582..       MOV     ?V0 + 6,DPL
   \   00003C   75..00       MOV     ?V0 + 7,#0x0
   \   00003F                ; Setup parameters for call to function osal_mem_alloc
   \   00003F   12....       LCALL   ?Subroutine64 & 0xFFFF
    603            if ( buf != NULL )
   \                     ??CrossCallReturnLabel_87:
   \   000042   7001         JNZ     ??zcl_SendRead_0
   \   000044   EB           MOV     A,R3
   \                     ??zcl_SendRead_0:
   \   000045   7003         JNZ     $+5
   \   000047   02....       LJMP    ??zcl_SendRead_1 & 0xFFFF
    604            {
    605              uint8 i;
    606          
    607              pBuf = buf; // Load the buffer - serially
   \   00004A   A8..         MOV     R0,?V0 + 2
   \   00004C   A9..         MOV     R1,?V0 + 3
    608              for (i = 0; i < readCmd->numAttr; i++)
   \   00004E   75..00       MOV     ?V0 + 10,#0x0
   \   000051   801F         SJMP    ??zcl_SendRead_2
    609              {
    610                *pBuf++ = LO_UINT16( readCmd->attrID[i] );
   \                     ??zcl_SendRead_3:
   \   000053   E5..         MOV     A,?V0 + 10
   \   000055   C3           CLR     C
   \   000056   33           RLC     A
   \   000057   FA           MOV     R2,A
   \   000058   E4           CLR     A
   \   000059   33           RLC     A
   \   00005A   FB           MOV     R3,A
   \   00005B   E5..         MOV     A,?V0 + 4
   \   00005D   2A           ADD     A,R2
   \   00005E   F582         MOV     DPL,A
   \   000060   E5..         MOV     A,?V0 + 5
   \   000062   3B           ADDC    A,R3
   \   000063   F583         MOV     DPH,A
   \   000065   A3           INC     DPTR
   \   000066   AA82         MOV     R2,DPL
   \   000068   AB83         MOV     R3,DPH
   \   00006A   12....       LCALL   ?Subroutine42 & 0xFFFF
    611                *pBuf++ = HI_UINT16( readCmd->attrID[i] );
   \                     ??CrossCallReturnLabel_160:
   \   00006D   12....       LCALL   ?Subroutine29 & 0xFFFF
    612              }
   \                     ??CrossCallReturnLabel_170:
   \   000070   05..         INC     ?V0 + 10
   \                     ??zcl_SendRead_2:
   \   000072   85..82       MOV     DPL,?V0 + 4
   \   000075   85..83       MOV     DPH,?V0 + 5
   \   000078   E0           MOVX    A,@DPTR
   \   000079   FA           MOV     R2,A
   \   00007A   E5..         MOV     A,?V0 + 10
   \   00007C   C3           CLR     C
   \   00007D   9A           SUBB    A,R2
   \   00007E   40D3         JC      ??zcl_SendRead_3
    613              status = zcl_SendCommand( srcEP, dstAddr, clusterID, ZCL_CMD_READ, FALSE,
    614                                        direction, disableDefaultRsp, 0, seqNum, dataLen, buf );  
   \   000080                ; Setup parameters for call to function zcl_SendCommand
   \   000080   78..         MOV     R0,#?V0 + 2
   \   000082   12....       LCALL   ?PUSH_XSTACK_I_TWO
   \   000085   78..         MOV     R0,#?V0 + 6
   \   000087   12....       LCALL   ?PUSH_XSTACK_I_TWO
   \   00008A   E5..         MOV     A,?V0 + 13
   \   00008C   F5..         MOV     ?V0 + 4,A
   \   00008E   78..         MOV     R0,#?V0 + 4
   \   000090   12....       LCALL   ?PUSH_XSTACK_I_ONE
   \   000093   75..00       MOV     ?V0 + 4,#0x0
   \   000096   75..00       MOV     ?V0 + 5,#0x0
   \   000099   78..         MOV     R0,#?V0 + 4
   \   00009B   12....       LCALL   ?PUSH_XSTACK_I_TWO
   \   00009E   E5..         MOV     A,?V0 + 12
   \   0000A0   F5..         MOV     ?V0 + 4,A
   \   0000A2   78..         MOV     R0,#?V0 + 4
   \   0000A4   12....       LCALL   ?PUSH_XSTACK_I_ONE
   \   0000A7   E5..         MOV     A,?V0 + 9
   \   0000A9   F5..         MOV     ?V0 + 4,A
   \   0000AB   78..         MOV     R0,#?V0 + 4
   \   0000AD   12....       LCALL   ?PUSH_XSTACK_I_ONE
   \   0000B0   75..00       MOV     ?V0 + 4,#0x0
   \   0000B3   78..         MOV     R0,#?V0 + 4
   \   0000B5   12....       LCALL   ?PUSH_XSTACK_I_ONE
   \   0000B8   78..         MOV     R0,#?V0 + 4
   \   0000BA   12....       LCALL   ?PUSH_XSTACK_I_ONE
   \   0000BD   AC..         MOV     R4,?V0 + 0
   \   0000BF   AD..         MOV     R5,?V0 + 1
   \   0000C1   EE           MOV     A,R6
   \   0000C2   FA           MOV     R2,A
   \   0000C3   EF           MOV     A,R7
   \   0000C4   FB           MOV     R3,A
   \   0000C5   A9..         MOV     R1,?V0 + 8
   \   0000C7   12....       LCALL   ?Subroutine93 & 0xFFFF
   \                     ??CrossCallReturnLabel_122:
   \   0000CA   12....       LCALL   ?DEALLOC_XSTACK8
   \   0000CD   E9           MOV     A,R1
   \   0000CE   FE           MOV     R6,A
    615              osal_mem_free( buf );
   \   0000CF                ; Setup parameters for call to function osal_mem_free
   \   0000CF   AA..         MOV     R2,?V0 + 2
   \   0000D1   AB..         MOV     R3,?V0 + 3
   \   0000D3   12....       LCALL   ??osal_mem_free?relay
   \   0000D6   8002         SJMP    ??zcl_SendRead_4
    616            }
    617            else
    618              status = ZMemError;
   \                     ??zcl_SendRead_1:
   \   0000D8   7E10         MOV     R6,#0x10
    619          
    620            return ( status );
   \                     ??zcl_SendRead_4:
   \   0000DA                REQUIRE ?Subroutine116
   \   0000DA                ; // Fall through to label ?Subroutine116
    621          }

   \                                 In  segment BANKED_CODE, align 1, keep-with-next
   \                     ?Subroutine116:
   \   000000   EE           MOV     A,R6
   \   000001   F9           MOV     R1,A
   \   000002                REQUIRE ??Subroutine123_0
   \   000002                ; // Fall through to label ??Subroutine123_0

   \                                 In  segment BANKED_CODE, align 1, keep-with-next
   \                     ??Subroutine123_0:
   \   000000   7F0E         MOV     R7,#0xe
   \   000002   02....       LJMP    ?BANKED_LEAVE_XDATA

   \                                 In  segment BANKED_CODE, align 1, keep-with-next
   \                     ?Subroutine29:
   \   000000   8A82         MOV     DPL,R2
   \   000002   8B83         MOV     DPH,R3
   \   000004   A3           INC     DPTR
   \   000005                REQUIRE ??Subroutine124_0
   \   000005                ; // Fall through to label ??Subroutine124_0

   \                                 In  segment BANKED_CODE, align 1, keep-with-next
   \                     ??Subroutine124_0:
   \   000000   E0           MOVX    A,@DPTR
   \   000001   8882         MOV     DPL,R0
   \   000003   8983         MOV     DPH,R1
   \   000005   F0           MOVX    @DPTR,A
   \   000006   A3           INC     DPTR
   \   000007   08           INC     R0
   \   000008   A983         MOV     R1,DPH
   \   00000A   22           RET

   \                                 In  segment BANKED_CODE, align 1, keep-with-next
   \                     ?Subroutine111:
   \   000000   A882         MOV     R0,DPL
   \   000002   A983         MOV     R1,DPH
   \   000004   22           RET

   \                                 In  segment BANKED_CODE, align 1, keep-with-next
   \                     ?Subroutine93:
   \   000000   12....       LCALL   ??zcl_SendCommand?relay
   \   000003   740B         MOV     A,#0xb
   \   000005   22           RET

   \                                 In  segment BANKED_CODE, align 1, keep-with-next
   \                     ?Subroutine64:
   \   000000   7B00         MOV     R3,#0x0
   \   000002   12....       LCALL   ??osal_mem_alloc?relay
   \   000005   8A..         MOV     ?V0 + 2,R2
   \   000007   8B..         MOV     ?V0 + 3,R3
   \   000009   EA           MOV     A,R2
   \   00000A   22           RET

   \                                 In  segment BANKED_CODE, align 1, keep-with-next
   \                     ?Subroutine57:
   \   000000   12....       LCALL   ?Subroutine79 & 0xFFFF
   \                     ??CrossCallReturnLabel_111:
   \   000003   7418         MOV     A,#0x18
   \   000005   22           RET

   \                                 In  segment BANKED_CODE, align 1, keep-with-next
   \                     ?Subroutine42:
   \   000000   E0           MOVX    A,@DPTR
   \   000001   8882         MOV     DPL,R0
   \   000003   8983         MOV     DPH,R1
   \   000005   F0           MOVX    @DPTR,A
   \   000006   A3           INC     DPTR
   \   000007   02....       LJMP    ?Subroutine111 & 0xFFFF
    622          
    623          /*********************************************************************
    624           * @fn      zcl_SendReadRsp
    625           * @brief   Send a Read Response command.
    626           * @param   srcEP - Application's endpoint
    627           *          dstAddr - destination address
    628           *          clusterID - cluster ID
    629           *          readRspCmd - read response command to be sent
    630           *          direction - direction of the command
    631           *          seqNum - transaction sequence number
    632           * @return  ZSuccess if OK
    633           */

   \                                 In  segment BANKED_CODE, align 1, keep-with-next
   \                     ?Subroutine115:
   \   000000   EE           MOV     A,R6
   \   000001   F9           MOV     R1,A
   \   000002   7404         MOV     A,#0x4
   \   000004                REQUIRE ??Subroutine122_0
   \   000004                ; // Fall through to label ??Subroutine122_0

   \                                 In  segment BANKED_CODE, align 1, keep-with-next
    634          ZStatus_t zcl_SendReadRsp( uint8 srcEP, afAddrType_t *dstAddr,
   \                     zcl_SendReadRsp:
    635                                     uint16 clusterID, zclReadRspCmd_t *readRspCmd,
    636                                     uint8 direction, uint8 disableDefaultRsp, uint8 seqNum )
    637          {
   \   000000   74E8         MOV     A,#-0x18
   \   000002   12....       LCALL   ?BANKED_ENTER_XDATA
   \   000005                ; Saved register size: 24
   \   000005                ; Auto size: 4
   \   000005   74FC         MOV     A,#-0x4
   \   000007   12....       LCALL   ?ALLOC_XSTACK8
   \   00000A   7402         MOV     A,#0x2
   \   00000C   12....       LCALL   ?XSTACK_DISP0_8
   \   00000F   12....       LCALL   ?Subroutine2 & 0xFFFF
   \                     ??CrossCallReturnLabel_4:
   \   000012   12....       LCALL   ?XSTACK_DISP0_8
   \   000015   12....       LCALL   ?Subroutine58 & 0xFFFF
   \                     ??CrossCallReturnLabel_81:
   \   000018   12....       LCALL   ?XSTACK_DISP0_8
   \   00001B   E0           MOVX    A,@DPTR
   \   00001C   F5..         MOV     ?V0 + 10,A
   \   00001E   741F         MOV     A,#0x1f
   \   000020   12....       LCALL   ?XSTACK_DISP0_8
   \   000023   E0           MOVX    A,@DPTR
   \   000024   F5..         MOV     ?V0 + 9,A
   \   000026   7420         MOV     A,#0x20
   \   000028   12....       LCALL   ?XSTACK_DISP0_8
   \   00002B   E0           MOVX    A,@DPTR
   \   00002C   F5..         MOV     ?V0 + 8,A
    638            uint8 *buf;
    639            uint8 *pBuf;
    640            zclReadRspStatus_t *statusRec;
    641            uint8 len = 0;
   \   00002E   7E00         MOV     R6,#0x0
    642            uint8 i;
    643            ZStatus_t status;
    644            
    645            // calculate the size of the command
    646            for ( i = 0; i < readRspCmd->numAttr; i++ )
   \   000030   8E..         MOV     ?V0 + 5,R6
   \   000032   8021         SJMP    ??zcl_SendReadRsp_0
    647            {
    648              statusRec = &(readRspCmd->attrList[i]);
   \                     ??zcl_SendReadRsp_1:
   \   000034   E5..         MOV     A,?V0 + 5
   \   000036   75F006       MOV     B,#0x6
   \   000039   12....       LCALL   ?Subroutine73 & 0xFFFF
    649              
    650              len += 2 + 1; // Attribute ID + Status
   \                     ??CrossCallReturnLabel_97:
   \   00003C   0E           INC     R6
   \   00003D   0E           INC     R6
   \   00003E   0E           INC     R6
    651          
    652              if ( statusRec->status == ZCL_STATUS_SUCCESS )
   \   00003F   A3           INC     DPTR
   \   000040   A3           INC     DPTR
   \   000041   E0           MOVX    A,@DPTR
   \   000042   700F         JNZ     ??zcl_SendReadRsp_2
    653              {
    654                len++; // Attribute Data Type
    655                len += zclGetAttrDataLength( statusRec->dataType, statusRec->data); // Attribute Data
   \   000044                ; Setup parameters for call to function zclGetAttrDataLength
   \   000044   8882         MOV     DPL,R0
   \   000046   8983         MOV     DPH,R1
   \   000048   A3           INC     DPTR
   \   000049   12....       LCALL   ?Subroutine43 & 0xFFFF
    656              }
    657            }
   \                     ??CrossCallReturnLabel_55:
   \   00004C   A3           INC     DPTR
   \   00004D   12....       LCALL   ?Subroutine86 & 0xFFFF
   \                     ??CrossCallReturnLabel_183:
   \   000050   04           INC     A
   \   000051   2E           ADD     A,R6
   \   000052   FE           MOV     R6,A
   \                     ??zcl_SendReadRsp_2:
   \   000053   05..         INC     ?V0 + 5
   \                     ??zcl_SendReadRsp_0:
   \   000055   12....       LCALL   ?Subroutine38 & 0xFFFF
   \                     ??CrossCallReturnLabel_42:
   \   000058   40DA         JC      ??zcl_SendReadRsp_1
    658          
    659            buf = osal_mem_alloc( len );
   \   00005A   12....       LCALL   ?Subroutine65 & 0xFFFF
    660            if ( buf != NULL )
   \                     ??CrossCallReturnLabel_89:
   \   00005D   7001         JNZ     ??zcl_SendReadRsp_3
   \   00005F   EB           MOV     A,R3
   \                     ??zcl_SendReadRsp_3:
   \   000060   7003         JNZ     $+5
   \   000062   02....       LJMP    ??zcl_SendReadRsp_4 & 0xFFFF
    661            {
    662              // Load the buffer - serially
    663              pBuf = buf;
   \   000065   AE..         MOV     R6,?V0 + 6
   \   000067   AF..         MOV     R7,?V0 + 7
    664              for ( i = 0; i < readRspCmd->numAttr; i++ )
   \   000069   75..00       MOV     ?V0 + 5,#0x0
   \   00006C   8028         SJMP    ??zcl_SendReadRsp_5
    665              {
    666                statusRec = &(readRspCmd->attrList[i]);
   \                     ??zcl_SendReadRsp_6:
   \   00006E   E5..         MOV     A,?V0 + 5
   \   000070   75F006       MOV     B,#0x6
   \   000073   12....       LCALL   ?Subroutine1 & 0xFFFF
    667                
    668                *pBuf++ = LO_UINT16( statusRec->attrID );
    669                *pBuf++ = HI_UINT16( statusRec->attrID );
    670                *pBuf++ = statusRec->status;
   \                     ??CrossCallReturnLabel_2:
   \   000076   FA           MOV     R2,A
   \   000077   E9           MOV     A,R1
   \   000078   3400         ADDC    A,#0x0
   \   00007A   FB           MOV     R3,A
   \   00007B   8A82         MOV     DPL,R2
   \   00007D   8B83         MOV     DPH,R3
   \   00007F   12....       LCALL   ?Subroutine99 & 0xFFFF
    671          
    672                if ( statusRec->status == ZCL_STATUS_SUCCESS )
   \                     ??CrossCallReturnLabel_133:
   \   000082   8A82         MOV     DPL,R2
   \   000084   8B83         MOV     DPH,R3
   \   000086   E0           MOVX    A,@DPTR
   \   000087   700B         JNZ     ??CrossCallReturnLabel_156
    673                {
    674                  *pBuf++ = statusRec->dataType;
   \   000089   E8           MOV     A,R0
   \   00008A   2403         ADD     A,#0x3
   \   00008C   12....       LCALL   ?Subroutine45 & 0xFFFF
    675                  zclSerializeData( statusRec->dataType, statusRec->data, pBuf );
    676                  
    677                  // move pass attribute data
    678                  pBuf += zclGetAttrDataLength( statusRec->dataType, statusRec->data );
    679                }
    680              } // for loop
   \                     ??CrossCallReturnLabel_59:
   \   00008F   2404         ADD     A,#0x4
   \   000091   12....       LCALL   ?Subroutine21 & 0xFFFF
   \                     ??CrossCallReturnLabel_156:
   \   000094   05..         INC     ?V0 + 5
   \                     ??zcl_SendReadRsp_5:
   \   000096   12....       LCALL   ?Subroutine38 & 0xFFFF
   \                     ??CrossCallReturnLabel_43:
   \   000099   40D3         JC      ??zcl_SendReadRsp_6
    681          
    682              status = zcl_SendCommand( srcEP, dstAddr, clusterID, ZCL_CMD_READ_RSP, FALSE, 
    683                                        direction, disableDefaultRsp, 0, seqNum, len, buf );
   \   00009B                ; Setup parameters for call to function zcl_SendCommand
   \   00009B   78..         MOV     R0,#?V0 + 6
   \   00009D   12....       LCALL   ?PUSH_XSTACK_I_TWO
   \   0000A0   78..         MOV     R0,#?V0 + 0
   \   0000A2   12....       LCALL   ?PUSH_XSTACK_I_TWO
   \   0000A5   E5..         MOV     A,?V0 + 8
   \   0000A7   F5..         MOV     ?V0 + 0,A
   \   0000A9   78..         MOV     R0,#?V0 + 0
   \   0000AB   12....       LCALL   ?PUSH_XSTACK_I_ONE
   \   0000AE   75..00       MOV     ?V0 + 0,#0x0
   \   0000B1   78..         MOV     R0,#?V0 + 0
   \   0000B3   12....       LCALL   ?PUSH_XSTACK_I_TWO
   \   0000B6   E5..         MOV     A,?V0 + 9
   \   0000B8   F5..         MOV     ?V0 + 0,A
   \   0000BA   78..         MOV     R0,#?V0 + 0
   \   0000BC   12....       LCALL   ?PUSH_XSTACK_I_ONE
   \   0000BF   E5..         MOV     A,?V0 + 10
   \   0000C1   F5..         MOV     ?V0 + 0,A
   \   0000C3   78..         MOV     R0,#?V0 + 0
   \   0000C5   12....       LCALL   ?PUSH_XSTACK_I_ONE
   \   0000C8   75..00       MOV     ?V0 + 0,#0x0
   \   0000CB   78..         MOV     R0,#?V0 + 0
   \   0000CD   12....       LCALL   ?PUSH_XSTACK_I_ONE
   \   0000D0   75..01       MOV     ?V0 + 0,#0x1
   \   0000D3   78..         MOV     R0,#?V0 + 0
   \   0000D5   12....       LCALL   ?PUSH_XSTACK_I_ONE
   \   0000D8   740B         MOV     A,#0xb
   \   0000DA   12....       LCALL   ?XSTACK_DISP0_8
   \   0000DD   12....       LCALL   ??Subroutine147_0 & 0xFFFF
   \                     ??CrossCallReturnLabel_277:
   \   0000E0   740D         MOV     A,#0xd
   \   0000E2   12....       LCALL   ?XSTACK_DISP0_8
   \   0000E5   12....       LCALL   ?Subroutine37 & 0xFFFF
   \                     ??CrossCallReturnLabel_40:
   \   0000E8   12....       LCALL   ?DEALLOC_XSTACK8
   \   0000EB   E9           MOV     A,R1
   \   0000EC   FE           MOV     R6,A
    684              osal_mem_free( buf );
   \   0000ED                ; Setup parameters for call to function osal_mem_free
   \   0000ED   AA..         MOV     R2,?V0 + 6
   \   0000EF   AB..         MOV     R3,?V0 + 7
   \   0000F1   12....       LCALL   ??osal_mem_free?relay
   \   0000F4   8002         SJMP    ??zcl_SendReadRsp_7
    685            }
    686            else
    687              status = ZMemError;
   \                     ??zcl_SendReadRsp_4:
   \   0000F6   7E10         MOV     R6,#0x10
    688          
    689            return ( status );
   \                     ??zcl_SendReadRsp_7:
   \   0000F8   02....       LJMP    ?Subroutine115 & 0xFFFF
    690          }

   \                                 In  segment BANKED_CODE, align 1, keep-with-next
   \                     ?Subroutine86:
   \   000000   E0           MOVX    A,@DPTR
   \   000001   F9           MOV     R1,A
   \   000002   12....       LCALL   ??zclGetAttrDataLength?relay
   \   000005   E9           MOV     A,R1
   \   000006   22           RET

   \                                 In  segment BANKED_CODE, align 1, keep-with-next
   \                     ?Subroutine73:
   \   000000   12....       LCALL   ?Subroutine94 & 0xFFFF
   \                     ??CrossCallReturnLabel_163:
   \   000003   22           RET

   \                                 In  segment BANKED_CODE, align 1, keep-with-next
   \                     ?Subroutine94:
   \   000000   A4           MUL     AB
   \   000001   F8           MOV     R0,A
   \   000002   A9F0         MOV     R1,B
   \   000004   12....       LCALL   ?Subroutine102 & 0xFFFF
   \                     ??CrossCallReturnLabel_139:
   \   000007                REQUIRE ?Subroutine111
   \   000007                ; // Fall through to label ?Subroutine111

   \                                 In  segment BANKED_CODE, align 1, keep-with-next
   \                     ?Subroutine65:
   \   000000   8E82         MOV     DPL,R6
   \   000002   8582..       MOV     ?V0 + 0,DPL
   \   000005   75..00       MOV     ?V0 + 1,#0x0
   \   000008                ; Setup parameters for call to function osal_mem_alloc
   \   000008                ; Setup parameters for call to function osal_mem_alloc
   \   000008   AA..         MOV     R2,?V0 + 0
   \   00000A   7B00         MOV     R3,#0x0
   \   00000C   12....       LCALL   ??osal_mem_alloc?relay
   \   00000F   8A..         MOV     ?V0 + 6,R2
   \   000011   8B..         MOV     ?V0 + 7,R3
   \   000013   EA           MOV     A,R2
   \   000014   22           RET

   \                                 In  segment BANKED_CODE, align 1, keep-with-next
   \                     ?Subroutine58:
   \   000000   E0           MOVX    A,@DPTR
   \   000001   F5..         MOV     ?V0 + 2,A
   \   000003   A3           INC     DPTR
   \   000004   E0           MOVX    A,@DPTR
   \   000005   F5..         MOV     ?V0 + 3,A
   \   000007   741E         MOV     A,#0x1e
   \   000009   22           RET

   \                                 In  segment BANKED_CODE, align 1, keep-with-next
   \                     ?Subroutine45:
   \   000000   F5..         MOV     ?V0 + 12,A
   \   000002   E9           MOV     A,R1
   \   000003   3400         ADDC    A,#0x0
   \   000005   F5..         MOV     ?V0 + 13,A
   \   000007   85..82       MOV     DPL,?V0 + 12
   \   00000A   F583         MOV     DPH,A
   \   00000C   12....       LCALL   ?Subroutine84 & 0xFFFF
   \                     ??CrossCallReturnLabel_116:
   \   00000F   22           RET

   \                                 In  segment BANKED_CODE, align 1, keep-with-next
   \                     ?Subroutine84:
   \   000000   12....       LCALL   ?Subroutine99 & 0xFFFF
   \                     ??CrossCallReturnLabel_134:
   \   000003   E8           MOV     A,R0
   \   000004   22           RET

   \                                 In  segment BANKED_CODE, align 1, keep-with-next
   \                     ?Subroutine99:
   \   000000   E0           MOVX    A,@DPTR
   \   000001   8E82         MOV     DPL,R6
   \   000003   8F83         MOV     DPH,R7
   \   000005   F0           MOVX    @DPTR,A
   \   000006   A3           INC     DPTR
   \   000007   0E           INC     R6
   \   000008   AF83         MOV     R7,DPH
   \   00000A   22           RET

   \                                 In  segment BANKED_CODE, align 1, keep-with-next
   \                     ?Subroutine43:
   \   000000   12....       LCALL   ?Subroutine82 & 0xFFFF
   \                     ??CrossCallReturnLabel_257:
   \   000003   8882         MOV     DPL,R0
   \   000005   8983         MOV     DPH,R1
   \   000007   A3           INC     DPTR
   \   000008   A3           INC     DPTR
   \   000009   22           RET

   \                                 In  segment BANKED_CODE, align 1, keep-with-next
   \                     ?Subroutine38:
   \   000000   85..82       MOV     DPL,?V0 + 2
   \   000003   85..83       MOV     DPH,?V0 + 3
   \   000006   E0           MOVX    A,@DPTR
   \   000007   FA           MOV     R2,A
   \   000008   E5..         MOV     A,?V0 + 5
   \   00000A   C3           CLR     C
   \   00000B   9A           SUBB    A,R2
   \   00000C   22           RET

   \                                 In  segment BANKED_CODE, align 1, keep-with-next
   \                     ?Subroutine37:
   \   000000   12....       LCALL   ??Subroutine130_0 & 0xFFFF
   \                     ??CrossCallReturnLabel_252:
   \   000003   A9..         MOV     R1,?V0 + 4
   \   000005   12....       LCALL   ?Subroutine93 & 0xFFFF
   \                     ??CrossCallReturnLabel_123:
   \   000008   22           RET

   \                                 In  segment BANKED_CODE, align 1, keep-with-next
   \                     ?Subroutine21:
   \   000000   F5..         MOV     ?V0 + 14,A
   \   000002   E9           MOV     A,R1
   \   000003   3400         ADDC    A,#0x0
   \   000005   F5..         MOV     ?V0 + 15,A
   \   000007                ; Setup parameters for call to function zclSerializeData
   \   000007                ; Setup parameters for call to function zclSerializeData
   \   000007   EE           MOV     A,R6
   \   000008   FC           MOV     R4,A
   \   000009   EF           MOV     A,R7
   \   00000A   FD           MOV     R5,A
   \   00000B   12....       LCALL   ?Subroutine80 & 0xFFFF
   \                     ??CrossCallReturnLabel_112:
   \   00000E   12....       LCALL   ??zclSerializeData?relay
   \   000011                ; Setup parameters for call to function zclGetAttrDataLength
   \   000011                ; Setup parameters for call to function zclGetAttrDataLength
   \   000011   12....       LCALL   ?Subroutine80 & 0xFFFF
   \                     ??CrossCallReturnLabel_113:
   \   000014   12....       LCALL   ??zclGetAttrDataLength?relay
   \   000017   E9           MOV     A,R1
   \   000018   F8           MOV     R0,A
   \   000019   EE           MOV     A,R6
   \   00001A   28           ADD     A,R0
   \   00001B   FE           MOV     R6,A
   \   00001C                REQUIRE ?Subroutine110
   \   00001C                ; // Fall through to label ?Subroutine110

   \                                 In  segment BANKED_CODE, align 1, keep-with-next
   \                     ?Subroutine110:
   \   000000   EF           MOV     A,R7
   \   000001   3400         ADDC    A,#0x0
   \   000003   FF           MOV     R7,A
   \   000004   22           RET

   \                                 In  segment BANKED_CODE, align 1, keep-with-next
   \                     ?Subroutine80:
   \   000000   85..82       MOV     DPL,?V0 + 14
   \   000003   85..83       MOV     DPH,?V0 + 15
   \   000006   E0           MOVX    A,@DPTR
   \   000007   FA           MOV     R2,A
   \   000008   A3           INC     DPTR
   \   000009   E0           MOVX    A,@DPTR
   \   00000A   FB           MOV     R3,A
   \   00000B   85..82       MOV     DPL,?V0 + 12
   \   00000E   85..83       MOV     DPH,?V0 + 13
   \   000011   E0           MOVX    A,@DPTR
   \   000012   F9           MOV     R1,A
   \   000013   22           RET

   \                                 In  segment BANKED_CODE, align 1, keep-with-next
   \                     ?Subroutine2:
   \   000000   EA           MOV     A,R2
   \   000001   F0           MOVX    @DPTR,A
   \   000002   A3           INC     DPTR
   \   000003   EB           MOV     A,R3
   \   000004   F0           MOVX    @DPTR,A
   \   000005   85..82       MOV     DPL,?XSP + 0
   \   000008   85..83       MOV     DPH,?XSP + 1
   \   00000B   EC           MOV     A,R4
   \   00000C   F0           MOVX    @DPTR,A
   \   00000D   A3           INC     DPTR
   \   00000E   ED           MOV     A,R5
   \   00000F   F0           MOVX    @DPTR,A
   \   000010   89..         MOV     ?V0 + 4,R1
   \   000012   741C         MOV     A,#0x1c
   \   000014   22           RET

   \                                 In  segment BANKED_CODE, align 1, keep-with-next
   \                     ?Subroutine1:
   \   000000   12....       LCALL   ?Subroutine94 & 0xFFFF
   \                     ??CrossCallReturnLabel_162:
   \   000003   E0           MOVX    A,@DPTR
   \   000004   8E82         MOV     DPL,R6
   \   000006   8F83         MOV     DPH,R7
   \   000008   F0           MOVX    @DPTR,A
   \   000009   A3           INC     DPTR
   \   00000A   AE82         MOV     R6,DPL
   \   00000C   AF83         MOV     R7,DPH
   \   00000E   8882         MOV     DPL,R0
   \   000010   8983         MOV     DPH,R1
   \   000012   A3           INC     DPTR
   \   000013   12....       LCALL   ?Subroutine84 & 0xFFFF
   \                     ??CrossCallReturnLabel_117:
   \   000016   2402         ADD     A,#0x2
   \   000018   22           RET

   \                                 In  segment BANKED_CODE, align 1, keep-with-next
   \                     ?Subroutine82:
   \   000000   A3           INC     DPTR
   \   000001   A3           INC     DPTR
   \   000002   A3           INC     DPTR
   \   000003                REQUIRE ??Subroutine130_0
   \   000003                ; // Fall through to label ??Subroutine130_0

   \                                 In  segment BANKED_CODE, align 1, keep-with-next
   \                     ?Subroutine102:
   \   000000   E5..         MOV     A,?V0 + 2
   \   000002   28           ADD     A,R0
   \   000003   F582         MOV     DPL,A
   \   000005   E5..         MOV     A,?V0 + 3
   \   000007   39           ADDC    A,R1
   \   000008   F583         MOV     DPH,A
   \   00000A   A3           INC     DPTR
   \   00000B   22           RET

   \                                 In  segment BANKED_CODE, align 1, keep-with-next
   \                     ??Subroutine147_0:
   \   000000   12....       LCALL   ?Subroutine87 & 0xFFFF
   \                     ??CrossCallReturnLabel_292:
   \   000003   FD           MOV     R5,A
   \   000004   22           RET
    691          #endif // ZCL_READ
    692          
    693          #ifdef ZCL_WRITE
    694          /*********************************************************************
    695           * @fn      sendWriteRequest
    696           * @brief   Send a Write command
    697           * @param   dstAddr - destination address
    698           *          clusterID - cluster ID
    699           *          writeCmd - write command to be sent
    700           *          cmd - ZCL_CMD_WRITE, ZCL_CMD_WRITE_UNDIVIDED or ZCL_CMD_WRITE_NO_RSP
    701           *          direction - direction of the command
    702           *          seqNum - transaction sequence number
    703           * @return  ZSuccess if OK
    704           */

   \                                 In  segment BANKED_CODE, align 1, keep-with-next
    705          ZStatus_t zcl_SendWriteRequest( uint8 srcEP, afAddrType_t *dstAddr, uint16 clusterID, 
   \                     zcl_SendWriteRequest:
    706                                          zclWriteCmd_t *writeCmd, uint8 cmd, uint8 direction, 
    707                                          uint8 disableDefaultRsp, uint8 seqNum )
    708          {
   \   000000   74E8         MOV     A,#-0x18
   \   000002   12....       LCALL   ?BANKED_ENTER_XDATA
   \   000005                ; Saved register size: 24
   \   000005                ; Auto size: 4
   \   000005   74FC         MOV     A,#-0x4
   \   000007   12....       LCALL   ?ALLOC_XSTACK8
   \   00000A   7402         MOV     A,#0x2
   \   00000C   12....       LCALL   ?XSTACK_DISP0_8
   \   00000F   12....       LCALL   ?Subroutine2 & 0xFFFF
   \                     ??CrossCallReturnLabel_5:
   \   000012   12....       LCALL   ?XSTACK_DISP0_8
   \   000015   12....       LCALL   ?Subroutine58 & 0xFFFF
   \                     ??CrossCallReturnLabel_82:
   \   000018   12....       LCALL   ?XSTACK_DISP0_8
   \   00001B   E0           MOVX    A,@DPTR
   \   00001C   F5..         MOV     ?V0 + 11,A
   \   00001E   741F         MOV     A,#0x1f
   \   000020   12....       LCALL   ?XSTACK_DISP0_8
   \   000023   E0           MOVX    A,@DPTR
   \   000024   F5..         MOV     ?V0 + 10,A
   \   000026   7420         MOV     A,#0x20
   \   000028   12....       LCALL   ?XSTACK_DISP0_8
   \   00002B   E0           MOVX    A,@DPTR
   \   00002C   F5..         MOV     ?V0 + 9,A
   \   00002E   7421         MOV     A,#0x21
   \   000030   12....       LCALL   ?XSTACK_DISP0_8
   \   000033   E0           MOVX    A,@DPTR
   \   000034   F5..         MOV     ?V0 + 8,A
    709            uint8 *buf;
    710            uint8 *pBuf;
    711            zclWriteRec_t *statusRec;
    712            uint8 attrDataLen;
    713            uint8 dataLen = 0;
   \   000036   7E00         MOV     R6,#0x0
    714            uint8 i;
    715            ZStatus_t status;
    716            
    717            for ( i = 0; i < writeCmd->numAttr; i++ )
   \   000038   8E..         MOV     ?V0 + 5,R6
   \   00003A   8014         SJMP    ??zcl_SendWriteRequest_0
    718            {
    719              statusRec = &(writeCmd->attrList[i]);
   \                     ??zcl_SendWriteRequest_1:
   \   00003C   E5..         MOV     A,?V0 + 5
   \   00003E   75F005       MOV     B,#0x5
   \   000041   12....       LCALL   ?Subroutine73 & 0xFFFF
    720              
    721              attrDataLen = zclGetAttrDataLength( statusRec->dataType, statusRec->attrData );
    722              dataLen += 2 + 1 + attrDataLen; // Attribute ID + Attribute Type + Attribute Data
   \                     ??CrossCallReturnLabel_98:
   \   000044                ; Setup parameters for call to function zclGetAttrDataLength
   \   000044   12....       LCALL   ?Subroutine43 & 0xFFFF
    723            }
   \                     ??CrossCallReturnLabel_56:
   \   000047   12....       LCALL   ?Subroutine86 & 0xFFFF
   \                     ??CrossCallReturnLabel_184:
   \   00004A   2403         ADD     A,#0x3
   \   00004C   2E           ADD     A,R6
   \   00004D   FE           MOV     R6,A
   \   00004E   05..         INC     ?V0 + 5
   \                     ??zcl_SendWriteRequest_0:
   \   000050   12....       LCALL   ?Subroutine38 & 0xFFFF
   \                     ??CrossCallReturnLabel_44:
   \   000053   40E7         JC      ??zcl_SendWriteRequest_1
    724          
    725            buf = osal_mem_alloc( dataLen );
   \   000055   12....       LCALL   ?Subroutine65 & 0xFFFF
    726            if ( buf != NULL )
   \                     ??CrossCallReturnLabel_90:
   \   000058   7001         JNZ     ??zcl_SendWriteRequest_2
   \   00005A   EB           MOV     A,R3
   \                     ??zcl_SendWriteRequest_2:
   \   00005B   607C         JZ      ??zcl_SendWriteRequest_3
    727            {
    728              // Load the buffer - serially
    729              pBuf = buf;
   \   00005D   AE..         MOV     R6,?V0 + 6
   \   00005F   AF..         MOV     R7,?V0 + 7
    730              for ( i = 0; i < writeCmd->numAttr; i++ )
   \   000061   75..00       MOV     ?V0 + 5,#0x0
   \   000064   8012         SJMP    ??zcl_SendWriteRequest_4
    731              { 
    732                statusRec = &(writeCmd->attrList[i]);
   \                     ??zcl_SendWriteRequest_5:
   \   000066   E5..         MOV     A,?V0 + 5
   \   000068   75F005       MOV     B,#0x5
   \   00006B   12....       LCALL   ?Subroutine1 & 0xFFFF
    733                
    734                *pBuf++ = LO_UINT16( statusRec->attrID );
    735                *pBuf++ = HI_UINT16( statusRec->attrID );
    736                *pBuf++ = statusRec->dataType;
    737                
    738                zclSerializeData( statusRec->dataType, statusRec->attrData, pBuf );
    739                
    740                attrDataLen = zclGetAttrDataLength( statusRec->dataType, statusRec->attrData );
    741                pBuf += attrDataLen; // move pass attribute data
    742              }
   \                     ??CrossCallReturnLabel_3:
   \   00006E   12....       LCALL   ?Subroutine45 & 0xFFFF
   \                     ??CrossCallReturnLabel_60:
   \   000071   2403         ADD     A,#0x3
   \   000073   12....       LCALL   ?Subroutine21 & 0xFFFF
   \                     ??CrossCallReturnLabel_157:
   \   000076   05..         INC     ?V0 + 5
   \                     ??zcl_SendWriteRequest_4:
   \   000078   12....       LCALL   ?Subroutine38 & 0xFFFF
   \                     ??CrossCallReturnLabel_45:
   \   00007B   40E9         JC      ??zcl_SendWriteRequest_5
    743          
    744              status = zcl_SendCommand( srcEP, dstAddr, clusterID, cmd, FALSE, 
    745                                        direction, disableDefaultRsp, 0, seqNum, dataLen, buf );
   \   00007D                ; Setup parameters for call to function zcl_SendCommand
   \   00007D   78..         MOV     R0,#?V0 + 6
   \   00007F   12....       LCALL   ?PUSH_XSTACK_I_TWO
   \   000082   78..         MOV     R0,#?V0 + 0
   \   000084   12....       LCALL   ?PUSH_XSTACK_I_TWO
   \   000087   E5..         MOV     A,?V0 + 8
   \   000089   F5..         MOV     ?V0 + 0,A
   \   00008B   78..         MOV     R0,#?V0 + 0
   \   00008D   12....       LCALL   ?PUSH_XSTACK_I_ONE
   \   000090   75..00       MOV     ?V0 + 0,#0x0
   \   000093   78..         MOV     R0,#?V0 + 0
   \   000095   12....       LCALL   ?PUSH_XSTACK_I_TWO
   \   000098   E5..         MOV     A,?V0 + 9
   \   00009A   F5..         MOV     ?V0 + 0,A
   \   00009C   78..         MOV     R0,#?V0 + 0
   \   00009E   12....       LCALL   ?PUSH_XSTACK_I_ONE
   \   0000A1   E5..         MOV     A,?V0 + 10
   \   0000A3   F5..         MOV     ?V0 + 0,A
   \   0000A5   78..         MOV     R0,#?V0 + 0
   \   0000A7   12....       LCALL   ?PUSH_XSTACK_I_ONE
   \   0000AA   75..00       MOV     ?V0 + 0,#0x0
   \   0000AD   78..         MOV     R0,#?V0 + 0
   \   0000AF   12....       LCALL   ?PUSH_XSTACK_I_ONE
   \   0000B2   E5..         MOV     A,?V0 + 11
   \   0000B4   F5..         MOV     ?V0 + 0,A
   \   0000B6   78..         MOV     R0,#?V0 + 0
   \   0000B8   12....       LCALL   ?PUSH_XSTACK_I_ONE
   \   0000BB   740B         MOV     A,#0xb
   \   0000BD   12....       LCALL   ?XSTACK_DISP0_8
   \   0000C0   12....       LCALL   ??Subroutine147_0 & 0xFFFF
   \                     ??CrossCallReturnLabel_278:
   \   0000C3   740D         MOV     A,#0xd
   \   0000C5   12....       LCALL   ?XSTACK_DISP0_8
   \   0000C8   12....       LCALL   ?Subroutine37 & 0xFFFF
   \                     ??CrossCallReturnLabel_41:
   \   0000CB   12....       LCALL   ?DEALLOC_XSTACK8
   \   0000CE   E9           MOV     A,R1
   \   0000CF   FE           MOV     R6,A
    746              osal_mem_free( buf );
   \   0000D0                ; Setup parameters for call to function osal_mem_free
   \   0000D0   AA..         MOV     R2,?V0 + 6
   \   0000D2   AB..         MOV     R3,?V0 + 7
   \   0000D4   12....       LCALL   ??osal_mem_free?relay
   \   0000D7   8002         SJMP    ??zcl_SendWriteRequest_6
    747            }
    748            else
    749              status = ZMemError;
   \                     ??zcl_SendWriteRequest_3:
   \   0000D9   7E10         MOV     R6,#0x10
    750          
    751            return ( status);
   \                     ??zcl_SendWriteRequest_6:
   \   0000DB   02....       LJMP    ?Subroutine115 & 0xFFFF
    752          }
    753          

   \                                 In  segment BANKED_CODE, align 1, keep-with-next
    754          ZStatus_t zcl_SendWriteRsp( uint8 srcEP, afAddrType_t *dstAddr,
   \                     zcl_SendWriteRsp:
    755                                      uint16 clusterID, zclWriteRspCmd_t *writeRspCmd,
    756                                      uint8 direction, uint8 disableDefaultRsp, uint8 seqNum )
    757          {
   \   000000   74EA         MOV     A,#-0x16
   \   000002   12....       LCALL   ?BANKED_ENTER_XDATA
   \   000005                ; Saved register size: 22
   \   000005                ; Auto size: 0
   \   000005   89..         MOV     ?V0 + 6,R1
   \   000007   EA           MOV     A,R2
   \   000008   FE           MOV     R6,A
   \   000009   EB           MOV     A,R3
   \   00000A   FF           MOV     R7,A
   \   00000B   8C..         MOV     ?V0 + 0,R4
   \   00000D   8D..         MOV     ?V0 + 1,R5
   \   00000F   7416         MOV     A,#0x16
   \   000011   12....       LCALL   ?XSTACK_DISP0_8
   \   000014   12....       LCALL   ?Subroutine57 & 0xFFFF
   \                     ??CrossCallReturnLabel_80:
   \   000017   12....       LCALL   ?XSTACK_DISP0_8
   \   00001A   E0           MOVX    A,@DPTR
   \   00001B   F5..         MOV     ?V0 + 7,A
   \   00001D   7419         MOV     A,#0x19
   \   00001F   12....       LCALL   ?XSTACK_DISP0_8
   \   000022   E0           MOVX    A,@DPTR
   \   000023   F5..         MOV     ?V0 + 10,A
   \   000025   741A         MOV     A,#0x1a
   \   000027   12....       LCALL   ?XSTACK_DISP0_8
   \   00002A   E0           MOVX    A,@DPTR
   \   00002B   F5..         MOV     ?V0 + 11,A
    758            uint8 dataLen;
    759            uint8 *buf;
    760            uint8 *pBuf;
    761            uint8 i;
    762            ZStatus_t status;
    763            
    764            dataLen = writeRspCmd->numAttr * ( 1 + 2 ); // status + attribute id
   \   00002D   75F003       MOV     B,#0x3
   \   000030   85..82       MOV     DPL,?V0 + 4
   \   000033   85..83       MOV     DPH,?V0 + 5
   \   000036   E0           MOVX    A,@DPTR
   \   000037   A4           MUL     AB
   \   000038   F5..         MOV     ?V0 + 12,A
    765          
    766            buf = osal_mem_alloc( dataLen );
   \   00003A                ; Setup parameters for call to function osal_mem_alloc
   \   00003A   FA           MOV     R2,A
   \   00003B   12....       LCALL   ?Subroutine64 & 0xFFFF
    767            if ( buf != NULL )
   \                     ??CrossCallReturnLabel_88:
   \   00003E   7001         JNZ     ??zcl_SendWriteRsp_0
   \   000040   EB           MOV     A,R3
   \                     ??zcl_SendWriteRsp_0:
   \   000041   7003         JNZ     $+5
   \   000043   02....       LJMP    ??zcl_SendWriteRsp_1 & 0xFFFF
    768            {
    769              // Load the buffer - serially
    770              pBuf = buf;
   \   000046   A8..         MOV     R0,?V0 + 2
   \   000048   A9..         MOV     R1,?V0 + 3
    771              for ( i = 0; i < writeRspCmd->numAttr; i++ )
   \   00004A   75..00       MOV     ?V0 + 8,#0x0
   \   00004D   802E         SJMP    ??zcl_SendWriteRsp_2
    772              { 
    773                *pBuf++ = writeRspCmd->attrList[i].status;
   \                     ??zcl_SendWriteRsp_3:
   \   00004F   E5..         MOV     A,?V0 + 8
   \   000051   75F003       MOV     B,#0x3
   \   000054   A4           MUL     AB
   \   000055   FA           MOV     R2,A
   \   000056   ABF0         MOV     R3,B
   \   000058   E5..         MOV     A,?V0 + 4
   \   00005A   2A           ADD     A,R2
   \   00005B   FA           MOV     R2,A
   \   00005C   E5..         MOV     A,?V0 + 5
   \   00005E   3B           ADDC    A,R3
   \   00005F   FB           MOV     R3,A
   \   000060   8A82         MOV     DPL,R2
   \   000062   8B83         MOV     DPH,R3
   \   000064   A3           INC     DPTR
   \   000065   12....       LCALL   ?Subroutine42 & 0xFFFF
    774                *pBuf++ = LO_UINT16( writeRspCmd->attrList[i].attrID );
   \                     ??CrossCallReturnLabel_161:
   \   000068   EA           MOV     A,R2
   \   000069   2402         ADD     A,#0x2
   \   00006B   0A           INC     R2
   \   00006C   0A           INC     R2
   \   00006D   EB           MOV     A,R3
   \   00006E   3400         ADDC    A,#0x0
   \   000070   FB           MOV     R3,A
   \   000071   8A82         MOV     DPL,R2
   \   000073   8B83         MOV     DPH,R3
   \   000075   12....       LCALL   ??Subroutine124_0 & 0xFFFF
    775                *pBuf++ = HI_UINT16( writeRspCmd->attrList[i].attrID );
   \                     ??CrossCallReturnLabel_169:
   \   000078   12....       LCALL   ?Subroutine29 & 0xFFFF
    776              }
   \                     ??CrossCallReturnLabel_171:
   \   00007B   05..         INC     ?V0 + 8
   \                     ??zcl_SendWriteRsp_2:
   \   00007D   85..82       MOV     DPL,?V0 + 4
   \   000080   85..83       MOV     DPH,?V0 + 5
   \   000083   E0           MOVX    A,@DPTR
   \   000084   FA           MOV     R2,A
   \   000085   E5..         MOV     A,?V0 + 8
   \   000087   C3           CLR     C
   \   000088   9A           SUBB    A,R2
   \   000089   40C4         JC      ??zcl_SendWriteRsp_3
    777              
    778              // If there's only a single status record and its status field is set to 
    779              // SUCCESS then omit the attribute ID field.
    780              if ( writeRspCmd->numAttr == 1 && writeRspCmd->attrList[0].status == ZCL_STATUS_SUCCESS )
   \   00008B   E0           MOVX    A,@DPTR
   \   00008C   6401         XRL     A,#0x1
   \   00008E   7007         JNZ     ??zcl_SendWriteRsp_4
   \   000090   A3           INC     DPTR
   \   000091   E0           MOVX    A,@DPTR
   \   000092   7003         JNZ     ??zcl_SendWriteRsp_4
    781                dataLen = 1;
   \   000094   75..01       MOV     ?V0 + 12,#0x1
    782                
    783              status = zcl_SendCommand( srcEP, dstAddr, clusterID, ZCL_CMD_WRITE_RSP, FALSE,
    784                                        direction, disableDefaultRsp, 0, seqNum, dataLen, buf );
   \                     ??zcl_SendWriteRsp_4:
   \   000097                ; Setup parameters for call to function zcl_SendCommand
   \   000097   78..         MOV     R0,#?V0 + 2
   \   000099   12....       LCALL   ?PUSH_XSTACK_I_TWO
   \   00009C   75..00       MOV     ?V0 + 13,#0x0
   \   00009F   78..         MOV     R0,#?V0 + 12
   \   0000A1   12....       LCALL   ?PUSH_XSTACK_I_TWO
   \   0000A4   E5..         MOV     A,?V0 + 11
   \   0000A6   F5..         MOV     ?V0 + 4,A
   \   0000A8   78..         MOV     R0,#?V0 + 4
   \   0000AA   12....       LCALL   ?PUSH_XSTACK_I_ONE
   \   0000AD   75..00       MOV     ?V0 + 4,#0x0
   \   0000B0   75..00       MOV     ?V0 + 5,#0x0
   \   0000B3   78..         MOV     R0,#?V0 + 4
   \   0000B5   12....       LCALL   ?PUSH_XSTACK_I_TWO
   \   0000B8   E5..         MOV     A,?V0 + 10
   \   0000BA   F5..         MOV     ?V0 + 4,A
   \   0000BC   78..         MOV     R0,#?V0 + 4
   \   0000BE   12....       LCALL   ?PUSH_XSTACK_I_ONE
   \   0000C1   E5..         MOV     A,?V0 + 7
   \   0000C3   F5..         MOV     ?V0 + 4,A
   \   0000C5   78..         MOV     R0,#?V0 + 4
   \   0000C7   12....       LCALL   ?PUSH_XSTACK_I_ONE
   \   0000CA   75..00       MOV     ?V0 + 4,#0x0
   \   0000CD   78..         MOV     R0,#?V0 + 4
   \   0000CF   12....       LCALL   ?PUSH_XSTACK_I_ONE
   \   0000D2   75..04       MOV     ?V0 + 4,#0x4
   \   0000D5   78..         MOV     R0,#?V0 + 4
   \   0000D7   12....       LCALL   ?PUSH_XSTACK_I_ONE
   \   0000DA   AC..         MOV     R4,?V0 + 0
   \   0000DC   AD..         MOV     R5,?V0 + 1
   \   0000DE   EE           MOV     A,R6
   \   0000DF   FA           MOV     R2,A
   \   0000E0   EF           MOV     A,R7
   \   0000E1   FB           MOV     R3,A
   \   0000E2   A9..         MOV     R1,?V0 + 6
   \   0000E4   12....       LCALL   ?Subroutine93 & 0xFFFF
   \                     ??CrossCallReturnLabel_124:
   \   0000E7   12....       LCALL   ?DEALLOC_XSTACK8
   \   0000EA   E9           MOV     A,R1
   \   0000EB   FE           MOV     R6,A
    785              osal_mem_free( buf );
   \   0000EC                ; Setup parameters for call to function osal_mem_free
   \   0000EC   AA..         MOV     R2,?V0 + 2
   \   0000EE   AB..         MOV     R3,?V0 + 3
   \   0000F0   12....       LCALL   ??osal_mem_free?relay
   \   0000F3   8002         SJMP    ??zcl_SendWriteRsp_5
    786            }
    787            else
    788              status = ZMemError;
   \                     ??zcl_SendWriteRsp_1:
   \   0000F5   7E10         MOV     R6,#0x10
    789          
    790            return ( status );
   \                     ??zcl_SendWriteRsp_5:
   \   0000F7   02....       LJMP    ?Subroutine116 & 0xFFFF
    791          }
    792          #endif // ZCL_WRITE
    793          
    794          #ifdef ZCL_REPORT
    795          ZStatus_t zcl_SendConfigReportCmd( uint8 srcEP, afAddrType_t *dstAddr,
    796                                    uint16 clusterID, zclCfgReportCmd_t *cfgReportCmd,
    797                                    uint8 direction, uint8 disableDefaultRsp, uint8 seqNum )
    798          {
    799            uint8 *buf;
    800            uint8 *pBuf;
    801            uint8 dataLen = 0;
    802            zclCfgReportRec_t *reportRec;
    803            uint8 reportChangeLen; // length of Reportable Change field
    804            uint8 i;
    805            ZStatus_t status;
    806            
    807            // Find out the data length
    808            for ( i = 0; i < cfgReportCmd->numAttr; i++ )
    809            {
    810              reportRec = &(cfgReportCmd->attrList[i]);
    811              
    812              dataLen += 1 + 2; // Direction + Attribute ID
    813              reportChangeLen = 0;
    814              
    815              if ( reportRec->direction == ZCL_SEND_ATTR_REPORTS )
    816              {
    817                dataLen += 1 + 2 + 2; // Data Type + Min + Max Reporting Intervals
    818                
    819                // Find out the size of the Reportable Change field (for Analog data types)
    820                if ( zclAnalogDataType( reportRec->dataType ) )
    821                {
    822                  reportChangeLen = zclGetDataTypeLength( reportRec->dataType );
    823                  dataLen += reportChangeLen;
    824                }
    825              }
    826              else
    827              {
    828                dataLen += 2; // Timeout Period
    829              }
    830            }
    831            
    832            buf = osal_mem_alloc( dataLen );
    833            if ( buf != NULL )
    834            {
    835              // Load the buffer - serially
    836              pBuf = buf;
    837              for ( i = 0; i < cfgReportCmd->numAttr; i++ )
    838              {
    839                reportRec = &(cfgReportCmd->attrList[i]);
    840                
    841                *pBuf++ = reportRec->direction;
    842                *pBuf++ = LO_UINT16( reportRec->attrID );
    843                *pBuf++ = HI_UINT16( reportRec->attrID );
    844                
    845                if ( reportRec->direction == ZCL_SEND_ATTR_REPORTS )
    846                {
    847                  *pBuf++ = reportRec->dataType;
    848                  *pBuf++ = LO_UINT16( reportRec->minReportInt );
    849                  *pBuf++ = HI_UINT16( reportRec->minReportInt );
    850                  *pBuf++ = LO_UINT16( reportRec->maxReportInt );
    851                  *pBuf++ = HI_UINT16( reportRec->maxReportInt );
    852          
    853                  if ( zclAnalogDataType( reportRec->dataType ) )
    854                  {
    855                    zclSerializeData( reportRec->dataType, reportRec->reportableChange, pBuf );
    856                    reportChangeLen = zclGetDataTypeLength( reportRec->dataType );
    857                    pBuf += reportChangeLen;
    858                  }
    859                }
    860                else
    861                {
    862                  *pBuf++ = LO_UINT16( reportRec->timeoutPeriod );
    863                  *pBuf++ = HI_UINT16( reportRec->timeoutPeriod );
    864                } 
    865              } // for loop
    866              
    867              status = zcl_SendCommand( srcEP, dstAddr, clusterID, ZCL_CMD_CONFIG_REPORT, FALSE, 
    868                                        direction, disableDefaultRsp, 0, seqNum, dataLen, buf );
    869              osal_mem_free( buf );
    870            }
    871            else
    872              status = ZMemError;
    873            
    874            return ( status );
    875          }
    876          
    877          /*********************************************************************
    878           * @fn      zcl_SendConfigReportRspCmd
    879           * @brief   Send a Configure Reporting Response command
    880           * @param   dstAddr - destination address
    881           *          clusterID - cluster ID
    882           *          cfgReportRspCmd - configure reporting response command to be sent
    883           *          direction - direction of the command
    884           *          seqNum - transaction sequence number
    885           * @return  ZSuccess if OK
    886           */
    887          ZStatus_t zcl_SendConfigReportRspCmd( uint8 srcEP, afAddrType_t *dstAddr,
    888                              uint16 clusterID, zclCfgReportRspCmd_t *cfgReportRspCmd,
    889                              uint8 direction, uint8 disableDefaultRsp, uint8 seqNum )
    890          {
    891            uint8 dataLen;
    892            uint8 *buf;
    893            uint8 *pBuf;
    894            uint8 i;
    895            ZStatus_t status;
    896            
    897            // Atrribute list (Status, Direction and Attribute ID)
    898            dataLen = cfgReportRspCmd->numAttr * ( 1 + 1 + 2 ); 
    899            
    900            buf = osal_mem_alloc( dataLen );
    901            if ( buf != NULL )
    902            {
    903              // Load the buffer - serially
    904              pBuf = buf; 
    905              for ( i = 0; i < cfgReportRspCmd->numAttr; i++ )
    906              {
    907                *pBuf++ = cfgReportRspCmd->attrList[i].status;
    908                *pBuf++ = cfgReportRspCmd->attrList[i].direction;
    909                *pBuf++ = LO_UINT16( cfgReportRspCmd->attrList[i].attrID );
    910                *pBuf++ = HI_UINT16( cfgReportRspCmd->attrList[i].attrID );
    911              }
    912              
    913              // If there's only a single status record and its status field is set to 
    914              // SUCCESS then omit the attribute ID field.
    915              if ( cfgReportRspCmd->numAttr == 1 && cfgReportRspCmd->attrList[0].status == ZCL_STATUS_SUCCESS )
    916                dataLen = 1;
    917              
    918              status = zcl_SendCommand( srcEP, dstAddr, clusterID,
    919                                        ZCL_CMD_CONFIG_REPORT_RSP, FALSE, direction, 
    920                                        disableDefaultRsp, 0, seqNum, dataLen, buf );
    921              osal_mem_free( buf );
    922            }
    923            else
    924              status = ZMemError;
    925            
    926            return ( status );
    927          }
    928          
    929          /*********************************************************************
    930           * @fn      zcl_SendReadReportCfgCmd
    931           * @brief   Send a Read Reporting Configuration command
    932           * @param   dstAddr - destination address
    933           *          clusterID - cluster ID
    934           *          readReportCfgCmd - read reporting configuration command to be sent
    935           *          direction - direction of the command
    936           *          seqNum - transaction sequence number
    937           * @return  ZSuccess if OK
    938           */
    939          ZStatus_t zcl_SendReadReportCfgCmd( uint8 srcEP, afAddrType_t *dstAddr,
    940                            uint16 clusterID, zclReadReportCfgCmd_t *readReportCfgCmd,
    941                            uint8 direction, uint8 disableDefaultRsp, uint8 seqNum )
    942          {
    943            uint8 dataLen;
    944            uint8 *buf;
    945            uint8 *pBuf;
    946            uint8 i;
    947            ZStatus_t status;
    948           
    949            dataLen = readReportCfgCmd->numAttr * ( 1 + 2 ); // Direction + Atrribute ID
    950            
    951            buf = osal_mem_alloc( dataLen );
    952            if ( buf != NULL )
    953            {
    954              // Load the buffer - serially
    955              pBuf = buf;
    956              for ( i = 0; i < readReportCfgCmd->numAttr; i++ )
    957              {
    958                *pBuf++ = readReportCfgCmd->attrList[i].direction;
    959                *pBuf++ = LO_UINT16( readReportCfgCmd->attrList[i].attrID );
    960                *pBuf++ = HI_UINT16( readReportCfgCmd->attrList[i].attrID );
    961              }
    962              
    963              status = zcl_SendCommand( srcEP, dstAddr, clusterID, ZCL_CMD_READ_REPORT_CFG, FALSE, 
    964                                        direction, disableDefaultRsp, 0, seqNum, dataLen, buf );
    965              osal_mem_free( buf );
    966            }
    967            else
    968              status = ZMemError;
    969            
    970            return ( status );
    971          }
    972          
    973          /*********************************************************************
    974           * @fn      zcl_SendReadReportCfgRspCmd
    975           * @brief   Send a Read Reporting Configuration Response command
    976           * @param   dstAddr - destination address
    977           *          clusterID - cluster ID
    978           *          readReportCfgRspCmd - read reporting configuration response command to be sent
    979           *          direction - direction of the command
    980           *          seqNum - transaction sequence number
    981           * @return  ZSuccess if OK
    982           */
    983          ZStatus_t zcl_SendReadReportCfgRspCmd( uint8 srcEP, afAddrType_t *dstAddr,
    984                       uint16 clusterID, zclReadReportCfgRspCmd_t *readReportCfgRspCmd,
    985                       uint8 direction, uint8 disableDefaultRsp, uint8 seqNum )
    986          {
    987            uint8 *buf;
    988            uint8 *pBuf;
    989            uint8 dataLen = 0;
    990            zclReportCfgRspRec_t *reportRspRec;
    991            uint8 reportChangeLen;
    992            uint8 i;
    993            ZStatus_t status;
    994          
    995            // Find out the data length
    996            for ( i = 0; i < readReportCfgRspCmd->numAttr; i++ )
    997            {
    998              reportRspRec = &(readReportCfgRspCmd->attrList[i]);
    999              
   1000              dataLen += 1 + 1 + 2 ; // Status, Direction and Atrribute ID
   1001              
   1002              if ( reportRspRec->status == ZCL_STATUS_SUCCESS )
   1003              {
   1004                if ( reportRspRec->direction == ZCL_SEND_ATTR_REPORTS )
   1005                {
   1006                  dataLen += 1 + 2 + 2; // Data Type + Min + Max Reporting Intervals
   1007                
   1008                  if ( zclAnalogDataType( reportRspRec->dataType ) )
   1009                  {
   1010                    reportChangeLen = zclGetDataTypeLength( reportRspRec->dataType );
   1011                    dataLen += reportChangeLen; // Reportable Change field
   1012                  }
   1013                }
   1014                else
   1015                {
   1016                  dataLen += 2; // Timeout Period
   1017                }
   1018              }
   1019            }
   1020            
   1021            buf = osal_mem_alloc( dataLen );
   1022            if ( buf != NULL )
   1023            {
   1024              // Load the buffer - serially
   1025              pBuf = buf;
   1026          
   1027              for ( i = 0; i < readReportCfgRspCmd->numAttr; i++ )
   1028              {
   1029                reportRspRec = &(readReportCfgRspCmd->attrList[i]);
   1030          
   1031                *pBuf++ = reportRspRec->status;
   1032                *pBuf++ = reportRspRec->direction;
   1033                *pBuf++ = LO_UINT16( reportRspRec->attrID );
   1034                *pBuf++ = HI_UINT16( reportRspRec->attrID );
   1035               
   1036                if ( reportRspRec->status == ZCL_STATUS_SUCCESS )
   1037                {
   1038                  if ( reportRspRec->direction == ZCL_SEND_ATTR_REPORTS )
   1039                  {
   1040                    *pBuf++ = reportRspRec->dataType;
   1041                    *pBuf++ = LO_UINT16( reportRspRec->minReportInt );
   1042                    *pBuf++ = HI_UINT16( reportRspRec->minReportInt );
   1043                    *pBuf++ = LO_UINT16( reportRspRec->maxReportInt );
   1044                    *pBuf++ = HI_UINT16( reportRspRec->maxReportInt );
   1045          
   1046                    if ( zclAnalogDataType( reportRspRec->dataType ) )
   1047                    {
   1048                      zclSerializeData( reportRspRec->dataType, 
   1049                                        reportRspRec->reportableChange, pBuf );
   1050                      reportChangeLen = zclGetDataTypeLength( reportRspRec->dataType );
   1051                      pBuf += reportChangeLen;
   1052                    }
   1053                  }
   1054                  else
   1055                  {
   1056                    *pBuf++ = LO_UINT16( reportRspRec->timeoutPeriod );
   1057                    *pBuf++ = HI_UINT16( reportRspRec->timeoutPeriod );
   1058                  }
   1059                }
   1060              }
   1061             
   1062              status = zcl_SendCommand( srcEP, dstAddr, clusterID,
   1063                                        ZCL_CMD_READ_REPORT_CFG_RSP, FALSE,
   1064                                        direction, disableDefaultRsp, 0, seqNum, dataLen, buf );
   1065              osal_mem_free( buf );
   1066            }
   1067            else
   1068              status = ZMemError;
   1069            
   1070            return ( status );
   1071          }
   1072          
   1073          /*********************************************************************
   1074           * @fn      zcl_SendReportCmd
   1075           * @brief   Send a Report command
   1076           * @param   dstAddr - destination address
   1077           *          clusterID - cluster ID
   1078           *          reportCmd - report command to be sent
   1079           *          direction - direction of the command
   1080           *          seqNum - transaction sequence number
   1081           * @return  ZSuccess if OK
   1082           */
   1083          ZStatus_t zcl_SendReportCmd( uint8 srcEP, afAddrType_t *dstAddr,
   1084                                       uint16 clusterID, zclReportCmd_t *reportCmd,
   1085                                       uint8 direction, uint8 disableDefaultRsp, uint8 seqNum )
   1086          {
   1087            zclReport_t *reportRec;
   1088            uint8 attrDataLen;
   1089            uint8 dataLen = 0;
   1090            uint8 *buf;
   1091            uint8 *pBuf;
   1092            uint8 i;
   1093            ZStatus_t status;
   1094            
   1095            // calculate the size of the command
   1096            for ( i = 0; i < reportCmd->numAttr; i++ )
   1097            {
   1098              reportRec = &(reportCmd->attrList[i]);
   1099              
   1100              dataLen += 2 + 1; // Attribute ID + data type
   1101          
   1102              attrDataLen = zclGetAttrDataLength( reportRec->dataType, reportRec->attrData );
   1103              dataLen += attrDataLen; // Attribute Data
   1104            }
   1105            
   1106            buf = osal_mem_alloc( dataLen );
   1107            if ( buf != NULL )
   1108            {
   1109              // Load the buffer - serially
   1110              pBuf = buf;
   1111              for ( i = 0; i < reportCmd->numAttr; i++ )
   1112              {
   1113                reportRec = &(reportCmd->attrList[i]);
   1114                
   1115                *pBuf++ = LO_UINT16( reportRec->attrID );
   1116                *pBuf++ = HI_UINT16( reportRec->attrID );
   1117                *pBuf++ = reportRec->dataType;
   1118          
   1119                zclSerializeData( reportRec->dataType, reportRec->attrData, pBuf );
   1120                attrDataLen = zclGetAttrDataLength( reportRec->dataType, reportRec->attrData );
   1121                pBuf += attrDataLen; // move pass attribute data
   1122              }
   1123           
   1124              status = zcl_SendCommand( srcEP, dstAddr, clusterID, ZCL_CMD_REPORT, FALSE, 
   1125                                        direction, disableDefaultRsp, 0, seqNum, dataLen, buf );
   1126              osal_mem_free( buf );
   1127            }
   1128            else
   1129              status = ZMemError;
   1130            
   1131            return ( status );
   1132          }
   1133          #endif // ZCL_REPORT
   1134                 
   1135          /*********************************************************************
   1136           * @fn      zcl_SendDefaultRspCmd
   1137           * @brief   Send a Default Response command
   1138           *
   1139           *          Note: The manufacturer code field should be set if this command is being sent
   1140           *           in response to a manufacturer specific command.
   1141           * @param   dstAddr - destination address
   1142           *          clusterID - cluster ID
   1143           *          defaultRspCmd - default response command to be sent
   1144           *          direction - direction of the command
   1145           *          manuCode - manufacturer code for proprietary extensions to a profile
   1146           *          seqNum - transaction sequence number
   1147           * @return  ZSuccess if OK
   1148           */

   \                                 In  segment BANKED_CODE, align 1, keep-with-next
   1149          ZStatus_t zcl_SendDefaultRspCmd( uint8 srcEP, afAddrType_t *dstAddr, uint16 clusterID,
   \                     zcl_SendDefaultRspCmd:
   1150                                           zclDefaultRspCmd_t *defaultRspCmd, uint8 direction,
   1151                                           uint8 disableDefaultRsp, uint16 manuCode, uint8 seqNum )
   1152          {
   \   000000   74F2         MOV     A,#-0xe
   \   000002   12....       LCALL   ?BANKED_ENTER_XDATA
   \   000005                ; Saved register size: 14
   \   000005                ; Auto size: 2
   \   000005   74FE         MOV     A,#-0x2
   \   000007   12....       LCALL   ?ALLOC_XSTACK8
   \   00000A   E9           MOV     A,R1
   \   00000B   FE           MOV     R6,A
   \   00000C   7410         MOV     A,#0x10
   \   00000E   12....       LCALL   ?XSTACK_DISP0_8
   \   000011   12....       LCALL   ?Subroutine56 & 0xFFFF
   \                     ??CrossCallReturnLabel_73:
   \   000014   7412         MOV     A,#0x12
   \   000016   12....       LCALL   ?XSTACK_DISP0_8
   \   000019   E0           MOVX    A,@DPTR
   \   00001A   FF           MOV     R7,A
   \   00001B   7413         MOV     A,#0x13
   \   00001D   12....       LCALL   ?XSTACK_DISP0_8
   \   000020   E0           MOVX    A,@DPTR
   \   000021   F5..         MOV     ?V0 + 4,A
   \   000023   7414         MOV     A,#0x14
   \   000025   12....       LCALL   ?XSTACK_DISP0_8
   \   000028   E0           MOVX    A,@DPTR
   \   000029   F5..         MOV     ?V0 + 2,A
   \   00002B   A3           INC     DPTR
   \   00002C   E0           MOVX    A,@DPTR
   \   00002D   F5..         MOV     ?V0 + 3,A
   \   00002F   7416         MOV     A,#0x16
   \   000031   12....       LCALL   ?XSTACK_DISP0_8
   \   000034   E0           MOVX    A,@DPTR
   \   000035   F5..         MOV     ?V0 + 5,A
   1153            uint8 buf[2]; // Command ID and Status;
   1154          
   1155            // Load the buffer - serially
   1156            buf[0] = defaultRspCmd->commandID;
   \   000037   8882         MOV     DPL,R0
   \   000039   8983         MOV     DPH,R1
   \   00003B   E0           MOVX    A,@DPTR
   \   00003C   85..82       MOV     DPL,?XSP + 0
   \   00003F   85..83       MOV     DPH,?XSP + 1
   \   000042   12....       LCALL   ?Subroutine14 & 0xFFFF
   1157            buf[1] = defaultRspCmd->statusCode;
   \                     ??CrossCallReturnLabel_21:
   \   000045   E0           MOVX    A,@DPTR
   \   000046   C0E0         PUSH    A
   \   000048   7401         MOV     A,#0x1
   \   00004A   12....       LCALL   ?XSTACK_DISP0_8
   \   00004D   D0E0         POP     A
   \   00004F   F0           MOVX    @DPTR,A
   1158          
   1159            return ( zcl_SendCommand( srcEP, dstAddr, clusterID, ZCL_CMD_DEFAULT_RSP, FALSE,
   1160                                      direction, disableDefaultRsp, manuCode, seqNum, 2, buf ) ); 
   \   000050                ; Setup parameters for call to function zcl_SendCommand
   \   000050   85..82       MOV     DPL,?XSP + 0
   \   000053   85..83       MOV     DPH,?XSP + 1
   \   000056   8582..       MOV     ?V0 + 0,DPL
   \   000059   8583..       MOV     ?V0 + 1,DPH
   \   00005C   78..         MOV     R0,#?V0 + 0
   \   00005E   12....       LCALL   ?PUSH_XSTACK_I_TWO
   \   000061   75..02       MOV     ?V0 + 0,#0x2
   \   000064   75..00       MOV     ?V0 + 1,#0x0
   \   000067   78..         MOV     R0,#?V0 + 0
   \   000069   12....       LCALL   ?PUSH_XSTACK_I_TWO
   \   00006C   E5..         MOV     A,?V0 + 5
   \   00006E   F5..         MOV     ?V0 + 0,A
   \   000070   78..         MOV     R0,#?V0 + 0
   \   000072   12....       LCALL   ?PUSH_XSTACK_I_ONE
   \   000075   78..         MOV     R0,#?V0 + 2
   \   000077   12....       LCALL   ?PUSH_XSTACK_I_TWO
   \   00007A   E5..         MOV     A,?V0 + 4
   \   00007C   F5..         MOV     ?V0 + 0,A
   \   00007E   78..         MOV     R0,#?V0 + 0
   \   000080   12....       LCALL   ?PUSH_XSTACK_I_ONE
   \   000083   EF           MOV     A,R7
   \   000084   F5..         MOV     ?V0 + 0,A
   \   000086   78..         MOV     R0,#?V0 + 0
   \   000088   12....       LCALL   ?PUSH_XSTACK_I_ONE
   \   00008B   75..00       MOV     ?V0 + 0,#0x0
   \   00008E   78..         MOV     R0,#?V0 + 0
   \   000090   12....       LCALL   ?PUSH_XSTACK_I_ONE
   \   000093   75..0B       MOV     ?V0 + 0,#0xb
   \   000096   78..         MOV     R0,#?V0 + 0
   \   000098   12....       LCALL   ?PUSH_XSTACK_I_ONE
   \   00009B   EE           MOV     A,R6
   \   00009C   F9           MOV     R1,A
   \   00009D   12....       LCALL   ?Subroutine93 & 0xFFFF
   \                     ??CrossCallReturnLabel_125:
   \   0000A0   12....       LCALL   ?DEALLOC_XSTACK8
   \   0000A3   7402         MOV     A,#0x2
   \   0000A5   12....       LCALL   ?DEALLOC_XSTACK8
   \   0000A8   02....       LJMP    ?Subroutine106 & 0xFFFF
   1161          }

   \                                 In  segment BANKED_CODE, align 1, keep-with-next
   \                     ?Subroutine56:
   \   000000   12....       LCALL   ?Subroutine88 & 0xFFFF
   \                     ??CrossCallReturnLabel_202:
   \   000003   22           RET
   1162          
   1163          #ifdef ZCL_DISCOVER
   1164          /*********************************************************************
   1165           * @fn      zcl_SendDiscoverCmd
   1166           * @brief   Send a Discover command
   1167           * @param   dstAddr - destination address
   1168           *          clusterID - cluster ID
   1169           *          discoverCmd - discover command to be sent
   1170           *          direction - direction of the command
   1171           *          seqNum - transaction sequence number
   1172           * @return  ZSuccess if OK
   1173           */
   1174          ZStatus_t zcl_SendDiscoverCmd( uint8 srcEP, afAddrType_t *dstAddr,
   1175                                      uint16 clusterID, zclDiscoverCmd_t *discoverCmd,
   1176                                      uint8 direction, uint8 disableDefaultRsp, uint8 seqNum )
   1177          {
   1178            uint8 dataLen = 2 + 1; // Start Attribute ID and Max Attribute IDs
   1179            uint8 *buf;
   1180            uint8 *pBuf;
   1181            ZStatus_t status;
   1182            
   1183            buf = osal_mem_alloc( dataLen );
   1184            if ( buf != NULL )
   1185            {
   1186              // Load the buffer - serially
   1187              pBuf = buf;
   1188              *pBuf++ = LO_UINT16(discoverCmd->startAttr);
   1189              *pBuf++ = HI_UINT16(discoverCmd->startAttr);
   1190              *pBuf++ = discoverCmd->maxAttrIDs;
   1191              
   1192              status = zcl_SendCommand( srcEP, dstAddr, clusterID, ZCL_CMD_DISCOVER, FALSE, 
   1193                                        direction, disableDefaultRsp, 0, seqNum, dataLen, buf );
   1194              osal_mem_free( buf );
   1195            }
   1196            else
   1197              status = ZMemError;
   1198            
   1199            return ( status );
   1200          }
   1201          
   1202          /*********************************************************************
   1203           * @fn      zcl_SendDiscoverRspCmd
   1204           * @brief   Send a Discover Response command
   1205           * @param   dstAddr - destination address
   1206           *          clusterID - cluster ID
   1207           *          reportRspCmd - report response command to be sent
   1208           *          direction - direction of the command
   1209           *          seqNum - transaction sequence number
   1210           * @return  ZSuccess if OK
   1211           */
   1212          ZStatus_t zcl_SendDiscoverRspCmd( uint8 srcEP, afAddrType_t *dstAddr,
   1213                                uint16 clusterID, zclDiscoverRspCmd_t *discoverRspCmd,
   1214                                uint8 direction, uint8 disableDefaultRsp, uint8 seqNum )
   1215          {
   1216            uint8 dataLen = 1; // Discovery complete
   1217            uint8 *buf;
   1218            uint8 *pBuf;
   1219            uint8 i;
   1220            ZStatus_t status;
   1221            
   1222            // calculate the size of the command
   1223            dataLen += discoverRspCmd->numAttr * (2 + 1); // Attribute ID and Data Type
   1224            
   1225            buf = osal_mem_alloc( dataLen );
   1226            if ( buf != NULL )
   1227            {
   1228              // Load the buffer - serially
   1229              pBuf = buf;
   1230              *pBuf++ = discoverRspCmd->discComplete;    
   1231              for ( i = 0; i < discoverRspCmd->numAttr; i++ )
   1232              {
   1233                *pBuf++ = LO_UINT16(discoverRspCmd->attrList[i].attrID);
   1234                *pBuf++ = HI_UINT16(discoverRspCmd->attrList[i].attrID);
   1235                *pBuf++ = discoverRspCmd->attrList[i].dataType;
   1236              }
   1237              
   1238              status = zcl_SendCommand( srcEP, dstAddr, clusterID, ZCL_CMD_DISCOVER_RSP, FALSE,
   1239                                        direction, disableDefaultRsp, 0, seqNum, dataLen, buf );
   1240              osal_mem_free( buf );
   1241            }
   1242            else
   1243              status = ZMemError;
   1244            
   1245            return ( status );
   1246          }
   1247          #endif // ZCL_DISCOVER
   1248          

   \                                 In  segment BANKED_CODE, align 1, keep-with-next
   1249          void zclProcessMessageMSG( afIncomingMSGPacket_t *pkt )
   \                     zclProcessMessageMSG:
   1250          {
   \   000000   74F0         MOV     A,#-0x10
   \   000002   12....       LCALL   ?BANKED_ENTER_XDATA
   \   000005                ; Saved register size: 16
   \   000005                ; Auto size: 61
   \   000005   74C3         MOV     A,#-0x3d
   \   000007   12....       LCALL   ?ALLOC_XSTACK8
   \   00000A   EA           MOV     A,R2
   \   00000B   FE           MOV     R6,A
   \   00000C   EB           MOV     A,R3
   \   00000D   FF           MOV     R7,A
   1251          #if defined(Coor_receiver) // The coordinator receive data
   1252            byte recv_data[30];  
   1253            uint16 len;
   1254          #endif
   1255            
   1256          #if defined(End_Device) || defined(Router_Device) // The End Device receive data
   1257            byte receive[20];
   1258            byte temp_buf[20];  
   1259            uint16 len;
   1260          #endif  
   1261          
   1262            endPointDesc_t *epDesc;
   1263            zclIncoming_t inMsg;
   1264            zclLibPlugin_t *pInPlugin;
   1265            zclDefaultRspCmd_t defautlRspCmd;
   1266            uint8 options;
   1267            uint8 securityEnable;
   1268            uint8 interPanMsg;
   1269            ZStatus_t status = ZFailure;
   1270          
   1271            if ( pkt->cmd.DataLength == 0 ) return;   // Error, ignore the message
   \   00000E   EE           MOV     A,R6
   \   00000F   241F         ADD     A,#0x1f
   \   000011   12....       LCALL   ?Subroutine66 & 0xFFFF
   \                     ??CrossCallReturnLabel_267:
   \   000014   12....       LCALL   ??Subroutine121_0 & 0xFFFF
   \                     ??CrossCallReturnLabel_168:
   \   000017   7001         JNZ     ??zclProcessMessageMSG_0
   \   000019   EB           MOV     A,R3
   \                     ??zclProcessMessageMSG_0:
   \   00001A   7003         JNZ     $+5
   \   00001C   02....       LJMP    ??zclProcessMessageMSG_1 & 0xFFFF
   1272          
   1273          #if defined(Coor_receiver)
   1274            if (pkt->cmd.DataLength > 0)
   1275            {
   1276              for(len = 0; len < pkt->cmd.DataLength; len++) // Send the recv_data to UART
   1277              {
   1278                  recv_data[len] = pkt->cmd.Data[len+3]; // the cmd.Data[0~2] is cluster ID.
   1279              }
   1280              
   1281              #define HI_UINT16(a) (((a) >> 8) & 0xFF)
   1282              #define LO_UINT16(a) ((a) & 0xFF)
   1283              
   1284              char entry[4];
   1285              uint8 hi = HI_UINT16( pkt->srcAddr.addr.shortAddr );
   1286              uint8 lo = LO_UINT16( pkt->srcAddr.addr.shortAddr );
   1287          
   1288              entry[0] = hi/16 + 48;  /* Little Endian for the radio RAM */
   1289              entry[1] = hi%16 + 48;
   1290              entry[2] = lo/16 + 48;
   1291              entry[3] = lo%16 + 48;
   1292              for (int k=0;k<4;k++)
   1293              {
   1294                if(entry[k]>57)
   1295                  entry[k]+=7;
   1296              }
   1297          
   1298              HalUARTWrite(MT_UART_DEFAULT_PORT, "3,", 2);//Cmd Type
   1299              HalUARTWrite(MT_UART_DEFAULT_PORT, ",", 1);//Comma   
   1300              HalUARTWrite(MT_UART_DEFAULT_PORT, entry, 4);//Device ID
   1301              HalUARTWrite(MT_UART_DEFAULT_PORT, ",", 1);//Comma
   1302              HalUARTWrite(MT_UART_DEFAULT_PORT, recv_data, pkt->cmd.DataLength-2);//Device Data
   1303              HalUARTWrite(MT_UART_DEFAULT_PORT, "$\r\n", 3);//$\n
   1304              
   1305           //   HalUARTWrite(MT_UART_DEFAULT_PORT, recv_data, pkt->cmd.DataLength-2);    
   1306              //HalUARTWrite(MT_UART_DEFAULT_PORT, "\r\n", 3);
   1307            }
   1308          #endif
   1309          
   1310          // The device receive the uart command with RF
   1311          #if defined(End_Device) || defined(Router_Device)
   1312            if(pkt->cmd.DataLength -2 > 0)
   \   00001F   EE           MOV     A,R6
   \   000020   2421         ADD     A,#0x21
   \   000022   F5..         MOV     ?V0 + 0,A
   \   000024   EF           MOV     A,R7
   \   000025   3400         ADDC    A,#0x0
   \   000027   F5..         MOV     ?V0 + 1,A
   \   000029   74FE         MOV     A,#-0x2
   \   00002B   2A           ADD     A,R2
   \   00002C   F8           MOV     R0,A
   \   00002D   74FF         MOV     A,#-0x1
   \   00002F   3B           ADDC    A,R3
   \   000030   F9           MOV     R1,A
   \   000031   E8           MOV     A,R0
   \   000032   7001         JNZ     ??zclProcessMessageMSG_2
   \   000034   E9           MOV     A,R1
   \                     ??zclProcessMessageMSG_2:
   \   000035   7003         JNZ     $+5
   \   000037   02....       LJMP    ??zclProcessMessageMSG_3 & 0xFFFF
   1313            {
   1314              for(len = 0; len < pkt->cmd.DataLength; len++)
   \   00003A   7800         MOV     R0,#0x0
   \   00003C   7900         MOV     R1,#0x0
   \   00003E   8030         SJMP    ??zclProcessMessageMSG_4
   1315              {
   1316                receive[len] = pkt->cmd.Data[len+3];
   \                     ??zclProcessMessageMSG_5:
   \   000040   85..82       MOV     DPL,?V0 + 0
   \   000043   85..83       MOV     DPH,?V0 + 1
   \   000046   E0           MOVX    A,@DPTR
   \   000047   28           ADD     A,R0
   \   000048   FC           MOV     R4,A
   \   000049   A3           INC     DPTR
   \   00004A   E0           MOVX    A,@DPTR
   \   00004B   39           ADDC    A,R1
   \   00004C   8C82         MOV     DPL,R4
   \   00004E   F583         MOV     DPH,A
   \   000050   A3           INC     DPTR
   \   000051   A3           INC     DPTR
   \   000052   A3           INC     DPTR
   \   000053   E0           MOVX    A,@DPTR
   \   000054   C0E0         PUSH    A
   \   000056   7429         MOV     A,#0x29
   \   000058   12....       LCALL   ?XSTACK_DISP0_8
   \   00005B   E582         MOV     A,DPL
   \   00005D   28           ADD     A,R0
   \   00005E   F582         MOV     DPL,A
   \   000060   E583         MOV     A,DPH
   \   000062   39           ADDC    A,R1
   \   000063   F583         MOV     DPH,A
   \   000065   D0E0         POP     A
   \   000067   F0           MOVX    @DPTR,A
   1317              }
   \   000068   E8           MOV     A,R0
   \   000069   2401         ADD     A,#0x1
   \   00006B   08           INC     R0
   \   00006C   E9           MOV     A,R1
   \   00006D   3400         ADDC    A,#0x0
   \   00006F   F9           MOV     R1,A
   \                     ??zclProcessMessageMSG_4:
   \   000070   C3           CLR     C
   \   000071   E8           MOV     A,R0
   \   000072   9A           SUBB    A,R2
   \   000073   E9           MOV     A,R1
   \   000074   9B           SUBB    A,R3
   \   000075   40C9         JC      ??zclProcessMessageMSG_5
   1318              // Write receive coordinator command to UART, chrischris
   1319              HalUARTWrite(MT_UART_DEFAULT_PORT, ",", 1);
   \   000077                ; Setup parameters for call to function HalUARTWrite
   \   000077   7C01         MOV     R4,#0x1
   \   000079   7D00         MOV     R5,#0x0
   \   00007B   7A..         MOV     R2,#(`?<Constant ",">` & 0xff)
   \   00007D   7B..         MOV     R3,#((`?<Constant ",">` >> 8) & 0xff)
   \   00007F   7900         MOV     R1,#0x0
   \   000081   12....       LCALL   ??HalUARTWrite?relay
   1320             // HalUARTWrite(MT_UART_DEFAULT_PORT, pkt->cmd.DataLength, 1);
   1321          
   1322              HalUARTWrite(MT_UART_DEFAULT_PORT, ",", 1);
   \   000084                ; Setup parameters for call to function HalUARTWrite
   \   000084   7C01         MOV     R4,#0x1
   \   000086   7D00         MOV     R5,#0x0
   \   000088   7A..         MOV     R2,#(`?<Constant ",">` & 0xff)
   \   00008A   7B..         MOV     R3,#((`?<Constant ",">` >> 8) & 0xff)
   \   00008C   7900         MOV     R1,#0x0
   \   00008E   12....       LCALL   ??HalUARTWrite?relay
   1323              if(receive[0] == ' ')
   \   000091   7429         MOV     A,#0x29
   \   000093   12....       LCALL   ?XSTACK_DISP0_8
   \   000096   E0           MOVX    A,@DPTR
   \   000097   6420         XRL     A,#0x20
   \   000099   700D         JNZ     ??zclProcessMessageMSG_6
   1324                HalUARTWrite(MT_UART_DEFAULT_PORT, "Empty,", 6);
   \   00009B                ; Setup parameters for call to function HalUARTWrite
   \   00009B   7C06         MOV     R4,#0x6
   \   00009D   7D00         MOV     R5,#0x0
   \   00009F   7A..         MOV     R2,#(`?<Constant "Empty,">` & 0xff)
   \   0000A1   7B..         MOV     R3,#((`?<Constant "Empty,">` >> 8) & 0xff)
   \   0000A3   7900         MOV     R1,#0x0
   \   0000A5   12....       LCALL   ??HalUARTWrite?relay
   1325              sprintf(temp_buf, "%d", receive[0]);
                             ^
Warning[Pe167]: argument of type "unsigned char *" is incompatible with
          parameter of type "char *"
   \                     ??zclProcessMessageMSG_6:
   \   0000A8                ; Setup parameters for call to function sprintf
   \   0000A8   7429         MOV     A,#0x29
   \   0000AA   12....       LCALL   ?XSTACK_DISP0_8
   \   0000AD   E0           MOVX    A,@DPTR
   \   0000AE   F5..         MOV     ?V0 + 0,A
   \   0000B0   75..00       MOV     ?V0 + 1,#0x0
   \   0000B3   78..         MOV     R0,#?V0 + 0
   \   0000B5   12....       LCALL   ?PUSH_XSTACK_I_TWO
   \   0000B8   7C..         MOV     R4,#(`?<Constant "%d">` & 0xff)
   \   0000BA   7D..         MOV     R5,#((`?<Constant "%d">` >> 8) & 0xff)
   \   0000BC   7417         MOV     A,#0x17
   \   0000BE   12....       LCALL   ?XSTACK_DISP0_8
   \   0000C1   AA82         MOV     R2,DPL
   \   0000C3   AB83         MOV     R3,DPH
   \   0000C5   12....       LCALL   ??sprintf?relay
   \   0000C8   7402         MOV     A,#0x2
   \   0000CA   12....       LCALL   ?DEALLOC_XSTACK8
   1326              show(temp_buf);    
                          ^
Warning[Pe167]: argument of type "unsigned char *" is incompatible with
          parameter of type "char *"
   \   0000CD                ; Setup parameters for call to function show
   \   0000CD   7415         MOV     A,#0x15
   \   0000CF   12....       LCALL   ?XSTACK_DISP0_8
   \   0000D2   AA82         MOV     R2,DPL
   \   0000D4   AB83         MOV     R3,DPH
   \   0000D6   12....       LCALL   ??show?relay
   1327           //   HalUARTWrite(MT_UART_DEFAULT_PORT, (int)receive[0],1)// pkt->cmd.DataLength-2);
   1328              HalUARTWrite(MT_UART_DEFAULT_PORT, ",", 1);
   \   0000D9                ; Setup parameters for call to function HalUARTWrite
   \   0000D9   7C01         MOV     R4,#0x1
   \   0000DB   7D00         MOV     R5,#0x0
   \   0000DD   7A..         MOV     R2,#(`?<Constant ",">` & 0xff)
   \   0000DF   7B..         MOV     R3,#((`?<Constant ",">` >> 8) & 0xff)
   \   0000E1   7900         MOV     R1,#0x0
   \   0000E3   12....       LCALL   ??HalUARTWrite?relay
   1329                
   1330              return ;
   \   0000E6   02....       LJMP    ??zclProcessMessageMSG_1 & 0xFFFF
   1331            }
   1332          #endif  
   1333            
   1334            // Initialize
   1335            inMsg.msg = pkt;
   \                     ??zclProcessMessageMSG_3:
   \   0000E9   7402         MOV     A,#0x2
   \   0000EB   12....       LCALL   ?XSTACK_DISP0_8
   \   0000EE   EE           MOV     A,R6
   \   0000EF   F0           MOVX    @DPTR,A
   \   0000F0   A3           INC     DPTR
   \   0000F1   EF           MOV     A,R7
   \   0000F2   F0           MOVX    @DPTR,A
   1336            inMsg.attrCmd = NULL;
   \   0000F3   740E         MOV     A,#0xe
   \   0000F5   12....       LCALL   ?XSTACK_DISP0_8
   \   0000F8   E4           CLR     A
   \   0000F9   F0           MOVX    @DPTR,A
   \   0000FA   A3           INC     DPTR
   \   0000FB   F0           MOVX    @DPTR,A
   1337            inMsg.pData = NULL;
   \   0000FC   740A         MOV     A,#0xa
   \   0000FE   12....       LCALL   ?XSTACK_DISP0_8
   \   000101   E4           CLR     A
   \   000102   F0           MOVX    @DPTR,A
   \   000103   A3           INC     DPTR
   \   000104   F0           MOVX    @DPTR,A
   1338            inMsg.pDataLen = 0;
   \   000105   740C         MOV     A,#0xc
   \   000107   12....       LCALL   ?XSTACK_DISP0_8
   \   00010A   E4           CLR     A
   \   00010B   F0           MOVX    @DPTR,A
   \   00010C   A3           INC     DPTR
   \   00010D   12....       LCALL   ?Subroutine18 & 0xFFFF
   1339          
   1340            inMsg.pData = zclParseHdr( &(inMsg.hdr), pkt->cmd.Data );
   \                     ??CrossCallReturnLabel_22:
   \   000110   FC           MOV     R4,A
   \   000111   A3           INC     DPTR
   \   000112   E0           MOVX    A,@DPTR
   \   000113   FD           MOV     R5,A
   \   000114   7404         MOV     A,#0x4
   \   000116   12....       LCALL   ?XSTACK_DISP0_8
   \   000119   AA82         MOV     R2,DPL
   \   00011B   AB83         MOV     R3,DPH
   \   00011D   12....       LCALL   ??zclParseHdr?relay
   \   000120   740A         MOV     A,#0xa
   \   000122   12....       LCALL   ?XSTACK_DISP0_8
   \   000125   12....       LCALL   ??Subroutine148_0 & 0xFFFF
   1341            inMsg.pDataLen = pkt->cmd.DataLength;
   1342            inMsg.pDataLen -= (uint16)(inMsg.pData - pkt->cmd.Data);
   \                     ??CrossCallReturnLabel_294:
   \   000128   85..82       MOV     DPL,?V0 + 2
   \   00012B   85..83       MOV     DPH,?V0 + 3
   \   00012E   C082         PUSH    DPL
   \   000130   C083         PUSH    DPH
   \   000132   740A         MOV     A,#0xa
   \   000134   12....       LCALL   ?XSTACK_DISP0_8
   \   000137   12....       LCALL   ?Subroutine56 & 0xFFFF
   \                     ??CrossCallReturnLabel_74:
   \   00013A   D083         POP     DPH
   \   00013C   D082         POP     DPL
   \   00013E   E0           MOVX    A,@DPTR
   \   00013F   C3           CLR     C
   \   000140   98           SUBB    A,R0
   \   000141   F8           MOV     R0,A
   \   000142   A3           INC     DPTR
   \   000143   E0           MOVX    A,@DPTR
   \   000144   99           SUBB    A,R1
   \   000145   F9           MOV     R1,A
   \   000146   85..82       MOV     DPL,?V0 + 0
   \   000149   85..83       MOV     DPH,?V0 + 1
   \   00014C   E0           MOVX    A,@DPTR
   \   00014D   28           ADD     A,R0
   \   00014E   F8           MOV     R0,A
   \   00014F   A3           INC     DPTR
   \   000150   E0           MOVX    A,@DPTR
   \   000151   39           ADDC    A,R1
   \   000152   F9           MOV     R1,A
   \   000153   740C         MOV     A,#0xc
   \   000155   12....       LCALL   ?XSTACK_DISP0_8
   \   000158   12....       LCALL   ??Subroutine138_0 & 0xFFFF
   1343          
   1344            // Find the wanted endpoint
   1345            epDesc = afFindEndPointDesc( pkt->endPoint );
   \                     ??CrossCallReturnLabel_231:
   \   00015B   EE           MOV     A,R6
   \   00015C   2414         ADD     A,#0x14
   \   00015E   12....       LCALL   ?Subroutine66 & 0xFFFF
   \                     ??CrossCallReturnLabel_268:
   \   000161   E0           MOVX    A,@DPTR
   \   000162   F9           MOV     R1,A
   \   000163   12....       LCALL   ??afFindEndPointDesc?relay
   \   000166   8A..         MOV     ?V0 + 0,R2
   \   000168   8B..         MOV     ?V0 + 1,R3
   \   00016A   A8..         MOV     R0,?V0 + 0
   \   00016C   A9..         MOV     R1,?V0 + 1
   1346            if ( epDesc == NULL )
   \   00016E   E8           MOV     A,R0
   \   00016F   7001         JNZ     ??zclProcessMessageMSG_7
   \   000171   E9           MOV     A,R1
   \                     ??zclProcessMessageMSG_7:
   \   000172   7003         JNZ     $+5
   \   000174   02....       LJMP    ??zclProcessMessageMSG_1 & 0xFFFF
   1347              return;   // Error, ignore the message
   1348          
   1349            if ( pkt->clusterId == ZCL_INVALID_CLUSTER_ID )
   \   000177   EE           MOV     A,R6
   \   000178   2404         ADD     A,#0x4
   \   00017A   F5..         MOV     ?V0 + 4,A
   \   00017C   EF           MOV     A,R7
   \   00017D   3400         ADDC    A,#0x0
   \   00017F   F5..         MOV     ?V0 + 5,A
   \   000181   85..82       MOV     DPL,?V0 + 4
   \   000184   F583         MOV     DPH,A
   \   000186   12....       LCALL   ?Subroutine59 & 0xFFFF
   \                     ??CrossCallReturnLabel_84:
   \   000189   7003         JNZ     ??zclProcessMessageMSG_8
   \   00018B   74FF         MOV     A,#-0x1
   \   00018D   6B           XRL     A,R3
   \                     ??zclProcessMessageMSG_8:
   \   00018E   7003         JNZ     $+5
   \   000190   02....       LJMP    ??zclProcessMessageMSG_1 & 0xFFFF
   1350              return;   // Error, ignore the message
   1351            
   1352            if ((epDesc->simpleDesc == NULL) ||
   1353                (zcl_DeviceOperational(pkt->endPoint, pkt->clusterId, inMsg.hdr.fc.type, inMsg.hdr.commandID,
   1354                                             epDesc->simpleDesc->AppProfId) == FALSE))
   \   000193   E8           MOV     A,R0
   \   000194   2403         ADD     A,#0x3
   \   000196   F5..         MOV     ?V0 + 6,A
   \   000198   E9           MOV     A,R1
   \   000199   3400         ADDC    A,#0x0
   \   00019B   F5..         MOV     ?V0 + 7,A
   \   00019D   85..82       MOV     DPL,?V0 + 6
   \   0001A0   F583         MOV     DPH,A
   \   0001A2   12....       LCALL   ?Subroutine41 & 0xFFFF
   \                     ??CrossCallReturnLabel_54:
   \   0001A5   7002         JNZ     ??zclProcessMessageMSG_9
   \   0001A7   E583         MOV     A,DPH
   \                     ??zclProcessMessageMSG_9:
   \   0001A9   7003         JNZ     $+5
   \   0001AB   02....       LJMP    ??zclProcessMessageMSG_1 & 0xFFFF
   \   0001AE                ; Setup parameters for call to function zcl_DeviceOperational
   \   0001AE   A3           INC     DPTR
   \   0001AF   12....       LCALL   ?PUSH_XSTACK8_X_TWO
   \   0001B2   740B         MOV     A,#0xb
   \   0001B4   12....       LCALL   ?XSTACK_DISP0_8
   \   0001B7   E0           MOVX    A,@DPTR
   \   0001B8   FD           MOV     R5,A
   \   0001B9   7406         MOV     A,#0x6
   \   0001BB   12....       LCALL   ?XSTACK_DISP0_8
   \   0001BE   E0           MOVX    A,@DPTR
   \   0001BF   5403         ANL     A,#0x3
   \   0001C1   FC           MOV     R4,A
   \   0001C2   85..82       MOV     DPL,?V0 + 2
   \   0001C5   85..83       MOV     DPH,?V0 + 3
   \   0001C8   E0           MOVX    A,@DPTR
   \   0001C9   F9           MOV     R1,A
   \   0001CA   12....       LCALL   ??zcl_DeviceOperational?relay
   \   0001CD   7402         MOV     A,#0x2
   \   0001CF   12....       LCALL   ?DEALLOC_XSTACK8
   \   0001D2   E9           MOV     A,R1
   \   0001D3   7003         JNZ     $+5
   \   0001D5   02....       LJMP    ??zclProcessMessageMSG_1 & 0xFFFF
   1355            {
   1356              return; // Error, ignore the message
   1357            }
   1358          
   1359          #if defined ( INTER_PAN )
   1360            if ( StubAPS_InterPan( pkt->srcAddr.panId, pkt->srcAddr.endPoint ) )
   1361            {
   1362              // No foundation command is supported thru Inter-PAN communication
   1363              if ( zcl_ProfileCmd( inMsg.hdr.fc.type ) )
   1364                return;
   1365          
   1366              interPanMsg = TRUE; 
   1367              options = AF_TX_OPTIONS_NONE;
   1368            }
   1369            else
   1370          #endif
   1371            {
   1372              interPanMsg = FALSE;
   1373              options = zclGetClusterOption( pkt->endPoint, pkt->clusterId );
   \   0001D8                ; Setup parameters for call to function zclGetClusterOption
   \   0001D8   85..82       MOV     DPL,?V0 + 4
   \   0001DB   85..83       MOV     DPH,?V0 + 5
   \   0001DE   12....       LCALL   ?Subroutine44 & 0xFFFF
   1374            }
   \                     ??CrossCallReturnLabel_57:
   \   0001E1   E0           MOVX    A,@DPTR
   \   0001E2   F9           MOV     R1,A
   \   0001E3   12....       LCALL   ??zclGetClusterOption?relay
   \   0001E6   E9           MOV     A,R1
   \   0001E7   FA           MOV     R2,A
   1375            
   1376            // Local and remote Security options must match except for Default Response command
   1377            if ( !zcl_DefaultRspCmd( inMsg.hdr ) )
   \   0001E8   7404         MOV     A,#0x4
   \   0001EA   12....       LCALL   ?XSTACK_DISP0_8
   \   0001ED   E0           MOVX    A,@DPTR
   \   0001EE   F8           MOV     R0,A
   \   0001EF   5407         ANL     A,#0x7
   \   0001F1   700D         JNZ     ??zclProcessMessageMSG_10
   \   0001F3   7409         MOV     A,#0x9
   \   0001F5   12....       LCALL   ?XSTACK_DISP0_8
   \   0001F8   E0           MOVX    A,@DPTR
   \   0001F9   640B         XRL     A,#0xb
   \   0001FB   7003         JNZ     $+5
   \   0001FD   02....       LJMP    ??zclProcessMessageMSG_11 & 0xFFFF
   1378            {
   1379              securityEnable = ( options & AF_EN_SECURITY ) ? TRUE : FALSE;
   \                     ??zclProcessMessageMSG_10:
   \   000200   EA           MOV     A,R2
   \   000201   A2E6         MOV     C,0xE0 /* A   */.6
   \   000203   5004         JNC     ??zclProcessMessageMSG_12
   \   000205   D2F0         SETB    B.0
   \   000207   8002         SJMP    ??zclProcessMessageMSG_13
   \                     ??zclProcessMessageMSG_12:
   \   000209   C2F0         CLR     B.0
   \                     ??zclProcessMessageMSG_13:
   \   00020B   A2F0         MOV     C,B.0
   \   00020D   E4           CLR     A
   \   00020E   92E0         MOV     0xE0 /* A   */.0,C
   \   000210   F5..         MOV     ?V0 + 0,A
   1380              if ( pkt->SecurityUse != securityEnable )
   \   000212   EE           MOV     A,R6
   \   000213   2419         ADD     A,#0x19
   \   000215   F582         MOV     DPL,A
   \   000217   EF           MOV     A,R7
   \   000218   12....       LCALL   ??Subroutine142_0 & 0xFFFF
   \                     ??CrossCallReturnLabel_259:
   \   00021B   65..         XRL     A,?V0 + 0
   \   00021D   7003         JNZ     $+5
   \   00021F   02....       LJMP    ??zclProcessMessageMSG_11 & 0xFFFF
   1381              {
   1382                if ( UNICAST_MSG( inMsg.msg ) )
   \   000222   7402         MOV     A,#0x2
   \   000224   12....       LCALL   ?XSTACK_DISP0_8
   \   000227   12....       LCALL   ?Subroutine33 & 0xFFFF
   \                     ??CrossCallReturnLabel_36:
   \   00022A   6003         JZ      $+5
   \   00022C   02....       LJMP    ??zclProcessMessageMSG_1 & 0xFFFF
   \   00022F   7402         MOV     A,#0x2
   \   000231   12....       LCALL   ?XSTACK_DISP0_8
   \   000234   12....       LCALL   ?Subroutine46 & 0xFFFF
   \                     ??CrossCallReturnLabel_61:
   \   000237   7002         JNZ     ??zclProcessMessageMSG_14
   \   000239   A3           INC     DPTR
   \   00023A   E0           MOVX    A,@DPTR
   \                     ??zclProcessMessageMSG_14:
   \   00023B   6003         JZ      $+5
   \   00023D   02....       LJMP    ??zclProcessMessageMSG_1 & 0xFFFF
   1383                {
   1384                  // Send a Default Response command back with no Application Link Key security
   1385                  if ( securityEnable )
   \   000240   E5..         MOV     A,?V0 + 0
   \   000242   6005         JZ      ??CrossCallReturnLabel_34
   1386                    zclSetSecurityOption( pkt->endPoint, pkt->clusterId, FALSE );
   \   000244                ; Setup parameters for call to function zclSetSecurityOption
   \   000244   7C00         MOV     R4,#0x0
   \   000246   12....       LCALL   ?Subroutine28 & 0xFFFF
   1387                  
   1388                  defautlRspCmd.statusCode = status;
   \                     ??CrossCallReturnLabel_34:
   \   000249   7401         MOV     A,#0x1
   \   00024B   12....       LCALL   ?XSTACK_DISP0_8
   \   00024E   7401         MOV     A,#0x1
   \   000250   F0           MOVX    @DPTR,A
   1389                  defautlRspCmd.commandID = inMsg.hdr.commandID;
   \   000251   7409         MOV     A,#0x9
   \   000253   12....       LCALL   ?XSTACK_DISP0_8
   \   000256   12....       LCALL   ?Subroutine52 & 0xFFFF
   1390                  zcl_SendDefaultRspCmd( inMsg.msg->endPoint, &(inMsg.msg->srcAddr),
   1391                                         inMsg.msg->clusterId, &defautlRspCmd, 
   1392                                         ZCL_FRAME_SERVER_CLIENT_DIR, true, 
   1393                                         inMsg.hdr.manuCode, inMsg.hdr.transSeqNum );
   \                     ??CrossCallReturnLabel_67:
   \   000259   12....       LCALL   ?XSTACK_DISP0_8
   \   00025C   E0           MOVX    A,@DPTR
   \   00025D   F5..         MOV     ?V0 + 1,A
   \   00025F   78..         MOV     R0,#?V0 + 1
   \   000261   12....       LCALL   ?PUSH_XSTACK_I_ONE
   \   000264   7407         MOV     A,#0x7
   \   000266   12....       LCALL   ?XSTACK_DISP0_8
   \   000269   12....       LCALL   ?PUSH_XSTACK8_X_TWO
   \   00026C   75..01       MOV     ?V0 + 1,#0x1
   \   00026F   78..         MOV     R0,#?V0 + 1
   \   000271   12....       LCALL   ?PUSH_XSTACK_I_ONE
   \   000274   78..         MOV     R0,#?V0 + 1
   \   000276   12....       LCALL   ?PUSH_XSTACK_I_ONE
   \   000279   7405         MOV     A,#0x5
   \   00027B   12....       LCALL   ?XSTACK_DISP0_8
   \   00027E   8582..       MOV     ?V0 + 6,DPL
   \   000281   8583..       MOV     ?V0 + 7,DPH
   \   000284   78..         MOV     R0,#?V0 + 6
   \   000286   12....       LCALL   ?PUSH_XSTACK_I_TWO
   \   000289   7409         MOV     A,#0x9
   \   00028B   12....       LCALL   ?XSTACK_DISP0_8
   \   00028E   12....       LCALL   ?Subroutine27 & 0xFFFF
   \                     ??CrossCallReturnLabel_284:
   \   000291   7409         MOV     A,#0x9
   \   000293   12....       LCALL   ?XSTACK_DISP0_8
   \   000296   12....       LCALL   ?Subroutine49 & 0xFFFF
   \                     ??CrossCallReturnLabel_65:
   \   000299   12....       LCALL   ?XSTACK_DISP0_8
   \   00029C   12....       LCALL   ?Subroutine26 & 0xFFFF
   \                     ??CrossCallReturnLabel_32:
   \   00029F   12....       LCALL   ?DEALLOC_XSTACK8
   1394                  if ( securityEnable )
   \   0002A2   E5..         MOV     A,?V0 + 0
   \   0002A4   7003         JNZ     $+5
   \   0002A6   02....       LJMP    ??zclProcessMessageMSG_1 & 0xFFFF
   1395                    zclSetSecurityOption( pkt->endPoint, pkt->clusterId, TRUE );       
   \   0002A9                ; Setup parameters for call to function zclSetSecurityOption
   \   0002A9   7C01         MOV     R4,#0x1
   \   0002AB   12....       LCALL   ?Subroutine28 & 0xFFFF
   1396                }
   1397                return;   // Error, ignore the message
   1398              }
   1399            }
   \                     ??CrossCallReturnLabel_35:
   \   0002AE   02....       LJMP    ??zclProcessMessageMSG_1 & 0xFFFF
   1400            
   1401            // Is this a foundation type message
   1402            if ( zcl_ProfileCmd( inMsg.hdr.fc.type ) )
   \                     ??zclProcessMessageMSG_11:
   \   0002B1   E8           MOV     A,R0
   \   0002B2   5403         ANL     A,#0x3
   \   0002B4   6003         JZ      $+5
   \   0002B6   02....       LJMP    ??zclProcessMessageMSG_15 & 0xFFFF
   1403            { 
   1404              if ( inMsg.hdr.fc.manuSpecific )
   \   0002B9   E8           MOV     A,R0
   \   0002BA   5404         ANL     A,#0x4
   \   0002BC   6005         JZ      ??zclProcessMessageMSG_16
   1405              {
   1406                // We don't support any manufacturer specific command
   1407                status = ZCL_STATUS_UNSUP_MANU_GENERAL_COMMAND;
   \   0002BE   7A84         MOV     R2,#-0x7c
   \   0002C0   02....       LJMP    ??zclProcessMessageMSG_17 & 0xFFFF
   1408              }
   1409              else if ( ( inMsg.hdr.commandID <= ZCL_CMD_MAX ) && 
   1410                        ( zclCmdTable[inMsg.hdr.commandID].pfnParseInProfile != NULL ) )
   \                     ??zclProcessMessageMSG_16:
   \   0002C3   7409         MOV     A,#0x9
   \   0002C5   12....       LCALL   ?XSTACK_DISP0_8
   \   0002C8   E0           MOVX    A,@DPTR
   \   0002C9   F5..         MOV     ?V0 + 0,A
   \   0002CB   C3           CLR     C
   \   0002CC   940E         SUBB    A,#0xe
   \   0002CE   4003         JC      $+5
   \   0002D0   02....       LJMP    ??zclProcessMessageMSG_18 & 0xFFFF
   \   0002D3   75..00       MOV     ?V0 + 1,#0x0
   \   0002D6   7402         MOV     A,#0x2
   \   0002D8   78..         MOV     R0,#?V0 + 0
   \   0002DA   12....       LCALL   ?S_SHL
   \   0002DD   12....       LCALL   ?Subroutine74 & 0xFFFF
   \                     ??CrossCallReturnLabel_99:
   \   0002E0   F8           MOV     R0,A
   \   0002E1   7401         MOV     A,#0x1
   \   0002E3   93           MOVC    A,@A+DPTR
   \   0002E4   F9           MOV     R1,A
   \   0002E5   E8           MOV     A,R0
   \   0002E6   7001         JNZ     ??zclProcessMessageMSG_19
   \   0002E8   E9           MOV     A,R1
   \                     ??zclProcessMessageMSG_19:
   \   0002E9   7003         JNZ     $+5
   \   0002EB   02....       LJMP    ??zclProcessMessageMSG_18 & 0xFFFF
   1411              {
   1412                zclParseCmd_t parseCmd;
   1413                
   1414                parseCmd.endpoint = pkt->endPoint;
   \   0002EE   85..82       MOV     DPL,?V0 + 2
   \   0002F1   85..83       MOV     DPH,?V0 + 3
   \   0002F4   E0           MOVX    A,@DPTR
   \   0002F5   C0E0         PUSH    A
   \   0002F7   7410         MOV     A,#0x10
   \   0002F9   12....       LCALL   ?XSTACK_DISP0_8
   \   0002FC   D0E0         POP     A
   \   0002FE   F0           MOVX    @DPTR,A
   1415                parseCmd.dataLen = inMsg.pDataLen;
   \   0002FF   740C         MOV     A,#0xc
   \   000301   12....       LCALL   ?XSTACK_DISP0_8
   \   000304   12....       LCALL   ?Subroutine56 & 0xFFFF
   \                     ??CrossCallReturnLabel_75:
   \   000307   7411         MOV     A,#0x11
   \   000309   12....       LCALL   ?XSTACK_DISP0_8
   \   00030C   12....       LCALL   ??Subroutine138_0 & 0xFFFF
   1416                parseCmd.pData = inMsg.pData;
   \                     ??CrossCallReturnLabel_232:
   \   00030F   740A         MOV     A,#0xa
   \   000311   12....       LCALL   ?XSTACK_DISP0_8
   \   000314   12....       LCALL   ?Subroutine56 & 0xFFFF
   \                     ??CrossCallReturnLabel_76:
   \   000317   7413         MOV     A,#0x13
   \   000319   12....       LCALL   ?XSTACK_DISP0_8
   \   00031C   12....       LCALL   ??Subroutine138_0 & 0xFFFF
   1417                
   1418                // Parse the command, remember that the return value is a pointer to allocated memory
   1419                inMsg.attrCmd = zclParseCmd( inMsg.hdr.commandID, &parseCmd );
   \                     ??CrossCallReturnLabel_233:
   \   00031F                ; Setup parameters for indirect call
   \   00031F   7410         MOV     A,#0x10
   \   000321   12....       LCALL   ?XSTACK_DISP0_8
   \   000324   AA82         MOV     R2,DPL
   \   000326   AB83         MOV     R3,DPH
   \   000328   7409         MOV     A,#0x9
   \   00032A   12....       LCALL   ?XSTACK_DISP0_8
   \   00032D   12....       LCALL   ?Subroutine53 & 0xFFFF
   \                     ??CrossCallReturnLabel_69:
   \   000330   12....       LCALL   ?S_SHL
   \   000333   12....       LCALL   ?Subroutine74 & 0xFFFF
   \                     ??CrossCallReturnLabel_100:
   \   000336   C0E0         PUSH    A
   \   000338   7401         MOV     A,#0x1
   \   00033A   93           MOVC    A,@A+DPTR
   \   00033B   F583         MOV     DPH,A
   \   00033D   D082         POP     DPL
   \   00033F   12....       LCALL   ?CALL_IND
   \   000342   740E         MOV     A,#0xe
   \   000344   12....       LCALL   ?XSTACK_DISP0_8
   \   000347   12....       LCALL   ??Subroutine148_0 & 0xFFFF
   1420                if ( (inMsg.attrCmd != NULL) && (zclCmdTable[inMsg.hdr.commandID].pfnProcessInProfile != NULL) )
   \                     ??CrossCallReturnLabel_295:
   \   00034A   740E         MOV     A,#0xe
   \   00034C   12....       LCALL   ?XSTACK_DISP0_8
   \   00034F   E0           MOVX    A,@DPTR
   \   000350   7002         JNZ     ??zclProcessMessageMSG_20
   \   000352   A3           INC     DPTR
   \   000353   E0           MOVX    A,@DPTR
   \                     ??zclProcessMessageMSG_20:
   \   000354   6047         JZ      ??zclProcessMessageMSG_21
   \   000356   7409         MOV     A,#0x9
   \   000358   12....       LCALL   ?XSTACK_DISP0_8
   \   00035B   12....       LCALL   ?Subroutine53 & 0xFFFF
   \                     ??CrossCallReturnLabel_70:
   \   00035E   12....       LCALL   ?S_SHL
   \   000361   E5..         MOV     A,?V0 + 0
   \   000363   24..         ADD     A,#((zclCmdTable + 2) & 0xff)
   \   000365   F582         MOV     DPL,A
   \   000367   E5..         MOV     A,?V0 + 1
   \   000369   34..         ADDC    A,#(((zclCmdTable + 2) >> 8) & 0xff)
   \   00036B   F583         MOV     DPH,A
   \   00036D   12....       LCALL   ?Subroutine75 & 0xFFFF
   \                     ??CrossCallReturnLabel_101:
   \   000370   E8           MOV     A,R0
   \   000371   7001         JNZ     ??zclProcessMessageMSG_22
   \   000373   E9           MOV     A,R1
   \                     ??zclProcessMessageMSG_22:
   \   000374   601C         JZ      ??zclProcessMessageMSG_23
   1421                { 
   1422                  // Process the command
   1423                  if ( zclProcessCmd( inMsg.hdr.commandID, &inMsg ) == FALSE )
   \   000376                ; Setup parameters for indirect call
   \   000376   7402         MOV     A,#0x2
   \   000378   12....       LCALL   ?XSTACK_DISP0_8
   \   00037B   AA82         MOV     R2,DPL
   \   00037D   AB83         MOV     R3,DPH
   \   00037F   8882         MOV     DPL,R0
   \   000381   8983         MOV     DPH,R1
   \   000383   12....       LCALL   ?CALL_IND
   1424                  {
   1425                    // Couldn't find attribute in the table.
   1426                  }
   1427                }
   1428                 
   1429                // Free the buffer
   1430                if ( inMsg.attrCmd )
   \   000386   740E         MOV     A,#0xe
   \   000388   12....       LCALL   ?XSTACK_DISP0_8
   \   00038B   E0           MOVX    A,@DPTR
   \   00038C   7002         JNZ     ??zclProcessMessageMSG_24
   \   00038E   A3           INC     DPTR
   \   00038F   E0           MOVX    A,@DPTR
   \                     ??zclProcessMessageMSG_24:
   \   000390   600B         JZ      ??zclProcessMessageMSG_21
   1431                  osal_mem_free( inMsg.attrCmd );
   \                     ??zclProcessMessageMSG_23:
   \   000392                ; Setup parameters for call to function osal_mem_free
   \   000392   740E         MOV     A,#0xe
   \   000394   12....       LCALL   ?XSTACK_DISP0_8
   \   000397   12....       LCALL   ??Subroutine129_0 & 0xFFFF
   \                     ??CrossCallReturnLabel_186:
   \   00039A   12....       LCALL   ??osal_mem_free?relay
   1432                
   1433                if ( CMD_HAS_RSP( inMsg.hdr.commandID ) )
   \                     ??zclProcessMessageMSG_21:
   \   00039D   7409         MOV     A,#0x9
   \   00039F   12....       LCALL   ?XSTACK_DISP0_8
   \   0003A2   E0           MOVX    A,@DPTR
   \   0003A3   FA           MOV     R2,A
   \   0003A4   7003         JNZ     $+5
   \   0003A6   02....       LJMP    ??zclProcessMessageMSG_1 & 0xFFFF
   \   0003A9   7402         MOV     A,#0x2
   \   0003AB   6A           XRL     A,R2
   \   0003AC   7003         JNZ     $+5
   \   0003AE   02....       LJMP    ??zclProcessMessageMSG_1 & 0xFFFF
   \   0003B1   7403         MOV     A,#0x3
   \   0003B3   6A           XRL     A,R2
   \   0003B4   7003         JNZ     $+5
   \   0003B6   02....       LJMP    ??zclProcessMessageMSG_1 & 0xFFFF
   \   0003B9   7406         MOV     A,#0x6
   \   0003BB   6A           XRL     A,R2
   \   0003BC   7003         JNZ     $+5
   \   0003BE   02....       LJMP    ??zclProcessMessageMSG_1 & 0xFFFF
   \   0003C1   7408         MOV     A,#0x8
   \   0003C3   6A           XRL     A,R2
   \   0003C4   7003         JNZ     $+5
   \   0003C6   02....       LJMP    ??zclProcessMessageMSG_1 & 0xFFFF
   \   0003C9   740C         MOV     A,#0xc
   \   0003CB   6A           XRL     A,R2
   \   0003CC   7003         JNZ     $+5
   \   0003CE   02....       LJMP    ??zclProcessMessageMSG_1 & 0xFFFF
   \   0003D1   740B         MOV     A,#0xb
   \   0003D3   6A           XRL     A,R2
   \   0003D4   7003         JNZ     $+5
   \   0003D6   02....       LJMP    ??zclProcessMessageMSG_1 & 0xFFFF
   1434                  return; // We're done
   1435                
   1436                status = ZSuccess;
   \   0003D9   7A00         MOV     R2,#0x0
   \   0003DB   02....       LJMP    ??zclProcessMessageMSG_17 & 0xFFFF
   1437              }
   1438              else
   1439              {
   1440                // Unsupported message
   1441                status = ZCL_STATUS_UNSUP_GENERAL_COMMAND;
   \                     ??zclProcessMessageMSG_18:
   \   0003DE   7A82         MOV     R2,#-0x7e
   \   0003E0   02....       LJMP    ??zclProcessMessageMSG_17 & 0xFFFF
   1442              }
   1443            }
   1444            else  // Not a foundation type message, so it must be specific to the cluster ID.
   1445            {
   1446              if (epDesc->simpleDesc == NULL)
   \                     ??zclProcessMessageMSG_15:
   \   0003E3   85..82       MOV     DPL,?V0 + 6
   \   0003E6   85..83       MOV     DPH,?V0 + 7
   \   0003E9   E0           MOVX    A,@DPTR
   \   0003EA   7002         JNZ     ??zclProcessMessageMSG_25
   \   0003EC   A3           INC     DPTR
   \   0003ED   E0           MOVX    A,@DPTR
   \                     ??zclProcessMessageMSG_25:
   \   0003EE   607D         JZ      ??zclProcessMessageMSG_26
   1447              {
   1448                pInPlugin = NULL;
   1449              }
   1450              else
   1451              {
   1452                // Find the appropriate plugin
   1453                pInPlugin = zclFindPlugin( pkt->clusterId, epDesc->simpleDesc->AppProfId );
   \   0003F0   85..82       MOV     DPL,?V0 + 4
   \   0003F3   85..83       MOV     DPH,?V0 + 5
   \   0003F6   12....       LCALL   ?Subroutine59 & 0xFFFF
   \                     ??CrossCallReturnLabel_83:
   \   0003F9   7003         JNZ     ??zclProcessMessageMSG_27
   \   0003FB   74FF         MOV     A,#-0x1
   \   0003FD   6B           XRL     A,R3
   \                     ??zclProcessMessageMSG_27:
   \   0003FE   6035         JZ      ??zclProcessMessageMSG_28
   \   000400   90....       MOV     DPTR,#plugins
   \   000403   8004         SJMP    ??zclProcessMessageMSG_29
   \                     ??zclProcessMessageMSG_30:
   \   000405   8882         MOV     DPL,R0
   \   000407   8983         MOV     DPH,R1
   \                     ??zclProcessMessageMSG_29:
   \   000409   12....       LCALL   ??Subroutine126_0 & 0xFFFF
   \                     ??CrossCallReturnLabel_175:
   \   00040C   7001         JNZ     ??zclProcessMessageMSG_31
   \   00040E   E9           MOV     A,R1
   \                     ??zclProcessMessageMSG_31:
   \   00040F   6024         JZ      ??zclProcessMessageMSG_28
   \   000411   8882         MOV     DPL,R0
   \   000413   8983         MOV     DPH,R1
   \   000415   12....       LCALL   ??Subroutine146_0 & 0xFFFF
   \                     ??CrossCallReturnLabel_282:
   \   000418   C3           CLR     C
   \   000419   EA           MOV     A,R2
   \   00041A   9C           SUBB    A,R4
   \   00041B   EB           MOV     A,R3
   \   00041C   9D           SUBB    A,R5
   \   00041D   40E6         JC      ??zclProcessMessageMSG_30
   \   00041F   8882         MOV     DPL,R0
   \   000421   8983         MOV     DPH,R1
   \   000423   A3           INC     DPTR
   \   000424   A3           INC     DPTR
   \   000425   A3           INC     DPTR
   \   000426   A3           INC     DPTR
   \   000427   C3           CLR     C
   \   000428   E0           MOVX    A,@DPTR
   \   000429   9A           SUBB    A,R2
   \   00042A   A3           INC     DPTR
   \   00042B   E0           MOVX    A,@DPTR
   \   00042C   9B           SUBB    A,R3
   \   00042D   40D6         JC      ??zclProcessMessageMSG_30
   \   00042F   8882         MOV     DPL,R0
   \   000431   8983         MOV     DPH,R1
   \   000433   8006         SJMP    ??zclProcessMessageMSG_32
   \                     ??zclProcessMessageMSG_28:
   \   000435   758200       MOV     DPL,#0x0
   \   000438   758300       MOV     DPH,#0x0
   1454              }
   1455              if ( pInPlugin && pInPlugin->pfnIncomingHdlr )
   \                     ??zclProcessMessageMSG_32:
   \   00043B   E582         MOV     A,DPL
   \   00043D   7002         JNZ     ??zclProcessMessageMSG_33
   \   00043F   E583         MOV     A,DPH
   \                     ??zclProcessMessageMSG_33:
   \   000441   602A         JZ      ??zclProcessMessageMSG_26
   \   000443   A3           INC     DPTR
   \   000444   A3           INC     DPTR
   \   000445   A3           INC     DPTR
   \   000446   12....       LCALL   ?Subroutine35 & 0xFFFF
   \                     ??CrossCallReturnLabel_177:
   \   000449   7001         JNZ     ??zclProcessMessageMSG_34
   \   00044B   E9           MOV     A,R1
   \                     ??zclProcessMessageMSG_34:
   \   00044C   601F         JZ      ??zclProcessMessageMSG_26
   1456              { 
   1457                // The return value of the plugin function will be ZSuccess - Supported and need default response
   1458                //                                                 ZFailure - Unsupported
   1459                //                                                 ZCL_STATUS_CMD_HAS_RSP - Supported and do not need default rsp
   1460                //                                                 ZCL_STATUS_INVALID_FIELD - Supported, but the incoming msg is wrong formatted
   1461                //                                                 ZCL_STATUS_INVALID_VALUE - Supported, but the request not achievable by the h/w
   1462                //                                                 ZCL_STATUS_SOFTWARE_FAILURE - Supported but ZStack memory allocation fails
   1463                status = pInPlugin->pfnIncomingHdlr( &inMsg );
   \   00044E                ; Setup parameters for indirect call
   \   00044E   7402         MOV     A,#0x2
   \   000450   12....       LCALL   ?XSTACK_DISP0_8
   \   000453   AA82         MOV     R2,DPL
   \   000455   AB83         MOV     R3,DPH
   \   000457   8882         MOV     DPL,R0
   \   000459   8983         MOV     DPH,R1
   \   00045B   12....       LCALL   ?CALL_IND
   \   00045E   E9           MOV     A,R1
   \   00045F   FA           MOV     R2,A
   1464                if ( status == ZCL_STATUS_CMD_HAS_RSP || ( interPanMsg && status == ZSuccess ) )
   \   000460   74FF         MOV     A,#-0x1
   \   000462   6A           XRL     A,R2
   \   000463   7003         JNZ     $+5
   \   000465   02....       LJMP    ??zclProcessMessageMSG_1 & 0xFFFF
   1465                  return; // We're done      
   1466              }
   1467              
   1468              if ( status == ZFailure )
   \   000468   7401         MOV     A,#0x1
   \   00046A   6A           XRL     A,R2
   \   00046B   7010         JNZ     ??zclProcessMessageMSG_17
   1469              {
   1470                // Unsupported message
   1471                if ( inMsg.hdr.fc.manuSpecific )
   \                     ??zclProcessMessageMSG_26:
   \   00046D   7404         MOV     A,#0x4
   \   00046F   12....       LCALL   ?XSTACK_DISP0_8
   \   000472   E0           MOVX    A,@DPTR
   \   000473   5404         ANL     A,#0x4
   \   000475   6004         JZ      ??zclProcessMessageMSG_35
   1472                  status = ZCL_STATUS_UNSUP_MANU_CLUSTER_COMMAND;
   \   000477   7A83         MOV     R2,#-0x7d
   \   000479   8002         SJMP    ??zclProcessMessageMSG_17
   1473                else
   1474                  status = ZCL_STATUS_UNSUP_CLUSTER_COMMAND;
   \                     ??zclProcessMessageMSG_35:
   \   00047B   7A81         MOV     R2,#-0x7f
   1475              }
   1476            }
   1477            
   1478            if ( UNICAST_MSG( inMsg.msg ) && inMsg.hdr.fc.disableDefaultRsp == 0 )
   \                     ??zclProcessMessageMSG_17:
   \   00047D   7402         MOV     A,#0x2
   \   00047F   12....       LCALL   ?XSTACK_DISP0_8
   \   000482   12....       LCALL   ?Subroutine33 & 0xFFFF
   \                     ??CrossCallReturnLabel_37:
   \   000485   7070         JNZ     ??zclProcessMessageMSG_1
   \   000487   7402         MOV     A,#0x2
   \   000489   12....       LCALL   ?XSTACK_DISP0_8
   \   00048C   12....       LCALL   ?Subroutine46 & 0xFFFF
   \                     ??CrossCallReturnLabel_62:
   \   00048F   7002         JNZ     ??zclProcessMessageMSG_36
   \   000491   A3           INC     DPTR
   \   000492   E0           MOVX    A,@DPTR
   \                     ??zclProcessMessageMSG_36:
   \   000493   7062         JNZ     ??zclProcessMessageMSG_1
   \   000495   7404         MOV     A,#0x4
   \   000497   12....       LCALL   ?XSTACK_DISP0_8
   \   00049A   E0           MOVX    A,@DPTR
   \   00049B   5410         ANL     A,#0x10
   \   00049D   7058         JNZ     ??zclProcessMessageMSG_1
   1479            {
   1480              // Send a Default Response command back
   1481              defautlRspCmd.statusCode = status;
   \   00049F   7401         MOV     A,#0x1
   \   0004A1   12....       LCALL   ?XSTACK_DISP0_8
   \   0004A4   EA           MOV     A,R2
   \   0004A5   F0           MOVX    @DPTR,A
   1482              defautlRspCmd.commandID = inMsg.hdr.commandID;
   \   0004A6   7409         MOV     A,#0x9
   \   0004A8   12....       LCALL   ?XSTACK_DISP0_8
   \   0004AB   12....       LCALL   ?Subroutine52 & 0xFFFF
   1483              zcl_SendDefaultRspCmd( inMsg.msg->endPoint, &(inMsg.msg->srcAddr),
   1484                                     inMsg.msg->clusterId, &defautlRspCmd, 
   1485                                     ZCL_FRAME_SERVER_CLIENT_DIR, true, 
   1486                                     inMsg.hdr.manuCode, inMsg.hdr.transSeqNum );
   1487            }
   \                     ??CrossCallReturnLabel_68:
   \   0004AE   12....       LCALL   ?XSTACK_DISP0_8
   \   0004B1   E0           MOVX    A,@DPTR
   \   0004B2   F5..         MOV     ?V0 + 0,A
   \   0004B4   78..         MOV     R0,#?V0 + 0
   \   0004B6   12....       LCALL   ?PUSH_XSTACK_I_ONE
   \   0004B9   7407         MOV     A,#0x7
   \   0004BB   12....       LCALL   ?XSTACK_DISP0_8
   \   0004BE   12....       LCALL   ?PUSH_XSTACK8_X_TWO
   \   0004C1   75..01       MOV     ?V0 + 0,#0x1
   \   0004C4   78..         MOV     R0,#?V0 + 0
   \   0004C6   12....       LCALL   ?PUSH_XSTACK_I_ONE
   \   0004C9   78..         MOV     R0,#?V0 + 0
   \   0004CB   12....       LCALL   ?PUSH_XSTACK_I_ONE
   \   0004CE   7405         MOV     A,#0x5
   \   0004D0   12....       LCALL   ?XSTACK_DISP0_8
   \   0004D3   8582..       MOV     ?V0 + 0,DPL
   \   0004D6   8583..       MOV     ?V0 + 1,DPH
   \   0004D9   78..         MOV     R0,#?V0 + 0
   \   0004DB   12....       LCALL   ?PUSH_XSTACK_I_TWO
   \   0004DE   7409         MOV     A,#0x9
   \   0004E0   12....       LCALL   ?XSTACK_DISP0_8
   \   0004E3   12....       LCALL   ?Subroutine27 & 0xFFFF
   \                     ??CrossCallReturnLabel_285:
   \   0004E6   7409         MOV     A,#0x9
   \   0004E8   12....       LCALL   ?XSTACK_DISP0_8
   \   0004EB   12....       LCALL   ?Subroutine49 & 0xFFFF
   \                     ??CrossCallReturnLabel_66:
   \   0004EE   12....       LCALL   ?XSTACK_DISP0_8
   \   0004F1   12....       LCALL   ?Subroutine26 & 0xFFFF
   \                     ??CrossCallReturnLabel_33:
   \   0004F4   12....       LCALL   ?DEALLOC_XSTACK8
   \                     ??zclProcessMessageMSG_1:
   \   0004F7   743D         MOV     A,#0x3d
   \   0004F9   12....       LCALL   ?DEALLOC_XSTACK8
   \   0004FC                REQUIRE ?Subroutine117
   \   0004FC                ; // Fall through to label ?Subroutine117
   1488          }

   \                                 In  segment BANKED_CODE, align 1, keep-with-next
   \                     ?Subroutine117:
   \   000000   7F08         MOV     R7,#0x8
   \   000002   02....       LJMP    ?BANKED_LEAVE_XDATA

   \                                 In  segment BANKED_CODE, align 1, keep-with-next
   \                     ?Subroutine74:
   \   000000   E5..         MOV     A,?V0 + 0
   \   000002   24..         ADD     A,#(zclCmdTable & 0xff)
   \   000004   F582         MOV     DPL,A
   \   000006   E5..         MOV     A,?V0 + 1
   \   000008   34..         ADDC    A,#((zclCmdTable >> 8) & 0xff)
   \   00000A   F583         MOV     DPH,A
   \   00000C   E4           CLR     A
   \   00000D   93           MOVC    A,@A+DPTR
   \   00000E   22           RET

   \                                 In  segment BANKED_CODE, align 1, keep-with-next
   \                     ?Subroutine59:
   \   000000   12....       LCALL   ??Subroutine130_0 & 0xFFFF
   \                     ??CrossCallReturnLabel_254:
   \   000003   74FF         MOV     A,#-0x1
   \   000005   6A           XRL     A,R2
   \   000006   22           RET

   \                                 In  segment BANKED_CODE, align 1, keep-with-next
   \                     ?Subroutine53:
   \   000000   E0           MOVX    A,@DPTR
   \   000001   F5..         MOV     ?V0 + 0,A
   \   000003   75..00       MOV     ?V0 + 1,#0x0
   \   000006   7402         MOV     A,#0x2
   \   000008   78..         MOV     R0,#?V0 + 0
   \   00000A   22           RET

   \                                 In  segment BANKED_CODE, align 1, keep-with-next
   \                     ?Subroutine52:
   \   000000   E0           MOVX    A,@DPTR
   \   000001   85..82       MOV     DPL,?XSP + 0
   \   000004   85..83       MOV     DPH,?XSP + 1
   \   000007   F0           MOVX    @DPTR,A
   \   000008                ; Setup parameters for call to function zcl_SendDefaultRspCmd
   \   000008                ; Setup parameters for call to function zcl_SendDefaultRspCmd
   \   000008   7408         MOV     A,#0x8
   \   00000A   22           RET

   \                                 In  segment BANKED_CODE, align 1, keep-with-next
   \                     ?Subroutine49:
   \   000000   E0           MOVX    A,@DPTR
   \   000001   2406         ADD     A,#0x6
   \   000003   FA           MOV     R2,A
   \   000004   A3           INC     DPTR
   \   000005   E0           MOVX    A,@DPTR
   \   000006   3400         ADDC    A,#0x0
   \   000008   FB           MOV     R3,A
   \   000009   7409         MOV     A,#0x9
   \   00000B   22           RET

   \                                 In  segment BANKED_CODE, align 1, keep-with-next
   \                     ?Subroutine46:
   \   000000   12....       LCALL   ?Subroutine85 & 0xFFFF
   \                     ??CrossCallReturnLabel_118:
   \   000003   E0           MOVX    A,@DPTR
   \   000004   22           RET

   \                                 In  segment BANKED_CODE, align 1, keep-with-next
   \                     ?Subroutine33:
   \   000000   E0           MOVX    A,@DPTR
   \   000001   2415         ADD     A,#0x15
   \   000003   12....       LCALL   ?Subroutine89 & 0xFFFF
   \                     ??CrossCallReturnLabel_121:
   \   000006   22           RET

   \                                 In  segment BANKED_CODE, align 1, keep-with-next
   \                     ?Subroutine89:
   \   000000   F8           MOV     R0,A
   \   000001   A3           INC     DPTR
   \   000002   E0           MOVX    A,@DPTR
   \   000003   12....       LCALL   ?Subroutine101 & 0xFFFF
   \                     ??CrossCallReturnLabel_137:
   \   000006   E0           MOVX    A,@DPTR
   \   000007   22           RET

   \                                 In  segment BANKED_CODE, align 1, keep-with-next
   \                     ?Subroutine28:
   \   000000   85..82       MOV     DPL,?V0 + 4
   \   000003   85..83       MOV     DPH,?V0 + 5
   \   000006   12....       LCALL   ?Subroutine81 & 0xFFFF
   \                     ??CrossCallReturnLabel_114:
   \   000009   E0           MOVX    A,@DPTR
   \   00000A   F9           MOV     R1,A
   \   00000B   12....       LCALL   ??zclSetSecurityOption?relay
   \   00000E   22           RET

   \                                 In  segment BANKED_CODE, align 1, keep-with-next
   \                     ?Subroutine26:
   \   000000   E0           MOVX    A,@DPTR
   \   000001   2414         ADD     A,#0x14
   \   000003   12....       LCALL   ?Subroutine89 & 0xFFFF
   \                     ??CrossCallReturnLabel_120:
   \   000006   F9           MOV     R1,A
   \   000007   12....       LCALL   ??zcl_SendDefaultRspCmd?relay
   \   00000A   7407         MOV     A,#0x7
   \   00000C   22           RET

   \                                 In  segment BANKED_CODE, align 1, keep-with-next
   \                     ?Subroutine18:
   \   000000   F0           MOVX    @DPTR,A
   \   000001                ; Setup parameters for call to function zclParseHdr
   \   000001   85..82       MOV     DPL,?V0 + 0
   \   000004   85..83       MOV     DPH,?V0 + 1
   \   000007   E0           MOVX    A,@DPTR
   \   000008   22           RET

   \                                 In  segment BANKED_CODE, align 1, keep-with-next
   \                     ?Subroutine101:
   \   000000   3400         ADDC    A,#0x0
   \   000002   F9           MOV     R1,A
   \   000003   8882         MOV     DPL,R0
   \   000005   8983         MOV     DPH,R1
   \   000007   22           RET

   \                                 In  segment BANKED_CODE, align 1, keep-with-next
   \                     ?Subroutine75:
   \   000000   E4           CLR     A
   \   000001   93           MOVC    A,@A+DPTR
   \   000002   F8           MOV     R0,A
   \   000003   7401         MOV     A,#0x1
   \   000005   93           MOVC    A,@A+DPTR
   \   000006   F9           MOV     R1,A
   \   000007   22           RET

   \                                 In  segment BANKED_CODE, align 1, keep-with-next
   \                     ?Subroutine35:
   \   000000   A3           INC     DPTR
   \   000001   A3           INC     DPTR
   \   000002   A3           INC     DPTR
   \   000003                REQUIRE ??Subroutine126_0
   \   000003                ; // Fall through to label ??Subroutine126_0

   \                                 In  segment BANKED_CODE, align 1, keep-with-next
   \                     ??Subroutine126_0:
   \   000000   12....       LCALL   ?Subroutine88 & 0xFFFF
   \                     ??CrossCallReturnLabel_203:
   \   000003   E8           MOV     A,R0
   \   000004   22           RET

   \                                 In  segment BANKED_CODE, align 1, keep-with-next
   \                     ??Subroutine129_0:
   \   000000   12....       LCALL   ??Subroutine130_0 & 0xFFFF
   \                     ??CrossCallReturnLabel_256:
   \   000003   22           RET

   \                                 In  segment BANKED_CODE, align 1, keep-with-next
   \                     ??Subroutine138_0:
   \   000000   E8           MOV     A,R0
   \   000001                REQUIRE ??Subroutine139_0
   \   000001                ; // Fall through to label ??Subroutine139_0

   \                                 In  segment BANKED_CODE, align 1, keep-with-next
   \                     ??Subroutine139_0:
   \   000000   F0           MOVX    @DPTR,A
   \   000001   A3           INC     DPTR
   \   000002   E9           MOV     A,R1
   \   000003   F0           MOVX    @DPTR,A
   \   000004   22           RET

   \                                 In  segment BANKED_CODE, align 1, keep-with-next
   \                     ?Subroutine90:
   \   000000   12....       LCALL   ?Subroutine100 & 0xFFFF
   \                     ??CrossCallReturnLabel_247:
   \   000003   22           RET

   \                                 In  segment BANKED_CODE, align 1, keep-with-next
   \                     ?Subroutine100:
   \   000000   E0           MOVX    A,@DPTR
   \   000001   F8           MOV     R0,A
   \   000002   A3           INC     DPTR
   \   000003   E0           MOVX    A,@DPTR
   \   000004   F583         MOV     DPH,A
   \   000006   8882         MOV     DPL,R0
   \   000008   22           RET

   \                                 In  segment BANKED_CODE, align 1, keep-with-next
   \                     ??Subroutine142_0:
   \   000000   3400         ADDC    A,#0x0
   \   000002   F583         MOV     DPH,A
   \   000004   E0           MOVX    A,@DPTR
   \   000005   22           RET

   \                                 In  segment BANKED_CODE, align 1, keep-with-next
   \                     ?Subroutine66:
   \   000000   F5..         MOV     ?V0 + 2,A
   \   000002   EF           MOV     A,R7
   \   000003                REQUIRE ??Subroutine143_0
   \   000003                ; // Fall through to label ??Subroutine143_0

   \                                 In  segment BANKED_CODE, align 1, keep-with-next
   \                     ??Subroutine143_0:
   \   000000   12....       LCALL   ?Subroutine92 & 0xFFFF
   \                     ??CrossCallReturnLabel_270:
   \   000003   22           RET

   \                                 In  segment BANKED_CODE, align 1, keep-with-next
   \                     ?Subroutine92:
   \   000000   3400         ADDC    A,#0x0
   \   000002   F5..         MOV     ?V0 + 3,A
   \   000004                ; Setup parameters for call to function afFindEndPointDesc
   \   000004                ; Setup parameters for call to function zclGetAttrDataLength
   \   000004   85..82       MOV     DPL,?V0 + 2
   \   000007   F583         MOV     DPH,A
   \   000009   22           RET

   \                                 In  segment BANKED_CODE, align 1, keep-with-next
   \                     ?Subroutine44:
   \   000000   12....       LCALL   ?Subroutine81 & 0xFFFF
   \                     ??CrossCallReturnLabel_115:
   \   000003   22           RET

   \                                 In  segment BANKED_CODE, align 1, keep-with-next
   \                     ?Subroutine81:
   \   000000   E0           MOVX    A,@DPTR
   \   000001   FA           MOV     R2,A
   \   000002   A3           INC     DPTR
   \   000003   E0           MOVX    A,@DPTR
   \   000004   FB           MOV     R3,A
   \   000005   85..82       MOV     DPL,?V0 + 2
   \   000008   85..83       MOV     DPH,?V0 + 3
   \   00000B   22           RET

   \                                 In  segment BANKED_CODE, align 1, keep-with-next
   \                     ?Subroutine27:
   \   000000   12....       LCALL   ?Subroutine90 & 0xFFFF
   \                     ??CrossCallReturnLabel_244:
   \   000003                REQUIRE ??Subroutine145_0
   \   000003                ; // Fall through to label ??Subroutine145_0

   \                                 In  segment BANKED_CODE, align 1, keep-with-next
   \                     ??Subroutine145_0:
   \   000000   A3           INC     DPTR
   \   000001   A3           INC     DPTR
   \   000002                REQUIRE ??Subroutine146_0
   \   000002                ; // Fall through to label ??Subroutine146_0

   \                                 In  segment BANKED_CODE, align 1, keep-with-next
   \                     ??Subroutine146_0:
   \   000000   A3           INC     DPTR
   \   000001   A3           INC     DPTR
   \   000002                REQUIRE ??Subroutine147_0
   \   000002                ; // Fall through to label ??Subroutine147_0

   \                                 In  segment BANKED_CODE, align 1, keep-with-next
   \                     ?Subroutine85:
   \   000000   12....       LCALL   ?Subroutine100 & 0xFFFF
   \                     ??CrossCallReturnLabel_246:
   \   000003   A3           INC     DPTR
   \   000004   A3           INC     DPTR
   \   000005   22           RET
   1489          
   1490          /*********************************************************************
   1491           * @fn      zclParseHdr
   1492           * @brief   Parse header of the ZCL format
   1493           * @param   hdr - place to put the frame control information
   1494           *          pData - incoming buffer to parse
   1495           * @return  pointer past the header
   1496           */

   \                                 In  segment BANKED_CODE, align 1, keep-with-next
   1497          uint8 *zclParseHdr( zclFrameHdr_t *hdr, uint8 *pData )
   \                     zclParseHdr:
   1498          {
   \   000000   74F4         MOV     A,#-0xc
   \   000002   12....       LCALL   ?BANKED_ENTER_XDATA
   \   000005                ; Saved register size: 12
   \   000005                ; Auto size: 0
   \   000005   8A..         MOV     ?V0 + 0,R2
   \   000007   8B..         MOV     ?V0 + 1,R3
   \   000009   EC           MOV     A,R4
   \   00000A   FE           MOV     R6,A
   \   00000B   ED           MOV     A,R5
   \   00000C   FF           MOV     R7,A
   1499            // Clear the header
   1500            osal_memset( (uint8 *)hdr, 0, sizeof ( zclFrameHdr_t ) );
   \   00000D                ; Setup parameters for call to function osal_memset
   \   00000D   7C06         MOV     R4,#0x6
   \   00000F   7D00         MOV     R5,#0x0
   \   000011   7900         MOV     R1,#0x0
   \   000013   12....       LCALL   ??osal_memset?relay
   1501          
   1502            // Parse the Frame Control
   1503            hdr->fc.type = zcl_FCType( *pData );
   \   000016   85..82       MOV     DPL,?V0 + 0
   \   000019   85..83       MOV     DPH,?V0 + 1
   \   00001C   E0           MOVX    A,@DPTR
   \   00001D   54FC         ANL     A,#0xfc
   \   00001F   12....       LCALL   ??Subroutine136_0 & 0xFFFF
   \                     ??CrossCallReturnLabel_220:
   \   000022   E0           MOVX    A,@DPTR
   \   000023   FA           MOV     R2,A
   \   000024   7403         MOV     A,#0x3
   \   000026   5A           ANL     A,R2
   \   000027   48           ORL     A,R0
   \   000028   F8           MOV     R0,A
   \   000029   85..82       MOV     DPL,?V0 + 0
   \   00002C   85..83       MOV     DPH,?V0 + 1
   \   00002F   12....       LCALL   ??Subroutine139_0 & 0xFFFF
   1504            hdr->fc.manuSpecific = zcl_FCManuSpecific( *pData ) ? 1 : 0;
   \                     ??CrossCallReturnLabel_230:
   \   000032   74FB         MOV     A,#-0x5
   \   000034   58           ANL     A,R0
   \   000035   FA           MOV     R2,A
   \   000036   8E82         MOV     DPL,R6
   \   000038   8F83         MOV     DPH,R7
   \   00003A   E0           MOVX    A,@DPTR
   \   00003B   A2E2         MOV     C,0xE0 /* A   */.2
   \   00003D   E4           CLR     A
   \   00003E   92E0         MOV     0xE0 /* A   */.0,C
   \   000040   F5..         MOV     ?V0 + 2,A
   \   000042   75..00       MOV     ?V0 + 3,#0x0
   \   000045   7402         MOV     A,#0x2
   \   000047   78..         MOV     R0,#?V0 + 2
   \   000049   12....       LCALL   ?S_SHL
   \   00004C   7404         MOV     A,#0x4
   \   00004E   55..         ANL     A,?V0 + 2
   \   000050   4A           ORL     A,R2
   \   000051   85..82       MOV     DPL,?V0 + 0
   \   000054   85..83       MOV     DPH,?V0 + 1
   \   000057   12....       LCALL   ?Subroutine12 & 0xFFFF
   1505            if ( zcl_FCDirection( *pData ) )
   \                     ??CrossCallReturnLabel_17:
   \   00005A   A2E3         MOV     C,0xE0 /* A   */.3
   \   00005C   85..82       MOV     DPL,?V0 + 0
   \   00005F   85..83       MOV     DPH,?V0 + 1
   \   000062   E0           MOVX    A,@DPTR
   \   000063   5004         JNC     ??zclParseHdr_0
   1506              hdr->fc.direction = ZCL_FRAME_SERVER_CLIENT_DIR;
   \   000065   4408         ORL     A,#0x8
   \   000067   8002         SJMP    ??zclParseHdr_1
   1507            else
   1508              hdr->fc.direction = ZCL_FRAME_CLIENT_SERVER_DIR;
   \                     ??zclParseHdr_0:
   \   000069   54F7         ANL     A,#0xf7
   \                     ??zclParseHdr_1:
   \   00006B   F0           MOVX    @DPTR,A
   \   00006C   A3           INC     DPTR
   \   00006D   E0           MOVX    A,@DPTR
   \   00006E   12....       LCALL   ?Subroutine18 & 0xFFFF
   1509            
   1510            hdr->fc.disableDefaultRsp = zcl_FCDisableDefaultRsp( *pData ) ? 1 : 0;
   \                     ??CrossCallReturnLabel_23:
   \   000071   54EF         ANL     A,#0xef
   \   000073   FA           MOV     R2,A
   \   000074   A3           INC     DPTR
   \   000075   E0           MOVX    A,@DPTR
   \   000076   FB           MOV     R3,A
   \   000077   8E82         MOV     DPL,R6
   \   000079   8F83         MOV     DPH,R7
   \   00007B   E0           MOVX    A,@DPTR
   \   00007C   A2E4         MOV     C,0xE0 /* A   */.4
   \   00007E   E4           CLR     A
   \   00007F   92E0         MOV     0xE0 /* A   */.0,C
   \   000081   F5..         MOV     ?V0 + 2,A
   \   000083   7404         MOV     A,#0x4
   \   000085   78..         MOV     R0,#?V0 + 2
   \   000087   12....       LCALL   ?S_SHL
   \   00008A   7410         MOV     A,#0x10
   \   00008C   55..         ANL     A,?V0 + 2
   \   00008E   4A           ORL     A,R2
   \   00008F   F8           MOV     R0,A
   \   000090   EB           MOV     A,R3
   \   000091   F9           MOV     R1,A
   \   000092   85..82       MOV     DPL,?V0 + 0
   \   000095   85..83       MOV     DPH,?V0 + 1
   \   000098   E8           MOV     A,R0
   \   000099   F0           MOVX    @DPTR,A
   \   00009A   A3           INC     DPTR
   \   00009B   E9           MOV     A,R1
   \   00009C   12....       LCALL   ??Subroutine133_0 & 0xFFFF
   1511            pData++;  // move past the frame control field
   1512          
   1513            // parse the manfacturer code
   1514            if ( hdr->fc.manuSpecific )
   \                     ??CrossCallReturnLabel_205:
   \   00009F   E8           MOV     A,R0
   \   0000A0   5404         ANL     A,#0x4
   \   0000A2   6014         JZ      ??CrossCallReturnLabel_10
   1515            {
   1516              hdr->manuCode = BUILD_UINT16( pData[0], pData[1] );
   \   0000A4   E0           MOVX    A,@DPTR
   \   0000A5   FA           MOV     R2,A
   \   0000A6   A3           INC     DPTR
   \   0000A7   E0           MOVX    A,@DPTR
   \   0000A8   F9           MOV     R1,A
   \   0000A9   EA           MOV     A,R2
   \   0000AA   85..82       MOV     DPL,?V0 + 0
   \   0000AD   85..83       MOV     DPH,?V0 + 1
   \   0000B0   A3           INC     DPTR
   \   0000B1   A3           INC     DPTR
   \   0000B2   F0           MOVX    @DPTR,A
   \   0000B3   A3           INC     DPTR
   \   0000B4   E9           MOV     A,R1
   \   0000B5   12....       LCALL   ?Subroutine9 & 0xFFFF
   1517              pData += 2;
   1518            }
   1519          
   1520            // parse the Transaction Sequence Number
   1521            hdr->transSeqNum = *pData++;
   \                     ??CrossCallReturnLabel_10:
   \   0000B8   8E82         MOV     DPL,R6
   \   0000BA   8F83         MOV     DPH,R7
   \   0000BC   E0           MOVX    A,@DPTR
   \   0000BD   85..82       MOV     DPL,?V0 + 0
   \   0000C0   85..83       MOV     DPH,?V0 + 1
   \   0000C3   A3           INC     DPTR
   \   0000C4   A3           INC     DPTR
   \   0000C5   A3           INC     DPTR
   \   0000C6   12....       LCALL   ?Subroutine5 & 0xFFFF
   1522          
   1523            // parse the Cluster's command ID
   1524            hdr->commandID = *pData++;
   \                     ??CrossCallReturnLabel_8:
   \   0000C9   85..82       MOV     DPL,?V0 + 0
   \   0000CC   85..83       MOV     DPH,?V0 + 1
   \   0000CF   A3           INC     DPTR
   \   0000D0   A3           INC     DPTR
   \   0000D1   A3           INC     DPTR
   \   0000D2   A3           INC     DPTR
   \   0000D3   A3           INC     DPTR
   \   0000D4   12....       LCALL   ??Subroutine134_0 & 0xFFFF
   1525          
   1526            // Should point to the frame payload
   1527            return ( pData );
   \                     ??CrossCallReturnLabel_211:
   \   0000D7   AA82         MOV     R2,DPL
   \   0000D9   AB83         MOV     R3,DPH
   \   0000DB                REQUIRE ?Subroutine105
   \   0000DB                ; // Fall through to label ?Subroutine105
   1528          }

   \                                 In  segment BANKED_CODE, align 1, keep-with-next
   \                     ?Subroutine113:
   \   000000   8E82         MOV     DPL,R6
   \   000002   8F83         MOV     DPH,R7
   \   000004   22           RET

   \                                 In  segment BANKED_CODE, align 1, keep-with-next
   \                     ?Subroutine9:
   \   000000   12....       LCALL   ?Subroutine76 & 0xFFFF
   \                     ??CrossCallReturnLabel_104:
   \   000003   22           RET

   \                                 In  segment BANKED_CODE, align 1, keep-with-next
   \                     ?Subroutine76:
   \   000000   F0           MOVX    @DPTR,A
   \   000001   12....       LCALL   ?Subroutine103 & 0xFFFF
   \                     ??CrossCallReturnLabel_158:
   \   000004   22           RET

   \                                 In  segment BANKED_CODE, align 1, keep-with-next
   \                     ??Subroutine133_0:
   \   000000   12....       LCALL   ?Subroutine77 & 0xFFFF
   \                     ??CrossCallReturnLabel_208:
   \   000003   22           RET

   \                                 In  segment BANKED_CODE, align 1, keep-with-next
   \                     ?Subroutine77:
   \   000000   12....       LCALL   ?Subroutine98 & 0xFFFF
   \                     ??CrossCallReturnLabel_214:
   \   000003   A3           INC     DPTR
   \   000004   AE82         MOV     R6,DPL
   \   000006   AF83         MOV     R7,DPH
   \   000008   22           RET

   \                                 In  segment BANKED_CODE, align 1, keep-with-next
   \                     ?Subroutine103:
   \   000000   EE           MOV     A,R6
   \   000001   2402         ADD     A,#0x2
   \   000003   0E           INC     R6
   \   000004   0E           INC     R6
   \   000005   02....       LJMP    ?Subroutine110 & 0xFFFF

   \                                 In  segment BANKED_CODE, align 1, keep-with-next
   \                     ?Subroutine5:
   \   000000   A3           INC     DPTR
   \   000001   12....       LCALL   ?Subroutine77 & 0xFFFF
   \                     ??CrossCallReturnLabel_209:
   \   000004   E0           MOVX    A,@DPTR
   \   000005   22           RET

   \                                 In  segment BANKED_CODE, align 1, keep-with-next
   \                     ??Subroutine134_0:
   \   000000   12....       LCALL   ?Subroutine98 & 0xFFFF
   \                     ??CrossCallReturnLabel_215:
   \   000003   A3           INC     DPTR
   \   000004   22           RET

   \                                 In  segment BANKED_CODE, align 1, keep-with-next
   \                     ??Subroutine136_0:
   \   000000   F8           MOV     R0,A
   \   000001   A3           INC     DPTR
   \   000002   E0           MOVX    A,@DPTR
   \   000003   F9           MOV     R1,A
   \   000004   02....       LJMP    ?Subroutine113 & 0xFFFF

   \                                 In  segment BANKED_CODE, align 1, keep-with-next
   \                     ?Subroutine98:
   \   000000   F0           MOVX    @DPTR,A
   \   000001   02....       LJMP    ?Subroutine113 & 0xFFFF

   \                                 In  segment BANKED_CODE, align 1, keep-with-next
   \                     ?Subroutine12:
   \   000000   F0           MOVX    @DPTR,A
   \   000001   A3           INC     DPTR
   \   000002   E9           MOV     A,R1
   \   000003   12....       LCALL   ?Subroutine98 & 0xFFFF
   \                     ??CrossCallReturnLabel_217:
   \   000006   E0           MOVX    A,@DPTR
   \   000007   22           RET
   1529          
   1530          /*********************************************************************
   1531           * @fn      zclBuildHdr
   1532           * @brief   Build header of the ZCL format
   1533           * @param   hdr - outgoing header information
   1534           *          pData - outgoing header space
   1535           * @return  pointer past the header
   1536           */

   \                                 In  segment BANKED_CODE, align 1, keep-with-next
   1537          static uint8 *zclBuildHdr( zclFrameHdr_t *hdr, uint8 *pData )
   \                     zclBuildHdr:
   1538          {
   \   000000   74F7         MOV     A,#-0x9
   \   000002   12....       LCALL   ?BANKED_ENTER_XDATA
   \   000005                ; Saved register size: 9
   \   000005                ; Auto size: 0
   1539            // Build the Frame Control byte
   1540            *pData = hdr->fc.type;
   \   000005   8A82         MOV     DPL,R2
   \   000007   8B83         MOV     DPH,R3
   \   000009   E0           MOVX    A,@DPTR
   \   00000A   5403         ANL     A,#0x3
   \   00000C   8C82         MOV     DPL,R4
   \   00000E   8D83         MOV     DPH,R5
   \   000010   12....       LCALL   ??Subroutine125_0 & 0xFFFF
   1541            *pData |= hdr->fc.manuSpecific << 2;
   \                     ??CrossCallReturnLabel_174:
   \   000013   5404         ANL     A,#0x4
   \   000015   12....       LCALL   ?Subroutine16 & 0xFFFF
   1542            *pData |= hdr->fc.direction << 3;
   \                     ??CrossCallReturnLabel_172:
   \   000018   5408         ANL     A,#0x8
   \   00001A   12....       LCALL   ?Subroutine16 & 0xFFFF
   1543            *pData |= hdr->fc.disableDefaultRsp << 4;
   \                     ??CrossCallReturnLabel_173:
   \   00001D   5410         ANL     A,#0x10
   \   00001F   FE           MOV     R6,A
   \   000020   8C82         MOV     DPL,R4
   \   000022   8D83         MOV     DPH,R5
   \   000024   E0           MOVX    A,@DPTR
   \   000025   4E           ORL     A,R6
   \   000026   12....       LCALL   ?Subroutine8 & 0xFFFF
   1544            pData++;  // move past the frame control field
   1545          
   1546            // Add the manfacturer code
   1547            if ( hdr->fc.manuSpecific )
   \                     ??CrossCallReturnLabel_223:
   \   000029   E0           MOVX    A,@DPTR
   \   00002A   5404         ANL     A,#0x4
   \   00002C   6013         JZ      ??CrossCallReturnLabel_72
   1548            {
   1549              *pData++ = LO_UINT16( hdr->manuCode );
   \   00002E   EA           MOV     A,R2
   \   00002F   2402         ADD     A,#0x2
   \   000031   F8           MOV     R0,A
   \   000032   EB           MOV     A,R3
   \   000033   12....       LCALL   ?Subroutine101 & 0xFFFF
   \                     ??CrossCallReturnLabel_135:
   \   000036   12....       LCALL   ?Subroutine54 & 0xFFFF
   1550              *pData++ = HI_UINT16( hdr->manuCode );
   \                     ??CrossCallReturnLabel_71:
   \   000039   8882         MOV     DPL,R0
   \   00003B   8983         MOV     DPH,R1
   \   00003D   A3           INC     DPTR
   \   00003E   12....       LCALL   ?Subroutine54 & 0xFFFF
   1551            }
   1552          
   1553            // Add the Transaction Sequence Number
   1554            *pData++ = hdr->transSeqNum;
   \                     ??CrossCallReturnLabel_72:
   \   000041   8A82         MOV     DPL,R2
   \   000043   8B83         MOV     DPH,R3
   \   000045   A3           INC     DPTR
   \   000046   A3           INC     DPTR
   \   000047   A3           INC     DPTR
   \   000048   A3           INC     DPTR
   \   000049   E0           MOVX    A,@DPTR
   \   00004A   8C82         MOV     DPL,R4
   \   00004C   8D83         MOV     DPH,R5
   \   00004E   12....       LCALL   ?Subroutine8 & 0xFFFF
   1555            
   1556            // Add the Cluster's command ID
   1557            *pData++ = hdr->commandID;
   \                     ??CrossCallReturnLabel_224:
   \   000051   A3           INC     DPTR
   \   000052   A3           INC     DPTR
   \   000053   A3           INC     DPTR
   \   000054   A3           INC     DPTR
   \   000055   A3           INC     DPTR
   \   000056   E0           MOVX    A,@DPTR
   \   000057   8C82         MOV     DPL,R4
   \   000059   8D83         MOV     DPH,R5
   \   00005B   F0           MOVX    @DPTR,A
   \   00005C   A3           INC     DPTR
   1558          
   1559            // Should point to the frame payload
   1560            return ( pData );
   \   00005D   AA82         MOV     R2,DPL
   \   00005F   AB83         MOV     R3,DPH
   \   000061   7F01         MOV     R7,#0x1
   \   000063   02....       LJMP    ?BANKED_LEAVE_XDATA
   1561          }

   \                                 In  segment BANKED_CODE, align 1, keep-with-next
   \                     ?Subroutine54:
   \   000000   E0           MOVX    A,@DPTR
   \   000001   8C82         MOV     DPL,R4
   \   000003   8D83         MOV     DPH,R5
   \   000005   F0           MOVX    @DPTR,A
   \   000006   A3           INC     DPTR
   \   000007   0C           INC     R4
   \   000008   AD83         MOV     R5,DPH
   \   00000A   22           RET

   \                                 In  segment BANKED_CODE, align 1, keep-with-next
   \                     ?Subroutine16:
   \   000000   FE           MOV     R6,A
   \   000001   8C82         MOV     DPL,R4
   \   000003   8D83         MOV     DPH,R5
   \   000005   E0           MOVX    A,@DPTR
   \   000006   4E           ORL     A,R6
   \   000007                REQUIRE ??Subroutine125_0
   \   000007                ; // Fall through to label ??Subroutine125_0

   \                                 In  segment BANKED_CODE, align 1, keep-with-next
   \                     ??Subroutine125_0:
   \   000000   F0           MOVX    @DPTR,A
   \   000001   8A82         MOV     DPL,R2
   \   000003   8B83         MOV     DPH,R3
   \   000005   E0           MOVX    A,@DPTR
   \   000006   22           RET

   \                                 In  segment BANKED_CODE, align 1, keep-with-next
   \                     ?Subroutine8:
   \   000000   F0           MOVX    @DPTR,A
   \   000001   A3           INC     DPTR
   \   000002   AC82         MOV     R4,DPL
   \   000004   AD83         MOV     R5,DPH
   \   000006                REQUIRE ?Subroutine112
   \   000006                ; // Fall through to label ?Subroutine112

   \                                 In  segment BANKED_CODE, align 1, keep-with-next
   \                     ?Subroutine112:
   \   000000   8A82         MOV     DPL,R2
   \   000002   8B83         MOV     DPH,R3
   \   000004   22           RET
   1562          
   1563          /*********************************************************************
   1564           * @fn      zclCalcHdrSize
   1565           * @brief   Calculate the number of bytes needed for an outgoing
   1566           *          ZCL header.
   1567           * @param   hdr - outgoing header information
   1568           * @return  returns the number of bytes needed
   1569           */
   1570          static uint8 zclCalcHdrSize( zclFrameHdr_t *hdr )
   1571          {
   1572            uint8 needed = (1 + 1 + 1); // frame control + transaction seq num + cmd ID
   1573          
   1574            // Add the manfacturer code
   1575            if ( hdr->fc.manuSpecific )
   1576              needed += 2;
   1577          
   1578            return ( needed );
   1579          }
   1580          
   1581          /*********************************************************************
   1582           * @fn      zclFindPlugin
   1583           * @brief   Find the right plugin for a cluster ID
   1584           * @param   clusterID - cluster ID to look for
   1585           *          profileID - profile ID
   1586           * @return  pointer to plugin, NULL if not found
   1587           */
   1588          static zclLibPlugin_t *zclFindPlugin( uint16 clusterID, uint16 profileID )
   1589          {
   1590            zclLibPlugin_t *pLoop;
   1591            
   1592            (void)profileID;  // Intentionally unreferenced parameter
   1593          
   1594            if ( clusterID != ZCL_INVALID_CLUSTER_ID )
   1595            {
   1596              pLoop = plugins;
   1597              while ( pLoop != NULL )
   1598              {
   1599                if ( clusterID >= pLoop->startClusterID && clusterID <= pLoop->endClusterID )
   1600                  return ( pLoop );
   1601                pLoop = pLoop->next;
   1602              }
   1603            }
   1604            return ( (zclLibPlugin_t *)NULL );
   1605          }
   1606          
   1607          /*********************************************************************
   1608           * @fn      zclFindAttrRec
   1609           * @brief   Find the attribute record that matchs the parameters
   1610           * @param   endpoint - Application's endpoint
   1611           *          clusterID - cluster ID
   1612           *          attrId - attribute looking for
   1613           * @return  TRUE if record found. FALSE, otherwise.
   1614           */

   \                                 In  segment BANKED_CODE, align 1, keep-with-next
   1615          uint8 zclFindAttrRec( uint8 endpoint, uint16 clusterID, uint16 attrId, zclAttrRec_t *pAttr )
   \                     zclFindAttrRec:
   1616          {
   \   000000   74EE         MOV     A,#-0x12
   \   000002   12....       LCALL   ?BANKED_ENTER_XDATA
   \   000005                ; Saved register size: 18
   \   000005                ; Auto size: 0
   \   000005   89..         MOV     ?V0 + 2,R1
   \   000007   EA           MOV     A,R2
   \   000008   FE           MOV     R6,A
   \   000009   EB           MOV     A,R3
   \   00000A   FF           MOV     R7,A
   \   00000B   8C..         MOV     ?V0 + 0,R4
   \   00000D   8D..         MOV     ?V0 + 1,R5
   \   00000F   7412         MOV     A,#0x12
   \   000011   12....       LCALL   ?XSTACK_DISP0_8
   \   000014   12....       LCALL   ??Subroutine147_0 & 0xFFFF
   1617            uint8 x;
   1618            zclAttrRecsList *pLoop;
   1619          
   1620            pLoop = attrList;
   \                     ??CrossCallReturnLabel_279:
   \   000017   90....       MOV     DPTR,#attrList
   \   00001A   8004         SJMP    ??zclFindAttrRec_0
   1621          
   1622            while ( pLoop != NULL )
   1623            {
   1624              if ( pLoop->endpoint == endpoint )
   1625              {
   1626                for ( x = 0; x < pLoop->numAttributes; x++ )
   1627                {
   1628                  if ( pLoop->attrs[x].clusterID == clusterID && pLoop->attrs[x].attr.attrId == attrId )
   1629                  {
   1630                    *pAttr = pLoop->attrs[x];
   1631                    return ( TRUE ); // EMBEDDED RETURN
   1632                  }
   1633                }
   1634              }
   1635              pLoop = pLoop->next;
   \                     ??zclFindAttrRec_1:
   \   00001C   8A82         MOV     DPL,R2
   \   00001E   8B83         MOV     DPH,R3
   \                     ??zclFindAttrRec_0:
   \   000020   12....       LCALL   ??Subroutine121_0 & 0xFFFF
   \                     ??CrossCallReturnLabel_167:
   \   000023   7001         JNZ     ??zclFindAttrRec_2
   \   000025   EB           MOV     A,R3
   \                     ??zclFindAttrRec_2:
   \   000026   7003         JNZ     $+5
   \   000028   02....       LJMP    ??zclFindAttrRec_3 & 0xFFFF
   \   00002B   8A82         MOV     DPL,R2
   \   00002D   8B83         MOV     DPH,R3
   \   00002F   A3           INC     DPTR
   \   000030   A3           INC     DPTR
   \   000031   E0           MOVX    A,@DPTR
   \   000032   65..         XRL     A,?V0 + 2
   \   000034   70E6         JNZ     ??zclFindAttrRec_1
   \   000036   75..00       MOV     ?V0 + 3,#0x0
   \   000039   EA           MOV     A,R2
   \   00003A   2404         ADD     A,#0x4
   \   00003C   F8           MOV     R0,A
   \   00003D   EB           MOV     A,R3
   \   00003E   3400         ADDC    A,#0x0
   \   000040   F9           MOV     R1,A
   \   000041   88..         MOV     ?V0 + 4,R0
   \   000043   89..         MOV     ?V0 + 5,R1
   \   000045   8002         SJMP    ??zclFindAttrRec_4
   \                     ??zclFindAttrRec_5:
   \   000047   05..         INC     ?V0 + 3
   \                     ??zclFindAttrRec_4:
   \   000049   8A82         MOV     DPL,R2
   \   00004B   8B83         MOV     DPH,R3
   \   00004D   A3           INC     DPTR
   \   00004E   A3           INC     DPTR
   \   00004F   A3           INC     DPTR
   \   000050   E0           MOVX    A,@DPTR
   \   000051   F8           MOV     R0,A
   \   000052   E5..         MOV     A,?V0 + 3
   \   000054   C3           CLR     C
   \   000055   98           SUBB    A,R0
   \   000056   50C4         JNC     ??zclFindAttrRec_1
   \   000058   85....       MOV     ?V0 + 8,?V0 + 3
   \   00005B   75..00       MOV     ?V0 + 9,#0x0
   \   00005E   7403         MOV     A,#0x3
   \   000060   78..         MOV     R0,#?V0 + 8
   \   000062   12....       LCALL   ?S_SHL
   \   000065   85....       MOV     ?V0 + 6,?V0 + 8
   \   000068   85....       MOV     ?V0 + 7,?V0 + 9
   \   00006B   85..82       MOV     DPL,?V0 + 4
   \   00006E   85..83       MOV     DPH,?V0 + 5
   \   000071   E0           MOVX    A,@DPTR
   \   000072   25..         ADD     A,?V0 + 6
   \   000074   F8           MOV     R0,A
   \   000075   A3           INC     DPTR
   \   000076   E0           MOVX    A,@DPTR
   \   000077   35..         ADDC    A,?V0 + 7
   \   000079   F9           MOV     R1,A
   \   00007A   8882         MOV     DPL,R0
   \   00007C   8983         MOV     DPH,R1
   \   00007E   12....       LCALL   ?Subroutine75 & 0xFFFF
   \                     ??CrossCallReturnLabel_102:
   \   000081   EE           MOV     A,R6
   \   000082   68           XRL     A,R0
   \   000083   7002         JNZ     ??zclFindAttrRec_6
   \   000085   EF           MOV     A,R7
   \   000086   69           XRL     A,R1
   \                     ??zclFindAttrRec_6:
   \   000087   70BE         JNZ     ??zclFindAttrRec_5
   \   000089   A3           INC     DPTR
   \   00008A   A3           INC     DPTR
   \   00008B   12....       LCALL   ?Subroutine75 & 0xFFFF
   \                     ??CrossCallReturnLabel_103:
   \   00008E   E5..         MOV     A,?V0 + 0
   \   000090   68           XRL     A,R0
   \   000091   7003         JNZ     ??zclFindAttrRec_7
   \   000093   E5..         MOV     A,?V0 + 1
   \   000095   69           XRL     A,R1
   \                     ??zclFindAttrRec_7:
   \   000096   70AF         JNZ     ??zclFindAttrRec_5
   \   000098   85..82       MOV     DPL,?V0 + 4
   \   00009B   85..83       MOV     DPH,?V0 + 5
   \   00009E   E0           MOVX    A,@DPTR
   \   00009F   25..         ADD     A,?V0 + 6
   \   0000A1   FA           MOV     R2,A
   \   0000A2   A3           INC     DPTR
   \   0000A3   E0           MOVX    A,@DPTR
   \   0000A4   35..         ADDC    A,?V0 + 7
   \   0000A6   8A82         MOV     DPL,R2
   \   0000A8   F583         MOV     DPH,A
   \   0000AA   7408         MOV     A,#0x8
   \   0000AC   12....       LCALL   ?MOVE_LONG8_XDATA_CODE
   \   0000AF   7901         MOV     R1,#0x1
   \   0000B1   8002         SJMP    ??zclFindAttrRec_8
   1636            }
   1637          
   1638            return ( FALSE );
   \                     ??zclFindAttrRec_3:
   \   0000B3   7900         MOV     R1,#0x0
   \                     ??zclFindAttrRec_8:
   \   0000B5   7F0A         MOV     R7,#0xa
   \   0000B7   02....       LJMP    ?BANKED_LEAVE_XDATA
   1639          }
   1640          
   1641          /*********************************************************************
   1642           * @fn      zclFindClusterOption
   1643           *
   1644           * @brief   Find the option record that matchs the cluster id
   1645           *
   1646           * @param   endpoint - Application's endpoint
   1647           * @param   clusterID - cluster ID looking for
   1648           *
   1649           * @return  pointer to clutser option, NULL if not found
   1650           */

   \                                 In  segment BANKED_CODE, align 1, keep-with-next
   1651          static zclOptionRec_t *zclFindClusterOption( uint8 endpoint, uint16 clusterID )
   \                     zclFindClusterOption:
   1652          {
   \   000000   74F5         MOV     A,#-0xb
   \   000002   12....       LCALL   ?BANKED_ENTER_XDATA
   \   000005                ; Saved register size: 11
   \   000005                ; Auto size: 0
   \   000005   89..         MOV     ?V0 + 0,R1
   1653            uint8 x;
   1654            zclClusterOptionList *pLoop;
   1655          
   1656            pLoop = clusterOptionList;
   \   000007   90....       MOV     DPTR,#clusterOptionList
   \   00000A   8004         SJMP    ??zclFindClusterOption_0
   1657          
   1658            while ( pLoop != NULL )
   1659            {
   1660              if ( pLoop->endpoint == endpoint )
   1661              {
   1662                for ( x = 0; x < pLoop->numOptions; x++ )
   1663                {
   1664                  if ( pLoop->options[x].clusterID == clusterID )
   1665                    return ( &(pLoop->options[x]) ); // EMBEDDED RETURN
   1666                }
   1667              }
   1668              pLoop = pLoop->next;
   \                     ??zclFindClusterOption_1:
   \   00000C   8882         MOV     DPL,R0
   \   00000E   8983         MOV     DPH,R1
   \                     ??zclFindClusterOption_0:
   \   000010   12....       LCALL   ??Subroutine126_0 & 0xFFFF
   \                     ??CrossCallReturnLabel_176:
   \   000013   7001         JNZ     ??zclFindClusterOption_2
   \   000015   E9           MOV     A,R1
   \                     ??zclFindClusterOption_2:
   \   000016   605F         JZ      ??zclFindClusterOption_3
   \   000018   8882         MOV     DPL,R0
   \   00001A   8983         MOV     DPH,R1
   \   00001C   A3           INC     DPTR
   \   00001D   A3           INC     DPTR
   \   00001E   E0           MOVX    A,@DPTR
   \   00001F   65..         XRL     A,?V0 + 0
   \   000021   70E9         JNZ     ??zclFindClusterOption_1
   \   000023   75..00       MOV     ?V0 + 2,#0x0
   \   000026   E8           MOV     A,R0
   \   000027   2404         ADD     A,#0x4
   \   000029   FC           MOV     R4,A
   \   00002A   E9           MOV     A,R1
   \   00002B   3400         ADDC    A,#0x0
   \   00002D   FD           MOV     R5,A
   \   00002E   EC           MOV     A,R4
   \   00002F   FE           MOV     R6,A
   \   000030   ED           MOV     A,R5
   \   000031   FF           MOV     R7,A
   \   000032   8002         SJMP    ??zclFindClusterOption_4
   \                     ??zclFindClusterOption_5:
   \   000034   05..         INC     ?V0 + 2
   \                     ??zclFindClusterOption_4:
   \   000036   8882         MOV     DPL,R0
   \   000038   8983         MOV     DPH,R1
   \   00003A   A3           INC     DPTR
   \   00003B   A3           INC     DPTR
   \   00003C   A3           INC     DPTR
   \   00003D   E0           MOVX    A,@DPTR
   \   00003E   FC           MOV     R4,A
   \   00003F   E5..         MOV     A,?V0 + 2
   \   000041   C3           CLR     C
   \   000042   9C           SUBB    A,R4
   \   000043   50C7         JNC     ??zclFindClusterOption_1
   \   000045   E5..         MOV     A,?V0 + 2
   \   000047   75F003       MOV     B,#0x3
   \   00004A   A4           MUL     AB
   \   00004B   FC           MOV     R4,A
   \   00004C   85F0..       MOV     ?V0 + 1,B
   \   00004F   AD..         MOV     R5,?V0 + 1
   \   000051   8E82         MOV     DPL,R6
   \   000053   8F83         MOV     DPH,R7
   \   000055   E0           MOVX    A,@DPTR
   \   000056   2C           ADD     A,R4
   \   000057   F5..         MOV     ?V0 + 1,A
   \   000059   A3           INC     DPTR
   \   00005A   E0           MOVX    A,@DPTR
   \   00005B   3D           ADDC    A,R5
   \   00005C   85..82       MOV     DPL,?V0 + 1
   \   00005F   F583         MOV     DPH,A
   \   000061   E0           MOVX    A,@DPTR
   \   000062   6A           XRL     A,R2
   \   000063   7003         JNZ     ??zclFindClusterOption_6
   \   000065   A3           INC     DPTR
   \   000066   E0           MOVX    A,@DPTR
   \   000067   6B           XRL     A,R3
   \                     ??zclFindClusterOption_6:
   \   000068   70CA         JNZ     ??zclFindClusterOption_5
   \   00006A   8E82         MOV     DPL,R6
   \   00006C   8F83         MOV     DPH,R7
   \   00006E   E0           MOVX    A,@DPTR
   \   00006F   2C           ADD     A,R4
   \   000070   FA           MOV     R2,A
   \   000071   A3           INC     DPTR
   \   000072   E0           MOVX    A,@DPTR
   \   000073   3D           ADDC    A,R5
   \   000074   FB           MOV     R3,A
   \   000075   8004         SJMP    ??zclFindClusterOption_7
   1669            }
   1670          
   1671            return ( NULL );
   \                     ??zclFindClusterOption_3:
   \   000077   7A00         MOV     R2,#0x0
   \   000079   7B00         MOV     R3,#0x0
   \                     ??zclFindClusterOption_7:
   \   00007B                REQUIRE ?Subroutine118
   \   00007B                ; // Fall through to label ?Subroutine118
   1672          }

   \                                 In  segment BANKED_CODE, align 1, keep-with-next
   \                     ?Subroutine118:
   \   000000   7F03         MOV     R7,#0x3
   \   000002   02....       LJMP    ?BANKED_LEAVE_XDATA
   1673          
   1674          /*********************************************************************
   1675           * @fn      zclGetClusterOption
   1676           *
   1677           * @brief   Get the option record that matchs the cluster id
   1678           *
   1679           * @param   endpoint - Application's endpoint
   1680           * @param   clusterID - cluster ID looking for
   1681           *
   1682           * @return  clutser option, AF_TX_OPTIONS_NONE if not found
   1683           */

   \                                 In  segment BANKED_CODE, align 1, keep-with-next
   1684          static uint8 zclGetClusterOption( uint8 endpoint, uint16 clusterID )
   \                     zclGetClusterOption:
   1685          {
   \   000000   74F6         MOV     A,#-0xa
   \   000002   12....       LCALL   ?BANKED_ENTER_XDATA
   \   000005                ; Saved register size: 10
   \   000005                ; Auto size: 0
   1686            uint8 option;
   1687            zclOptionRec_t *pOption;
   1688          
   1689             pOption = zclFindClusterOption( endpoint, clusterID );
   \   000005                ; Setup parameters for call to function zclFindClusterOption
   \   000005   12....       LCALL   ??zclFindClusterOption?relay
   \   000008   8A82         MOV     DPL,R2
   \   00000A   8B83         MOV     DPH,R3
   1690            if ( pOption != NULL )
   \   00000C   E582         MOV     A,DPL
   \   00000E   7002         JNZ     ??zclGetClusterOption_0
   \   000010   E583         MOV     A,DPH
   \                     ??zclGetClusterOption_0:
   \   000012   6008         JZ      ??zclGetClusterOption_1
   1691            {
   1692              option = pOption->option;
   1693              if ( !ZG_SECURE_ENABLED )
   1694                option &= (AF_EN_SECURITY ^ 0xFF); // make sure Application Link Key security is off
   1695          
   1696              return ( option ); // EMBEDDED RETURN
   \   000014   A3           INC     DPTR
   \   000015   A3           INC     DPTR
   \   000016   E0           MOVX    A,@DPTR
   \   000017   54BF         ANL     A,#0xbf
   \   000019   F9           MOV     R1,A
   \   00001A   8002         SJMP    ??zclGetClusterOption_2
   1697            }
   1698          
   1699            return ( AF_TX_OPTIONS_NONE );
   \                     ??zclGetClusterOption_1:
   \   00001C   7900         MOV     R1,#0x0
   \                     ??zclGetClusterOption_2:
   \   00001E   80..         SJMP    ?Subroutine114
   1700          }
   1701          
   1702          /*********************************************************************
   1703           * @fn      zclSetSecurityOption
   1704           *
   1705           * @brief   Set the security option for the cluster id
   1706           *
   1707           * @param   endpoint - Application's endpoint
   1708           * @param   clusterID - cluster ID looking for
   1709           * @param   enable - whether to enable (TRUE) or disable (FALSE) security option
   1710           *
   1711           * @return  none
   1712           */

   \                                 In  segment BANKED_CODE, align 1, keep-with-next
   1713          static void zclSetSecurityOption( uint8 endpoint, uint16 clusterID, uint8 enable )
   \                     zclSetSecurityOption:
   1714          {
   \   000000   74F6         MOV     A,#-0xa
   \   000002   12....       LCALL   ?BANKED_ENTER_XDATA
   \   000005                ; Saved register size: 10
   \   000005                ; Auto size: 0
   \   000005   EC           MOV     A,R4
   \   000006   FE           MOV     R6,A
   1715            zclOptionRec_t *pOption;
   1716          
   1717            pOption = zclFindClusterOption( endpoint, clusterID );
   \   000007                ; Setup parameters for call to function zclFindClusterOption
   \   000007   12....       LCALL   ??zclFindClusterOption?relay
   \   00000A   8A..         MOV     ?V0 + 0,R2
   \   00000C   8B..         MOV     ?V0 + 1,R3
   \   00000E   A8..         MOV     R0,?V0 + 0
   \   000010   A9..         MOV     R1,?V0 + 1
   1718            if ( pOption != NULL )
   \   000012   E8           MOV     A,R0
   \   000013   7001         JNZ     ??zclSetSecurityOption_0
   \   000015   E9           MOV     A,R1
   \                     ??zclSetSecurityOption_0:
   \   000016   6016         JZ      ??zclSetSecurityOption_1
   1719            {
   1720              if ( enable )
   \   000018   E8           MOV     A,R0
   \   000019   2402         ADD     A,#0x2
   \   00001B   F582         MOV     DPL,A
   \   00001D   E9           MOV     A,R1
   \   00001E   3400         ADDC    A,#0x0
   \   000020   F583         MOV     DPH,A
   \   000022   EE           MOV     A,R6
   \   000023   6005         JZ      ??zclSetSecurityOption_2
   1721                pOption->option |= AF_EN_SECURITY;
   \   000025   E0           MOVX    A,@DPTR
   \   000026   D2E6         SETB    0xE0 /* A   */.6
   \   000028   8003         SJMP    ??zclSetSecurityOption_3
   1722              else
   1723                pOption->option &= (AF_EN_SECURITY ^ 0xFF);
   \                     ??zclSetSecurityOption_2:
   \   00002A   E0           MOVX    A,@DPTR
   \   00002B   C2E6         CLR     0xE0 /* A   */.6
   \                     ??zclSetSecurityOption_3:
   \   00002D   F0           MOVX    @DPTR,A
   1724            }
   1725          }
   \                     ??zclSetSecurityOption_1:
   \   00002E                REQUIRE ?Subroutine114
   \   00002E                ; // Fall through to label ?Subroutine114
   1726          
   1727          #ifdef ZCL_DISCOVER
   1728          /*********************************************************************
   1729           * @fn      zclFindNextAttrRec
   1730           *
   1731           * @brief   Find the attribute (or next) record that matchs the parameters
   1732           *
   1733           * @param   endpoint - Application's endpoint
   1734           * @param   clusterID - cluster ID
   1735           * @param   attr - attribute looking for
   1736           *
   1737           * @return  pointer to attribute record, NULL if not found
   1738           */
   1739          static uint8 zclFindNextAttrRec( uint8 endpoint, uint16 clusterID,
   1740                                           uint16 *attrId, zclAttrRec_t *pAttr )
   1741          {
   1742            uint16 x;
   1743            zclAttrRecsList *pLoop;
   1744          
   1745            pLoop = attrList;
   1746          
   1747            while ( pLoop != NULL )
   1748            {
   1749              if ( pLoop->endpoint == endpoint )
   1750              {
   1751                for ( x = 0; x < pLoop->numAttributes; x++ )
   1752                {
   1753                  if ( pLoop->attrs[x].clusterID == clusterID && pLoop->attrs[x].attr.attrId >= *attrId )
   1754                  {
   1755                    *pAttr = pLoop->attrs[x];
   1756                    
   1757                    // Update attribute ID
   1758                    *attrId = pAttr->attr.attrId; 
   1759                    return ( TRUE ); // EMBEDDED RETURN
   1760                  }
   1761                }
   1762              }
   1763              pLoop = pLoop->next;
   1764            }
   1765          
   1766            return ( FALSE );
   1767          }
   1768          #endif // ZCL_DISCOVER
   1769          
   1770          #if defined(ZCL_READ) || defined(ZCL_WRITE) || defined(ZCL_REPORT)
   1771          /*********************************************************************
   1772           * @fn      zclSerializeData
   1773           * @brief   Builds a buffer from the attribute data to sent out over
   1774           *          the air.
   1775           * @param   dataType - data types defined in zcl.h
   1776           *          attrData - pointer to the attribute data
   1777           *          buf - where to put the serialized data
   1778           */

   \                                 In  segment BANKED_CODE, align 1, keep-with-next
   1779          static void zclSerializeData( uint8 dataType, void *attrData, uint8 *buf )
   \                     zclSerializeData:
   1780          {
   \   000000   74F4         MOV     A,#-0xc
   \   000002   12....       LCALL   ?BANKED_ENTER_XDATA
   \   000005                ; Saved register size: 12
   \   000005                ; Auto size: 0
   \   000005   EA           MOV     A,R2
   \   000006   FE           MOV     R6,A
   \   000007   EB           MOV     A,R3
   \   000008   FF           MOV     R7,A
   \   000009   EC           MOV     A,R4
   \   00000A   FA           MOV     R2,A
   \   00000B   ED           MOV     A,R5
   \   00000C   FB           MOV     R3,A
   1781            uint8 *pStr;
   1782            uint8 len;
   1783          
   1784            switch ( dataType )
   \   00000D   8E..         MOV     ?V0 + 0,R6
   \   00000F   8F..         MOV     ?V0 + 1,R7
   \   000011   75..00       MOV     ?V0 + 2,#0x0
   \   000014   8A82         MOV     DPL,R2
   \   000016   8B83         MOV     DPH,R3
   \   000018   A3           INC     DPTR
   \   000019   AC82         MOV     R4,DPL
   \   00001B   AD83         MOV     R5,DPH
   \   00001D   E9           MOV     A,R1
   \   00001E   12....       LCALL   ?UC_SWITCH_SPARSE
   \                     `?<Jumptable for zclSerializeData>_0`:
   \   000021   03           DB        3
   \   000022   41           DB        65
   \   000023   42           DB        66
   \   000024   ....         DW        ??zclSerializeData_0
   \   000026   E0           DB        224
   \   000027   E2           DB        226
   \   000028   ....         DW        ??zclSerializeData_1
   \   00002A   E8           DB        232
   \   00002B   E9           DB        233
   \   00002C   ....         DW        ??zclSerializeData_2
   \   00002E   19           DB        25
   \   00002F   08           DB        8
   \   000030   ....         DW        ??zclSerializeData_3
   \   000032   09           DB        9
   \   000033   ....         DW        ??zclSerializeData_2
   \   000035   0A           DB        10
   \   000036   ....         DW        ??zclSerializeData_4
   \   000038   0B           DB        11
   \   000039   ....         DW        ??zclSerializeData_1
   \   00003B   10           DB        16
   \   00003C   ....         DW        ??zclSerializeData_3
   \   00003E   18           DB        24
   \   00003F   ....         DW        ??zclSerializeData_3
   \   000041   19           DB        25
   \   000042   ....         DW        ??zclSerializeData_2
   \   000044   1A           DB        26
   \   000045   ....         DW        ??zclSerializeData_4
   \   000047   1B           DB        27
   \   000048   ....         DW        ??zclSerializeData_1
   \   00004A   20           DB        32
   \   00004B   ....         DW        ??zclSerializeData_3
   \   00004D   21           DB        33
   \   00004E   ....         DW        ??zclSerializeData_2
   \   000050   22           DB        34
   \   000051   ....         DW        ??zclSerializeData_4
   \   000053   23           DB        35
   \   000054   ....         DW        ??zclSerializeData_1
   \   000056   24           DB        36
   \   000057   ....         DW        ??zclSerializeData_5
   \   000059   25           DB        37
   \   00005A   ....         DW        ??zclSerializeData_6
   \   00005C   28           DB        40
   \   00005D   ....         DW        ??zclSerializeData_3
   \   00005F   29           DB        41
   \   000060   ....         DW        ??zclSerializeData_2
   \   000062   2A           DB        42
   \   000063   ....         DW        ??zclSerializeData_4
   \   000065   2B           DB        43
   \   000066   ....         DW        ??zclSerializeData_1
   \   000068   30           DB        48
   \   000069   ....         DW        ??zclSerializeData_3
   \   00006B   31           DB        49
   \   00006C   ....         DW        ??zclSerializeData_2
   \   00006E   38           DB        56
   \   00006F   ....         DW        ??zclSerializeData_2
   \   000071   39           DB        57
   \   000072   ....         DW        ??zclSerializeData_1
   \   000074   EA           DB        234
   \   000075   ....         DW        ??zclSerializeData_1
   \   000077   F0           DB        240
   \   000078   ....         DW        ??zclSerializeData_7
   \   00007A   ....         DW        ??zclSerializeData_8
   1785            {
   1786              case ZCL_DATATYPE_DATA8:
   1787              case ZCL_DATATYPE_BOOLEAN:
   1788              case ZCL_DATATYPE_BITMAP8:
   1789              case ZCL_DATATYPE_INT8:
   1790              case ZCL_DATATYPE_UINT8:
   1791              case ZCL_DATATYPE_ENUM8:
   1792                *buf = *((uint8 *)attrData);
   \                     ??zclSerializeData_3:
   \   00007C   8E82         MOV     DPL,R6
   \   00007E   8F83         MOV     DPH,R7
   \                     ??zclSerializeData_9:
   \   000080   12....       LCALL   ??Subroutine137_0 & 0xFFFF
   \                     ??CrossCallReturnLabel_225:
   \   000083   F0           MOVX    @DPTR,A
   \   000084   02....       LJMP    ??zclSerializeData_8 & 0xFFFF
   1793                 break;
   1794          
   1795              case ZCL_DATATYPE_DATA16:
   1796              case ZCL_DATATYPE_BITMAP16:
   1797              case ZCL_DATATYPE_UINT16:
   1798              case ZCL_DATATYPE_INT16: 
   1799              case ZCL_DATATYPE_ENUM16:
   1800              case ZCL_DATATYPE_SEMI_PREC:
   1801              case ZCL_DATATYPE_CLUSTER_ID:
   1802              case ZCL_DATATYPE_ATTR_ID:
   1803                *buf++ = LO_UINT16( *((uint16*)attrData) );
   \                     ??zclSerializeData_2:
   \   000087   12....       LCALL   ?Subroutine50 & 0xFFFF
   \                     ??CrossCallReturnLabel_228:
   \   00008A   12....       LCALL   ?Subroutine15 & 0xFFFF
   1804                *buf++ = HI_UINT16( *((uint16*)attrData) );
   \                     ??CrossCallReturnLabel_218:
   \   00008D   A3           INC     DPTR
   \   00008E   80F0         SJMP    ??zclSerializeData_9
   1805                break;
   1806          
   1807              case ZCL_DATATYPE_DATA24:
   1808              case ZCL_DATATYPE_BITMAP24: 
   1809              case ZCL_DATATYPE_UINT24:
   1810              case ZCL_DATATYPE_INT24:
   1811                *buf++ = BREAK_UINT32( *((uint32*)attrData), 0 );
   \                     ??zclSerializeData_4:
   \   000090   8E82         MOV     DPL,R6
   \   000092   8F83         MOV     DPH,R7
   \   000094   78..         MOV     R0,#?V0 + 0
   \   000096   12....       LCALL   ?L_MOV_X
   \   000099   8A82         MOV     DPL,R2
   \   00009B   8B83         MOV     DPH,R3
   \   00009D   E5..         MOV     A,?V0 + 0
   \   00009F   12....       LCALL   ?Subroutine15 & 0xFFFF
   1812                *buf++ = BREAK_UINT32( *((uint32*)attrData), 1 );
   \                     ??CrossCallReturnLabel_219:
   \   0000A2   78..         MOV     R0,#?V0 + 0
   \   0000A4   12....       LCALL   ?L_MOV_X
   \   0000A7   E5..         MOV     A,?V0 + 1
   \   0000A9   8A82         MOV     DPL,R2
   \   0000AB   8B83         MOV     DPH,R3
   \   0000AD   F0           MOVX    @DPTR,A
   \   0000AE   A3           INC     DPTR
   \   0000AF   0A           INC     R2
   \   0000B0   AB83         MOV     R3,DPH
   1813                *buf++ = BREAK_UINT32( *((uint32*)attrData), 2 );
   \   0000B2   8E82         MOV     DPL,R6
   \   0000B4   8F83         MOV     DPH,R7
   \   0000B6   78..         MOV     R0,#?V0 + 0
   \   0000B8   12....       LCALL   ?L_MOV_X
   \   0000BB   7410         MOV     A,#0x10
   \   0000BD   78..         MOV     R0,#?V0 + 0
   \   0000BF   12....       LCALL   ?UL_SHR
   \   0000C2   8A82         MOV     DPL,R2
   \   0000C4   8B83         MOV     DPH,R3
   \   0000C6   E5..         MOV     A,?V0 + 0
   \   0000C8   80B9         SJMP    ??CrossCallReturnLabel_225
   1814                break;
   1815                
   1816              case ZCL_DATATYPE_DATA32:
   1817              case ZCL_DATATYPE_BITMAP32:
   1818              case ZCL_DATATYPE_UINT32:
   1819              case ZCL_DATATYPE_INT32:
   1820              case ZCL_DATATYPE_SINGLE_PREC:
   1821              case ZCL_DATATYPE_TOD:
   1822              case ZCL_DATATYPE_DATE:
   1823              case ZCL_DATATYPE_UTC:
   1824              case ZCL_DATATYPE_BAC_OID:
   1825                buf = osal_buffer_uint32( buf, *((uint32*)attrData) );
   \                     ??zclSerializeData_1:
   \   0000CA                ; Setup parameters for call to function osal_buffer_uint32
   \   0000CA   8E82         MOV     DPL,R6
   \   0000CC   8F83         MOV     DPH,R7
   \   0000CE   12....       LCALL   ?PUSH_XSTACK8_X_FOUR
   \   0000D1   12....       LCALL   ??osal_buffer_uint32?relay
   \   0000D4   7404         MOV     A,#0x4
   \   0000D6   12....       LCALL   ?DEALLOC_XSTACK8
   \   0000D9   8043         SJMP    ??zclSerializeData_8
   1826                break;
   1827                
   1828              case ZCL_DATATYPE_UINT40:
   1829                pStr = (uint8*)attrData;
   1830                osal_memcpy( buf, pStr, 5 );
   \                     ??zclSerializeData_5:
   \   0000DB                ; Setup parameters for call to function osal_memcpy
   \   0000DB   78..         MOV     R0,#?V0 + 0
   \   0000DD   12....       LCALL   ?PUSH_XSTACK_I_THREE
   \   0000E0   7C05         MOV     R4,#0x5
   \   0000E2   8032         SJMP    ??zclSerializeData_10
   1831                break;
   1832                
   1833              case ZCL_DATATYPE_UINT48:
   1834                pStr = (uint8*)attrData;
   1835                osal_memcpy( buf, pStr, 6 );
   \                     ??zclSerializeData_6:
   \   0000E4                ; Setup parameters for call to function osal_memcpy
   \   0000E4   78..         MOV     R0,#?V0 + 0
   \   0000E6   12....       LCALL   ?PUSH_XSTACK_I_THREE
   \   0000E9   7C06         MOV     R4,#0x6
   \   0000EB   8029         SJMP    ??zclSerializeData_10
   1836                break;
   1837                
   1838              case ZCL_DATATYPE_IEEE_ADDR:
   1839                pStr = (uint8*)attrData;
   1840                osal_memcpy( buf, pStr, 8 );
   \                     ??zclSerializeData_7:
   \   0000ED                ; Setup parameters for call to function osal_memcpy
   \   0000ED   78..         MOV     R0,#?V0 + 0
   \   0000EF   12....       LCALL   ?PUSH_XSTACK_I_THREE
   \   0000F2   7C08         MOV     R4,#0x8
   \   0000F4   8020         SJMP    ??zclSerializeData_10
   1841                break;
   1842                
   1843              case ZCL_DATATYPE_CHAR_STR:
   1844              case ZCL_DATATYPE_OCTET_STR:
   1845                pStr = (uint8*)attrData;
   1846                len = *pStr++;
   \                     ??zclSerializeData_0:
   \   0000F6   8E82         MOV     DPL,R6
   \   0000F8   8F83         MOV     DPH,R7
   \   0000FA   E0           MOVX    A,@DPTR
   \   0000FB   F5..         MOV     ?V0 + 3,A
   \   0000FD   A3           INC     DPTR
   \   0000FE   AE82         MOV     R6,DPL
   \   000100   AF83         MOV     R7,DPH
   1847                *buf++ = len;
   \   000102   8A82         MOV     DPL,R2
   \   000104   8B83         MOV     DPH,R3
   \   000106   F0           MOVX    @DPTR,A
   \   000107   EC           MOV     A,R4
   \   000108   FA           MOV     R2,A
   \   000109   ED           MOV     A,R5
   \   00010A   FB           MOV     R3,A
   1848                osal_memcpy( buf, pStr, len );
   \   00010B                ; Setup parameters for call to function osal_memcpy
   \   00010B   8E..         MOV     ?V0 + 0,R6
   \   00010D   8F..         MOV     ?V0 + 1,R7
   \   00010F   78..         MOV     R0,#?V0 + 0
   \   000111   12....       LCALL   ?PUSH_XSTACK_I_THREE
   \   000114   AC..         MOV     R4,?V0 + 3
   \                     ??zclSerializeData_10:
   \   000116   7D00         MOV     R5,#0x0
   1849                break;
   1850                
   1851              case ZCL_DATATYPE_NO_DATA:
   1852              case ZCL_DATATYPE_UNKNOWN:
   1853                // Fall through
   1854          
   1855              default:
   1856                break;
   1857            }
   \   000118   12....       LCALL   ?Subroutine108 & 0xFFFF
   \                     ??CrossCallReturnLabel_149:
   \   00011B   12....       LCALL   ?DEALLOC_XSTACK8
   1858          }
   \                     ??zclSerializeData_8:
   \   00011E   02....       LJMP    ?Subroutine105 & 0xFFFF

   \                                 In  segment BANKED_CODE, align 1, keep-with-next
   \                     ?Subroutine15:
   \   000000   F0           MOVX    @DPTR,A
   \   000001   EC           MOV     A,R4
   \   000002   FA           MOV     R2,A
   \   000003   ED           MOV     A,R5
   \   000004   FB           MOV     R3,A
   \   000005                REQUIRE ?Subroutine113
   \   000005                ; // Fall through to label ?Subroutine113

   \                                 In  segment BANKED_CODE, align 1, keep-with-next
   \                     ?Subroutine50:
   \   000000   8E82         MOV     DPL,R6
   \   000002   8F83         MOV     DPH,R7
   \   000004                REQUIRE ??Subroutine137_0
   \   000004                ; // Fall through to label ??Subroutine137_0

   \                                 In  segment BANKED_CODE, align 1, keep-with-next
   \                     ??Subroutine137_0:
   \   000000   E0           MOVX    A,@DPTR
   \   000001   02....       LJMP    ?Subroutine112 & 0xFFFF
   1859          #endif // ZCL_READ || ZCL_WRITE || ZCL_REPORT
   1860          
   1861          #ifdef ZCL_REPORT
   1862          /*********************************************************************
   1863           * @fn      zclAnalogDataType
   1864           * @brief   Checks to see if Data Type is Analog
   1865           * @param   dataType - data type
   1866           * @return  TRUE if data type is analog
   1867           */
   1868          uint8 zclAnalogDataType( uint8 dataType )
   1869          {
   1870            uint8 analog;
   1871            
   1872            switch ( dataType )
   1873            {
   1874              case ZCL_DATATYPE_UINT8:
   1875              case ZCL_DATATYPE_UINT16:
   1876              case ZCL_DATATYPE_UINT24:
   1877              case ZCL_DATATYPE_UINT32:
   1878              case ZCL_DATATYPE_UINT40:
   1879              case ZCL_DATATYPE_UINT48:
   1880              case ZCL_DATATYPE_INT8:
   1881              case ZCL_DATATYPE_INT16:
   1882              case ZCL_DATATYPE_INT24:
   1883              case ZCL_DATATYPE_INT32:
   1884              case ZCL_DATATYPE_SEMI_PREC:
   1885              case ZCL_DATATYPE_SINGLE_PREC:
   1886              case ZCL_DATATYPE_DOUBLE_PREC:
   1887              case ZCL_DATATYPE_TOD:
   1888              case ZCL_DATATYPE_DATE:
   1889              case ZCL_DATATYPE_UTC:
   1890                analog = TRUE;
   1891                break;
   1892                
   1893              default:
   1894                analog = FALSE;
   1895                break;
   1896            }
   1897            return ( analog );
   1898          }
   1899          
   1900          /*********************************************************************
   1901           * @fn      zcl_BuildAnalogData
   1902           * @brief   Build an analog arribute out of sequential bytes.
   1903           * @param   dataType - type of data
   1904           *          pData - pointer to data
   1905           *          pBuf - where to put the data
   1906           */
   1907          static void zcl_BuildAnalogData( uint8 dataType, uint8 *pData, uint8 *pBuf)
   1908          {
   1909            switch ( dataType )
   1910            {
   1911              case ZCL_DATATYPE_UINT8:
   1912              case ZCL_DATATYPE_INT8:
   1913                *pData = *pBuf;
   1914                break;
   1915          
   1916              case ZCL_DATATYPE_UINT16:
   1917              case ZCL_DATATYPE_INT16:
   1918              case ZCL_DATATYPE_SEMI_PREC:
   1919                *((uint16*)pData) = BUILD_UINT16( pBuf[0], pBuf[1] ); 
   1920                break;
   1921           
   1922              case ZCL_DATATYPE_UINT24:
   1923              case ZCL_DATATYPE_INT24:
   1924                *((uint32*)pData) = osal_build_uint32( pBuf, 3 );
   1925                break;
   1926                
   1927              case ZCL_DATATYPE_UINT32:
   1928              case ZCL_DATATYPE_INT32:
   1929              case ZCL_DATATYPE_SINGLE_PREC:
   1930              case ZCL_DATATYPE_TOD:
   1931              case ZCL_DATATYPE_DATE:
   1932              case ZCL_DATATYPE_UTC:
   1933                *((uint32*)pData) = osal_build_uint32( pBuf, 4 );
   1934                break;
   1935                
   1936              case ZCL_DATATYPE_DOUBLE_PREC:
   1937                *pData = 0;
   1938                break;
   1939           
   1940              default:
   1941                break;
   1942            }
   1943          }
   1944          #endif // ZCL_REPORT
   1945          
   1946          /*********************************************************************
   1947           * @fn      zclGetDataTypeLength
   1948           * @brief   Return the length of the datatype in length. 
   1949           *          NOTE: Should not be called for ZCL_DATATYPE_OCTECT_STR or 
   1950           *                ZCL_DATATYPE_CHAR_STR data types.
   1951           * @param   dataType - data type
   1952           * @return  length of data
   1953           */

   \                                 In  segment BANKED_CODE, align 1, keep-with-next
   1954          uint8 zclGetDataTypeLength( uint8 dataType )
   \                     zclGetDataTypeLength:
   1955          {
   \   000000   C082         PUSH    DPL
   \   000002   C083         PUSH    DPH
   \   000004                ; Saved register size: 2
   \   000004                ; Auto size: 0
   1956            uint8 len;
   1957            
   1958            switch ( dataType )
   \   000004   E9           MOV     A,R1
   \   000005   12....       LCALL   ?UC_SWITCH_SPARSE
   \                     `?<Jumptable for zclGetDataTypeLength>_0`:
   \   000008   02           DB        2
   \   000009   E0           DB        224
   \   00000A   E2           DB        226
   \   00000B   ....         DW        ??zclGetDataTypeLength_0
   \   00000D   E8           DB        232
   \   00000E   E9           DB        233
   \   00000F   ....         DW        ??zclGetDataTypeLength_1
   \   000011   1A           DB        26
   \   000012   08           DB        8
   \   000013   ....         DW        ??zclGetDataTypeLength_2
   \   000015   09           DB        9
   \   000016   ....         DW        ??zclGetDataTypeLength_1
   \   000018   0A           DB        10
   \   000019   ....         DW        ??zclGetDataTypeLength_3
   \   00001B   0B           DB        11
   \   00001C   ....         DW        ??zclGetDataTypeLength_0
   \   00001E   10           DB        16
   \   00001F   ....         DW        ??zclGetDataTypeLength_2
   \   000021   18           DB        24
   \   000022   ....         DW        ??zclGetDataTypeLength_2
   \   000024   19           DB        25
   \   000025   ....         DW        ??zclGetDataTypeLength_1
   \   000027   1A           DB        26
   \   000028   ....         DW        ??zclGetDataTypeLength_3
   \   00002A   1B           DB        27
   \   00002B   ....         DW        ??zclGetDataTypeLength_0
   \   00002D   20           DB        32
   \   00002E   ....         DW        ??zclGetDataTypeLength_2
   \   000030   21           DB        33
   \   000031   ....         DW        ??zclGetDataTypeLength_1
   \   000033   22           DB        34
   \   000034   ....         DW        ??zclGetDataTypeLength_3
   \   000036   23           DB        35
   \   000037   ....         DW        ??zclGetDataTypeLength_0
   \   000039   24           DB        36
   \   00003A   ....         DW        ??zclGetDataTypeLength_4
   \   00003C   25           DB        37
   \   00003D   ....         DW        ??zclGetDataTypeLength_5
   \   00003F   28           DB        40
   \   000040   ....         DW        ??zclGetDataTypeLength_2
   \   000042   29           DB        41
   \   000043   ....         DW        ??zclGetDataTypeLength_1
   \   000045   2A           DB        42
   \   000046   ....         DW        ??zclGetDataTypeLength_3
   \   000048   2B           DB        43
   \   000049   ....         DW        ??zclGetDataTypeLength_0
   \   00004B   30           DB        48
   \   00004C   ....         DW        ??zclGetDataTypeLength_2
   \   00004E   31           DB        49
   \   00004F   ....         DW        ??zclGetDataTypeLength_1
   \   000051   38           DB        56
   \   000052   ....         DW        ??zclGetDataTypeLength_1
   \   000054   39           DB        57
   \   000055   ....         DW        ??zclGetDataTypeLength_0
   \   000057   3A           DB        58
   \   000058   ....         DW        ??zclGetDataTypeLength_6
   \   00005A   EA           DB        234
   \   00005B   ....         DW        ??zclGetDataTypeLength_0
   \   00005D   F0           DB        240
   \   00005E   ....         DW        ??zclGetDataTypeLength_6
   \   000060   ....         DW        ??zclGetDataTypeLength_7
   1959            {
   1960              case ZCL_DATATYPE_DATA8:
   1961              case ZCL_DATATYPE_BOOLEAN:
   1962              case ZCL_DATATYPE_BITMAP8:
   1963              case ZCL_DATATYPE_INT8:
   1964              case ZCL_DATATYPE_UINT8:
   1965              case ZCL_DATATYPE_ENUM8:
   1966                len = 1;
   \                     ??zclGetDataTypeLength_2:
   \   000062   7901         MOV     R1,#0x1
   \   000064   801A         SJMP    ??zclGetDataTypeLength_8
   1967                break;
   1968                
   1969              case ZCL_DATATYPE_DATA16:
   1970              case ZCL_DATATYPE_BITMAP16:
   1971              case ZCL_DATATYPE_UINT16:
   1972              case ZCL_DATATYPE_INT16: 
   1973              case ZCL_DATATYPE_ENUM16:
   1974              case ZCL_DATATYPE_SEMI_PREC:
   1975              case ZCL_DATATYPE_CLUSTER_ID:
   1976              case ZCL_DATATYPE_ATTR_ID:
   1977                len = 2;
   \                     ??zclGetDataTypeLength_1:
   \   000066   7902         MOV     R1,#0x2
   \   000068   8016         SJMP    ??zclGetDataTypeLength_8
   1978                break;
   1979                
   1980              case ZCL_DATATYPE_DATA24:
   1981              case ZCL_DATATYPE_BITMAP24: 
   1982              case ZCL_DATATYPE_UINT24:
   1983              case ZCL_DATATYPE_INT24:
   1984                len = 3;
   \                     ??zclGetDataTypeLength_3:
   \   00006A   7903         MOV     R1,#0x3
   \   00006C   8012         SJMP    ??zclGetDataTypeLength_8
   1985                break;
   1986                
   1987              case ZCL_DATATYPE_DATA32:
   1988              case ZCL_DATATYPE_BITMAP32:
   1989              case ZCL_DATATYPE_UINT32:
   1990              case ZCL_DATATYPE_INT32:
   1991              case ZCL_DATATYPE_SINGLE_PREC:
   1992              case ZCL_DATATYPE_TOD:
   1993              case ZCL_DATATYPE_DATE:
   1994              case ZCL_DATATYPE_UTC:
   1995              case ZCL_DATATYPE_BAC_OID:
   1996                len = 4;
   \                     ??zclGetDataTypeLength_0:
   \   00006E   7904         MOV     R1,#0x4
   \   000070   800E         SJMP    ??zclGetDataTypeLength_8
   1997                break;                       
   1998                          
   1999             case ZCL_DATATYPE_UINT40:
   2000                 len = 5;
   \                     ??zclGetDataTypeLength_4:
   \   000072   7905         MOV     R1,#0x5
   \   000074   800A         SJMP    ??zclGetDataTypeLength_8
   2001                 break;
   2002                 
   2003             case ZCL_DATATYPE_UINT48:
   2004                 len = 6;
   \                     ??zclGetDataTypeLength_5:
   \   000076   7906         MOV     R1,#0x6
   \   000078   8006         SJMP    ??zclGetDataTypeLength_8
   2005                 break;
   2006                 
   2007             case ZCL_DATATYPE_DOUBLE_PREC:
   2008             case ZCL_DATATYPE_IEEE_ADDR:
   2009               len = 8;
   \                     ??zclGetDataTypeLength_6:
   \   00007A   7908         MOV     R1,#0x8
   \   00007C   8002         SJMP    ??zclGetDataTypeLength_8
   2010               break;
   2011          
   2012              case ZCL_DATATYPE_NO_DATA:
   2013              case ZCL_DATATYPE_UNKNOWN:
   2014                // Fall through
   2015                
   2016              default:
   2017                len = 0;
   \                     ??zclGetDataTypeLength_7:
   \   00007E   7900         MOV     R1,#0x0
   2018                break;
   2019            }  
   2020            return ( len );
   \                     ??zclGetDataTypeLength_8:
   \   000080   02....       LJMP    ?Subroutine104 & 0xFFFF
   2021          }
   2022          
   2023          /*********************************************************************
   2024           * @fn      zclGetAttrDataLength
   2025           * @brief   Return the length of the attribute.
   2026           * @param   dataType - data type
   2027           *          pData - pointer to data
   2028           * @return  returns atrribute lentgh
   2029           */

   \                                 In  segment BANKED_CODE, align 1, keep-with-next
   2030          uint8 zclGetAttrDataLength( uint8  dataType, uint8 *pData)
   \                     zclGetAttrDataLength:
   2031          {
   \   000000   C082         PUSH    DPL
   \   000002   C083         PUSH    DPH
   \   000004                ; Saved register size: 2
   \   000004                ; Auto size: 0
   2032            uint8 dataLen = 0;
   2033            
   2034            if ( dataType  == ZCL_DATATYPE_CHAR_STR || dataType == ZCL_DATATYPE_OCTET_STR )
   \   000004   7442         MOV     A,#0x42
   \   000006   69           XRL     A,R1
   \   000007   6005         JZ      ??zclGetAttrDataLength_0
   \   000009   7441         MOV     A,#0x41
   \   00000B   69           XRL     A,R1
   \   00000C   7009         JNZ     ??zclGetAttrDataLength_1
   2035            {
   2036              dataLen = *pData + 1; // string length + 1 for length field
   \                     ??zclGetAttrDataLength_0:
   \   00000E   8A82         MOV     DPL,R2
   \   000010   8B83         MOV     DPH,R3
   \   000012   E0           MOVX    A,@DPTR
   \   000013   04           INC     A
   \   000014   F9           MOV     R1,A
   \   000015   8003         SJMP    ??zclGetAttrDataLength_2
   2037            }
   2038            else
   2039            {
   2040              dataLen = zclGetDataTypeLength( dataType );
   \                     ??zclGetAttrDataLength_1:
   \   000017                ; Setup parameters for call to function zclGetDataTypeLength
   \   000017   12....       LCALL   ??zclGetDataTypeLength?relay
   2041            }
   2042          
   2043            return ( dataLen );
   \                     ??zclGetAttrDataLength_2:
   \   00001A   02....       LJMP    ?Subroutine104 & 0xFFFF
   2044          }
   2045          
   2046          /*********************************************************************
   2047           * @fn      zclReadAttrData
   2048           * @brief   Read the attribute's current value into pAttrData.
   2049           * @param   pAttrData - where to put attribute data
   2050           *          pAttr - pointer to attribute
   2051           * @return Success
   2052           */

   \                                 In  segment BANKED_CODE, align 1, keep-with-next
   2053          uint8 zclReadAttrData( uint8 *pAttrData, zclAttrRec_t *pAttr )
   \                     zclReadAttrData:
   2054          {
   \   000000   74F5         MOV     A,#-0xb
   \   000002   12....       LCALL   ?BANKED_ENTER_XDATA
   \   000005                ; Saved register size: 11
   \   000005                ; Auto size: 0
   \   000005   EA           MOV     A,R2
   \   000006   FE           MOV     R6,A
   \   000007   EB           MOV     A,R3
   \   000008   FF           MOV     R7,A
   2055            uint8 dataLen;
   2056              
   2057            dataLen = zclGetAttrDataLength( pAttr->attr.dataType, (uint8*)(pAttr->attr.dataPtr) );
   \   000009   EC           MOV     A,R4
   \   00000A   2406         ADD     A,#0x6
   \   00000C   F8           MOV     R0,A
   \   00000D   ED           MOV     A,R5
   \   00000E   3400         ADDC    A,#0x0
   \   000010   F9           MOV     R1,A
   \   000011   88..         MOV     ?V0 + 0,R0
   \   000013   89..         MOV     ?V0 + 1,R1
   \   000015                ; Setup parameters for call to function zclGetAttrDataLength
   \   000015   8882         MOV     DPL,R0
   \   000017   F583         MOV     DPH,A
   \   000019   12....       LCALL   ??Subroutine129_0 & 0xFFFF
   \                     ??CrossCallReturnLabel_187:
   \   00001C   8C82         MOV     DPL,R4
   \   00001E   8D83         MOV     DPH,R5
   \   000020   12....       LCALL   ?Subroutine30 & 0xFFFF
   2058            osal_memcpy( pAttrData, pAttr->attr.dataPtr, dataLen );
   \                     ??CrossCallReturnLabel_179:
   \   000023                ; Setup parameters for call to function osal_memcpy
   \   000023   85..82       MOV     DPL,?V0 + 0
   \   000026   85..83       MOV     DPH,?V0 + 1
   \   000029   E0           MOVX    A,@DPTR
   \   00002A   F5..         MOV     ?V0 + 0,A
   \   00002C   A3           INC     DPTR
   \   00002D   E0           MOVX    A,@DPTR
   \   00002E   F5..         MOV     ?V0 + 1,A
   \   000030   75..00       MOV     ?V0 + 2,#0x0
   \   000033   78..         MOV     R0,#?V0 + 0
   \   000035   12....       LCALL   ?PUSH_XSTACK_I_THREE
   \   000038   EA           MOV     A,R2
   \   000039   FC           MOV     R4,A
   \   00003A   7D00         MOV     R5,#0x0
   \   00003C   EE           MOV     A,R6
   \   00003D   FA           MOV     R2,A
   \   00003E   EF           MOV     A,R7
   \   00003F   FB           MOV     R3,A
   \   000040   12....       LCALL   ?Subroutine108 & 0xFFFF
   \                     ??CrossCallReturnLabel_150:
   \   000043   12....       LCALL   ?DEALLOC_XSTACK8
   2059            return ( ZCL_STATUS_SUCCESS );
   \   000046   7900         MOV     R1,#0x0
   \   000048   02....       LJMP    ?Subroutine118 & 0xFFFF
   2060          }

   \                                 In  segment BANKED_CODE, align 1, keep-with-next
   \                     ?Subroutine30:
   \   000000   A3           INC     DPTR
   \   000001   A3           INC     DPTR
   \   000002                REQUIRE ??Subroutine127_0
   \   000002                ; // Fall through to label ??Subroutine127_0

   \                                 In  segment BANKED_CODE, align 1, keep-with-next
   \                     ??Subroutine127_0:
   \   000000   A3           INC     DPTR
   \   000001   A3           INC     DPTR
   \   000002                REQUIRE ??Subroutine128_0
   \   000002                ; // Fall through to label ??Subroutine128_0

   \                                 In  segment BANKED_CODE, align 1, keep-with-next
   \                     ??Subroutine128_0:
   \   000000   12....       LCALL   ?Subroutine86 & 0xFFFF
   \                     ??CrossCallReturnLabel_185:
   \   000003   FA           MOV     R2,A
   \   000004   22           RET
   2061          
   2062          #ifdef ZCL_WRITE
   2063          /*********************************************************************
   2064           * @fn      zclWriteAttrData
   2065           * @brief   Write the received data.
   2066           * @param   pAttr - where to write data to
   2067           *          pWriteRec - data to be written
   2068           * @return  Successful if data was written
   2069           */

   \                                 In  segment BANKED_CODE, align 1, keep-with-next
   2070          static uint8 zclWriteAttrData( zclAttrRec_t *pAttr, zclWriteRec_t *pWriteRec )
   \                     zclWriteAttrData:
   2071          {
   \   000000   74F1         MOV     A,#-0xf
   \   000002   12....       LCALL   ?BANKED_ENTER_XDATA
   \   000005                ; Saved register size: 15
   \   000005                ; Auto size: 0
   \   000005   8A..         MOV     ?V0 + 0,R2
   \   000007   8B..         MOV     ?V0 + 1,R3
   \   000009   EC           MOV     A,R4
   \   00000A   FE           MOV     R6,A
   \   00000B   ED           MOV     A,R5
   \   00000C   FF           MOV     R7,A
   2072            uint8 len;
   2073          
   2074            if ( zcl_AccessCtrlWrite( pAttr->attr.accessControl ) )
   \   00000D   8A82         MOV     DPL,R2
   \   00000F   8B83         MOV     DPH,R3
   \   000011   A3           INC     DPTR
   \   000012   A3           INC     DPTR
   \   000013   A3           INC     DPTR
   \   000014   A3           INC     DPTR
   \   000015   A3           INC     DPTR
   \   000016   E0           MOVX    A,@DPTR
   \   000017   A2E1         MOV     C,0xE0 /* A   */.1
   \   000019   5058         JNC     ??zclWriteAttrData_0
   2075            {
   2076              if ( zcl_ValidateAttrDataCB && !zcl_ValidateAttrDataCB( pAttr, pWriteRec ) )
   \   00001B   90....       MOV     DPTR,#zcl_ValidateAttrDataCB
   \   00001E   E0           MOVX    A,@DPTR
   \   00001F   7002         JNZ     ??zclWriteAttrData_1
   \   000021   A3           INC     DPTR
   \   000022   E0           MOVX    A,@DPTR
   \                     ??zclWriteAttrData_1:
   \   000023   6010         JZ      ??zclWriteAttrData_2
   \   000025                ; Setup parameters for indirect call
   \   000025   90....       MOV     DPTR,#zcl_ValidateAttrDataCB
   \   000028   12....       LCALL   ??Subroutine140_0 & 0xFFFF
   \                     ??CrossCallReturnLabel_240:
   \   00002B   12....       LCALL   ?CALL_IND
   \   00002E   E9           MOV     A,R1
   \   00002F   7004         JNZ     ??zclWriteAttrData_2
   2077                return ( ZCL_STATUS_INVALID_VALUE );
   \   000031   7987         MOV     R1,#-0x79
   \   000033   8040         SJMP    ??zclWriteAttrData_3
   2078              
   2079              len = zclGetAttrDataLength( pAttr->attr.dataType, pWriteRec->attrData );
   \                     ??zclWriteAttrData_2:
   \   000035   EE           MOV     A,R6
   \   000036   2403         ADD     A,#0x3
   \   000038   EF           MOV     A,R7
   \   000039   3400         ADDC    A,#0x0
   \   00003B   0E           INC     R6
   \   00003C   0E           INC     R6
   \   00003D   0E           INC     R6
   \   00003E   FF           MOV     R7,A
   \   00003F                ; Setup parameters for call to function zclGetAttrDataLength
   \   00003F   8E82         MOV     DPL,R6
   \   000041   8F83         MOV     DPH,R7
   \   000043   12....       LCALL   ??Subroutine129_0 & 0xFFFF
   \                     ??CrossCallReturnLabel_188:
   \   000046   85..82       MOV     DPL,?V0 + 0
   \   000049   85..83       MOV     DPH,?V0 + 1
   \   00004C   12....       LCALL   ?Subroutine30 & 0xFFFF
   2080              osal_memcpy( pAttr->attr.dataPtr, pWriteRec->attrData, len );
   \                     ??CrossCallReturnLabel_180:
   \   00004F                ; Setup parameters for call to function osal_memcpy
   \   00004F   8E82         MOV     DPL,R6
   \   000051   8F83         MOV     DPH,R7
   \   000053   12....       LCALL   ?Subroutine36 & 0xFFFF
   \                     ??CrossCallReturnLabel_154:
   \   000056   12....       LCALL   ?PUSH_XSTACK_I_THREE
   \   000059   EA           MOV     A,R2
   \   00005A   FC           MOV     R4,A
   \   00005B   7D00         MOV     R5,#0x0
   \   00005D   85..82       MOV     DPL,?V0 + 0
   \   000060   85..83       MOV     DPH,?V0 + 1
   \   000063   A3           INC     DPTR
   \   000064   A3           INC     DPTR
   \   000065   A3           INC     DPTR
   \   000066   A3           INC     DPTR
   \   000067   A3           INC     DPTR
   \   000068   A3           INC     DPTR
   \   000069   12....       LCALL   ?Subroutine51 & 0xFFFF
   \                     ??CrossCallReturnLabel_144:
   \   00006C   12....       LCALL   ?DEALLOC_XSTACK8
   2081              return ( ZCL_STATUS_SUCCESS );
   \   00006F   7900         MOV     R1,#0x0
   \   000071   8002         SJMP    ??zclWriteAttrData_3
   2082            }
   2083            return ( ZCL_STATUS_READ_ONLY );
   \                     ??zclWriteAttrData_0:
   \   000073   7988         MOV     R1,#-0x78
   \                     ??zclWriteAttrData_3:
   \   000075   7F07         MOV     R7,#0x7
   \   000077   02....       LJMP    ?BANKED_LEAVE_XDATA
   2084          }

   \                                 In  segment BANKED_CODE, align 1, keep-with-next
   \                     ?Subroutine109:
   \   000000   75..00       MOV     ?V0 + 6,#0x0
   \   000003   78..         MOV     R0,#?V0 + 4
   \   000005   22           RET

   \                                 In  segment BANKED_CODE, align 1, keep-with-next
   \                     ??Subroutine140_0:
   \   000000   12....       LCALL   ?Subroutine90 & 0xFFFF
   \                     ??CrossCallReturnLabel_245:
   \   000003   22           RET

   \                                 In  segment BANKED_CODE, align 1, keep-with-next
   \                     ?Subroutine51:
   \   000000   12....       LCALL   ??Subroutine130_0 & 0xFFFF
   \                     ??CrossCallReturnLabel_253:
   \   000003   02....       LJMP    ?Subroutine108 & 0xFFFF

   \                                 In  segment BANKED_CODE, align 1, keep-with-next
   \                     ?Subroutine36:
   \   000000   12....       LCALL   ?Subroutine79 & 0xFFFF
   \                     ??CrossCallReturnLabel_110:
   \   000003   02....       LJMP    ?Subroutine109 & 0xFFFF
   2085          #endif // ZCL_WRITE
   2086          
   2087          #ifdef ZCL_READ
   2088          /*********************************************************************
   2089           * @fn      zclParseInReadCmd
   2090           * @brief   Parse the "Profile" Read Commands
   2091           *          NOTE: THIS FUNCTION ALLOCATES THE RETURN BUFFER, SO THE CALLING
   2092           *                FUNCTION IS RESPONSIBLE TO FREE THE MEMORY.
   2093           * @param   pCmd - pointer to incoming data to parse
   2094           * @return  pointer to the parsed command structure
   2095           */

   \                                 In  segment BANKED_CODE, align 1, keep-with-next
   2096          void *zclParseInReadCmd( zclParseCmd_t *pCmd )
   \                     zclParseInReadCmd:
   2097          {
   \   000000   74F4         MOV     A,#-0xc
   \   000002   12....       LCALL   ?BANKED_ENTER_XDATA
   \   000005                ; Saved register size: 12
   \   000005                ; Auto size: 0
   2098            zclReadCmd_t *readCmd;
   2099            uint8 *pBuf = pCmd->pData;
   \   000005   8A82         MOV     DPL,R2
   \   000007   8B83         MOV     DPH,R3
   \   000009   12....       LCALL   ?Subroutine35 & 0xFFFF
   \                     ??CrossCallReturnLabel_178:
   \   00000C   FE           MOV     R6,A
   \   00000D   E9           MOV     A,R1
   \   00000E   FF           MOV     R7,A
   2100            
   2101            readCmd = (zclReadCmd_t *)osal_mem_alloc( sizeof ( zclReadCmd_t ) + pCmd->dataLen );
   \   00000F   12....       LCALL   ?Subroutine34 & 0xFFFF
   2102            if ( readCmd != NULL )
   \                     ??CrossCallReturnLabel_38:
   \   000012   7001         JNZ     ??zclParseInReadCmd_0
   \   000014   EB           MOV     A,R3
   \                     ??zclParseInReadCmd_0:
   \   000015   6049         JZ      ??zclParseInReadCmd_1
   2103            {
   2104              uint8 i;
   2105              
   2106              readCmd->numAttr = pCmd->dataLen / 2; // Atrribute ID
   \   000017   85..82       MOV     DPL,?V0 + 0
   \   00001A   85..83       MOV     DPH,?V0 + 1
   \   00001D   E0           MOVX    A,@DPTR
   \   00001E   F8           MOV     R0,A
   \   00001F   A3           INC     DPTR
   \   000020   E0           MOVX    A,@DPTR
   \   000021   C3           CLR     C
   \   000022   13           RRC     A
   \   000023   E8           MOV     A,R0
   \   000024   13           RRC     A
   \   000025   8A82         MOV     DPL,R2
   \   000027   8B83         MOV     DPH,R3
   \   000029   F0           MOVX    @DPTR,A
   2107              for ( i = 0; i < readCmd->numAttr; i++ )
   \   00002A   75..00       MOV     ?V0 + 0,#0x0
   \   00002D   8025         SJMP    ??zclParseInReadCmd_2
   2108              {
   2109                readCmd->attrID[i] = BUILD_UINT16( pBuf[0], pBuf[1] );
   \                     ??zclParseInReadCmd_3:
   \   00002F   8E82         MOV     DPL,R6
   \   000031   8F83         MOV     DPH,R7
   \   000033   12....       LCALL   ?Subroutine87 & 0xFFFF
   2110                pBuf += 2;
   2111              }
   \                     ??CrossCallReturnLabel_289:
   \   000036   F9           MOV     R1,A
   \   000037   E4           CLR     A
   \   000038   2C           ADD     A,R4
   \   000039   E9           MOV     A,R1
   \   00003A   FD           MOV     R5,A
   \   00003B   E5..         MOV     A,?V0 + 0
   \   00003D   33           RLC     A
   \   00003E   F8           MOV     R0,A
   \   00003F   E4           CLR     A
   \   000040   33           RLC     A
   \   000041   F9           MOV     R1,A
   \   000042   EA           MOV     A,R2
   \   000043   28           ADD     A,R0
   \   000044   F582         MOV     DPL,A
   \   000046   EB           MOV     A,R3
   \   000047   39           ADDC    A,R1
   \   000048   F583         MOV     DPH,A
   \   00004A   A3           INC     DPTR
   \   00004B   EC           MOV     A,R4
   \   00004C   F0           MOVX    @DPTR,A
   \   00004D   A3           INC     DPTR
   \   00004E   ED           MOV     A,R5
   \   00004F   12....       LCALL   ?Subroutine9 & 0xFFFF
   \                     ??CrossCallReturnLabel_11:
   \   000052   05..         INC     ?V0 + 0
   \                     ??zclParseInReadCmd_2:
   \   000054   8A82         MOV     DPL,R2
   \   000056   8B83         MOV     DPH,R3
   \   000058   E0           MOVX    A,@DPTR
   \   000059   FC           MOV     R4,A
   \   00005A   E5..         MOV     A,?V0 + 0
   \   00005C   C3           CLR     C
   \   00005D   9C           SUBB    A,R4
   \   00005E   40CF         JC      ??zclParseInReadCmd_3
   2112            }
   2113            return ( (void *)readCmd );
   \                     ??zclParseInReadCmd_1:
   \   000060   02....       LJMP    ?Subroutine105 & 0xFFFF
   2114          }

   \                                 In  segment BANKED_CODE, align 1, keep-with-next
   \                     ?Subroutine34:
   \   000000   8A82         MOV     DPL,R2
   \   000002   8B83         MOV     DPH,R3
   \   000004   A3           INC     DPTR
   \   000005   8582..       MOV     ?V0 + 0,DPL
   \   000008   8583..       MOV     ?V0 + 1,DPH
   \   00000B                ; Setup parameters for call to function osal_mem_alloc
   \   00000B                ; Setup parameters for call to function osal_mem_alloc
   \   00000B   E0           MOVX    A,@DPTR
   \   00000C   2401         ADD     A,#0x1
   \   00000E   FA           MOV     R2,A
   \   00000F   A3           INC     DPTR
   \   000010   E0           MOVX    A,@DPTR
   \   000011   3400         ADDC    A,#0x0
   \   000013   FB           MOV     R3,A
   \   000014   12....       LCALL   ??osal_mem_alloc?relay
   \   000017   EA           MOV     A,R2
   \   000018   22           RET
   2115          
   2116          /*********************************************************************
   2117           * @fn      zclParseInReadRspCmd
   2118           * @brief   Parse the "Profile" Read Response Commands
   2119           *          NOTE: THIS FUNCTION ALLOCATES THE RETURN BUFFER, SO THE CALLING
   2120           *                FUNCTION IS RESPONSIBLE TO FREE THE MEMORY.
   2121           * @param   pCmd - pointer to incoming data to parse
   2122           * @return  pointer to the parsed command structure
   2123           */

   \                                 In  segment BANKED_CODE, align 1, keep-with-next
   \                     ?Subroutine62:
   \   000000   E9           MOV     A,R1
   \   000001   F5..         MOV     ?V0 + 4,A
   \   000003   FC           MOV     R4,A
   \   000004   7D00         MOV     R5,#0x0
   \   000006   AA..         MOV     R2,?V0 + 2
   \   000008   AB..         MOV     R3,?V0 + 3
   \   00000A                REQUIRE ?Subroutine108
   \   00000A                ; // Fall through to label ?Subroutine108

   \                                 In  segment BANKED_CODE, align 1, keep-with-next
   2124          static void *zclParseInReadRspCmd( zclParseCmd_t *pCmd )
   \                     zclParseInReadRspCmd:
   2125          {
   \   000000   74EC         MOV     A,#-0x14
   \   000002   12....       LCALL   ?BANKED_ENTER_XDATA
   \   000005                ; Saved register size: 20
   \   000005                ; Auto size: 0
   \   000005   12....       LCALL   ?Subroutine39 & 0xFFFF
   2126            zclReadRspCmd_t *readRspCmd;
   2127            zclReadRspStatus_t *statusRec;
   2128            uint8 *pBuf = pCmd->pData;
   2129            uint8 *dataPtr;
   2130            uint8 numAttr = 0;
   2131            uint8 hdrLen;
   2132            uint8 dataLen = 0;
   \                     ??CrossCallReturnLabel_46:
   \   000008   801B         SJMP    ??zclParseInReadRspCmd_0
   2133            uint8 attrDataLen;
   2134            uint8 dataType;
   2135            uint8 status;
   2136            uint8 i;
   2137            
   2138            // find out the number of attributes and the length of attribute data
   2139            while ( pBuf < ( pCmd->pData + pCmd->dataLen ) )
   2140            {
   2141              numAttr++;
   \                     ??zclParseInReadRspCmd_1:
   \   00000A   12....       LCALL   ?Subroutine70 & 0xFFFF
   2142          
   2143              pBuf += 2; // move pass attribute id
   2144              
   2145              status = *pBuf++;  
   \                     ??CrossCallReturnLabel_142:
   \   00000D   A3           INC     DPTR
   \   00000E   AE82         MOV     R6,DPL
   \   000010   AF83         MOV     R7,DPH
   2146              if ( status == ZCL_STATUS_SUCCESS )
   \   000012   7011         JNZ     ??zclParseInReadRspCmd_0
   2147              {
   2148                dataType = *pBuf++;
   \   000014   E0           MOVX    A,@DPTR
   \   000015   F9           MOV     R1,A
   \   000016   A3           INC     DPTR
   \   000017   0E           INC     R6
   \   000018   12....       LCALL   ?Subroutine68 & 0xFFFF
   2149          
   2150                attrDataLen = zclGetAttrDataLength( dataType, pBuf );
   2151                pBuf += attrDataLen; // move pass attribute data
   2152                
   2153                if ( PADDING_NEEDED( attrDataLen ) ) // add padding if needed
   \                     ??CrossCallReturnLabel_91:
   \   00001B   5002         JNC     ??zclParseInReadRspCmd_2
   2154                  attrDataLen++;
   \   00001D   05..         INC     ?V0 + 8
   2155                dataLen += attrDataLen;
   \                     ??zclParseInReadRspCmd_2:
   \   00001F   E5..         MOV     A,?V0 + 8
   \   000021   25..         ADD     A,?V0 + 6
   \   000023   F5..         MOV     ?V0 + 6,A
   2156              }
   2157            }
   \                     ??zclParseInReadRspCmd_0:
   \   000025   12....       LCALL   ?Subroutine22 & 0xFFFF
   \                     ??CrossCallReturnLabel_199:
   \   000028   40E0         JC      ??zclParseInReadRspCmd_1
   2158           
   2159            hdrLen = sizeof( zclReadRspCmd_t ) + ( numAttr * sizeof( zclReadRspStatus_t ) ); // calculate the length of the response header
   \   00002A   75F006       MOV     B,#0x6
   \   00002D   12....       LCALL   ?Subroutine61 & 0xFFFF
   2160            
   2161            readRspCmd = (zclReadRspCmd_t *)osal_mem_alloc( hdrLen + dataLen );
   2162            if ( readRspCmd != NULL )
   \                     ??CrossCallReturnLabel_193:
   \   000030   7001         JNZ     ??zclParseInReadRspCmd_3
   \   000032   EB           MOV     A,R3
   \                     ??zclParseInReadRspCmd_3:
   \   000033   6049         JZ      ??zclParseInReadRspCmd_4
   2163            {
   2164              pBuf = pCmd->pData;
   \   000035   12....       LCALL   ?Subroutine24 & 0xFFFF
   2165              dataPtr = (uint8 *)( (uint8 *)readRspCmd + hdrLen );
   2166                  
   2167              readRspCmd->numAttr = numAttr;
   2168              for ( i = 0; i < numAttr; i++ )
   \                     ??CrossCallReturnLabel_28:
   \   000038   803D         SJMP    ??zclParseInReadRspCmd_5
   2169              {
   2170                statusRec = &(readRspCmd->attrList[i]);
   \                     ??zclParseInReadRspCmd_6:
   \   00003A   E5..         MOV     A,?V0 + 9
   \   00003C   75F006       MOV     B,#0x6
   \   00003F   12....       LCALL   ?Subroutine3 & 0xFFFF
   2171                
   2172                statusRec->attrID = BUILD_UINT16( pBuf[0], pBuf[1] );
   2173                pBuf += 2;
   2174                
   2175                statusRec->status = *pBuf++;
   \                     ??CrossCallReturnLabel_140:
   \   000042   12....       LCALL   ?Subroutine6 & 0xFFFF
   2176                if ( statusRec->status == ZCL_STATUS_SUCCESS )
   \                     ??CrossCallReturnLabel_206:
   \   000045   702E         JNZ     ??CrossCallReturnLabel_93
   2177                {
   2178                  statusRec->dataType = *pBuf++;
   \   000047   E0           MOVX    A,@DPTR
   \   000048   F9           MOV     R1,A
   \   000049   85..82       MOV     DPL,?V0 + 10
   \   00004C   85..83       MOV     DPH,?V0 + 11
   \   00004F   A3           INC     DPTR
   \   000050   A3           INC     DPTR
   \   000051   A3           INC     DPTR
   \   000052   12....       LCALL   ??Subroutine134_0 & 0xFFFF
   \                     ??CrossCallReturnLabel_212:
   \   000055   0E           INC     R6
   \   000056   AF83         MOV     R7,DPH
   2179          
   2180                  attrDataLen = zclGetAttrDataLength( statusRec->dataType, pBuf );
   \   000058                ; Setup parameters for call to function zclGetAttrDataLength
   \   000058   12....       LCALL   ?Subroutine72 & 0xFFFF
   2181                  osal_memcpy( dataPtr, pBuf, attrDataLen);
   \                     ??CrossCallReturnLabel_152:
   \   00005B   12....       LCALL   ?PUSH_XSTACK_I_THREE
   \   00005E   12....       LCALL   ?Subroutine62 & 0xFFFF
   \                     ??CrossCallReturnLabel_145:
   \   000061   12....       LCALL   ?DEALLOC_XSTACK8
   2182                  statusRec->data = dataPtr;
   \   000064   85..82       MOV     DPL,?V0 + 10
   \   000067   85..83       MOV     DPH,?V0 + 11
   \   00006A   A3           INC     DPTR
   \   00006B   12....       LCALL   ?Subroutine4 & 0xFFFF
   2183                  
   2184                  pBuf += attrDataLen; // move pass attribute data
   2185                 
   2186                  if ( PADDING_NEEDED( attrDataLen ) ) // advance attribute data pointer
   \                     ??CrossCallReturnLabel_6:
   \   00006E   5002         JNC     ??zclParseInReadRspCmd_7
   2187                    attrDataLen++;
   \   000070   05..         INC     ?V0 + 8
   2188                  dataPtr += attrDataLen;
   \                     ??zclParseInReadRspCmd_7:
   \   000072   12....       LCALL   ?Subroutine69 & 0xFFFF
   2189                }
   2190              }
   \                     ??CrossCallReturnLabel_93:
   \   000075   05..         INC     ?V0 + 9
   \                     ??zclParseInReadRspCmd_5:
   \   000077   E5..         MOV     A,?V0 + 9
   \   000079   C3           CLR     C
   \   00007A   95..         SUBB    A,?V0 + 7
   \   00007C   40BC         JC      ??zclParseInReadRspCmd_6
   2191            }
   2192            return ( (void *)readRspCmd );
   \                     ??zclParseInReadRspCmd_4:
   \   00007E                REQUIRE ?Subroutine119
   \   00007E                ; // Fall through to label ?Subroutine119
   2193          }

   \                                 In  segment BANKED_CODE, align 1, keep-with-next
   \                     ?Subroutine119:
   \   000000   AA..         MOV     R2,?V0 + 0
   \   000002   AB..         MOV     R3,?V0 + 1
   \   000004   7F0C         MOV     R7,#0xc
   \   000006   02....       LJMP    ?BANKED_LEAVE_XDATA

   \                                 In  segment BANKED_CODE, align 1, keep-with-next
   \                     ?Subroutine61:
   \   000000   E5..         MOV     A,?V0 + 7
   \   000002   A4           MUL     AB
   \   000003   04           INC     A
   \   000004   FA           MOV     R2,A
   \   000005   8A82         MOV     DPL,R2
   \   000007   8582..       MOV     ?V0 + 4,DPL
   \   00000A                ; Setup parameters for call to function osal_mem_alloc
   \   00000A                ; Setup parameters for call to function osal_mem_alloc
   \   00000A   85....       MOV     ?V0 + 0,?V0 + 6
   \   00000D   E5..         MOV     A,?V0 + 0
   \   00000F   25..         ADD     A,?V0 + 4
   \   000011   FA           MOV     R2,A
   \   000012   E4           CLR     A
   \   000013   3400         ADDC    A,#0x0
   \   000015   FB           MOV     R3,A
   \   000016                REQUIRE ??Subroutine131_0
   \   000016                ; // Fall through to label ??Subroutine131_0

   \                                 In  segment BANKED_CODE, align 1, keep-with-next
   \                     ??Subroutine131_0:
   \   000000   12....       LCALL   ?Subroutine91 & 0xFFFF
   \                     ??CrossCallReturnLabel_196:
   \   000003   22           RET

   \                                 In  segment BANKED_CODE, align 1, keep-with-next
   \                     ?Subroutine22:
   \   000000   85..82       MOV     DPL,?V0 + 0
   \   000003   85..83       MOV     DPH,?V0 + 1
   \   000006   A3           INC     DPTR
   \   000007                REQUIRE ??Subroutine132_0
   \   000007                ; // Fall through to label ??Subroutine132_0

   \                                 In  segment BANKED_CODE, align 1, keep-with-next
   \                     ??Subroutine132_0:
   \   000000   12....       LCALL   ?Subroutine88 & 0xFFFF
   \                     ??CrossCallReturnLabel_204:
   \   000003   85..82       MOV     DPL,?V0 + 2
   \   000006   85..83       MOV     DPH,?V0 + 3
   \   000009   E0           MOVX    A,@DPTR
   \   00000A   28           ADD     A,R0
   \   00000B   F8           MOV     R0,A
   \   00000C   A3           INC     DPTR
   \   00000D   E0           MOVX    A,@DPTR
   \   00000E   39           ADDC    A,R1
   \   00000F   F9           MOV     R1,A
   \   000010   C3           CLR     C
   \   000011   EE           MOV     A,R6
   \   000012   98           SUBB    A,R0
   \   000013   EF           MOV     A,R7
   \   000014   99           SUBB    A,R1
   \   000015   22           RET

   \                                 In  segment BANKED_CODE, align 1, keep-with-next
   \                     ?Subroutine6:
   \   000000   85..82       MOV     DPL,?V0 + 10
   \   000003   85..83       MOV     DPH,?V0 + 11
   \   000006   A3           INC     DPTR
   \   000007   A3           INC     DPTR
   \   000008                REQUIRE ??Subroutine133_0
   \   000008                ; // Fall through to label ??Subroutine133_0

   \                                 In  segment BANKED_CODE, align 1, keep-with-next
   \                     ?Subroutine72:
   \   000000   EE           MOV     A,R6
   \   000001   FA           MOV     R2,A
   \   000002   EF           MOV     A,R7
   \   000003   FB           MOV     R3,A
   \   000004   12....       LCALL   ??zclGetAttrDataLength?relay
   \   000007   E9           MOV     A,R1
   \   000008   F5..         MOV     ?V0 + 8,A
   \   00000A                ; Setup parameters for call to function osal_memcpy
   \   00000A                ; Setup parameters for call to function osal_memcpy
   \   00000A   8E..         MOV     ?V0 + 4,R6
   \   00000C   8F..         MOV     ?V0 + 5,R7
   \   00000E                REQUIRE ?Subroutine109
   \   00000E                ; // Fall through to label ?Subroutine109

   \                                 In  segment BANKED_CODE, align 1, keep-with-next
   \                     ?Subroutine70:
   \   000000   05..         INC     ?V0 + 7
   \   000002   12....       LCALL   ?Subroutine96 & 0xFFFF
   \                     ??CrossCallReturnLabel_129:
   \   000005                REQUIRE ?Subroutine107
   \   000005                ; // Fall through to label ?Subroutine107

   \                                 In  segment BANKED_CODE, align 1, keep-with-next
   \                     ?Subroutine107:
   \   000000   8E82         MOV     DPL,R6
   \   000002   8F83         MOV     DPH,R7
   \   000004   E0           MOVX    A,@DPTR
   \   000005   22           RET

   \                                 In  segment BANKED_CODE, align 1, keep-with-next
   \                     ?Subroutine69:
   \   000000   85....       MOV     ?V0 + 4,?V0 + 8
   \   000003   E5..         MOV     A,?V0 + 2
   \   000005   25..         ADD     A,?V0 + 4
   \   000007   F5..         MOV     ?V0 + 2,A
   \   000009   E5..         MOV     A,?V0 + 3
   \   00000B   3400         ADDC    A,#0x0
   \   00000D   F5..         MOV     ?V0 + 3,A
   \   00000F   22           RET

   \                                 In  segment BANKED_CODE, align 1, keep-with-next
   \                     ?Subroutine68:
   \   000000   AF83         MOV     R7,DPH
   \   000002                ; Setup parameters for call to function zclGetAttrDataLength
   \   000002                ; Setup parameters for call to function zclGetAttrDataLength
   \   000002   EE           MOV     A,R6
   \   000003   FA           MOV     R2,A
   \   000004   EF           MOV     A,R7
   \   000005   FB           MOV     R3,A
   \   000006   12....       LCALL   ??zclGetAttrDataLength?relay
   \   000009   E9           MOV     A,R1
   \   00000A   F5..         MOV     ?V0 + 8,A
   \   00000C   F5..         MOV     ?V0 + 4,A
   \   00000E   EE           MOV     A,R6
   \   00000F   25..         ADD     A,?V0 + 4
   \   000011   FE           MOV     R6,A
   \   000012   EF           MOV     A,R7
   \   000013   3400         ADDC    A,#0x0
   \   000015   FF           MOV     R7,A
   \   000016   E9           MOV     A,R1
   \   000017   A2E0         MOV     C,0xE0 /* A   */.0
   \   000019   22           RET

   \                                 In  segment BANKED_CODE, align 1, keep-with-next
   \                     ?Subroutine39:
   \   000000   8A..         MOV     ?V0 + 0,R2
   \   000002   8B..         MOV     ?V0 + 1,R3
   \   000004   EA           MOV     A,R2
   \   000005   2403         ADD     A,#0x3
   \   000007   F5..         MOV     ?V0 + 2,A
   \   000009   EB           MOV     A,R3
   \   00000A   12....       LCALL   ?Subroutine92 & 0xFFFF
   \                     ??CrossCallReturnLabel_269:
   \   00000D   E0           MOVX    A,@DPTR
   \   00000E   FE           MOV     R6,A
   \   00000F   A3           INC     DPTR
   \   000010   E0           MOVX    A,@DPTR
   \   000011   FF           MOV     R7,A
   \   000012   75..00       MOV     ?V0 + 7,#0x0
   \   000015   75..00       MOV     ?V0 + 6,#0x0
   \   000018   22           RET

   \                                 In  segment BANKED_CODE, align 1, keep-with-next
   \                     ?Subroutine24:
   \   000000   85..82       MOV     DPL,?V0 + 2
   \   000003   85..83       MOV     DPH,?V0 + 3
   \   000006   E0           MOVX    A,@DPTR
   \   000007   FE           MOV     R6,A
   \   000008   A3           INC     DPTR
   \   000009   E0           MOVX    A,@DPTR
   \   00000A   FF           MOV     R7,A
   \   00000B   EA           MOV     A,R2
   \   00000C   25..         ADD     A,?V0 + 4
   \   00000E   F5..         MOV     ?V0 + 2,A
   \   000010   EB           MOV     A,R3
   \   000011   3400         ADDC    A,#0x0
   \   000013   F5..         MOV     ?V0 + 3,A
   \   000015   8A82         MOV     DPL,R2
   \   000017   8B83         MOV     DPH,R3
   \   000019   E5..         MOV     A,?V0 + 7
   \   00001B   F0           MOVX    @DPTR,A
   \   00001C   75..00       MOV     ?V0 + 9,#0x0
   \   00001F   22           RET

   \                                 In  segment BANKED_CODE, align 1, keep-with-next
   \                     ?Subroutine4:
   \   000000   A3           INC     DPTR
   \   000001   A3           INC     DPTR
   \   000002   A3           INC     DPTR
   \   000003   E5..         MOV     A,?V0 + 2
   \   000005   F0           MOVX    @DPTR,A
   \   000006   A3           INC     DPTR
   \   000007   E5..         MOV     A,?V0 + 3
   \   000009   F0           MOVX    @DPTR,A
   \   00000A   EE           MOV     A,R6
   \   00000B   25..         ADD     A,?V0 + 4
   \   00000D   FE           MOV     R6,A
   \   00000E   EF           MOV     A,R7
   \   00000F   3400         ADDC    A,#0x0
   \   000011   FF           MOV     R7,A
   \   000012   E5..         MOV     A,?V0 + 8
   \   000014   A2E0         MOV     C,0xE0 /* A   */.0
   \   000016   22           RET

   \                                 In  segment BANKED_CODE, align 1, keep-with-next
   \                     ?Subroutine3:
   \   000000   12....       LCALL   ?Subroutine95 & 0xFFFF
   \                     ??CrossCallReturnLabel_127:
   \   000003   A3           INC     DPTR
   \   000004   8582..       MOV     ?V0 + 10,DPL
   \   000007   8583..       MOV     ?V0 + 11,DPH
   \   00000A   8E82         MOV     DPL,R6
   \   00000C   8F83         MOV     DPH,R7
   \   00000E   E0           MOVX    A,@DPTR
   \   00000F   FA           MOV     R2,A
   \   000010   A3           INC     DPTR
   \   000011   E0           MOVX    A,@DPTR
   \   000012   F9           MOV     R1,A
   \   000013   EA           MOV     A,R2
   \   000014   85..82       MOV     DPL,?V0 + 10
   \   000017   85..83       MOV     DPH,?V0 + 11
   \   00001A   F0           MOVX    @DPTR,A
   \   00001B   A3           INC     DPTR
   \   00001C   E9           MOV     A,R1
   \   00001D   12....       LCALL   ?Subroutine76 & 0xFFFF
   \                     ??CrossCallReturnLabel_105:
   \   000020   02....       LJMP    ?Subroutine107 & 0xFFFF

   \                                 In  segment BANKED_CODE, align 1, keep-with-next
   \                     ?Subroutine96:
   \   000000   12....       LCALL   ?Subroutine103 & 0xFFFF
   \                     ??CrossCallReturnLabel_159:
   \   000003   22           RET

   \                                 In  segment BANKED_CODE, align 1, keep-with-next
   \                     ?Subroutine95:
   \   000000   A4           MUL     AB
   \   000001   F8           MOV     R0,A
   \   000002   A9F0         MOV     R1,B
   \   000004   E5..         MOV     A,?V0 + 0
   \   000006   28           ADD     A,R0
   \   000007   F582         MOV     DPL,A
   \   000009   E5..         MOV     A,?V0 + 1
   \   00000B   39           ADDC    A,R1
   \   00000C   F583         MOV     DPH,A
   \   00000E   22           RET

   \                                 In  segment BANKED_CODE, align 1, keep-with-next
   \                     ?Subroutine91:
   \   000000   12....       LCALL   ??osal_mem_alloc?relay
   \   000003   8A..         MOV     ?V0 + 0,R2
   \   000005   8B..         MOV     ?V0 + 1,R3
   \   000007   EA           MOV     A,R2
   \   000008   22           RET
   2194          #endif // ZCL_READ
   2195          
   2196          #ifdef ZCL_WRITE
   2197          /*********************************************************************
   2198           * @fn      zclParseInWriteCmd
   2199           * @brief   Parse the "Profile" Write, Write Undivided and Write No
   2200           *          Response Commands
   2201           *          NOTE: THIS FUNCTION ALLOCATES THE RETURN BUFFER, SO THE CALLING
   2202           *                FUNCTION IS RESPONSIBLE TO FREE THE MEMORY.
   2203           * @param   pCmd - pointer to incoming data to parse
   2204           * @return  pointer to the parsed command structure
   2205           */

   \                                 In  segment BANKED_CODE, align 1, keep-with-next
   2206          void *zclParseInWriteCmd( zclParseCmd_t *pCmd )
   \                     zclParseInWriteCmd:
   2207          {
   \   000000   74EC         MOV     A,#-0x14
   \   000002   12....       LCALL   ?BANKED_ENTER_XDATA
   \   000005                ; Saved register size: 20
   \   000005                ; Auto size: 0
   \   000005   12....       LCALL   ?Subroutine39 & 0xFFFF
   2208            zclWriteCmd_t *writeCmd;
   2209            zclWriteRec_t *statusRec;
   2210            uint8 *pBuf = pCmd->pData;
   2211            uint8 attrDataLen;
   2212            uint8 *dataPtr;
   2213            uint8 numAttr = 0;
   2214            uint8 hdrLen;
   2215            uint8 dataLen = 0;
   \                     ??CrossCallReturnLabel_47:
   \   000008   8014         SJMP    ??zclParseInWriteCmd_0
   2216            uint8 dataType;
   2217            uint8 i;
   2218          
   2219            while ( pBuf < ( pCmd->pData + pCmd->dataLen ) ) // find out the number of attributes and the length of attribute data
   2220            {
   2221              numAttr++;
   \                     ??zclParseInWriteCmd_1:
   \   00000A   12....       LCALL   ?Subroutine70 & 0xFFFF
   2222          
   2223              pBuf += 2; // move pass attribute id
   2224          
   2225              dataType = *pBuf++;
   \                     ??CrossCallReturnLabel_143:
   \   00000D   F9           MOV     R1,A
   \   00000E   A3           INC     DPTR
   \   00000F   AE82         MOV     R6,DPL
   \   000011   12....       LCALL   ?Subroutine68 & 0xFFFF
   2226          
   2227              attrDataLen = zclGetAttrDataLength( dataType, pBuf );
   2228              pBuf += attrDataLen; // move pass attribute data
   2229              
   2230              if ( PADDING_NEEDED( attrDataLen ) ) // add padding if needed
   \                     ??CrossCallReturnLabel_92:
   \   000014   5002         JNC     ??zclParseInWriteCmd_2
   2231                attrDataLen++;
   \   000016   05..         INC     ?V0 + 8
   2232              dataLen += attrDataLen;
   \                     ??zclParseInWriteCmd_2:
   \   000018   E5..         MOV     A,?V0 + 8
   \   00001A   25..         ADD     A,?V0 + 6
   \   00001C   F5..         MOV     ?V0 + 6,A
   2233            }
   \                     ??zclParseInWriteCmd_0:
   \   00001E   12....       LCALL   ?Subroutine22 & 0xFFFF
   \                     ??CrossCallReturnLabel_200:
   \   000021   40E7         JC      ??zclParseInWriteCmd_1
   2234            
   2235            hdrLen = sizeof( zclWriteCmd_t ) + ( numAttr * sizeof( zclWriteRec_t ) ); // calculate the length of the response header
   \   000023   75F005       MOV     B,#0x5
   \   000026   12....       LCALL   ?Subroutine61 & 0xFFFF
   2236            
   2237            writeCmd = (zclWriteCmd_t *)osal_mem_alloc( hdrLen + dataLen );
   2238            if ( writeCmd != NULL )
   \                     ??CrossCallReturnLabel_194:
   \   000029   7001         JNZ     ??zclParseInWriteCmd_3
   \   00002B   EB           MOV     A,R3
   \                     ??zclParseInWriteCmd_3:
   \   00002C   6036         JZ      ??zclParseInWriteCmd_4
   2239            {
   2240              pBuf = pCmd->pData;
   \   00002E   12....       LCALL   ?Subroutine24 & 0xFFFF
   2241              dataPtr = (uint8 *)( (uint8 *)writeCmd + hdrLen );
   2242          
   2243              writeCmd->numAttr = numAttr;
   2244              for ( i = 0; i < numAttr; i++ )
   \                     ??CrossCallReturnLabel_29:
   \   000031   802A         SJMP    ??zclParseInWriteCmd_5
   2245              {
   2246                statusRec = &(writeCmd->attrList[i]);
   \                     ??zclParseInWriteCmd_6:
   \   000033   E5..         MOV     A,?V0 + 9
   \   000035   75F005       MOV     B,#0x5
   \   000038   12....       LCALL   ?Subroutine3 & 0xFFFF
   2247                
   2248                statusRec->attrID = BUILD_UINT16( pBuf[0], pBuf[1] );
   2249                pBuf += 2;
   2250                statusRec->dataType = *pBuf++;
   \                     ??CrossCallReturnLabel_141:
   \   00003B   F9           MOV     R1,A
   \   00003C   12....       LCALL   ?Subroutine6 & 0xFFFF
   2251          
   2252                attrDataLen = zclGetAttrDataLength( statusRec->dataType, pBuf );
   \                     ??CrossCallReturnLabel_207:
   \   00003F                ; Setup parameters for call to function zclGetAttrDataLength
   \   00003F   12....       LCALL   ?Subroutine72 & 0xFFFF
   2253                osal_memcpy( dataPtr, pBuf, attrDataLen);
   \                     ??CrossCallReturnLabel_153:
   \   000042   12....       LCALL   ?PUSH_XSTACK_I_THREE
   \   000045   12....       LCALL   ?Subroutine62 & 0xFFFF
   \                     ??CrossCallReturnLabel_146:
   \   000048   12....       LCALL   ?DEALLOC_XSTACK8
   2254                statusRec->attrData = dataPtr;
   \   00004B   85..82       MOV     DPL,?V0 + 10
   \   00004E   85..83       MOV     DPH,?V0 + 11
   \   000051   12....       LCALL   ?Subroutine4 & 0xFFFF
   2255                
   2256                pBuf += attrDataLen; // move pass attribute data
   2257          
   2258                if ( PADDING_NEEDED( attrDataLen ) ) // advance attribute data pointer
   \                     ??CrossCallReturnLabel_7:
   \   000054   5002         JNC     ??zclParseInWriteCmd_7
   2259                  attrDataLen++;
   \   000056   05..         INC     ?V0 + 8
   2260                dataPtr += attrDataLen;
   \                     ??zclParseInWriteCmd_7:
   \   000058   12....       LCALL   ?Subroutine69 & 0xFFFF
   2261              }
   \                     ??CrossCallReturnLabel_94:
   \   00005B   05..         INC     ?V0 + 9
   \                     ??zclParseInWriteCmd_5:
   \   00005D   E5..         MOV     A,?V0 + 9
   \   00005F   C3           CLR     C
   \   000060   95..         SUBB    A,?V0 + 7
   \   000062   40CF         JC      ??zclParseInWriteCmd_6
   2262            }
   2263            
   2264            return ( (void *)writeCmd );
   \                     ??zclParseInWriteCmd_4:
   \   000064   02....       LJMP    ?Subroutine119 & 0xFFFF
   2265          }
   2266          
   2267          /*********************************************************************
   2268           * @fn      zclParseInWriteRspCmd
   2269           * @brief   Parse the "Profile" Write Response Commands
   2270           *          NOTE: THIS FUNCTION ALLOCATES THE RETURN BUFFER, SO THE CALLING
   2271           *                FUNCTION IS RESPONSIBLE TO FREE THE MEMORY.
   2272           * @param   pCmd - pointer to incoming data to parse
   2273           * @return  pointer to the parsed command structure
   2274           */

   \                                 In  segment BANKED_CODE, align 1, keep-with-next
   2275          static void *zclParseInWriteRspCmd( zclParseCmd_t *pCmd )
   \                     zclParseInWriteRspCmd:
   2276          {
   \   000000   74F0         MOV     A,#-0x10
   \   000002   12....       LCALL   ?BANKED_ENTER_XDATA
   \   000005                ; Saved register size: 16
   \   000005                ; Auto size: 0
   2277            zclWriteRspCmd_t *writeRspCmd;
   2278            uint8 *pBuf = pCmd->pData;
   \   000005   EA           MOV     A,R2
   \   000006   2403         ADD     A,#0x3
   \   000008   F5..         MOV     ?V0 + 2,A
   \   00000A   EB           MOV     A,R3
   \   00000B   12....       LCALL   ??Subroutine143_0 & 0xFFFF
   \                     ??CrossCallReturnLabel_265:
   \   00000E   12....       LCALL   ?Subroutine40 & 0xFFFF
   2279            uint8 i = 0;
   \                     ??CrossCallReturnLabel_49:
   \   000011   75..00       MOV     ?V0 + 4,#0x0
   2280          
   2281            writeRspCmd = (zclWriteRspCmd_t *)osal_mem_alloc( sizeof ( zclWriteRspCmd_t ) + pCmd->dataLen );
   \   000014   12....       LCALL   ?Subroutine34 & 0xFFFF
   2282            if ( writeRspCmd != NULL )
   \                     ??CrossCallReturnLabel_39:
   \   000017   7001         JNZ     ??zclParseInWriteRspCmd_0
   \   000019   EB           MOV     A,R3
   \                     ??zclParseInWriteRspCmd_0:
   \   00001A   605C         JZ      ??zclParseInWriteRspCmd_1
   2283            {
   2284              if ( pCmd->dataLen == 1 )
   \   00001C   85..82       MOV     DPL,?V0 + 0
   \   00001F   85..83       MOV     DPH,?V0 + 1
   \   000022   E0           MOVX    A,@DPTR
   \   000023   6401         XRL     A,#0x1
   \   000025   7002         JNZ     ??zclParseInWriteRspCmd_2
   \   000027   A3           INC     DPTR
   \   000028   E0           MOVX    A,@DPTR
   \                     ??zclParseInWriteRspCmd_2:
   \   000029   703B         JNZ     ??CrossCallReturnLabel_128
   2285              {
   2286                writeRspCmd->attrList[i++].status = *pBuf; // special case when all writes were successfull
   \   00002B   12....       LCALL   ?Subroutine50 & 0xFFFF
   2287              }
   \                     ??CrossCallReturnLabel_229:
   \   00002E   A3           INC     DPTR
   \   00002F   F0           MOVX    @DPTR,A
   \   000030   75..01       MOV     ?V0 + 4,#0x1
   \   000033   803C         SJMP    ??zclParseInWriteRspCmd_3
   2288              else
   2289              {
   2290                while ( pBuf < ( pCmd->pData + pCmd->dataLen ) )
   2291                {
   2292                  writeRspCmd->attrList[i].status = *pBuf++;
   \                     ??zclParseInWriteRspCmd_4:
   \   000035   E5..         MOV     A,?V0 + 4
   \   000037   75F003       MOV     B,#0x3
   \   00003A   A4           MUL     AB
   \   00003B   F8           MOV     R0,A
   \   00003C   A9F0         MOV     R1,B
   \   00003E   EA           MOV     A,R2
   \   00003F   28           ADD     A,R0
   \   000040   F8           MOV     R0,A
   \   000041   EB           MOV     A,R3
   \   000042   39           ADDC    A,R1
   \   000043   F9           MOV     R1,A
   \   000044   8E82         MOV     DPL,R6
   \   000046   8F83         MOV     DPH,R7
   \   000048   E0           MOVX    A,@DPTR
   \   000049   8882         MOV     DPL,R0
   \   00004B   8983         MOV     DPH,R1
   \   00004D   12....       LCALL   ?Subroutine5 & 0xFFFF
   2293                  writeRspCmd->attrList[i++].attrID = BUILD_UINT16( pBuf[0], pBuf[1] );
   \                     ??CrossCallReturnLabel_9:
   \   000050   F5..         MOV     ?V0 + 6,A
   \   000052   A3           INC     DPTR
   \   000053   E0           MOVX    A,@DPTR
   \   000054   FD           MOV     R5,A
   \   000055   E5..         MOV     A,?V0 + 6
   \   000057   8882         MOV     DPL,R0
   \   000059   8983         MOV     DPH,R1
   \   00005B   A3           INC     DPTR
   \   00005C   A3           INC     DPTR
   \   00005D   F0           MOVX    @DPTR,A
   \   00005E   A3           INC     DPTR
   \   00005F   ED           MOV     A,R5
   \   000060   F0           MOVX    @DPTR,A
   \   000061   05..         INC     ?V0 + 4
   2294                  pBuf += 2;
   \   000063   12....       LCALL   ?Subroutine96 & 0xFFFF
   2295                }
   \                     ??CrossCallReturnLabel_128:
   \   000066   85..82       MOV     DPL,?V0 + 0
   \   000069   85..83       MOV     DPH,?V0 + 1
   \   00006C   12....       LCALL   ??Subroutine132_0 & 0xFFFF
   2296              }
   \                     ??CrossCallReturnLabel_198:
   \   00006F   40C4         JC      ??zclParseInWriteRspCmd_4
   2297              writeRspCmd->numAttr = i; 
   \                     ??zclParseInWriteRspCmd_3:
   \   000071   8A82         MOV     DPL,R2
   \   000073   8B83         MOV     DPH,R3
   \   000075   E5..         MOV     A,?V0 + 4
   \   000077   F0           MOVX    @DPTR,A
   2298            }
   2299            return ( (void *)writeRspCmd );
   \                     ??zclParseInWriteRspCmd_1:
   \   000078   02....       LJMP    ?Subroutine117 & 0xFFFF
   2300          }
   2301          #endif // ZCL_WRITE
   2302          
   2303          #ifdef ZCL_REPORT
   2304          /*********************************************************************
   2305           * @fn      zclParseInConfigReportCmd
   2306           * @brief   Parse the "Profile" Configure Reporting Command
   2307           *          NOTE: THIS FUNCTION ALLOCATES THE RETURN BUFFER, SO THE CALLING
   2308           *                FUNCTION IS RESPONSIBLE TO FREE THE MEMORY.
   2309           * @param   pCmd - pointer to incoming data to parse
   2310           * @return  pointer to the parsed command structure
   2311           */
   2312          void *zclParseInConfigReportCmd( zclParseCmd_t *pCmd )
   2313          {
   2314            zclCfgReportCmd_t *cfgReportCmd;
   2315            zclCfgReportRec_t *reportRec;
   2316            uint8 *pBuf = pCmd->pData;
   2317            uint8 *dataPtr;
   2318            uint8 numAttr = 0;
   2319            uint8 direction;
   2320            uint8 dataType;
   2321            uint8 hdrLen;
   2322            uint8 dataLen = 0;
   2323            uint8 reportChangeLen; // length of Reportable Change field
   2324            uint8 i;
   2325           
   2326            while ( pBuf < ( pCmd->pData + pCmd->dataLen ) ) // Calculate the length of the Request command
   2327            {
   2328              numAttr++;
   2329              
   2330              direction = *pBuf++;
   2331              pBuf += 2; // move pass the attribute ID
   2332              
   2333              if ( direction == ZCL_SEND_ATTR_REPORTS ) // Is there a Reportable Change field?
   2334              {
   2335                dataType = *pBuf++;
   2336                pBuf += 4; // move pass the Min and Max Reporting Intervals
   2337           
   2338                if ( zclAnalogDataType( dataType ) ) // For attributes of 'discrete' data types this field is omitted
   2339                {
   2340                  reportChangeLen = zclGetDataTypeLength( dataType );
   2341                  pBuf += reportChangeLen;
   2342                  
   2343                  if ( PADDING_NEEDED( reportChangeLen ) ) // add padding if needed
   2344                    reportChangeLen++;
   2345                  dataLen += reportChangeLen;
   2346                }
   2347              }
   2348              else
   2349              {
   2350                pBuf += 2; // move pass the Timeout Period
   2351              }
   2352            } // while loop
   2353          
   2354            hdrLen = sizeof( zclCfgReportCmd_t ) + ( numAttr * sizeof( zclCfgReportRec_t ) );
   2355            
   2356            cfgReportCmd = (zclCfgReportCmd_t *)osal_mem_alloc( hdrLen + dataLen );
   2357            if ( cfgReportCmd != NULL )
   2358            { 
   2359              pBuf = pCmd->pData;
   2360              dataPtr = (uint8 *)( (uint8 *)cfgReportCmd + hdrLen );
   2361              
   2362              cfgReportCmd->numAttr = numAttr;
   2363              for ( i = 0; i < numAttr; i++ )
   2364              {
   2365                reportRec = &(cfgReportCmd->attrList[i]);
   2366                
   2367                osal_memset( reportRec, 0, sizeof( zclCfgReportRec_t ) );
   2368                  
   2369                reportRec->direction = *pBuf++;
   2370                reportRec->attrID = BUILD_UINT16( pBuf[0], pBuf[1] );
   2371                pBuf += 2;
   2372                if ( reportRec->direction == ZCL_SEND_ATTR_REPORTS )
   2373                {
   2374                 
   2375                  reportRec->dataType = *pBuf++; // Attribute to be reported
   2376                  reportRec->minReportInt = BUILD_UINT16( pBuf[0], pBuf[1] );
   2377                  pBuf += 2;
   2378                  reportRec->maxReportInt = BUILD_UINT16( pBuf[0], pBuf[1] );
   2379                  pBuf += 2;
   2380                 
   2381                  if ( zclAnalogDataType( reportRec->dataType ) ) // For attributes of 'discrete' data types this field is omitted
   2382                  {
   2383                    zcl_BuildAnalogData( reportRec->dataType, dataPtr, pBuf);
   2384                    reportRec->reportableChange = dataPtr;
   2385                    
   2386                    reportChangeLen = zclGetDataTypeLength( reportRec->dataType );
   2387                    pBuf += reportChangeLen;
   2388                   
   2389                    if ( PADDING_NEEDED( reportChangeLen ) ) // advance attribute data pointer
   2390                      reportChangeLen++;
   2391                    dataPtr += reportChangeLen;
   2392                  }
   2393                }
   2394                else
   2395                {
   2396                  reportRec->timeoutPeriod = BUILD_UINT16( pBuf[0], pBuf[1] ); // Attribute reports to be received
   2397                  pBuf += 2;
   2398                }
   2399              } // while loop
   2400            }
   2401            return ( (void *)cfgReportCmd );
   2402          }
   2403          
   2404          /*********************************************************************
   2405           * @fn      zclParseInConfigReportRspCmd
   2406           * @brief   Parse the "Profile" Configure Reporting Response Command
   2407           *          NOTE: THIS FUNCTION ALLOCATES THE RETURN BUFFER, SO THE CALLING
   2408           *                FUNCTION IS RESPONSIBLE TO FREE THE MEMORY.
   2409           * @param   pCmd - pointer to incoming data to parse
   2410           * @return  pointer to the parsed command structure
   2411           */
   2412          static void *zclParseInConfigReportRspCmd( zclParseCmd_t *pCmd )
   2413          {
   2414            zclCfgReportRspCmd_t *cfgReportRspCmd;
   2415            uint8 *pBuf = pCmd->pData;
   2416            uint8 numAttr;
   2417            uint8 i; 
   2418            
   2419            numAttr = pCmd->dataLen / ( 1 + 1 + 2 ); // Status + Direction + Attribute ID
   2420            
   2421            cfgReportRspCmd = (zclCfgReportRspCmd_t *)osal_mem_alloc( sizeof( zclCfgReportRspCmd_t ) 
   2422                                                      + ( numAttr * sizeof( zclCfgReportStatus_t ) ) );
   2423            if ( cfgReportRspCmd != NULL )
   2424            {
   2425              cfgReportRspCmd->numAttr = numAttr;
   2426              for ( i = 0; i < cfgReportRspCmd->numAttr; i++ )
   2427              {
   2428                cfgReportRspCmd->attrList[i].status = *pBuf++;
   2429                cfgReportRspCmd->attrList[i].direction = *pBuf++;
   2430                cfgReportRspCmd->attrList[i].attrID = BUILD_UINT16( pBuf[0], pBuf[1] );
   2431                pBuf += 2;
   2432              }
   2433            }
   2434            return ( (void *)cfgReportRspCmd );  
   2435          }
   2436          
   2437          /*********************************************************************
   2438           * @fn      zclParseInReadReportCfgCmd
   2439           * @brief   Parse the "Profile" Read Reporting Configuration Command
   2440           *          NOTE: THIS FUNCTION ALLOCATES THE RETURN BUFFER, SO THE CALLING
   2441           *                FUNCTION IS RESPONSIBLE TO FREE THE MEMORY.
   2442           * @param   pCmd - pointer to incoming data to parse
   2443           * @return  pointer to the parsed command structure
   2444           */
   2445          void *zclParseInReadReportCfgCmd( zclParseCmd_t *pCmd )
   2446          {
   2447            zclReadReportCfgCmd_t *readReportCfgCmd;
   2448            uint8 *pBuf = pCmd->pData;
   2449            uint8 numAttr;
   2450            uint8 i;
   2451            
   2452            numAttr = pCmd->dataLen / ( 1 + 2 ); // Direction + Attribute ID
   2453            
   2454            readReportCfgCmd = (zclReadReportCfgCmd_t *)osal_mem_alloc( sizeof( zclReadReportCfgCmd_t ) 
   2455                                                            + ( numAttr * sizeof( zclReadReportCfgRec_t ) ) );
   2456            if ( readReportCfgCmd != NULL )
   2457            {
   2458              readReportCfgCmd->numAttr = numAttr;
   2459              for ( i = 0; i < readReportCfgCmd->numAttr; i++)
   2460              {
   2461                readReportCfgCmd->attrList[i].direction = *pBuf++;;
   2462                readReportCfgCmd->attrList[i].attrID = BUILD_UINT16( pBuf[0], pBuf[1] );
   2463                pBuf += 2;
   2464              }
   2465            }
   2466            return ( (void *)readReportCfgCmd );
   2467          }
   2468          
   2469          /*********************************************************************
   2470           * @fn      zclParseInReadReportCfgRspCmd
   2471           * @brief   Parse the "Profile" Read Reporting Configuration Response Command
   2472           *          NOTE: THIS FUNCTION ALLOCATES THE RETURN BUFFER, SO THE CALLING
   2473           *                FUNCTION IS RESPONSIBLE TO FREE THE MEMORY.
   2474           * @param   pCmd - pointer to incoming data to parse
   2475           * @return  pointer to the parsed command structure
   2476           */
   2477          static void *zclParseInReadReportCfgRspCmd( zclParseCmd_t *pCmd )
   2478          {
   2479            zclReadReportCfgRspCmd_t *readReportCfgRspCmd;
   2480            zclReportCfgRspRec_t *reportRspRec;
   2481            uint8 reportChangeLen;
   2482            uint8 *pBuf = pCmd->pData;
   2483            uint8 *dataPtr;
   2484            uint8 numAttr = 0;
   2485            uint8 hdrLen;
   2486            uint8 dataLen = 0;
   2487            uint8 status;
   2488            uint8 direction;
   2489            uint8 dataType;
   2490            uint8 i;
   2491            
   2492            // Calculate the length of the response command
   2493            while ( pBuf < ( pCmd->pData + pCmd->dataLen ) )
   2494            { 
   2495              numAttr++;
   2496              
   2497              status = *pBuf++;
   2498              direction = *pBuf++; 
   2499              pBuf += 2; // move pass the attribute ID
   2500              
   2501              if ( status == ZCL_STATUS_SUCCESS )
   2502              {
   2503                if ( direction == ZCL_SEND_ATTR_REPORTS )
   2504                {
   2505                  dataType = *pBuf++;
   2506                  pBuf += 4; // move pass the Min and Max Reporting Intervals
   2507           
   2508                  // For attributes of 'discrete' data types this field is omitted
   2509                  if ( zclAnalogDataType( dataType ) )
   2510                  {
   2511                    reportChangeLen = zclGetDataTypeLength( dataType );
   2512                    pBuf += reportChangeLen;
   2513                    
   2514                    // add padding if needed
   2515                    if ( PADDING_NEEDED( reportChangeLen ) )
   2516                      reportChangeLen++;
   2517                    dataLen += reportChangeLen;
   2518                  }
   2519                }
   2520                else
   2521                {
   2522                  pBuf += 2; // move pass the Timeout field
   2523                }
   2524              }
   2525            } // while loop
   2526            
   2527            hdrLen = sizeof( zclReadReportCfgRspCmd_t ) + ( numAttr * sizeof( zclReportCfgRspRec_t ) );
   2528            
   2529            readReportCfgRspCmd = (zclReadReportCfgRspCmd_t *)osal_mem_alloc( hdrLen + dataLen );
   2530            if ( readReportCfgRspCmd != NULL )
   2531            {
   2532              pBuf = pCmd->pData;
   2533              dataPtr = (uint8 *)( (uint8 *)readReportCfgRspCmd + hdrLen );
   2534              
   2535              readReportCfgRspCmd->numAttr = numAttr;
   2536              for ( i = 0; i < numAttr; i++ )
   2537              {
   2538                reportRspRec = &(readReportCfgRspCmd->attrList[i]);
   2539                
   2540                reportRspRec->status = *pBuf++;
   2541                reportRspRec->direction = *pBuf++;
   2542                reportRspRec->attrID = BUILD_UINT16( pBuf[0], pBuf[1] );
   2543                pBuf += 2;
   2544           
   2545                if ( reportRspRec->status == ZCL_STATUS_SUCCESS )
   2546                {
   2547                  if ( reportRspRec->direction == ZCL_SEND_ATTR_REPORTS )
   2548                  {
   2549                    reportRspRec->dataType = *pBuf++;
   2550                    reportRspRec->minReportInt = BUILD_UINT16( pBuf[0], pBuf[1] );
   2551                    pBuf += 2;
   2552                    reportRspRec->maxReportInt = BUILD_UINT16( pBuf[0], pBuf[1] );
   2553                    pBuf += 2;
   2554          
   2555                    if ( zclAnalogDataType( reportRspRec->dataType ) )
   2556                    {
   2557                      zcl_BuildAnalogData( reportRspRec->dataType, dataPtr, pBuf);
   2558                      reportRspRec->reportableChange = dataPtr;
   2559                      
   2560                      reportChangeLen = zclGetDataTypeLength( reportRspRec->dataType ); 
   2561                      pBuf += reportChangeLen;
   2562                      
   2563                      // advance attribute data pointer
   2564                      if ( PADDING_NEEDED( reportChangeLen ) )
   2565                        reportChangeLen++;
   2566                      dataPtr += reportChangeLen;
   2567                    }
   2568                  }
   2569                  else
   2570                  {
   2571                    reportRspRec->timeoutPeriod = BUILD_UINT16( pBuf[0], pBuf[1] );
   2572                    pBuf += 2;
   2573                  }
   2574                }
   2575              } 
   2576            }
   2577            
   2578            return ( (void *)readReportCfgRspCmd );
   2579          }
   2580          
   2581          /*********************************************************************
   2582           * @fn      zclParseInReportCmd
   2583           * @brief   Parse the "Profile" Report Command
   2584           *          NOTE: THIS FUNCTION ALLOCATES THE RETURN BUFFER, SO THE CALLING
   2585           *                FUNCTION IS RESPONSIBLE TO FREE THE MEMORY.
   2586           * @param   pCmd - pointer to incoming data to parse
   2587           * @return  pointer to the parsed command structure
   2588           */
   2589          void *zclParseInReportCmd( zclParseCmd_t *pCmd )
   2590          {
   2591            zclReportCmd_t *reportCmd;
   2592            zclReport_t *reportRec;
   2593            uint8 *pBuf = pCmd->pData;
   2594            uint8 attrDataLen;
   2595            uint8 *dataPtr;
   2596            uint8 numAttr = 0;
   2597            uint8 hdrLen;
   2598            uint8 dataLen = 0;
   2599            uint8 dataType;
   2600            uint8 i;
   2601          
   2602            while ( pBuf < ( pCmd->pData + pCmd->dataLen ) ) // find out the number of attributes and the length of attribute data
   2603            {
   2604              numAttr++;
   2605          
   2606              pBuf += 2; // move pass attribute id
   2607              dataType = *pBuf++;
   2608              attrDataLen = zclGetAttrDataLength( dataType, pBuf );
   2609              pBuf += attrDataLen; // move pass attribute data
   2610                
   2611              if ( PADDING_NEEDED( attrDataLen ) ) // add padding if needed
   2612                attrDataLen++;
   2613              dataLen += attrDataLen;
   2614            }
   2615            
   2616            hdrLen = sizeof( zclReportCmd_t ) + ( numAttr * sizeof( zclReport_t ) );
   2617            
   2618            reportCmd = (zclReportCmd_t *)osal_mem_alloc( hdrLen + dataLen );
   2619            if (reportCmd != NULL )
   2620            {
   2621              pBuf = pCmd->pData;
   2622              dataPtr = (uint8 *)( (uint8 *)reportCmd + hdrLen );
   2623              
   2624              reportCmd->numAttr = numAttr;
   2625              for ( i = 0; i < numAttr; i++ )
   2626              {
   2627                reportRec = &(reportCmd->attrList[i]);
   2628                
   2629                reportRec->attrID = BUILD_UINT16( pBuf[0], pBuf[1] );
   2630                pBuf += 2;
   2631                reportRec->dataType = *pBuf++;
   2632          
   2633                attrDataLen = zclGetAttrDataLength( reportRec->dataType, pBuf );  
   2634                osal_memcpy( dataPtr, pBuf, attrDataLen );
   2635                reportRec->attrData = dataPtr;
   2636                
   2637                pBuf += attrDataLen; // move pass attribute data
   2638                
   2639                if ( PADDING_NEEDED( attrDataLen ) ) // advance attribute data pointer
   2640                  attrDataLen++;
   2641                dataPtr += attrDataLen;
   2642              }
   2643            }
   2644            return ( (void *)reportCmd );
   2645          }
   2646          #endif // ZCL_REPORT
   2647          
   2648          /*********************************************************************
   2649           * @fn      zclParseInDefaultRspCmd
   2650           * @brief   Parse the "Profile" Default Response Command
   2651           *          NOTE: THIS FUNCTION ALLOCATES THE RETURN BUFFER, SO THE CALLING
   2652           *                FUNCTION IS RESPONSIBLE TO FREE THE MEMORY.
   2653           * @param   pCmd - pointer to incoming data to parse
   2654           * @return  pointer to the parsed command structure
   2655           */

   \                                 In  segment BANKED_CODE, align 1, keep-with-next
   2656          static void *zclParseInDefaultRspCmd( zclParseCmd_t *pCmd )
   \                     zclParseInDefaultRspCmd:
   2657          {
   \   000000   74F6         MOV     A,#-0xa
   \   000002   12....       LCALL   ?BANKED_ENTER_XDATA
   \   000005                ; Saved register size: 10
   \   000005                ; Auto size: 0
   2658            zclDefaultRspCmd_t *defaultRspCmd;
   2659            uint8 *pBuf = pCmd->pData;
   \   000005   8A82         MOV     DPL,R2
   \   000007   8B83         MOV     DPH,R3
   \   000009   A3           INC     DPTR
   \   00000A   A3           INC     DPTR
   \   00000B   A3           INC     DPTR
   \   00000C   12....       LCALL   ?Subroutine40 & 0xFFFF
   2660          
   2661            defaultRspCmd = (zclDefaultRspCmd_t *)osal_mem_alloc( sizeof ( zclDefaultRspCmd_t ) );
   \                     ??CrossCallReturnLabel_50:
   \   00000F                ; Setup parameters for call to function osal_mem_alloc
   \   00000F   7A02         MOV     R2,#0x2
   \   000011   7B00         MOV     R3,#0x0
   \   000013   12....       LCALL   ??osal_mem_alloc?relay
   2662            if ( defaultRspCmd != NULL )
   \   000016   EA           MOV     A,R2
   \   000017   7001         JNZ     ??zclParseInDefaultRspCmd_0
   \   000019   EB           MOV     A,R3
   \                     ??zclParseInDefaultRspCmd_0:
   \   00001A   600D         JZ      ??zclParseInDefaultRspCmd_1
   2663            {
   2664              defaultRspCmd->commandID = *pBuf++;
   \   00001C   8E82         MOV     DPL,R6
   \   00001E   8F83         MOV     DPH,R7
   \   000020   E0           MOVX    A,@DPTR
   \   000021   12....       LCALL   ?Subroutine7 & 0xFFFF
   2665              defaultRspCmd->statusCode = *pBuf;
   \                     ??CrossCallReturnLabel_213:
   \   000024   12....       LCALL   ??Subroutine137_0 & 0xFFFF
   2666            }
   \                     ??CrossCallReturnLabel_226:
   \   000027   A3           INC     DPTR
   \   000028   F0           MOVX    @DPTR,A
   2667            return ( (void *)defaultRspCmd );
   \                     ??zclParseInDefaultRspCmd_1:
   \   000029   02....       LJMP    ?Subroutine114 & 0xFFFF
   2668          }

   \                                 In  segment BANKED_CODE, align 1, keep-with-next
   \                     ?Subroutine7:
   \   000000   8A82         MOV     DPL,R2
   \   000002   8B83         MOV     DPH,R3
   \   000004                REQUIRE ??Subroutine134_0
   \   000004                ; // Fall through to label ??Subroutine134_0
   2669          
   2670          #ifdef ZCL_DISCOVER
   2671          /*********************************************************************
   2672           * @fn      zclParseInDiscCmd
   2673           * @brief   Parse the "Profile" Discovery Commands
   2674           *          NOTE: THIS FUNCTION ALLOCATES THE RETURN BUFFER, SO THE CALLING
   2675           *                FUNCTION IS RESPONSIBLE TO FREE THE MEMORY.
   2676           * @param   pCmd - pointer to incoming data to parse
   2677           * @return  pointer to the parsed command structure
   2678           */
   2679          void *zclParseInDiscCmd( zclParseCmd_t *pCmd )
   2680          {
   2681            zclDiscoverCmd_t *discoverCmd;
   2682            uint8 *pBuf = pCmd->pData;
   2683          
   2684            discoverCmd = (zclDiscoverCmd_t *)osal_mem_alloc( sizeof ( zclDiscoverCmd_t ) );
   2685            if ( discoverCmd != NULL )
   2686            {
   2687              discoverCmd->startAttr = BUILD_UINT16( pBuf[0], pBuf[1] );
   2688              pBuf += 2;
   2689              discoverCmd->maxAttrIDs = *pBuf;
   2690            }
   2691            return ( (void *)discoverCmd );
   2692          }
   2693          
   2694          /*********************************************************************
   2695           * @fn      zclParseInDiscRspCmd
   2696           * @brief   Parse the "Profile" Discovery Response Commands
   2697           *          NOTE: THIS FUNCTION ALLOCATES THE RETURN BUFFER, SO THE CALLING
   2698           *                FUNCTION IS RESPONSIBLE TO FREE THE MEMORY.
   2699           * @param   pCmd - pointer to incoming data to parse
   2700           * @return  pointer to the parsed command structure
   2701           */
   2702          #define ZCLDISCRSPCMD_DATALEN(a)  ((a)-1) // data len - Discovery Complete
   2703          static void *zclParseInDiscRspCmd( zclParseCmd_t *pCmd )
   2704          {
   2705            zclDiscoverRspCmd_t *discoverRspCmd;
   2706            uint8 *pBuf = pCmd->pData;
   2707            uint8 numAttr = ZCLDISCRSPCMD_DATALEN(pCmd->dataLen) / ( 2 + 1 ); // Attr ID + Data Type
   2708            uint8 i;
   2709          
   2710            discoverRspCmd = (zclDiscoverRspCmd_t *)osal_mem_alloc( sizeof ( zclDiscoverRspCmd_t ) 
   2711                                                           + ( numAttr * sizeof(zclDiscoverInfo_t) ) );
   2712            if ( discoverRspCmd != NULL )
   2713            {
   2714              discoverRspCmd->discComplete = *pBuf++;
   2715              discoverRspCmd->numAttr = numAttr;
   2716              
   2717              for ( i = 0; i < numAttr; i++ )
   2718              {
   2719                discoverRspCmd->attrList[i].attrID = BUILD_UINT16( pBuf[0], pBuf[1] );
   2720                pBuf += 2;
   2721                discoverRspCmd->attrList[i].dataType = *pBuf++;;
   2722              }
   2723            }
   2724            return ( (void *)discoverRspCmd );
   2725          }
   2726          #endif // ZCL_DISCOVER
   2727          
   2728          #ifdef ZCL_READ
   2729          /*********************************************************************
   2730           * @fn      zclProcessInReadCmd
   2731           * @brief   Process the "Profile" Read Command
   2732           * @param   pInMsg - incoming message to process
   2733           * @return  TRUE if command processed. FALSE, otherwise.
   2734           */

   \                                 In  segment BANKED_CODE, align 1, keep-with-next
   2735          static uint8 zclProcessInReadCmd( zclIncoming_t *pInMsg )
   \                     zclProcessInReadCmd:
   2736          {
   \   000000   74EA         MOV     A,#-0x16
   \   000002   12....       LCALL   ?BANKED_ENTER_XDATA
   \   000005                ; Saved register size: 22
   \   000005                ; Auto size: 8
   \   000005   74F8         MOV     A,#-0x8
   \   000007   12....       LCALL   ?ALLOC_XSTACK8
   \   00000A   8A..         MOV     ?V0 + 4,R2
   \   00000C   8B..         MOV     ?V0 + 5,R3
   2737            zclReadCmd_t *readCmd;
   2738            zclReadRspCmd_t *readRspCmd;
   2739            zclReadRspStatus_t *statusRec;
   2740            zclAttrRec_t attrRec;
   2741            uint8 len;
   2742            uint8 i;
   2743            
   2744            readCmd = (zclReadCmd_t *)pInMsg->attrCmd;
   \   00000E   12....       LCALL   ?Subroutine67 & 0xFFFF
   \                     ??CrossCallReturnLabel_262:
   \   000011   F5..         MOV     ?V0 + 2,A
   \   000013   A3           INC     DPTR
   \   000014   E0           MOVX    A,@DPTR
   \   000015   F5..         MOV     ?V0 + 3,A
   2745            
   2746            // calculate the length of the response status record
   2747            len = sizeof( zclReadRspCmd_t ) + (readCmd->numAttr * sizeof( zclReadRspStatus_t ));
   2748            
   2749            readRspCmd = osal_mem_alloc( len );
   \   000017                ; Setup parameters for call to function osal_mem_alloc
   \   000017   75F006       MOV     B,#0x6
   \   00001A   85..82       MOV     DPL,?V0 + 2
   \   00001D   F583         MOV     DPH,A
   \   00001F   E0           MOVX    A,@DPTR
   \   000020   A4           MUL     AB
   \   000021   04           INC     A
   \   000022   FA           MOV     R2,A
   \   000023   7B00         MOV     R3,#0x0
   \   000025   12....       LCALL   ??Subroutine131_0 & 0xFFFF
   2750            if ( readRspCmd == NULL )
   \                     ??CrossCallReturnLabel_195:
   \   000028   7001         JNZ     ??zclProcessInReadCmd_0
   \   00002A   EB           MOV     A,R3
   \                     ??zclProcessInReadCmd_0:
   \   00002B   7005         JNZ     ??zclProcessInReadCmd_1
   2751              return FALSE; // EMBEDDED RETURN
   \   00002D   7900         MOV     R1,#0x0
   \   00002F   02....       LJMP    ??zclProcessInReadCmd_2 & 0xFFFF
   2752          
   2753            readRspCmd->numAttr = readCmd->numAttr;
   \                     ??zclProcessInReadCmd_1:
   \   000032   85..82       MOV     DPL,?V0 + 2
   \   000035   85..83       MOV     DPH,?V0 + 3
   \   000038   12....       LCALL   ??Subroutine137_0 & 0xFFFF
   \                     ??CrossCallReturnLabel_227:
   \   00003B   F0           MOVX    @DPTR,A
   2754            for (i = 0; i < readCmd->numAttr; i++)
   \   00003C   75..00       MOV     ?V0 + 6,#0x0
   \   00003F   800B         SJMP    ??zclProcessInReadCmd_3
   2755            {
   2756              statusRec = &(readRspCmd->attrList[i]);
   2757              statusRec->attrID = readCmd->attrID[i];
   2758              
   2759              if ( zclFindAttrRec( pInMsg->msg->endPoint, pInMsg->msg->clusterId, readCmd->attrID[i], &attrRec ) )
   2760              {
   2761                statusRec->data = attrRec.attr.dataPtr;
   2762                statusRec->status = ZCL_STATUS_SUCCESS;
   2763                statusRec->dataType = attrRec.attr.dataType;
   2764              }
   2765              else
   2766              {
   2767                statusRec->status = ZCL_STATUS_UNSUPPORTED_ATTRIBUTE;
   \                     ??zclProcessInReadCmd_4:
   \   000041   7486         MOV     A,#-0x7a
   \   000043   85..82       MOV     DPL,?V0 + 10
   \   000046   85..83       MOV     DPH,?V0 + 11
   \                     ??zclProcessInReadCmd_5:
   \   000049   F0           MOVX    @DPTR,A
   2768              }
   \   00004A   05..         INC     ?V0 + 6
   \                     ??zclProcessInReadCmd_3:
   \   00004C   85..82       MOV     DPL,?V0 + 2
   \   00004F   85..83       MOV     DPH,?V0 + 3
   \   000052   E0           MOVX    A,@DPTR
   \   000053   FA           MOV     R2,A
   \   000054   E5..         MOV     A,?V0 + 6
   \   000056   C3           CLR     C
   \   000057   9A           SUBB    A,R2
   \   000058   4003         JC      $+5
   \   00005A   02....       LJMP    ??zclProcessInReadCmd_6 & 0xFFFF
   \   00005D   85..82       MOV     DPL,?V0 + 6
   \   000060   A882         MOV     R0,DPL
   \   000062   E8           MOV     A,R0
   \   000063   75F006       MOV     B,#0x6
   \   000066   A4           MUL     AB
   \   000067   FA           MOV     R2,A
   \   000068   ABF0         MOV     R3,B
   \   00006A   E5..         MOV     A,?V0 + 0
   \   00006C   2A           ADD     A,R2
   \   00006D   F582         MOV     DPL,A
   \   00006F   E5..         MOV     A,?V0 + 1
   \   000071   3B           ADDC    A,R3
   \   000072   F583         MOV     DPH,A
   \   000074   A3           INC     DPTR
   \   000075   AE82         MOV     R6,DPL
   \   000077   AF83         MOV     R7,DPH
   \   000079   E8           MOV     A,R0
   \   00007A   C3           CLR     C
   \   00007B   33           RLC     A
   \   00007C   F8           MOV     R0,A
   \   00007D   E4           CLR     A
   \   00007E   33           RLC     A
   \   00007F   F9           MOV     R1,A
   \   000080   12....       LCALL   ?Subroutine102 & 0xFFFF
   \                     ??CrossCallReturnLabel_138:
   \   000083   AA82         MOV     R2,DPL
   \   000085   AB83         MOV     R3,DPH
   \   000087   12....       LCALL   ?Subroutine55 & 0xFFFF
   \                     ??CrossCallReturnLabel_221:
   \   00008A   12....       LCALL   ??Subroutine138_0 & 0xFFFF
   \                     ??CrossCallReturnLabel_234:
   \   00008D   EE           MOV     A,R6
   \   00008E   2402         ADD     A,#0x2
   \   000090   F5..         MOV     ?V0 + 10,A
   \   000092   EF           MOV     A,R7
   \   000093   3400         ADDC    A,#0x0
   \   000095   F5..         MOV     ?V0 + 11,A
   \   000097   12....       LCALL   ?Subroutine83 & 0xFFFF
   \                     ??CrossCallReturnLabel_274:
   \   00009A                ; Setup parameters for call to function zclFindAttrRec
   \   00009A   85..82       MOV     DPL,?XSP + 0
   \   00009D   85..83       MOV     DPH,?XSP + 1
   \   0000A0   8582..       MOV     ?V0 + 12,DPL
   \   0000A3   8583..       MOV     ?V0 + 13,DPH
   \   0000A6   78..         MOV     R0,#?V0 + 12
   \   0000A8   12....       LCALL   ?PUSH_XSTACK_I_TWO
   \   0000AB   8A82         MOV     DPL,R2
   \   0000AD   8B83         MOV     DPH,R3
   \   0000AF   12....       LCALL   ??Subroutine141_0 & 0xFFFF
   \                     ??CrossCallReturnLabel_250:
   \   0000B2   12....       LCALL   ?DEALLOC_XSTACK8
   \   0000B5   E9           MOV     A,R1
   \   0000B6   6089         JZ      ??zclProcessInReadCmd_4
   \   0000B8   7406         MOV     A,#0x6
   \   0000BA   12....       LCALL   ?XSTACK_DISP0_8
   \   0000BD   12....       LCALL   ?Subroutine55 & 0xFFFF
   \                     ??CrossCallReturnLabel_222:
   \   0000C0   A3           INC     DPTR
   \   0000C1   A3           INC     DPTR
   \   0000C2   A3           INC     DPTR
   \   0000C3   A3           INC     DPTR
   \   0000C4   12....       LCALL   ??Subroutine138_0 & 0xFFFF
   \                     ??CrossCallReturnLabel_235:
   \   0000C7   E4           CLR     A
   \   0000C8   85..82       MOV     DPL,?V0 + 10
   \   0000CB   85..83       MOV     DPH,?V0 + 11
   \   0000CE   F0           MOVX    @DPTR,A
   \   0000CF   7404         MOV     A,#0x4
   \   0000D1   12....       LCALL   ?XSTACK_DISP0_8
   \   0000D4   E0           MOVX    A,@DPTR
   \   0000D5   8E82         MOV     DPL,R6
   \   0000D7   8F83         MOV     DPH,R7
   \   0000D9   A3           INC     DPTR
   \   0000DA   A3           INC     DPTR
   \   0000DB   A3           INC     DPTR
   \   0000DC   02....       LJMP    ??zclProcessInReadCmd_5 & 0xFFFF
   2769            }
   2770            
   2771            // Build and send Read Response command
   2772            zcl_SendReadRsp( pInMsg->msg->endPoint, &(pInMsg->msg->srcAddr), pInMsg->msg->clusterId,
   2773                             readRspCmd, ZCL_FRAME_SERVER_CLIENT_DIR,
   2774                             true, pInMsg->hdr.transSeqNum );
   \                     ??zclProcessInReadCmd_6:
   \   0000DF   12....       LCALL   ?Subroutine83 & 0xFFFF
   \                     ??CrossCallReturnLabel_275:
   \   0000E2                ; Setup parameters for call to function zcl_SendReadRsp
   \   0000E2   85..82       MOV     DPL,?V0 + 4
   \   0000E5   85..83       MOV     DPH,?V0 + 5
   \   0000E8   A3           INC     DPTR
   \   0000E9   A3           INC     DPTR
   \   0000EA   A3           INC     DPTR
   \   0000EB   A3           INC     DPTR
   \   0000EC   A3           INC     DPTR
   \   0000ED   A3           INC     DPTR
   \   0000EE   E0           MOVX    A,@DPTR
   \   0000EF   F5..         MOV     ?V0 + 2,A
   \   0000F1   78..         MOV     R0,#?V0 + 2
   \   0000F3   12....       LCALL   ?PUSH_XSTACK_I_ONE
   \   0000F6   75..01       MOV     ?V0 + 2,#0x1
   \   0000F9   78..         MOV     R0,#?V0 + 2
   \   0000FB   12....       LCALL   ?PUSH_XSTACK_I_ONE
   \   0000FE   78..         MOV     R0,#?V0 + 2
   \   000100   12....       LCALL   ?PUSH_XSTACK_I_ONE
   \   000103   78..         MOV     R0,#?V0 + 0
   \   000105   12....       LCALL   ?PUSH_XSTACK_I_TWO
   \   000108   85..82       MOV     DPL,?V0 + 8
   \   00010B   85..83       MOV     DPH,?V0 + 9
   \   00010E   12....       LCALL   ??Subroutine145_0 & 0xFFFF
   \                     ??CrossCallReturnLabel_283:
   \   000111   E5..         MOV     A,?V0 + 8
   \   000113   2406         ADD     A,#0x6
   \   000115   FA           MOV     R2,A
   \   000116   E5..         MOV     A,?V0 + 9
   \   000118   3400         ADDC    A,#0x0
   \   00011A   FB           MOV     R3,A
   \   00011B   E5..         MOV     A,?V0 + 8
   \   00011D   2414         ADD     A,#0x14
   \   00011F   F582         MOV     DPL,A
   \   000121   E5..         MOV     A,?V0 + 9
   \   000123   12....       LCALL   ??Subroutine142_0 & 0xFFFF
   \                     ??CrossCallReturnLabel_260:
   \   000126   F9           MOV     R1,A
   \   000127   12....       LCALL   ??zcl_SendReadRsp?relay
   \   00012A   7405         MOV     A,#0x5
   \   00012C   12....       LCALL   ?DEALLOC_XSTACK8
   2775            osal_mem_free( readRspCmd );
   \   00012F                ; Setup parameters for call to function osal_mem_free
   \   00012F   AA..         MOV     R2,?V0 + 0
   \   000131   AB..         MOV     R3,?V0 + 1
   \   000133   12....       LCALL   ??osal_mem_free?relay
   2776              
   2777            return TRUE;
   \   000136   7901         MOV     R1,#0x1
   \                     ??zclProcessInReadCmd_2:
   \   000138   7408         MOV     A,#0x8
   \   00013A   12....       LCALL   ?DEALLOC_XSTACK8
   \   00013D   02....       LJMP    ??Subroutine123_0 & 0xFFFF
   2778          }

   \                                 In  segment BANKED_CODE, align 1, keep-with-next
   \                     ?Subroutine83:
   \   000000   85..82       MOV     DPL,?V0 + 4
   \   000003   85..83       MOV     DPH,?V0 + 5
   \   000006                REQUIRE ??Subroutine135_0
   \   000006                ; // Fall through to label ??Subroutine135_0

   \                                 In  segment BANKED_CODE, align 1, keep-with-next
   \                     ??Subroutine135_0:
   \   000000   E0           MOVX    A,@DPTR
   \   000001   F5..         MOV     ?V0 + 8,A
   \   000003   A3           INC     DPTR
   \   000004   E0           MOVX    A,@DPTR
   \   000005   F5..         MOV     ?V0 + 9,A
   \   000007   22           RET

   \                                 In  segment BANKED_CODE, align 1, keep-with-next
   \                     ?Subroutine55:
   \   000000   E0           MOVX    A,@DPTR
   \   000001                REQUIRE ??Subroutine136_0
   \   000001                ; // Fall through to label ??Subroutine136_0

   \                                 In  segment BANKED_CODE, align 1, keep-with-next
   \                     ??Subroutine141_0:
   \   000000   12....       LCALL   ?Subroutine87 & 0xFFFF
   \                     ??CrossCallReturnLabel_291:
   \   000003   FD           MOV     R5,A
   \   000004   85..82       MOV     DPL,?V0 + 8
   \   000007   85..83       MOV     DPH,?V0 + 9
   \   00000A   A3           INC     DPTR
   \   00000B   12....       LCALL   ?Subroutine82 & 0xFFFF
   \                     ??CrossCallReturnLabel_258:
   \   00000E   E5..         MOV     A,?V0 + 8
   \   000010   2414         ADD     A,#0x14
   \   000012   F582         MOV     DPL,A
   \   000014   E5..         MOV     A,?V0 + 9
   \   000016   3400         ADDC    A,#0x0
   \   000018   F583         MOV     DPH,A
   \   00001A   E0           MOVX    A,@DPTR
   \   00001B   F9           MOV     R1,A
   \   00001C   12....       LCALL   ??zclFindAttrRec?relay
   \   00001F   7402         MOV     A,#0x2
   \   000021   22           RET

   \                                 In  segment BANKED_CODE, align 1, keep-with-next
   \                     ?Subroutine67:
   \   000000   EA           MOV     A,R2
   \   000001   240C         ADD     A,#0xc
   \   000003   F582         MOV     DPL,A
   \   000005   EB           MOV     A,R3
   \   000006                REQUIRE ??Subroutine142_0
   \   000006                ; // Fall through to label ??Subroutine142_0
   2779          #endif // ZCL_READ
   2780          
   2781          #ifdef ZCL_WRITE
   2782          /*********************************************************************
   2783           * @fn      processInWriteCmd
   2784           * @brief   Process the "Profile" Write and Write No Response Commands
   2785           * @param   pInMsg - incoming message to process
   2786           * @return  TRUE if command processed. FALSE, otherwise.
   2787           */

   \                                 In  segment BANKED_CODE, align 1, keep-with-next
   \                     ?Subroutine13:
   \   000000   F9           MOV     R1,A
   \   000001   85..82       MOV     DPL,?XSP + 0
   \   000004   85..83       MOV     DPH,?XSP + 1
   \   000007                REQUIRE ??Subroutine138_0
   \   000007                ; // Fall through to label ??Subroutine138_0

   \                                 In  segment BANKED_CODE, align 1, keep-with-next
   2788          static uint8 zclProcessInWriteCmd( zclIncoming_t *pInMsg )
   \                     zclProcessInWriteCmd:
   2789          {
   \   000000   74E8         MOV     A,#-0x18
   \   000002   12....       LCALL   ?BANKED_ENTER_XDATA
   \   000005                ; Saved register size: 24
   \   000005                ; Auto size: 10
   \   000005   74F6         MOV     A,#-0xa
   \   000007   12....       LCALL   ?ALLOC_XSTACK8
   \   00000A   8A..         MOV     ?V0 + 6,R2
   \   00000C   8B..         MOV     ?V0 + 7,R3
   2790            zclWriteCmd_t *writeCmd;
   2791            zclWriteRec_t *statusRec;
   2792            zclWriteRspCmd_t *writeRspCmd;
   2793            zclAttrRec_t attrRec;
   2794            uint8 sendRsp = FALSE;
   \   00000E   75..00       MOV     ?V0 + 4,#0x0
   2795            uint8 status;
   2796            uint8 i, j = 0;
   \   000011   75..00       MOV     ?V0 + 2,#0x0
   2797          
   2798            writeCmd = (zclWriteCmd_t *)pInMsg->attrCmd;
   \   000014   12....       LCALL   ?Subroutine67 & 0xFFFF
   \                     ??CrossCallReturnLabel_263:
   \   000017   F8           MOV     R0,A
   \   000018   A3           INC     DPTR
   \   000019   E0           MOVX    A,@DPTR
   \   00001A   12....       LCALL   ?Subroutine13 & 0xFFFF
   2799            if ( pInMsg->hdr.commandID == ZCL_CMD_WRITE )
   \                     ??CrossCallReturnLabel_238:
   \   00001D   8A82         MOV     DPL,R2
   \   00001F   8B83         MOV     DPH,R3
   \   000021   A3           INC     DPTR
   \   000022   A3           INC     DPTR
   \   000023   A3           INC     DPTR
   \   000024   A3           INC     DPTR
   \   000025   A3           INC     DPTR
   \   000026   A3           INC     DPTR
   \   000027   A3           INC     DPTR
   \   000028   E0           MOVX    A,@DPTR
   \   000029   6402         XRL     A,#0x2
   \   00002B   7013         JNZ     ??zclProcessInWriteCmd_0
   2800            {
   2801              // We need to send a response back - allocate space for it
   2802              writeRspCmd = (zclWriteRspCmd_t *)osal_mem_alloc( sizeof( zclWriteRspCmd_t ) 
   2803                      + sizeof( zclWriteRspStatus_t ) * writeCmd->numAttr );
   \   00002D                ; Setup parameters for call to function osal_mem_alloc
   \   00002D   12....       LCALL   ?Subroutine48 & 0xFFFF
   \                     ??CrossCallReturnLabel_241:
   \   000030   12....       LCALL   ?Subroutine25 & 0xFFFF
   2804              if ( writeRspCmd == NULL )
   \                     ??CrossCallReturnLabel_30:
   \   000033   7001         JNZ     ??zclProcessInWriteCmd_1
   \   000035   EB           MOV     A,R3
   \                     ??zclProcessInWriteCmd_1:
   \   000036   7005         JNZ     ??zclProcessInWriteCmd_2
   2805                return FALSE; // EMBEDDED RETURN
   \   000038   7900         MOV     R1,#0x0
   \   00003A   02....       LJMP    ??zclProcessInWriteCmd_3 & 0xFFFF
   2806              sendRsp = TRUE;
   \                     ??zclProcessInWriteCmd_2:
   \   00003D   75..01       MOV     ?V0 + 4,#0x1
   2807            }
   2808            
   2809            for (i = 0; i < writeCmd->numAttr; i++)
   \                     ??zclProcessInWriteCmd_0:
   \   000040   75..00       MOV     ?V0 + 3,#0x0
   \   000043   801F         SJMP    ??zclProcessInWriteCmd_4
   2810            {
   2811              statusRec = &(writeCmd->attrList[i]);
   2812              if ( zclFindAttrRec( pInMsg->msg->endPoint, pInMsg->msg->clusterId, statusRec->attrID, &attrRec ) )
   2813              {
   2814                if ( statusRec->dataType == attrRec.attr.dataType )
   2815                {
   2816                  status = zclWriteAttrData( &attrRec, statusRec );
   2817          
   2818                  if ( sendRsp && status != ZCL_STATUS_SUCCESS ) // If successful, a write attribute status record shall NOT be generated
   2819                  {
   2820                    writeRspCmd->attrList[j].status = status; // Attribute is read only - move on to the next write attribute record
   2821                    writeRspCmd->attrList[j++].attrID = statusRec->attrID;
   2822                  }
   2823                }
   2824                else
   2825                {
   2826                  if ( sendRsp ) // Attribute data type is incorrect - move on to the next write attribute record
   2827                  {
   2828                    writeRspCmd->attrList[j].status = ZCL_STATUS_INVALID_DATA_TYPE;
   2829                    writeRspCmd->attrList[j++].attrID = statusRec->attrID;
   2830                  }
   2831                }
   2832              }
   2833              else
   2834              {
   2835                if ( sendRsp ) // Attribute is not supported - move on to the next write attribute record
   \                     ??zclProcessInWriteCmd_5:
   \   000045   E5..         MOV     A,?V0 + 4
   \   000047   6019         JZ      ??zclProcessInWriteCmd_6
   2836                {
   2837                  writeRspCmd->attrList[j].status = ZCL_STATUS_UNSUPPORTED_ATTRIBUTE;
   \   000049   7486         MOV     A,#-0x7a
   \                     ??zclProcessInWriteCmd_7:
   \   00004B   85..82       MOV     DPL,?V0 + 14
   \   00004E   85..83       MOV     DPH,?V0 + 15
   2838                  writeRspCmd->attrList[j++].attrID = statusRec->attrID;
   2839                }
   2840              }
   \   000051   12....       LCALL   ?Subroutine98 & 0xFFFF
   \                     ??CrossCallReturnLabel_216:
   \   000054   12....       LCALL   ?Subroutine56 & 0xFFFF
   \                     ??CrossCallReturnLabel_77:
   \   000057   85..82       MOV     DPL,?V0 + 12
   \   00005A   85..83       MOV     DPH,?V0 + 13
   \   00005D   12....       LCALL   ??Subroutine138_0 & 0xFFFF
   \                     ??CrossCallReturnLabel_236:
   \   000060   05..         INC     ?V0 + 2
   \                     ??zclProcessInWriteCmd_6:
   \   000062   05..         INC     ?V0 + 3
   \                     ??zclProcessInWriteCmd_4:
   \   000064   12....       LCALL   ?Subroutine48 & 0xFFFF
   \                     ??CrossCallReturnLabel_242:
   \   000067   E0           MOVX    A,@DPTR
   \   000068   FA           MOV     R2,A
   \   000069   E5..         MOV     A,?V0 + 3
   \   00006B   C3           CLR     C
   \   00006C   9A           SUBB    A,R2
   \   00006D   4003         JC      $+5
   \   00006F   02....       LJMP    ??zclProcessInWriteCmd_8 & 0xFFFF
   \   000072   E5..         MOV     A,?V0 + 3
   \   000074   75F005       MOV     B,#0x5
   \   000077   A4           MUL     AB
   \   000078   F8           MOV     R0,A
   \   000079   A9F0         MOV     R1,B
   \   00007B   85..82       MOV     DPL,?XSP + 0
   \   00007E   85..83       MOV     DPH,?XSP + 1
   \   000081   E0           MOVX    A,@DPTR
   \   000082   28           ADD     A,R0
   \   000083   FA           MOV     R2,A
   \   000084   A3           INC     DPTR
   \   000085   E0           MOVX    A,@DPTR
   \   000086   39           ADDC    A,R1
   \   000087   8A82         MOV     DPL,R2
   \   000089   F583         MOV     DPH,A
   \   00008B   A3           INC     DPTR
   \   00008C   AE82         MOV     R6,DPL
   \   00008E   AF83         MOV     R7,DPH
   \   000090   E5..         MOV     A,?V0 + 2
   \   000092   75F003       MOV     B,#0x3
   \   000095   12....       LCALL   ?Subroutine95 & 0xFFFF
   \                     ??CrossCallReturnLabel_126:
   \   000098   E582         MOV     A,DPL
   \   00009A   2402         ADD     A,#0x2
   \   00009C   F5..         MOV     ?V0 + 12,A
   \   00009E   E583         MOV     A,DPH
   \   0000A0   3400         ADDC    A,#0x0
   \   0000A2   F5..         MOV     ?V0 + 13,A
   \   0000A4   A3           INC     DPTR
   \   0000A5   8582..       MOV     ?V0 + 14,DPL
   \   0000A8   8583..       MOV     ?V0 + 15,DPH
   \   0000AB   85..82       MOV     DPL,?V0 + 6
   \   0000AE   85..83       MOV     DPH,?V0 + 7
   \   0000B1   12....       LCALL   ??Subroutine144_0 & 0xFFFF
   \                     ??CrossCallReturnLabel_271:
   \   0000B4   12....       LCALL   ?XSTACK_DISP0_8
   \   0000B7   8582..       MOV     ?V0 + 10,DPL
   \   0000BA   8583..       MOV     ?V0 + 11,DPH
   \   0000BD   78..         MOV     R0,#?V0 + 10
   \   0000BF   12....       LCALL   ?PUSH_XSTACK_I_TWO
   \   0000C2   8E82         MOV     DPL,R6
   \   0000C4   8F83         MOV     DPH,R7
   \   0000C6   12....       LCALL   ??Subroutine141_0 & 0xFFFF
   \                     ??CrossCallReturnLabel_251:
   \   0000C9   12....       LCALL   ?DEALLOC_XSTACK8
   \   0000CC   E9           MOV     A,R1
   \   0000CD   7003         JNZ     $+5
   \   0000CF   02....       LJMP    ??zclProcessInWriteCmd_5 & 0xFFFF
   \   0000D2   8E82         MOV     DPL,R6
   \   0000D4   8F83         MOV     DPH,R7
   \   0000D6   A3           INC     DPTR
   \   0000D7   A3           INC     DPTR
   \   0000D8   E0           MOVX    A,@DPTR
   \   0000D9   FA           MOV     R2,A
   \   0000DA   7406         MOV     A,#0x6
   \   0000DC   12....       LCALL   ?XSTACK_DISP0_8
   \   0000DF   E0           MOVX    A,@DPTR
   \   0000E0   6A           XRL     A,R2
   \   0000E1   7022         JNZ     ??zclProcessInWriteCmd_9
   \   0000E3                ; Setup parameters for call to function zclWriteAttrData
   \   0000E3   EE           MOV     A,R6
   \   0000E4   FC           MOV     R4,A
   \   0000E5   EF           MOV     A,R7
   \   0000E6   FD           MOV     R5,A
   \   0000E7   7402         MOV     A,#0x2
   \   0000E9   12....       LCALL   ?XSTACK_DISP0_8
   \   0000EC   AA82         MOV     R2,DPL
   \   0000EE   AB83         MOV     R3,DPH
   \   0000F0   12....       LCALL   ??zclWriteAttrData?relay
   \   0000F3   E9           MOV     A,R1
   \   0000F4   FA           MOV     R2,A
   \   0000F5   E5..         MOV     A,?V0 + 4
   \   0000F7   7003         JNZ     $+5
   \   0000F9   02....       LJMP    ??zclProcessInWriteCmd_6 & 0xFFFF
   \   0000FC   EA           MOV     A,R2
   \   0000FD   7003         JNZ     $+5
   \   0000FF   02....       LJMP    ??zclProcessInWriteCmd_6 & 0xFFFF
   \   000102   02....       LJMP    ??zclProcessInWriteCmd_7 & 0xFFFF
   \                     ??zclProcessInWriteCmd_9:
   \   000105   E5..         MOV     A,?V0 + 4
   \   000107   7003         JNZ     $+5
   \   000109   02....       LJMP    ??zclProcessInWriteCmd_6 & 0xFFFF
   \   00010C   748D         MOV     A,#-0x73
   \   00010E   02....       LJMP    ??zclProcessInWriteCmd_7 & 0xFFFF
   2841            } // for loop
   2842          
   2843            if ( sendRsp )
   \                     ??zclProcessInWriteCmd_8:
   \   000111   E5..         MOV     A,?V0 + 4
   \   000113   604A         JZ      ??zclProcessInWriteCmd_10
   2844            {
   2845              writeRspCmd->numAttr = j;
   \   000115   85..82       MOV     DPL,?V0 + 0
   \   000118   85..83       MOV     DPH,?V0 + 1
   \   00011B   E5..         MOV     A,?V0 + 2
   \   00011D   F0           MOVX    @DPTR,A
   2846              if ( writeRspCmd->numAttr == 0 )
   \   00011E   7003         JNZ     ??CrossCallReturnLabel_12
   2847              {
   2848                // Since all records were written successful, include a single status record in the resonse command 
   2849                // with the status field set to SUCCESS and the attribute ID field omitted.
   2850                writeRspCmd->attrList[0].status = ZCL_STATUS_SUCCESS;
   \   000120   12....       LCALL   ?Subroutine10 & 0xFFFF
   2851                writeRspCmd->numAttr = 1;
   2852              }
   2853              zcl_SendWriteRsp( pInMsg->msg->endPoint, &(pInMsg->msg->srcAddr),
   2854                                pInMsg->msg->clusterId, writeRspCmd, ZCL_FRAME_SERVER_CLIENT_DIR, 
   2855                                true, pInMsg->hdr.transSeqNum );
   \                     ??CrossCallReturnLabel_12:
   \   000123   85..82       MOV     DPL,?V0 + 6
   \   000126   85..83       MOV     DPH,?V0 + 7
   \   000129   12....       LCALL   ?Subroutine40 & 0xFFFF
   \                     ??CrossCallReturnLabel_51:
   \   00012C                ; Setup parameters for call to function zcl_SendWriteRsp
   \   00012C   85..82       MOV     DPL,?V0 + 6
   \   00012F   85..83       MOV     DPH,?V0 + 7
   \   000132   A3           INC     DPTR
   \   000133   A3           INC     DPTR
   \   000134   A3           INC     DPTR
   \   000135   A3           INC     DPTR
   \   000136   A3           INC     DPTR
   \   000137   A3           INC     DPTR
   \   000138   E0           MOVX    A,@DPTR
   \   000139   F5..         MOV     ?V0 + 2,A
   \   00013B   78..         MOV     R0,#?V0 + 2
   \   00013D   12....       LCALL   ?PUSH_XSTACK_I_ONE
   \   000140   75..01       MOV     ?V0 + 2,#0x1
   \   000143   78..         MOV     R0,#?V0 + 2
   \   000145   12....       LCALL   ?PUSH_XSTACK_I_ONE
   \   000148   78..         MOV     R0,#?V0 + 2
   \   00014A   12....       LCALL   ?PUSH_XSTACK_I_ONE
   \   00014D   78..         MOV     R0,#?V0 + 0
   \   00014F   12....       LCALL   ?PUSH_XSTACK_I_TWO
   \   000152   12....       LCALL   ?Subroutine23 & 0xFFFF
   \                     ??CrossCallReturnLabel_26:
   \   000155   12....       LCALL   ?DEALLOC_XSTACK8
   2856              osal_mem_free( writeRspCmd );
   \   000158                ; Setup parameters for call to function osal_mem_free
   \   000158   AA..         MOV     R2,?V0 + 0
   \   00015A   AB..         MOV     R3,?V0 + 1
   \   00015C   12....       LCALL   ??osal_mem_free?relay
   2857            }
   2858            return TRUE; 
   \                     ??zclProcessInWriteCmd_10:
   \   00015F   7901         MOV     R1,#0x1
   \                     ??zclProcessInWriteCmd_3:
   \   000161   740A         MOV     A,#0xa
   \   000163   02....       LJMP    ??Subroutine122_0 & 0xFFFF
   2859          }

   \                                 In  segment BANKED_CODE, align 1, keep-with-next
   \                     ?Subroutine48:
   \   000000   85..82       MOV     DPL,?XSP + 0
   \   000003   85..83       MOV     DPH,?XSP + 1
   \   000006                REQUIRE ??Subroutine140_0
   \   000006                ; // Fall through to label ??Subroutine140_0

   \                                 In  segment BANKED_CODE, align 1, keep-with-next
   \                     ??Subroutine144_0:
   \   000000   12....       LCALL   ??Subroutine135_0 & 0xFFFF
   \                     ??CrossCallReturnLabel_276:
   \   000003                ; Setup parameters for call to function zclFindAttrRec
   \   000003                ; Setup parameters for call to function zclFindAttrRec
   \   000003                ; Setup parameters for call to function zclFindAttrRec
   \   000003   7402         MOV     A,#0x2
   \   000005   22           RET

   \                                 In  segment BANKED_CODE, align 1, keep-with-next
   \                     ?Subroutine25:
   \   000000   E0           MOVX    A,@DPTR
   \   000001   75F003       MOV     B,#0x3
   \   000004   A4           MUL     AB
   \   000005   F8           MOV     R0,A
   \   000006   A9F0         MOV     R1,B
   \   000008   7401         MOV     A,#0x1
   \   00000A   28           ADD     A,R0
   \   00000B   FA           MOV     R2,A
   \   00000C   E4           CLR     A
   \   00000D   39           ADDC    A,R1
   \   00000E   FB           MOV     R3,A
   \   00000F   12....       LCALL   ?Subroutine91 & 0xFFFF
   \                     ??CrossCallReturnLabel_197:
   \   000012   22           RET

   \                                 In  segment BANKED_CODE, align 1, keep-with-next
   \                     ?Subroutine23:
   \   000000   8E82         MOV     DPL,R6
   \   000002   8F83         MOV     DPH,R7
   \   000004   A3           INC     DPTR
   \   000005   A3           INC     DPTR
   \   000006   A3           INC     DPTR
   \   000007   A3           INC     DPTR
   \   000008   12....       LCALL   ?Subroutine87 & 0xFFFF
   \                     ??CrossCallReturnLabel_290:
   \   00000B   FD           MOV     R5,A
   \   00000C   EE           MOV     A,R6
   \   00000D   2406         ADD     A,#0x6
   \   00000F   FA           MOV     R2,A
   \   000010   EF           MOV     A,R7
   \   000011   3400         ADDC    A,#0x0
   \   000013   FB           MOV     R3,A
   \   000014   EE           MOV     A,R6
   \   000015   2414         ADD     A,#0x14
   \   000017   F582         MOV     DPL,A
   \   000019   EF           MOV     A,R7
   \   00001A   3400         ADDC    A,#0x0
   \   00001C   F583         MOV     DPH,A
   \   00001E   E0           MOVX    A,@DPTR
   \   00001F   F9           MOV     R1,A
   \   000020   12....       LCALL   ??zcl_SendWriteRsp?relay
   \   000023   7405         MOV     A,#0x5
   \   000025   22           RET

   \                                 In  segment BANKED_CODE, align 1, keep-with-next
   \                     ?Subroutine10:
   \   000000   E4           CLR     A
   \   000001   A3           INC     DPTR
   \   000002   F0           MOVX    @DPTR,A
   \   000003   7401         MOV     A,#0x1
   \   000005   85..82       MOV     DPL,?V0 + 0
   \   000008   85..83       MOV     DPH,?V0 + 1
   \   00000B   F0           MOVX    @DPTR,A
   \   00000C   22           RET
   2860          
   2861          /*********************************************************************
   2862           * @fn      zclRevertWriteUndividedCmd
   2863           * @brief   Revert the "Profile" Write Undevided Command
   2864           * @param   pInMsg - incoming message to process
   2865           *          curWriteRec - old data
   2866           *          numAttr - number of attributes to be reverted
   2867           */
   2868          static void zclRevertWriteUndividedCmd( zclIncoming_t *pInMsg, zclWriteRec_t *curWriteRec, uint16 numAttr )
   2869          {
   2870            zclWriteRec_t *statusRec;
   2871            zclAttrRec_t attrRec;
   2872            uint8 dataLen;
   2873            uint8 i;
   2874          
   2875            statusRec = curWriteRec;
   2876            for (i = 0; i < numAttr; i++)
   2877            {
   2878              statusRec = &(curWriteRec[i]);
   2879              
   2880              if ( !zclFindAttrRec( pInMsg->msg->endPoint, pInMsg->msg->clusterId, statusRec->attrID, &attrRec ) )
   2881                break; // should never happen
   2882           
   2883              // Just copy the old data back - no need to validate the data
   2884              dataLen = zclGetAttrDataLength( attrRec.attr.dataType, statusRec->attrData );
   2885              osal_memcpy( attrRec.attr.dataPtr, statusRec->attrData, dataLen );
   2886            } // for loop
   2887          }
   2888          
   2889          /*********************************************************************
   2890           * @fn      zclProcessInWriteUndividedCmd
   2891           * @brief   Process the "Profile" Write Undivided Command
   2892           * @param   pInMsg - incoming message to process
   2893           * @return  TRUE if command processed. FALSE, otherwise.
   2894           */

   \                                 In  segment BANKED_CODE, align 1, keep-with-next
   \                     ?Subroutine60:
   \   000000   A3           INC     DPTR
   \   000001   A3           INC     DPTR
   \   000002   A3           INC     DPTR
   \   000003                REQUIRE ??Subroutine129_0
   \   000003                ; // Fall through to label ??Subroutine129_0

   \                                 In  segment BANKED_CODE, align 1, keep-with-next
   \                     ?Subroutine20:
   \   000000   85..82       MOV     DPL,?V0 + 2
   \   000003   85..83       MOV     DPH,?V0 + 3
   \   000006                REQUIRE ??Subroutine141_0
   \   000006                ; // Fall through to label ??Subroutine141_0

   \                                 In  segment BANKED_CODE, align 1, keep-with-next
   2895          static uint8 zclProcessInWriteUndividedCmd( zclIncoming_t *pInMsg )
   \                     zclProcessInWriteUndividedCmd:
   2896          {
   \   000000   74E8         MOV     A,#-0x18
   \   000002   12....       LCALL   ?BANKED_ENTER_XDATA
   \   000005                ; Saved register size: 24
   \   000005                ; Auto size: 18
   \   000005   74EE         MOV     A,#-0x12
   \   000007   12....       LCALL   ?ALLOC_XSTACK8
   \   00000A   8A..         MOV     ?V0 + 14,R2
   \   00000C   8B..         MOV     ?V0 + 15,R3
   2897            zclWriteCmd_t *writeCmd;
   2898            zclWriteRec_t *statusRec;
   2899            zclWriteRec_t *curWriteRec;
   2900            zclWriteRec_t *curStatusRec;
   2901            zclWriteRspCmd_t *writeRspCmd;
   2902            zclAttrRec_t attrRec;
   2903            uint8 *curDataPtr;
   2904            uint8 hdrLen;
   2905            uint8 dataLen;
   2906            uint8 curLen = 0;
   \   00000E   75..00       MOV     ?V0 + 4,#0x0
   2907            uint8 status;
   2908            uint8 i, j = 0;
   \   000011   7F00         MOV     R7,#0x0
   2909          
   2910            writeCmd = (zclWriteCmd_t *)pInMsg->attrCmd;
   \   000013   12....       LCALL   ?Subroutine67 & 0xFFFF
   \                     ??CrossCallReturnLabel_264:
   \   000016   F5..         MOV     ?V0 + 6,A
   \   000018   A3           INC     DPTR
   \   000019   E0           MOVX    A,@DPTR
   \   00001A   F5..         MOV     ?V0 + 7,A
   2911            
   2912            // Allocate space for Write Response Command
   2913            writeRspCmd = (zclWriteRspCmd_t *)osal_mem_alloc( sizeof( zclWriteRspCmd_t ) + sizeof( zclWriteRspStatus_t )* writeCmd->numAttr );
   \   00001C                ; Setup parameters for call to function osal_mem_alloc
   \   00001C   85..82       MOV     DPL,?V0 + 6
   \   00001F   F583         MOV     DPH,A
   \   000021   12....       LCALL   ?Subroutine25 & 0xFFFF
   2914            
   2915            if ( writeRspCmd == NULL )
   \                     ??CrossCallReturnLabel_31:
   \   000024   7001         JNZ     ??zclProcessInWriteUndividedCmd_0
   \   000026   EB           MOV     A,R3
   \                     ??zclProcessInWriteUndividedCmd_0:
   \   000027   7005         JNZ     ??zclProcessInWriteUndividedCmd_1
   2916              return FALSE; // EMBEDDED RETURN
   \                     ??zclProcessInWriteUndividedCmd_2:
   \   000029   7900         MOV     R1,#0x0
   \   00002B   02....       LJMP    ??zclProcessInWriteUndividedCmd_3 & 0xFFFF
   2917            
   2918            // If any attribute cannot be written, no attribute values are changed. Hence,
   2919            // make sure all the attributes are supported and writable
   2920            for (i = 0; i < writeCmd->numAttr; i++)
   \                     ??zclProcessInWriteUndividedCmd_1:
   \   00002E   7E00         MOV     R6,#0x0
   \   000030   8019         SJMP    ??zclProcessInWriteUndividedCmd_4
   2921            {
   2922              statusRec = &(writeCmd->attrList[i]);
   2923              
   2924              if ( !zclFindAttrRec( pInMsg->msg->endPoint, pInMsg->msg->clusterId, statusRec->attrID, &attrRec ) )
   2925              {
   2926                // Attribute is not supported - stop here
   2927                writeRspCmd->attrList[j].status = ZCL_STATUS_UNSUPPORTED_ATTRIBUTE;
   2928                writeRspCmd->attrList[j++].attrID = statusRec->attrID;
   2929                break;
   2930              }
   2931              
   2932              if ( statusRec->dataType != attrRec.attr.dataType )
   2933              {
   2934                // Attribute data type is incorrect - stope here
   2935                writeRspCmd->attrList[j].status = ZCL_STATUS_INVALID_DATA_TYPE;
   2936                writeRspCmd->attrList[j++].attrID = statusRec->attrID;
   2937                break;
   2938              }
   2939              
   2940              if ( !zcl_AccessCtrlWrite( attrRec.attr.accessControl ) )
   2941              {
   2942                // Attribute is not writable - stop here
   2943                writeRspCmd->attrList[j].status = ZCL_STATUS_READ_ONLY;
   2944                writeRspCmd->attrList[j++].attrID = statusRec->attrID;
   2945                break;
   2946              }  
   2947              dataLen = zclGetAttrDataLength( statusRec->dataType, statusRec->attrData );
   \                     ??zclProcessInWriteUndividedCmd_5:
   \   000032                ; Setup parameters for call to function zclGetAttrDataLength
   \   000032   85..82       MOV     DPL,?V0 + 2
   \   000035   85..83       MOV     DPH,?V0 + 3
   \   000038   12....       LCALL   ?Subroutine60 & 0xFFFF
   \                     ??CrossCallReturnLabel_191:
   \   00003B   12....       LCALL   ??zclGetAttrDataLength?relay
   \   00003E   E9           MOV     A,R1
   \   00003F   FA           MOV     R2,A
   2948              
   2949              // add padding if needed
   2950              if ( PADDING_NEEDED( dataLen ) )
   \   000040   A2E0         MOV     C,0xE0 /* A   */.0
   \   000042   5001         JNC     ??zclProcessInWriteUndividedCmd_6
   2951                dataLen++;
   \   000044   0A           INC     R2
   2952              curLen += dataLen;
   \                     ??zclProcessInWriteUndividedCmd_6:
   \   000045   EA           MOV     A,R2
   \   000046   25..         ADD     A,?V0 + 4
   \   000048   F5..         MOV     ?V0 + 4,A
   \   00004A   0E           INC     R6
   \                     ??zclProcessInWriteUndividedCmd_4:
   \   00004B   85..82       MOV     DPL,?V0 + 6
   \   00004E   85..83       MOV     DPH,?V0 + 7
   \   000051   E0           MOVX    A,@DPTR
   \   000052   FA           MOV     R2,A
   \   000053   EE           MOV     A,R6
   \   000054   C3           CLR     C
   \   000055   9A           SUBB    A,R2
   \   000056   505D         JNC     ??zclProcessInWriteUndividedCmd_7
   \   000058   12....       LCALL   ?Subroutine71 & 0xFFFF
   \                     ??CrossCallReturnLabel_95:
   \   00005B   12....       LCALL   ?Subroutine32 & 0xFFFF
   \                     ??CrossCallReturnLabel_272:
   \   00005E   12....       LCALL   ?XSTACK_DISP0_8
   \   000061   8582..       MOV     ?V0 + 10,DPL
   \   000064   8583..       MOV     ?V0 + 11,DPH
   \   000067   78..         MOV     R0,#?V0 + 10
   \   000069   12....       LCALL   ?PUSH_XSTACK_I_TWO
   \   00006C   12....       LCALL   ?Subroutine20 & 0xFFFF
   \                     ??CrossCallReturnLabel_248:
   \   00006F   12....       LCALL   ?DEALLOC_XSTACK8
   \   000072   E9           MOV     A,R1
   \   000073   7004         JNZ     ??zclProcessInWriteUndividedCmd_8
   \   000075   7486         MOV     A,#-0x7a
   \   000077   8023         SJMP    ??zclProcessInWriteUndividedCmd_9
   \                     ??zclProcessInWriteUndividedCmd_8:
   \   000079   85..82       MOV     DPL,?V0 + 2
   \   00007C   85..83       MOV     DPH,?V0 + 3
   \   00007F   A3           INC     DPTR
   \   000080   A3           INC     DPTR
   \   000081   E0           MOVX    A,@DPTR
   \   000082   F9           MOV     R1,A
   \   000083   7406         MOV     A,#0x6
   \   000085   12....       LCALL   ?XSTACK_DISP0_8
   \   000088   E0           MOVX    A,@DPTR
   \   000089   69           XRL     A,R1
   \   00008A   6004         JZ      ??zclProcessInWriteUndividedCmd_10
   \   00008C   748D         MOV     A,#-0x73
   \   00008E   800C         SJMP    ??zclProcessInWriteUndividedCmd_9
   \                     ??zclProcessInWriteUndividedCmd_10:
   \   000090   7407         MOV     A,#0x7
   \   000092   12....       LCALL   ?XSTACK_DISP0_8
   \   000095   E0           MOVX    A,@DPTR
   \   000096   A2E1         MOV     C,0xE0 /* A   */.1
   \   000098   4098         JC      ??zclProcessInWriteUndividedCmd_5
   \   00009A   7488         MOV     A,#-0x78
   \                     ??zclProcessInWriteUndividedCmd_9:
   \   00009C   85..82       MOV     DPL,?V0 + 0
   \   00009F   85..83       MOV     DPH,?V0 + 1
   \   0000A2   12....       LCALL   ?Subroutine19 & 0xFFFF
   \                     ??CrossCallReturnLabel_24:
   \   0000A5   F8           MOV     R0,A
   \   0000A6   A3           INC     DPTR
   \   0000A7   E0           MOVX    A,@DPTR
   \   0000A8   F9           MOV     R1,A
   \   0000A9   85..82       MOV     DPL,?V0 + 0
   \   0000AC   85..83       MOV     DPH,?V0 + 1
   \   0000AF   A3           INC     DPTR
   \   0000B0   A3           INC     DPTR
   \   0000B1   12....       LCALL   ??Subroutine138_0 & 0xFFFF
   \                     ??CrossCallReturnLabel_237:
   \   0000B4   0F           INC     R7
   2953            } // for loop
   2954            
   2955            writeRspCmd->numAttr = j;
   \                     ??zclProcessInWriteUndividedCmd_7:
   \   0000B5   EF           MOV     A,R7
   \   0000B6   85..82       MOV     DPL,?V0 + 0
   \   0000B9   85..83       MOV     DPH,?V0 + 1
   \   0000BC   F0           MOVX    @DPTR,A
   2956            if ( writeRspCmd->numAttr == 0 ) // All attributes can be written
   \   0000BD   6003         JZ      $+5
   \   0000BF   02....       LJMP    ??zclProcessInWriteUndividedCmd_11 & 0xFFFF
   2957            {
   2958              // calculate the length of the current data header
   2959              hdrLen = j * sizeof( zclWriteRec_t );
   \   0000C2   75F005       MOV     B,#0x5
   \   0000C5   A4           MUL     AB
   \   0000C6   FA           MOV     R2,A
   2960            
   2961              // Allocate space to keep a copy of the current data
   2962              curWriteRec = (zclWriteRec_t *) osal_mem_alloc( hdrLen + curLen ); 
   \   0000C7   8A82         MOV     DPL,R2
   \   0000C9   8582..       MOV     ?V0 + 2,DPL
   \   0000CC                ; Setup parameters for call to function osal_mem_alloc
   \   0000CC   E5..         MOV     A,?V0 + 4
   \   0000CE   25..         ADD     A,?V0 + 2
   \   0000D0   FA           MOV     R2,A
   \   0000D1   E4           CLR     A
   \   0000D2   3400         ADDC    A,#0x0
   \   0000D4   FB           MOV     R3,A
   \   0000D5   12....       LCALL   ??osal_mem_alloc?relay
   \   0000D8   8A..         MOV     ?V0 + 12,R2
   \   0000DA   8B..         MOV     ?V0 + 13,R3
   2963              if ( curWriteRec == NULL )
   \   0000DC   EA           MOV     A,R2
   \   0000DD   7001         JNZ     ??zclProcessInWriteUndividedCmd_12
   \   0000DF   EB           MOV     A,R3
   \                     ??zclProcessInWriteUndividedCmd_12:
   \   0000E0   700A         JNZ     ??zclProcessInWriteUndividedCmd_13
   2964              {
   2965                osal_mem_free(writeRspCmd );
   \   0000E2                ; Setup parameters for call to function osal_mem_free
   \   0000E2   AA..         MOV     R2,?V0 + 0
   \   0000E4   AB..         MOV     R3,?V0 + 1
   \   0000E6   12....       LCALL   ??osal_mem_free?relay
   2966                return FALSE; // EMBEDDED RETURN
   \   0000E9   02....       LJMP    ??zclProcessInWriteUndividedCmd_2 & 0xFFFF
   2967              }
   2968          
   2969              curDataPtr = (uint8 *)((uint8 *)curWriteRec + hdrLen);
   \                     ??zclProcessInWriteUndividedCmd_13:
   \   0000EC   EA           MOV     A,R2
   \   0000ED   25..         ADD     A,?V0 + 2
   \   0000EF   F5..         MOV     ?V0 + 4,A
   \   0000F1   EB           MOV     A,R3
   \   0000F2   3400         ADDC    A,#0x0
   \   0000F4   F5..         MOV     ?V0 + 5,A
   2970              
   2971              // Write the new data over
   2972              for (i = 0; i < writeCmd->numAttr; i++)
   \   0000F6   7E00         MOV     R6,#0x0
   \   0000F8   8023         SJMP    ??zclProcessInWriteUndividedCmd_14
   2973              {
   2974                statusRec = &(writeCmd->attrList[i]);
   2975                curStatusRec = &(curWriteRec[i]);
   2976              
   2977                if ( !zclFindAttrRec( pInMsg->msg->endPoint, pInMsg->msg->clusterId, statusRec->attrID, &attrRec ) )
   2978                  break; // should never happen
   2979          
   2980                // Keep a copy of the current data before before writing the new data over
   2981                curStatusRec->attrID = statusRec->attrID;
   2982                zclReadAttrData( curDataPtr, &attrRec );
   2983                curStatusRec->attrData = curDataPtr;
   2984                
   2985                status = zclWriteAttrData( &attrRec, statusRec );
   2986                   
   2987                // If successful, a write attribute status record shall NOT be generated
   2988                if ( status != ZCL_STATUS_SUCCESS )
   2989                {
   2990                  writeRspCmd->attrList[j].status = status;
   2991                  writeRspCmd->attrList[j++].attrID = statusRec->attrID;
   2992                    
   2993                  // Since this write failed, we need to revert all the pervious writes
   2994                  zclRevertWriteUndividedCmd( pInMsg, curWriteRec, i);
   2995                  break;
   2996                }
   2997                
   2998                dataLen = zclGetAttrDataLength( statusRec->dataType, statusRec->attrData );
   \                     ??zclProcessInWriteUndividedCmd_15:
   \   0000FA                ; Setup parameters for call to function zclGetAttrDataLength
   \   0000FA   85..82       MOV     DPL,?V0 + 2
   \   0000FD   85..83       MOV     DPH,?V0 + 3
   \   000100   A3           INC     DPTR
   \   000101   A3           INC     DPTR
   \   000102   A3           INC     DPTR
   \   000103   12....       LCALL   ?Subroutine44 & 0xFFFF
   \                     ??CrossCallReturnLabel_58:
   \   000106   12....       LCALL   ??Subroutine127_0 & 0xFFFF
   2999                
   3000                // add padding if needed
   3001                if ( PADDING_NEEDED( dataLen ) )
   \                     ??CrossCallReturnLabel_181:
   \   000109   A2E0         MOV     C,0xE0 /* A   */.0
   \   00010B   5001         JNC     ??zclProcessInWriteUndividedCmd_16
   3002                  dataLen++;
   \   00010D   0A           INC     R2
   3003                curDataPtr += dataLen;
   \                     ??zclProcessInWriteUndividedCmd_16:
   \   00010E   8A..         MOV     ?V0 + 2,R2
   \   000110   E5..         MOV     A,?V0 + 4
   \   000112   25..         ADD     A,?V0 + 2
   \   000114   F5..         MOV     ?V0 + 4,A
   \   000116   E5..         MOV     A,?V0 + 5
   \   000118   3400         ADDC    A,#0x0
   \   00011A   F5..         MOV     ?V0 + 5,A
   \   00011C   0E           INC     R6
   \                     ??zclProcessInWriteUndividedCmd_14:
   \   00011D   85..82       MOV     DPL,?V0 + 6
   \   000120   85..83       MOV     DPH,?V0 + 7
   \   000123   E0           MOVX    A,@DPTR
   \   000124   FA           MOV     R2,A
   \   000125   EE           MOV     A,R6
   \   000126   C3           CLR     C
   \   000127   9A           SUBB    A,R2
   \   000128   4003         JC      $+5
   \   00012A   02....       LJMP    ??zclProcessInWriteUndividedCmd_17 & 0xFFFF
   \   00012D   12....       LCALL   ?Subroutine71 & 0xFFFF
   \                     ??CrossCallReturnLabel_96:
   \   000130   E5..         MOV     A,?V0 + 12
   \   000132   28           ADD     A,R0
   \   000133   F8           MOV     R0,A
   \   000134   E5..         MOV     A,?V0 + 13
   \   000136   39           ADDC    A,R1
   \   000137   12....       LCALL   ?Subroutine13 & 0xFFFF
   \                     ??CrossCallReturnLabel_239:
   \   00013A   12....       LCALL   ?Subroutine32 & 0xFFFF
   \                     ??CrossCallReturnLabel_273:
   \   00013D   12....       LCALL   ?XSTACK_DISP0_8
   \   000140   8582..       MOV     ?V0 + 10,DPL
   \   000143   8583..       MOV     ?V0 + 11,DPH
   \   000146   78..         MOV     R0,#?V0 + 10
   \   000148   12....       LCALL   ?PUSH_XSTACK_I_TWO
   \   00014B   12....       LCALL   ?Subroutine20 & 0xFFFF
   \                     ??CrossCallReturnLabel_249:
   \   00014E   12....       LCALL   ?DEALLOC_XSTACK8
   \   000151   E9           MOV     A,R1
   \   000152   7003         JNZ     $+5
   \   000154   02....       LJMP    ??zclProcessInWriteUndividedCmd_17 & 0xFFFF
   \   000157   85..82       MOV     DPL,?V0 + 2
   \   00015A   85..83       MOV     DPH,?V0 + 3
   \   00015D   12....       LCALL   ??Subroutine129_0 & 0xFFFF
   \                     ??CrossCallReturnLabel_189:
   \   000160   12....       LCALL   ?Subroutine48 & 0xFFFF
   \                     ??CrossCallReturnLabel_243:
   \   000163   12....       LCALL   ??Subroutine148_0 & 0xFFFF
   \                     ??CrossCallReturnLabel_296:
   \   000166                ; Setup parameters for call to function zclReadAttrData
   \   000166   7402         MOV     A,#0x2
   \   000168   12....       LCALL   ?XSTACK_DISP0_8
   \   00016B   AC82         MOV     R4,DPL
   \   00016D   AD83         MOV     R5,DPH
   \   00016F   AA..         MOV     R2,?V0 + 4
   \   000171   AB..         MOV     R3,?V0 + 5
   \   000173   12....       LCALL   ??zclReadAttrData?relay
   \   000176   85..82       MOV     DPL,?XSP + 0
   \   000179   85..83       MOV     DPH,?XSP + 1
   \   00017C   12....       LCALL   ?Subroutine47 & 0xFFFF
   \                     ??CrossCallReturnLabel_63:
   \   00017F   E5..         MOV     A,?V0 + 4
   \   000181   F0           MOVX    @DPTR,A
   \   000182   A3           INC     DPTR
   \   000183   E5..         MOV     A,?V0 + 5
   \   000185   F0           MOVX    @DPTR,A
   \   000186                ; Setup parameters for call to function zclWriteAttrData
   \   000186   AC..         MOV     R4,?V0 + 2
   \   000188   AD..         MOV     R5,?V0 + 3
   \   00018A   7402         MOV     A,#0x2
   \   00018C   12....       LCALL   ?XSTACK_DISP0_8
   \   00018F   AA82         MOV     R2,DPL
   \   000191   AB83         MOV     R3,DPH
   \   000193   12....       LCALL   ??zclWriteAttrData?relay
   \   000196   E9           MOV     A,R1
   \   000197   FB           MOV     R3,A
   \   000198   7003         JNZ     $+5
   \   00019A   02....       LJMP    ??zclProcessInWriteUndividedCmd_15 & 0xFFFF
   \   00019D   EF           MOV     A,R7
   \   00019E   75F003       MOV     B,#0x3
   \   0001A1   A4           MUL     AB
   \   0001A2   F8           MOV     R0,A
   \   0001A3   A9F0         MOV     R1,B
   \   0001A5   E5..         MOV     A,?V0 + 0
   \   0001A7   28           ADD     A,R0
   \   0001A8   F8           MOV     R0,A
   \   0001A9   E5..         MOV     A,?V0 + 1
   \   0001AB   39           ADDC    A,R1
   \   0001AC   F9           MOV     R1,A
   \   0001AD   EB           MOV     A,R3
   \   0001AE   8882         MOV     DPL,R0
   \   0001B0   8983         MOV     DPH,R1
   \   0001B2   12....       LCALL   ?Subroutine19 & 0xFFFF
   \                     ??CrossCallReturnLabel_25:
   \   0001B5   FA           MOV     R2,A
   \   0001B6   A3           INC     DPTR
   \   0001B7   E0           MOVX    A,@DPTR
   \   0001B8   FB           MOV     R3,A
   \   0001B9   8882         MOV     DPL,R0
   \   0001BB   8983         MOV     DPH,R1
   \   0001BD   12....       LCALL   ?Subroutine17 & 0xFFFF
   \                     ??CrossCallReturnLabel_298:
   \   0001C0   0F           INC     R7
   \   0001C1   8E82         MOV     DPL,R6
   \   0001C3   8582..       MOV     ?V0 + 8,DPL
   \   0001C6   7E00         MOV     R6,#0x0
   \   0001C8   8032         SJMP    ??zclProcessInWriteUndividedCmd_18
   3004              } // for loop
   \                     ??zclProcessInWriteUndividedCmd_19:
   \   0001CA   E5..         MOV     A,?V0 + 2
   \   0001CC   2403         ADD     A,#0x3
   \   0001CE   F5..         MOV     ?V0 + 2,A
   \   0001D0   E5..         MOV     A,?V0 + 3
   \   0001D2   12....       LCALL   ??Subroutine143_0 & 0xFFFF
   \                     ??CrossCallReturnLabel_266:
   \   0001D5   12....       LCALL   ??Subroutine129_0 & 0xFFFF
   \                     ??CrossCallReturnLabel_190:
   \   0001D8   740E         MOV     A,#0xe
   \   0001DA   12....       LCALL   ?XSTACK_DISP0_8
   \   0001DD   12....       LCALL   ??Subroutine128_0 & 0xFFFF
   \                     ??CrossCallReturnLabel_182:
   \   0001E0                ; Setup parameters for call to function osal_memcpy
   \   0001E0   85..82       MOV     DPL,?V0 + 2
   \   0001E3   85..83       MOV     DPH,?V0 + 3
   \   0001E6   12....       LCALL   ?Subroutine36 & 0xFFFF
   \                     ??CrossCallReturnLabel_155:
   \   0001E9   12....       LCALL   ?PUSH_XSTACK_I_THREE
   \   0001EC   EA           MOV     A,R2
   \   0001ED   FC           MOV     R4,A
   \   0001EE   7D00         MOV     R5,#0x0
   \   0001F0   7413         MOV     A,#0x13
   \   0001F2   12....       LCALL   ?XSTACK_DISP0_8
   \   0001F5   12....       LCALL   ?Subroutine51 & 0xFFFF
   \                     ??CrossCallReturnLabel_151:
   \   0001F8   12....       LCALL   ?DEALLOC_XSTACK8
   \   0001FB   0E           INC     R6
   \                     ??zclProcessInWriteUndividedCmd_18:
   \   0001FC   8E..         MOV     ?V0 + 2,R6
   \   0001FE   C3           CLR     C
   \   0001FF   E5..         MOV     A,?V0 + 2
   \   000201   95..         SUBB    A,?V0 + 8
   \   000203   E4           CLR     A
   \   000204   9400         SUBB    A,#0x0
   \   000206   5058         JNC     ??zclProcessInWriteUndividedCmd_17
   \   000208   EE           MOV     A,R6
   \   000209   75F005       MOV     B,#0x5
   \   00020C   A4           MUL     AB
   \   00020D   F8           MOV     R0,A
   \   00020E   A9F0         MOV     R1,B
   \   000210   E5..         MOV     A,?V0 + 12
   \   000212   28           ADD     A,R0
   \   000213   F5..         MOV     ?V0 + 2,A
   \   000215   E5..         MOV     A,?V0 + 13
   \   000217   39           ADDC    A,R1
   \   000218   F5..         MOV     ?V0 + 3,A
   \   00021A   85..82       MOV     DPL,?V0 + 14
   \   00021D   85..83       MOV     DPH,?V0 + 15
   \   000220   12....       LCALL   ?Subroutine79 & 0xFFFF
   \                     ??CrossCallReturnLabel_109:
   \   000223                ; Setup parameters for call to function zclFindAttrRec
   \   000223   740A         MOV     A,#0xa
   \   000225   12....       LCALL   ?XSTACK_DISP0_8
   \   000228   8582..       MOV     ?V0 + 6,DPL
   \   00022B   8583..       MOV     ?V0 + 7,DPH
   \   00022E   78..         MOV     R0,#?V0 + 6
   \   000230   12....       LCALL   ?PUSH_XSTACK_I_TWO
   \   000233   85..82       MOV     DPL,?V0 + 2
   \   000236   85..83       MOV     DPH,?V0 + 3
   \   000239   12....       LCALL   ??Subroutine147_0 & 0xFFFF
   \                     ??CrossCallReturnLabel_280:
   \   00023C   85..82       MOV     DPL,?V0 + 4
   \   00023F   85..83       MOV     DPH,?V0 + 5
   \   000242   A3           INC     DPTR
   \   000243   12....       LCALL   ?Subroutine60 & 0xFFFF
   \                     ??CrossCallReturnLabel_192:
   \   000246   E5..         MOV     A,?V0 + 4
   \   000248   2414         ADD     A,#0x14
   \   00024A   F582         MOV     DPL,A
   \   00024C   E5..         MOV     A,?V0 + 5
   \   00024E   12....       LCALL   ??Subroutine142_0 & 0xFFFF
   \                     ??CrossCallReturnLabel_261:
   \   000251   F9           MOV     R1,A
   \   000252   12....       LCALL   ??zclFindAttrRec?relay
   \   000255   7402         MOV     A,#0x2
   \   000257   12....       LCALL   ?DEALLOC_XSTACK8
   \   00025A   E9           MOV     A,R1
   \   00025B   6003         JZ      $+5
   \   00025D   02....       LJMP    ??zclProcessInWriteUndividedCmd_19 & 0xFFFF
   3005            
   3006              writeRspCmd->numAttr = j;
   \                     ??zclProcessInWriteUndividedCmd_17:
   \   000260   EF           MOV     A,R7
   \   000261   85..82       MOV     DPL,?V0 + 0
   \   000264   85..83       MOV     DPH,?V0 + 1
   \   000267   F0           MOVX    @DPTR,A
   3007              if ( writeRspCmd->numAttr  == 0 )
   \   000268   7003         JNZ     ??CrossCallReturnLabel_13
   3008              {
   3009                // Since all records were written successful, include a single status record in the resonse command
   3010                // with the status field set to SUCCESS and the attribute ID field omitted.
   3011                writeRspCmd->attrList[0].status = ZCL_STATUS_SUCCESS;
   \   00026A   12....       LCALL   ?Subroutine10 & 0xFFFF
   3012                writeRspCmd->numAttr = 1;
   3013              }
   3014          
   3015              osal_mem_free( curWriteRec );
   \                     ??CrossCallReturnLabel_13:
   \   00026D                ; Setup parameters for call to function osal_mem_free
   \   00026D   AA..         MOV     R2,?V0 + 12
   \   00026F   AB..         MOV     R3,?V0 + 13
   \   000271   12....       LCALL   ??osal_mem_free?relay
   3016            }
   3017            
   3018            zcl_SendWriteRsp( pInMsg->msg->endPoint, &(pInMsg->msg->srcAddr),
   3019                              pInMsg->msg->clusterId, writeRspCmd, ZCL_FRAME_SERVER_CLIENT_DIR, 
   3020                              true, pInMsg->hdr.transSeqNum );  
   \                     ??zclProcessInWriteUndividedCmd_11:
   \   000274   85..82       MOV     DPL,?V0 + 14
   \   000277   85..83       MOV     DPH,?V0 + 15
   \   00027A   12....       LCALL   ?Subroutine40 & 0xFFFF
   \                     ??CrossCallReturnLabel_52:
   \   00027D                ; Setup parameters for call to function zcl_SendWriteRsp
   \   00027D   85..82       MOV     DPL,?V0 + 14
   \   000280   85..83       MOV     DPH,?V0 + 15
   \   000283   A3           INC     DPTR
   \   000284   A3           INC     DPTR
   \   000285   A3           INC     DPTR
   \   000286   A3           INC     DPTR
   \   000287   A3           INC     DPTR
   \   000288   A3           INC     DPTR
   \   000289   E0           MOVX    A,@DPTR
   \   00028A   F5..         MOV     ?V0 + 2,A
   \   00028C   78..         MOV     R0,#?V0 + 2
   \   00028E   12....       LCALL   ?PUSH_XSTACK_I_ONE
   \   000291   75..01       MOV     ?V0 + 2,#0x1
   \   000294   78..         MOV     R0,#?V0 + 2
   \   000296   12....       LCALL   ?PUSH_XSTACK_I_ONE
   \   000299   78..         MOV     R0,#?V0 + 2
   \   00029B   12....       LCALL   ?PUSH_XSTACK_I_ONE
   \   00029E   78..         MOV     R0,#?V0 + 0
   \   0002A0   12....       LCALL   ?PUSH_XSTACK_I_TWO
   \   0002A3   12....       LCALL   ?Subroutine23 & 0xFFFF
   \                     ??CrossCallReturnLabel_27:
   \   0002A6   12....       LCALL   ?DEALLOC_XSTACK8
   3021            osal_mem_free( writeRspCmd );
   \   0002A9                ; Setup parameters for call to function osal_mem_free
   \   0002A9   AA..         MOV     R2,?V0 + 0
   \   0002AB   AB..         MOV     R3,?V0 + 1
   \   0002AD   12....       LCALL   ??osal_mem_free?relay
   3022           
   3023            return TRUE; 
   \   0002B0   7901         MOV     R1,#0x1
   \                     ??zclProcessInWriteUndividedCmd_3:
   \   0002B2   02....       LJMP    ?Subroutine120 & 0xFFFF
   3024          }

   \                                 In  segment BANKED_CODE, align 1, keep-with-next
   \                     ?Subroutine71:
   \   000000   EE           MOV     A,R6
   \   000001   75F005       MOV     B,#0x5
   \   000004   A4           MUL     AB
   \   000005   F8           MOV     R0,A
   \   000006   A9F0         MOV     R1,B
   \   000008   E5..         MOV     A,?V0 + 6
   \   00000A   28           ADD     A,R0
   \   00000B   F582         MOV     DPL,A
   \   00000D   E5..         MOV     A,?V0 + 7
   \   00000F   39           ADDC    A,R1
   \   000010   F583         MOV     DPH,A
   \   000012   A3           INC     DPTR
   \   000013   8582..       MOV     ?V0 + 2,DPL
   \   000016   8583..       MOV     ?V0 + 3,DPH
   \   000019   22           RET

   \                                 In  segment BANKED_CODE, align 1, keep-with-next
   \                     ?Subroutine32:
   \   000000   85..82       MOV     DPL,?V0 + 14
   \   000003   85..83       MOV     DPH,?V0 + 15
   \   000006                REQUIRE ??Subroutine144_0
   \   000006                ; // Fall through to label ??Subroutine144_0

   \                                 In  segment BANKED_CODE, align 1, keep-with-next
   \                     ?Subroutine19:
   \   000000   A3           INC     DPTR
   \   000001   F0           MOVX    @DPTR,A
   \   000002   85..82       MOV     DPL,?V0 + 2
   \   000005   85..83       MOV     DPH,?V0 + 3
   \   000008   E0           MOVX    A,@DPTR
   \   000009   22           RET

   \                                 In  segment BANKED_CODE, align 1, keep-with-next
   \                     ?Subroutine47:
   \   000000   12....       LCALL   ?Subroutine85 & 0xFFFF
   \                     ??CrossCallReturnLabel_119:
   \   000003   A3           INC     DPTR
   \   000004   22           RET
   3025          #endif // ZCL_WRITE
   3026          
   3027          #ifdef ZCL_DISCOVER
   3028          /*********************************************************************
   3029           * @fn      zclProcessInDiscCmd
   3030           * @brief   Process the "Profile" Discover Command
   3031           * @param   pInMsg - incoming message to process
   3032           * @return  TRUE if command processed. FALSE, otherwise.
   3033           */
   3034          static uint8 zclProcessInDiscCmd( zclIncoming_t *pInMsg )
   3035          {
   3036            zclDiscoverCmd_t *discoverCmd;
   3037            zclDiscoverRspCmd_t *discoverRspCmd;
   3038            uint8 discComplete = TRUE;
   3039            zclAttrRec_t attrRec;
   3040            uint16 attrID;
   3041            uint8 i;
   3042            
   3043            discoverCmd = (zclDiscoverCmd_t *)pInMsg->attrCmd;
   3044            
   3045            // Find out the number of attributes supported within the specified range
   3046            for ( i = 0, attrID = discoverCmd->startAttr; i < discoverCmd->maxAttrIDs; i++, attrID++ )
   3047            {
   3048              if ( !zclFindNextAttrRec( pInMsg->msg->endPoint, pInMsg->msg->clusterId, &attrID, &attrRec ) )
   3049                break;
   3050            }
   3051            
   3052            // Allocate space for the response command
   3053            discoverRspCmd = (zclDiscoverRspCmd_t *)osal_mem_alloc( sizeof (zclDiscoverRspCmd_t) 
   3054                                                                   + sizeof ( zclDiscoverInfo_t ) * i );
   3055            if ( discoverRspCmd == NULL )
   3056              return FALSE; // EMEDDED RETURN
   3057            
   3058            discoverRspCmd->numAttr = i;
   3059            if ( discoverRspCmd->numAttr != 0 )
   3060            {
   3061              for ( i = 0, attrID = discoverCmd->startAttr; i < discoverRspCmd->numAttr; i++, attrID++ )
   3062              {
   3063                if ( !zclFindNextAttrRec( pInMsg->msg->endPoint, pInMsg->msg->clusterId, &attrID, &attrRec ) )
   3064                  break; // Attribute not supported
   3065                
   3066                discoverRspCmd->attrList[i].attrID = attrRec.attr.attrId;
   3067                discoverRspCmd->attrList[i].dataType = attrRec.attr.dataType;
   3068              }
   3069              
   3070              // Are there more attributes to be discovered?
   3071              if ( zclFindNextAttrRec( pInMsg->msg->endPoint, pInMsg->msg->clusterId, &attrID, &attrRec ) )
   3072                discComplete = FALSE;
   3073            }
   3074            
   3075            discoverRspCmd->discComplete = discComplete;
   3076            zcl_SendDiscoverRspCmd( pInMsg->msg->endPoint, &pInMsg->msg->srcAddr, 
   3077                                    pInMsg->msg->clusterId, discoverRspCmd, ZCL_FRAME_SERVER_CLIENT_DIR, 
   3078                                    true, pInMsg->hdr.transSeqNum );
   3079            osal_mem_free( discoverRspCmd );
   3080            
   3081            return TRUE;
   3082          }
   3083          #endif // ZCL_DISCOVER
   3084          
   3085          /*********************************************************************
   3086           * @fn      zclSendMsg
   3087           * @brief   Send an incoming message to the Application
   3088           * @param   pInMsg - incoming message to process
   3089           * @return  TRUE
   3090           */

   \                                 In  segment BANKED_CODE, align 1, keep-with-next
   3091          static uint8 zclSendMsg( zclIncoming_t *pInMsg )
   \                     zclSendMsg:
   3092          {
   \   000000   74F6         MOV     A,#-0xa
   \   000002   12....       LCALL   ?BANKED_ENTER_XDATA
   \   000005                ; Saved register size: 10
   \   000005                ; Auto size: 0
   \   000005   EA           MOV     A,R2
   \   000006   FE           MOV     R6,A
   \   000007   EB           MOV     A,R3
   \   000008   FF           MOV     R7,A
   3093            zclIncomingMsg_t *pCmd;
   3094              
   3095            if ( zcl_RegisteredMsgTaskID == TASK_NO_TASK )
   \   000009   90....       MOV     DPTR,#zcl_RegisteredMsgTaskID
   \   00000C   E0           MOVX    A,@DPTR
   \   00000D   64FF         XRL     A,#0xff
   \   00000F   7005         JNZ     ??zclSendMsg_0
   3096              return ( TRUE );
   \                     ??zclSendMsg_1:
   \   000011   7901         MOV     R1,#0x1
   \   000013   02....       LJMP    ?Subroutine114 & 0xFFFF
   3097            
   3098            pCmd = (zclIncomingMsg_t *)osal_msg_allocate( sizeof ( zclIncomingMsg_t ) );
   \                     ??zclSendMsg_0:
   \   000016                ; Setup parameters for call to function osal_msg_allocate
   \   000016   7A18         MOV     R2,#0x18
   \   000018   7B00         MOV     R3,#0x0
   \   00001A   12....       LCALL   ??osal_msg_allocate?relay
   3099            if ( pCmd != NULL )
   \   00001D   EA           MOV     A,R2
   \   00001E   7001         JNZ     ??zclSendMsg_2
   \   000020   EB           MOV     A,R3
   \                     ??zclSendMsg_2:
   \   000021   60EE         JZ      ??zclSendMsg_1
   3100            {
   3101              // fill in the message
   3102              pCmd->hdr.event = ZCL_INCOMING_MSG;
   \   000023   7434         MOV     A,#0x34
   \   000025   12....       LCALL   ?Subroutine7 & 0xFFFF
   3103              pCmd->zclHdr    = pInMsg->hdr;
   \                     ??CrossCallReturnLabel_210:
   \   000028   A3           INC     DPTR
   \   000029   EA           MOV     A,R2
   \   00002A   2402         ADD     A,#0x2
   \   00002C   FC           MOV     R4,A
   \   00002D   EB           MOV     A,R3
   \   00002E   3400         ADDC    A,#0x0
   \   000030   FD           MOV     R5,A
   \   000031   7406         MOV     A,#0x6
   \   000033   12....       LCALL   ?MOVE_LONG8_XDATA_XDATA
   3104              pCmd->clusterId = pInMsg->msg->clusterId;
   \   000036   8E82         MOV     DPL,R6
   \   000038   8F83         MOV     DPH,R7
   \   00003A   12....       LCALL   ?Subroutine47 & 0xFFFF
   \                     ??CrossCallReturnLabel_64:
   \   00003D   A3           INC     DPTR
   \   00003E   12....       LCALL   ?Subroutine56 & 0xFFFF
   \                     ??CrossCallReturnLabel_78:
   \   000041   8A82         MOV     DPL,R2
   \   000043   8B83         MOV     DPH,R3
   \   000045   A3           INC     DPTR
   \   000046   A3           INC     DPTR
   \   000047   A3           INC     DPTR
   \   000048   A3           INC     DPTR
   \   000049   A3           INC     DPTR
   \   00004A   A3           INC     DPTR
   \   00004B   A3           INC     DPTR
   \   00004C   A3           INC     DPTR
   \   00004D   E8           MOV     A,R0
   \   00004E   12....       LCALL   ?Subroutine12 & 0xFFFF
   3105              pCmd->srcAddr   = pInMsg->msg->srcAddr;
   \                     ??CrossCallReturnLabel_18:
   \   000051   F8           MOV     R0,A
   \   000052   A3           INC     DPTR
   \   000053   E0           MOVX    A,@DPTR
   \   000054   F583         MOV     DPH,A
   \   000056   8882         MOV     DPL,R0
   \   000058   A3           INC     DPTR
   \   000059   A3           INC     DPTR
   \   00005A   A3           INC     DPTR
   \   00005B   A3           INC     DPTR
   \   00005C   A3           INC     DPTR
   \   00005D   A3           INC     DPTR
   \   00005E   EA           MOV     A,R2
   \   00005F   240A         ADD     A,#0xa
   \   000061   FC           MOV     R4,A
   \   000062   EB           MOV     A,R3
   \   000063   3400         ADDC    A,#0x0
   \   000065   FD           MOV     R5,A
   \   000066   740C         MOV     A,#0xc
   \   000068   12....       LCALL   ?MOVE_LONG8_XDATA_XDATA
   3106              pCmd->attrCmd   = pInMsg->attrCmd;
   \   00006B   EE           MOV     A,R6
   \   00006C   240C         ADD     A,#0xc
   \   00006E   F8           MOV     R0,A
   \   00006F   EF           MOV     A,R7
   \   000070   12....       LCALL   ?Subroutine101 & 0xFFFF
   \                     ??CrossCallReturnLabel_136:
   \   000073   12....       LCALL   ??Subroutine147_0 & 0xFFFF
   \                     ??CrossCallReturnLabel_281:
   \   000076   EA           MOV     A,R2
   \   000077   2416         ADD     A,#0x16
   \   000079   F582         MOV     DPL,A
   \   00007B   EB           MOV     A,R3
   \   00007C   3400         ADDC    A,#0x0
   \   00007E   F583         MOV     DPH,A
   \   000080   EC           MOV     A,R4
   \   000081   F0           MOVX    @DPTR,A
   \   000082   A3           INC     DPTR
   \   000083   ED           MOV     A,R5
   \   000084   F0           MOVX    @DPTR,A
   3107              
   3108              // Application will free the attrCmd buffer
   3109              pInMsg->attrCmd = NULL;
   \   000085   8882         MOV     DPL,R0
   \   000087   8983         MOV     DPH,R1
   \   000089   E4           CLR     A
   \   00008A   F0           MOVX    @DPTR,A
   \   00008B   A3           INC     DPTR
   \   00008C   F0           MOVX    @DPTR,A
   3110              
   3111              /* send message through task message */
   3112              osal_msg_send( zcl_RegisteredMsgTaskID, (uint8 *)pCmd );
   \   00008D                ; Setup parameters for call to function osal_msg_send
   \   00008D   90....       MOV     DPTR,#zcl_RegisteredMsgTaskID
   \   000090   E0           MOVX    A,@DPTR
   \   000091   F9           MOV     R1,A
   \   000092   12....       LCALL   ??osal_msg_send?relay
   \   000095   02....       LJMP    ??zclSendMsg_1 & 0xFFFF
   3113            }
   3114            return ( TRUE );
   3115          }

   \                                 In  segment XDATA_ID, align 1, keep-with-next
   \                     `?<Initializer for zcl_RegisteredMsgTaskID>`:
   \   000000   FF           DB 255

   \                                 In  segment BANK_RELAYS, align 1
   \                     ??zcl_Init?relay:
   \   000000   12....       LCALL   ?BDISPATCH
   \   000003   ......       DC24    zcl_Init

   \                                 In  segment BANK_RELAYS, align 1
   \                     ??zcl_event_loop?relay:
   \   000000   12....       LCALL   ?BDISPATCH
   \   000003   ......       DC24    zcl_event_loop

   \                                 In  segment BANK_RELAYS, align 1
   \                     ??zcl_registerPlugin?relay:
   \   000000   12....       LCALL   ?BDISPATCH
   \   000003   ......       DC24    zcl_registerPlugin

   \                                 In  segment BANK_RELAYS, align 1
   \                     ??zcl_registerAttrList?relay:
   \   000000   12....       LCALL   ?BDISPATCH
   \   000003   ......       DC24    zcl_registerAttrList

   \                                 In  segment BANK_RELAYS, align 1
   \                     ??zcl_registerClusterOptionList?relay:
   \   000000   12....       LCALL   ?BDISPATCH
   \   000003   ......       DC24    zcl_registerClusterOptionList

   \                                 In  segment BANK_RELAYS, align 1
   \                     ??zcl_registerValidateAttrData?relay:
   \   000000   12....       LCALL   ?BDISPATCH
   \   000003   ......       DC24    zcl_registerValidateAttrData

   \                                 In  segment BANK_RELAYS, align 1
   \                     ??zcl_registerForMsg?relay:
   \   000000   12....       LCALL   ?BDISPATCH
   \   000003   ......       DC24    zcl_registerForMsg

   \                                 In  segment BANK_RELAYS, align 1
   \                     ??zcl_DeviceOperational?relay:
   \   000000   12....       LCALL   ?BDISPATCH
   \   000003   ......       DC24    zcl_DeviceOperational

   \                                 In  segment BANK_RELAYS, align 1
   \                     ??zcl_SendCommand?relay:
   \   000000   12....       LCALL   ?BDISPATCH
   \   000003   ......       DC24    zcl_SendCommand

   \                                 In  segment BANK_RELAYS, align 1
   \                     ??zcl_SendRead?relay:
   \   000000   12....       LCALL   ?BDISPATCH
   \   000003   ......       DC24    zcl_SendRead

   \                                 In  segment BANK_RELAYS, align 1
   \                     ??zcl_SendReadRsp?relay:
   \   000000   12....       LCALL   ?BDISPATCH
   \   000003   ......       DC24    zcl_SendReadRsp

   \                                 In  segment BANK_RELAYS, align 1
   \                     ??zcl_SendWriteRequest?relay:
   \   000000   12....       LCALL   ?BDISPATCH
   \   000003   ......       DC24    zcl_SendWriteRequest

   \                                 In  segment BANK_RELAYS, align 1
   \                     ??zcl_SendWriteRsp?relay:
   \   000000   12....       LCALL   ?BDISPATCH
   \   000003   ......       DC24    zcl_SendWriteRsp

   \                                 In  segment BANK_RELAYS, align 1
   \                     ??zcl_SendDefaultRspCmd?relay:
   \   000000   12....       LCALL   ?BDISPATCH
   \   000003   ......       DC24    zcl_SendDefaultRspCmd

   \                                 In  segment BANK_RELAYS, align 1
   \                     ??zclProcessMessageMSG?relay:
   \   000000   12....       LCALL   ?BDISPATCH
   \   000003   ......       DC24    zclProcessMessageMSG

   \                                 In  segment BANK_RELAYS, align 1
   \                     ??zclParseHdr?relay:
   \   000000   12....       LCALL   ?BDISPATCH
   \   000003   ......       DC24    zclParseHdr

   \                                 In  segment BANK_RELAYS, align 1
   \                     ??zclBuildHdr?relay:
   \   000000   12....       LCALL   ?BDISPATCH
   \   000003   ......       DC24    zclBuildHdr

   \                                 In  segment BANK_RELAYS, align 1
   \                     ??zclFindAttrRec?relay:
   \   000000   12....       LCALL   ?BDISPATCH
   \   000003   ......       DC24    zclFindAttrRec

   \                                 In  segment BANK_RELAYS, align 1
   \                     ??zclFindClusterOption?relay:
   \   000000   12....       LCALL   ?BDISPATCH
   \   000003   ......       DC24    zclFindClusterOption

   \                                 In  segment BANK_RELAYS, align 1
   \                     ??zclGetClusterOption?relay:
   \   000000   12....       LCALL   ?BDISPATCH
   \   000003   ......       DC24    zclGetClusterOption

   \                                 In  segment BANK_RELAYS, align 1
   \                     ??zclSetSecurityOption?relay:
   \   000000   12....       LCALL   ?BDISPATCH
   \   000003   ......       DC24    zclSetSecurityOption

   \                                 In  segment BANK_RELAYS, align 1
   \                     ??zclSerializeData?relay:
   \   000000   12....       LCALL   ?BDISPATCH
   \   000003   ......       DC24    zclSerializeData

   \                                 In  segment BANK_RELAYS, align 1
   \                     ??zclGetDataTypeLength?relay:
   \   000000   12....       LCALL   ?BDISPATCH
   \   000003   ......       DC24    zclGetDataTypeLength

   \                                 In  segment BANK_RELAYS, align 1
   \                     ??zclGetAttrDataLength?relay:
   \   000000   12....       LCALL   ?BDISPATCH
   \   000003   ......       DC24    zclGetAttrDataLength

   \                                 In  segment BANK_RELAYS, align 1
   \                     ??zclReadAttrData?relay:
   \   000000   12....       LCALL   ?BDISPATCH
   \   000003   ......       DC24    zclReadAttrData

   \                                 In  segment BANK_RELAYS, align 1
   \                     ??zclWriteAttrData?relay:
   \   000000   12....       LCALL   ?BDISPATCH
   \   000003   ......       DC24    zclWriteAttrData

   \                                 In  segment BANK_RELAYS, align 1
   \                     ??zclParseInReadCmd?relay:
   \   000000   12....       LCALL   ?BDISPATCH
   \   000003   ......       DC24    zclParseInReadCmd

   \                                 In  segment BANK_RELAYS, align 1
   \                     ??zclParseInReadRspCmd?relay:
   \   000000   12....       LCALL   ?BDISPATCH
   \   000003   ......       DC24    zclParseInReadRspCmd

   \                                 In  segment BANK_RELAYS, align 1
   \                     ??zclParseInWriteCmd?relay:
   \   000000   12....       LCALL   ?BDISPATCH
   \   000003   ......       DC24    zclParseInWriteCmd

   \                                 In  segment BANK_RELAYS, align 1
   \                     ??zclParseInWriteRspCmd?relay:
   \   000000   12....       LCALL   ?BDISPATCH
   \   000003   ......       DC24    zclParseInWriteRspCmd

   \                                 In  segment BANK_RELAYS, align 1
   \                     ??zclParseInDefaultRspCmd?relay:
   \   000000   12....       LCALL   ?BDISPATCH
   \   000003   ......       DC24    zclParseInDefaultRspCmd

   \                                 In  segment BANK_RELAYS, align 1
   \                     ??zclProcessInReadCmd?relay:
   \   000000   12....       LCALL   ?BDISPATCH
   \   000003   ......       DC24    zclProcessInReadCmd

   \                                 In  segment BANK_RELAYS, align 1
   \                     ??zclProcessInWriteCmd?relay:
   \   000000   12....       LCALL   ?BDISPATCH
   \   000003   ......       DC24    zclProcessInWriteCmd

   \                                 In  segment BANK_RELAYS, align 1
   \                     ??zclProcessInWriteUndividedCmd?relay:
   \   000000   12....       LCALL   ?BDISPATCH
   \   000003   ......       DC24    zclProcessInWriteUndividedCmd

   \                                 In  segment BANK_RELAYS, align 1
   \                     ??zclSendMsg?relay:
   \   000000   12....       LCALL   ?BDISPATCH
   \   000003   ......       DC24    zclSendMsg

   \                                 In  segment XDATA_ROM_C, align 1
   \                     `?<Constant ",">`:
   \   000000   2C00         DB ","

   \                                 In  segment XDATA_ROM_C, align 1
   \                     `?<Constant "Empty,">`:
   \   000000   456D7074     DB "Empty,"
   \            792C00  

   \                                 In  segment XDATA_ROM_C, align 1
   \                     `?<Constant "%d">`:
   \   000000   256400       DB "%d"
   3116          
   3117          /*********************************************************************
   3118          *********************************************************************/

   Maximum stack usage in bytes:

     Function                      ISTACK PSTACK XSTACK
     --------                      ------ ------ ------
     zclBuildHdr                       1      0     54
     zclFindAttrRec                    1      0     62
     zclFindClusterOption              1      0     21
     zclGetAttrDataLength              2      0     42
       -> zclGetDataTypeLength         4      0      0
     zclGetClusterOption               0      0     87
       -> zclFindClusterOption         0      0     20
     zclGetDataTypeLength              2      0      0
     zclParseHdr                       1      0     89
       -> osal_memset                  0      0     24
     zclParseInDefaultRspCmd           1      0     10
       -> osal_mem_alloc               0      0     20
     zclParseInReadCmd                 1      0     12
       -> osal_mem_alloc               0      0     24
     zclParseInReadRspCmd              1      0     23
       -> zclGetAttrDataLength         0      0     40
       -> osal_mem_alloc               0      0     40
       -> zclGetAttrDataLength         0      0     40
       -> osal_memcpy                  0      0     46
     zclParseInWriteCmd                1      0     23
       -> zclGetAttrDataLength         0      0     40
       -> osal_mem_alloc               0      0     40
       -> zclGetAttrDataLength         0      0     40
       -> osal_memcpy                  0      0     46
     zclParseInWriteRspCmd             1      0     16
       -> osal_mem_alloc               0      0     32
     zclProcessInReadCmd               1      0     35
       -> osal_mem_alloc               0      0     60
       -> zclFindAttrRec               0      0     64
       -> zcl_SendReadRsp              0      0     70
       -> osal_mem_free                0      0     60
     zclProcessInWriteCmd              1      0     39
       -> osal_mem_alloc               0      0     68
       -> zclFindAttrRec               0      0     72
       -> zclWriteAttrData             0      0     68
       -> zcl_SendWriteRsp             0      0     78
       -> osal_mem_free                0      0     68
     zclProcessInWriteUndividedCmd     1      0     47
       -> osal_mem_alloc               0      0     84
       -> zclGetAttrDataLength         0      0     84
       -> zclFindAttrRec               0      0     88
       -> osal_mem_alloc               0      0     84
       -> osal_mem_free                0      0     84
       -> zclGetAttrDataLength         0      0     84
       -> zclFindAttrRec               0      0     88
       -> zclReadAttrData              0      0     84
       -> zclWriteAttrData             0      0     84
       -> zclGetAttrDataLength         0      0     84
       -> osal_memcpy                  0      0     90
       -> zclFindAttrRec               0      0     88
       -> osal_mem_free                0      0     84
       -> zcl_SendWriteRsp             0      0     94
       -> osal_mem_free                0      0     84
     zclProcessMessageMSG              2      0     96
       -> HalUARTWrite                 0      0    154
       -> HalUARTWrite                 0      0    154
       -> HalUARTWrite                 0      0    154
       -> sprintf                      0      0    158
       -> show                         0      0    154
       -> HalUARTWrite                 0      0    154
       -> zclParseHdr                  0      0    154
       -> afFindEndPointDesc           0      0    154
       -> zcl_DeviceOperational        0      0    158
       -> zclGetClusterOption          0      0    154
       -> zclSetSecurityOption         0      0    154
       -> zcl_SendDefaultRspCmd        0      0    168
       -> zclSetSecurityOption         0      0    154
       -> osal_mem_free                0      0    154
       -> zcl_SendDefaultRspCmd        0      0    168
     zclReadAttrData                   0      0     56
       -> zclGetAttrDataLength         0      0     22
       -> osal_memcpy                  0      0     28
     zclSendMsg                        1      0     10
       -> osal_msg_allocate            0      0     20
       -> osal_msg_send                0      0     20
     zclSerializeData                  1      0     44
       -> osal_buffer_uint32           0      0     32
       -> osal_memcpy                  0      0     30
       -> osal_memcpy                  0      0     30
       -> osal_memcpy                  0      0     30
       -> osal_memcpy                  0      0     30
     zclSetSecurityOption              0      0     87
       -> zclFindClusterOption         0      0     20
     zclWriteAttrData                  0      0     60
       -> zclGetAttrDataLength         0      0     30
       -> osal_memcpy                  0      0     36
     zcl_DeviceOperational             1      0    100
       -> zclFindAttrRec               0      0     42
       -> zclReadAttrData              0      0     38
     zcl_Init                          2      0      0
     zcl_SendCommand                   1      0     90
       -> osal_memcpy                  0      0     90
       -> afFindEndPointDesc           0      0     84
       -> zclGetClusterOption          0      0     84
       -> osal_memset                  0      0     84
       -> zcl_DeviceOperational        0      0     88
       -> osal_mem_alloc               0      0     84
       -> zclBuildHdr                  0      0     90
       -> osal_memcpy                  0      0     90
       -> AF_DataRequest               0      0    102
       -> osal_mem_free                0      0     84
     zcl_SendDefaultRspCmd             1      0    111
       -> zcl_SendCommand              0      0     54
     zcl_SendRead                      1      0     38
       -> osal_mem_alloc               0      0     44
       -> zcl_SendCommand              0      0     66
       -> osal_mem_free                0      0     44
     zcl_SendReadRsp                   1      0     74
       -> zclGetAttrDataLength         0      0     56
       -> osal_mem_alloc               0      0     56
       -> zclSerializeData             0      0     56
       -> zclGetAttrDataLength         0      0     56
       -> zcl_SendCommand              0      0     78
       -> osal_mem_free                0      0     56
     zcl_SendWriteRequest              1      0     45
       -> zclGetAttrDataLength         0      0     56
       -> osal_mem_alloc               0      0     56
       -> zclSerializeData             0      0     56
       -> zclGetAttrDataLength         0      0     56
       -> zcl_SendCommand              0      0     78
       -> osal_mem_free                0      0     56
     zcl_SendWriteRsp                  1      0     80
       -> osal_mem_alloc               0      0     44
       -> zcl_SendCommand              0      0     66
       -> osal_mem_free                0      0     44
     zcl_event_loop                    0      0     12
       -> osal_msg_receive             0      0     24
       -> zclProcessMessageMSG         0      0     24
       -> osal_msg_deallocate          0      0     24
       -> osal_msg_receive             0      0     24
       -> osal_msg_send                0      0     24
     zcl_registerAttrList              1      0     12
       -> osal_mem_alloc               0      0     24
     zcl_registerClusterOptionList     1      0     12
       -> osal_mem_alloc               0      0     24
     zcl_registerForMsg                2      0      0
     zcl_registerPlugin                0      0     16
       -> osal_mem_alloc               0      0     28
     zcl_registerValidateAttrData      2      0      0


   Segment part sizes:

     Function/Label                             Bytes
     --------------                             -----
     zcl_TaskID                                    1
     zcl_RegisteredMsgTaskID                       1
     zcl_ValidateAttrDataCB                        2
     zcl_SeqNum                                    1
     plugins                                       2
     attrList                                      2
     clusterOptionList                             2
     zcl_TransID                                   1
     zclCmdTable                                  56
     zcl_Init                                     31
     ?Subroutine104                                7
     zcl_event_loop                              102
     ?Subroutine105                                5
     zcl_registerPlugin                          127
     ?Subroutine106                                5
     ?Subroutine31                                 5
     ??Subroutine121_0                             5
     ?Subroutine11                                 8
     ?Subroutine14                                 4
     ?Subroutine97                                 7
     ??Subroutine130_0                             6
     ?Subroutine87                                 5
     ?Subroutine40                                 6
     ?Subroutine17                                 2
     ??Subroutine148_0                             6
     zcl_registerAttrList                         59
     ?Subroutine63                                25
     ?Subroutine0                                 28
     ?Subroutine78                                 6
     zcl_registerClusterOptionList                59
     zcl_registerValidateAttrData                 14
     zcl_registerForMsg                           20
     zcl_DeviceOperational                       118
     ?Subroutine114                                5
     zcl_SendCommand                             514
     ?Subroutine120                                4
     ??Subroutine122_0                             8
     ?Subroutine41                                10
     ?Subroutine108                                6
     ?Subroutine88                                 6
     ?Subroutine79                                 8
     zcl_SendRead                                218
     ?Subroutine116                                2
     ??Subroutine123_0                             5
     ?Subroutine29                                 5
     ??Subroutine124_0                            11
     ?Subroutine111                                5
     ?Subroutine93                                 6
     ?Subroutine64                                11
     ?Subroutine57                                 6
     ?Subroutine42                                10
     ?Subroutine115                                4
     zcl_SendReadRsp                             251
     ?Subroutine86                                 7
     ?Subroutine73                                 4
     ?Subroutine94                                 7
     ?Subroutine65                                21
     ?Subroutine58                                10
     ?Subroutine45                                16
     ?Subroutine84                                 5
     ?Subroutine99                                11
     ?Subroutine43                                10
     ?Subroutine38                                13
     ?Subroutine37                                 9
     ?Subroutine21                                28
     ?Subroutine110                                5
     ?Subroutine80                                20
     ?Subroutine2                                 21
     ?Subroutine1                                 25
     ?Subroutine82                                 3
     ?Subroutine102                               12
     ??Subroutine147_0                             5
     zcl_SendWriteRequest                        222
     zcl_SendWriteRsp                            250
     zcl_SendDefaultRspCmd                       171
     ?Subroutine56                                 4
     zclProcessMessageMSG                       1276
     ?Subroutine117                                5
     ?Subroutine74                                15
     ?Subroutine59                                 7
     ?Subroutine53                                11
     ?Subroutine52                                11
     ?Subroutine49                                12
     ?Subroutine46                                 5
     ?Subroutine33                                 7
     ?Subroutine89                                 8
     ?Subroutine28                                15
     ?Subroutine26                                13
     ?Subroutine18                                 9
     ?Subroutine101                                8
     ?Subroutine75                                 8
     ?Subroutine35                                 3
     ??Subroutine126_0                             5
     ??Subroutine129_0                             4
     ??Subroutine138_0                             1
     ??Subroutine139_0                             5
     ?Subroutine90                                 4
     ?Subroutine100                                9
     ??Subroutine142_0                             6
     ?Subroutine66                                 3
     ??Subroutine143_0                             4
     ?Subroutine92                                10
     ?Subroutine44                                 4
     ?Subroutine81                                12
     ?Subroutine27                                 3
     ??Subroutine145_0                             2
     ??Subroutine146_0                             2
     ?Subroutine85                                 6
     zclParseHdr                                 219
     ?Subroutine113                                5
     ?Subroutine9                                  4
     ?Subroutine76                                 5
     ??Subroutine133_0                             4
     ?Subroutine77                                 9
     ?Subroutine103                                8
     ?Subroutine5                                  6
     ??Subroutine134_0                             5
     ??Subroutine136_0                             7
     ?Subroutine98                                 4
     ?Subroutine12                                 8
     zclBuildHdr                                 102
     ?Subroutine54                                11
     ?Subroutine16                                 7
     ??Subroutine125_0                             7
     ?Subroutine8                                  6
     ?Subroutine112                                5
     zclFindAttrRec                              186
     zclFindClusterOption                        123
     ?Subroutine118                                5
     zclGetClusterOption                          32
     zclSetSecurityOption                         46
     zclSerializeData                            289
     ?Subroutine15                                 5
     ?Subroutine50                                 4
     ??Subroutine137_0                             4
     zclGetDataTypeLength                        131
     zclGetAttrDataLength                         29
     zclReadAttrData                              75
     ?Subroutine30                                 2
     ??Subroutine127_0                             2
     ??Subroutine128_0                             5
     zclWriteAttrData                            122
     ?Subroutine109                                6
     ??Subroutine140_0                             4
     ?Subroutine51                                 6
     ?Subroutine36                                 6
     zclParseInReadCmd                            99
     ?Subroutine34                                25
     ?Subroutine62                                10
     zclParseInReadRspCmd                        126
     ?Subroutine119                                9
     ?Subroutine61                                22
     ??Subroutine131_0                             4
     ?Subroutine22                                 7
     ??Subroutine132_0                            22
     ?Subroutine6                                  8
     ?Subroutine72                                14
     ?Subroutine70                                 5
     ?Subroutine107                                6
     ?Subroutine69                                16
     ?Subroutine68                                26
     ?Subroutine39                                25
     ?Subroutine24                                32
     ?Subroutine4                                 23
     ?Subroutine3                                 35
     ?Subroutine96                                 4
     ?Subroutine95                                15
     ?Subroutine91                                 9
     zclParseInWriteCmd                          103
     zclParseInWriteRspCmd                       123
     zclParseInDefaultRspCmd                      44
     ?Subroutine7                                  4
     zclProcessInReadCmd                         320
     ?Subroutine83                                 6
     ??Subroutine135_0                             8
     ?Subroutine55                                 1
     ??Subroutine141_0                            34
     ?Subroutine67                                 6
     ?Subroutine13                                 7
     zclProcessInWriteCmd                        358
     ?Subroutine48                                 6
     ??Subroutine144_0                             6
     ?Subroutine25                                19
     ?Subroutine23                                38
     ?Subroutine10                                13
     ?Subroutine60                                 3
     ?Subroutine20                                 6
     zclProcessInWriteUndividedCmd               693
     ?Subroutine71                                26
     ?Subroutine32                                 6
     ?Subroutine19                                10
     ?Subroutine47                                 5
     zclSendMsg                                  152
     ?<Initializer for zcl_RegisteredMsgTaskID>    1
     ??zcl_Init?relay                              6
     ??zcl_event_loop?relay                        6
     ??zcl_registerPlugin?relay                    6
     ??zcl_registerAttrList?relay                  6
     ??zcl_registerClusterOptionList?relay         6
     ??zcl_registerValidateAttrData?relay          6
     ??zcl_registerForMsg?relay                    6
     ??zcl_DeviceOperational?relay                 6
     ??zcl_SendCommand?relay                       6
     ??zcl_SendRead?relay                          6
     ??zcl_SendReadRsp?relay                       6
     ??zcl_SendWriteRequest?relay                  6
     ??zcl_SendWriteRsp?relay                      6
     ??zcl_SendDefaultRspCmd?relay                 6
     ??zclProcessMessageMSG?relay                  6
     ??zclParseHdr?relay                           6
     ??zclBuildHdr?relay                           6
     ??zclFindAttrRec?relay                        6
     ??zclFindClusterOption?relay                  6
     ??zclGetClusterOption?relay                   6
     ??zclSetSecurityOption?relay                  6
     ??zclSerializeData?relay                      6
     ??zclGetDataTypeLength?relay                  6
     ??zclGetAttrDataLength?relay                  6
     ??zclReadAttrData?relay                       6
     ??zclWriteAttrData?relay                      6
     ??zclParseInReadCmd?relay                     6
     ??zclParseInReadRspCmd?relay                  6
     ??zclParseInWriteCmd?relay                    6
     ??zclParseInWriteRspCmd?relay                 6
     ??zclParseInDefaultRspCmd?relay               6
     ??zclProcessInReadCmd?relay                   6
     ??zclProcessInWriteCmd?relay                  6
     ??zclProcessInWriteUndividedCmd?relay         6
     ??zclSendMsg?relay                            6
     ?<Constant ",">                               2
     ?<Constant "Empty,">                          7
     ?<Constant "%d">                              3

 
 8 170 bytes in segment BANKED_CODE
   210 bytes in segment BANK_RELAYS
    56 bytes in segment CODE_C
     1 byte  in segment XDATA_I
     1 byte  in segment XDATA_ID
    12 bytes in segment XDATA_ROM_C
    11 bytes in segment XDATA_Z
 
 8 437 bytes of CODE  memory
    12 bytes of CONST memory
    12 bytes of XDATA memory

Errors: none
Warnings: 2
