###############################################################################
#                                                                             #
# IAR C/C++ Compiler V7.51A/W32 for 8051                12/Mar/2010  12:15:13 #
# Copyright 2004-2009 IAR Systems AB.                                         #
#                                                                             #
#    Core               =  plain                                              #
#    Code model         =  banked                                             #
#    Data model         =  large                                              #
#    Calling convention =  xdata reentrant                                    #
#    Constant location  =  data_rom                                           #
#    Dptr setup         =  1,16                                               #
#    Source file        =  D:\µ{¦¡¶}µo\TI Zigbee Z-Stack\ZStack-CC2530-2.3.0- #
#                          1.4.0\Projects\zstack\Samples\GenericApp\Source\Ge #
#                          nericApp.c                                         #
#    Command line       =  -f "D:\µ{¦¡¶}µo\TI Zigbee                          #
#                          Z-Stack\ZStack-CC2530-2.3.0-1.4.0\Projects\zstack\ #
#                          Samples\GenericApp\CC2530DB\..\..\..\Tools\CC2530D #
#                          B\f8wEndev.cfg" (-DCPU32MHZ -DROOT=__near_func     #
#                          -DBLINK_LEDS) -f "D:\µ{¦¡¶}µo\TI Zigbee            #
#                          Z-Stack\ZStack-CC2530-2.3.0-1.4.0\Projects\zstack\ #
#                          Samples\GenericApp\CC2530DB\..\..\..\Tools\CC2530D #
#                          B\f8wConfig.cfg" (-DSECURE=0                       #
#                          -DZG_SECURE_DYNAMIC=0 -DREFLECTOR                  #
#                          -DDEFAULT_CHANLIST=0x00000800                      #
#                          -DZDAPP_CONFIG_PAN_ID=0xFFFF                       #
#                          -DNWK_START_DELAY=100 -DEXTENDED_JOINING_RANDOM_MA #
#                          SK=0x007F -DBEACON_REQUEST_DELAY=100               #
#                          -DBEACON_REQ_DELAY_MASK=0x00FF                     #
#                          -DROUTE_EXPIRY_TIME=30 -DAPSC_ACK_WAIT_DURATION_PO #
#                          LLED=3000 -DNWK_INDIRECT_MSG_TIMEOUT=7             #
#                          -DMAX_RREQ_ENTRIES=8 -DAPSC_MAX_FRAME_RETRIES=3    #
#                          -DNWK_MAX_DATA_RETRIES=2                           #
#                          -DMAX_POLL_FAILURE_RETRIES=2 -DMAX_BCAST=9         #
#                          -DAPS_MAX_GROUPS=16 -DMAX_RTG_ENTRIES=40           #
#                          -DNWK_MAX_BINDING_ENTRIES=4                        #
#                          -DMAX_BINDING_CLUSTER_IDS=4 "-DDEFAULT_KEY={0x01,  #
#                          0x03, 0x05, 0x07, 0x09, 0x0B, 0x0D, 0x0F, 0x00,    #
#                          0x02, 0x04, 0x06, 0x08, 0x0A, 0x0C, 0x0D}"         #
#                          -DMAC_MAX_FRAME_SIZE=116 "-DCONST=const __code"    #
#                          -DGENERIC=__generic -DRFD_RCVC_ALWAYS_ON=FALSE     #
#                          -DPOLL_RATE=1000 -DQUEUED_POLL_RATE=100            #
#                          -DRESPONSE_POLL_RATE=100) -DREJOIN_POLL_RATE=440   #
#                          "D:\µ{¦¡¶}µo\TI Zigbee Z-Stack\ZStack-CC2530-2.3.0 #
#                          -1.4.0\Projects\zstack\Samples\GenericApp\Source\G #
#                          enericApp.c" -D NWK_AUTO_POLL -D ZTOOL_P1 -D       #
#                          MT_TASK -D MT_SYS_FUNC -D MT_ZDO_FUNC -D           #
#                          xLCD_SUPPORTED=DEBUG -D xPOWER_SAVING -lC          #
#                          "D:\µ{¦¡¶}µo\TI Zigbee Z-Stack\ZStack-CC2530-2.3.0 #
#                          -1.4.0\Projects\zstack\Samples\GenericApp\CC2530DB #
#                          \EndDeviceBB\List\" -lA "D:\µ{¦¡¶}µo\TI Zigbee     #
#                          Z-Stack\ZStack-CC2530-2.3.0-1.4.0\Projects\zstack\ #
#                          Samples\GenericApp\CC2530DB\EndDeviceBB\List\"     #
#                          --diag_suppress Pe001,Pa010 -o "D:\µ{¦¡¶}µo\TI     #
#                          Zigbee Z-Stack\ZStack-CC2530-2.3.0-1.4.0\Projects\ #
#                          zstack\Samples\GenericApp\CC2530DB\EndDeviceBB\Obj #
#                          \" -e --require_prototypes --debug --core=plain    #
#                          --dptr=16,1 --data_model=large                     #
#                          --code_model=banked --calling_convention=xdata_ree #
#                          ntrant --place_constants=data_rom                  #
#                          --nr_virtual_regs 16 -I "D:\µ{¦¡¶}µo\TI Zigbee     #
#                          Z-Stack\ZStack-CC2530-2.3.0-1.4.0\Projects\zstack\ #
#                          Samples\GenericApp\CC2530DB\" -I "D:\µ{¦¡¶}µo\TI   #
#                          Zigbee Z-Stack\ZStack-CC2530-2.3.0-1.4.0\Projects\ #
#                          zstack\Samples\GenericApp\CC2530DB\..\SOURCE\" -I  #
#                          "D:\µ{¦¡¶}µo\TI Zigbee Z-Stack\ZStack-CC2530-2.3.0 #
#                          -1.4.0\Projects\zstack\Samples\GenericApp\CC2530DB #
#                          \..\..\..\ZMAIN\TI2530DB\" -I "D:\µ{¦¡¶}µo\TI      #
#                          Zigbee Z-Stack\ZStack-CC2530-2.3.0-1.4.0\Projects\ #
#                          zstack\Samples\GenericApp\CC2530DB\..\..\..\..\..\ #
#                          COMPONENTS\MT\" -I "D:\µ{¦¡¶}µo\TI Zigbee          #
#                          Z-Stack\ZStack-CC2530-2.3.0-1.4.0\Projects\zstack\ #
#                          Samples\GenericApp\CC2530DB\..\..\..\..\..\COMPONE #
#                          NTS\HAL\INCLUDE\" -I "D:\µ{¦¡¶}µo\TI Zigbee        #
#                          Z-Stack\ZStack-CC2530-2.3.0-1.4.0\Projects\zstack\ #
#                          Samples\GenericApp\CC2530DB\..\..\..\..\..\COMPONE #
#                          NTS\HAL\TARGET\CC2530EB\" -I "D:\µ{¦¡¶}µo\TI       #
#                          Zigbee Z-Stack\ZStack-CC2530-2.3.0-1.4.0\Projects\ #
#                          zstack\Samples\GenericApp\CC2530DB\..\..\..\..\..\ #
#                          COMPONENTS\OSAL\MCU\CCSOC\" -I "D:\µ{¦¡¶}µo\TI     #
#                          Zigbee Z-Stack\ZStack-CC2530-2.3.0-1.4.0\Projects\ #
#                          zstack\Samples\GenericApp\CC2530DB\..\..\..\..\..\ #
#                          COMPONENTS\OSAL\INCLUDE\" -I "D:\µ{¦¡¶}µo\TI       #
#                          Zigbee Z-Stack\ZStack-CC2530-2.3.0-1.4.0\Projects\ #
#                          zstack\Samples\GenericApp\CC2530DB\..\..\..\..\..\ #
#                          COMPONENTS\STACK\AF\" -I "D:\µ{¦¡¶}µo\TI Zigbee    #
#                          Z-Stack\ZStack-CC2530-2.3.0-1.4.0\Projects\zstack\ #
#                          Samples\GenericApp\CC2530DB\..\..\..\..\..\COMPONE #
#                          NTS\STACK\NWK\" -I "D:\µ{¦¡¶}µo\TI Zigbee          #
#                          Z-Stack\ZStack-CC2530-2.3.0-1.4.0\Projects\zstack\ #
#                          Samples\GenericApp\CC2530DB\..\..\..\..\..\COMPONE #
#                          NTS\STACK\SEC\" -I "D:\µ{¦¡¶}µo\TI Zigbee          #
#                          Z-Stack\ZStack-CC2530-2.3.0-1.4.0\Projects\zstack\ #
#                          Samples\GenericApp\CC2530DB\..\..\..\..\..\COMPONE #
#                          NTS\STACK\SAPI\" -I "D:\µ{¦¡¶}µo\TI Zigbee         #
#                          Z-Stack\ZStack-CC2530-2.3.0-1.4.0\Projects\zstack\ #
#                          Samples\GenericApp\CC2530DB\..\..\..\..\..\COMPONE #
#                          NTS\STACK\SYS\" -I "D:\µ{¦¡¶}µo\TI Zigbee          #
#                          Z-Stack\ZStack-CC2530-2.3.0-1.4.0\Projects\zstack\ #
#                          Samples\GenericApp\CC2530DB\..\..\..\..\..\COMPONE #
#                          NTS\STACK\ZDO\" -I "D:\µ{¦¡¶}µo\TI Zigbee          #
#                          Z-Stack\ZStack-CC2530-2.3.0-1.4.0\Projects\zstack\ #
#                          Samples\GenericApp\CC2530DB\..\..\..\..\..\COMPONE #
#                          NTS\ZMAC\F8W\" -I "D:\µ{¦¡¶}µo\TI Zigbee           #
#                          Z-Stack\ZStack-CC2530-2.3.0-1.4.0\Projects\zstack\ #
#                          Samples\GenericApp\CC2530DB\..\..\..\..\..\COMPONE #
#                          NTS\ZMAC\" -I "D:\µ{¦¡¶}µo\TI Zigbee               #
#                          Z-Stack\ZStack-CC2530-2.3.0-1.4.0\Projects\zstack\ #
#                          Samples\GenericApp\CC2530DB\..\..\..\..\..\COMPONE #
#                          NTS\SERVICES\SADDR\" -I "D:\µ{¦¡¶}µo\TI Zigbee     #
#                          Z-Stack\ZStack-CC2530-2.3.0-1.4.0\Projects\zstack\ #
#                          Samples\GenericApp\CC2530DB\..\..\..\..\..\COMPONE #
#                          NTS\SERVICES\SDATA\" -I "D:\µ{¦¡¶}µo\TI Zigbee     #
#                          Z-Stack\ZStack-CC2530-2.3.0-1.4.0\Projects\zstack\ #
#                          Samples\GenericApp\CC2530DB\..\..\..\..\..\COMPONE #
#                          NTS\MAC\INCLUDE\" -I "D:\µ{¦¡¶}µo\TI Zigbee        #
#                          Z-Stack\ZStack-CC2530-2.3.0-1.4.0\Projects\zstack\ #
#                          Samples\GenericApp\CC2530DB\..\..\..\..\..\COMPONE #
#                          NTS\MAC\HIGH_LEVEL\" -I "D:\µ{¦¡¶}µo\TI Zigbee     #
#                          Z-Stack\ZStack-CC2530-2.3.0-1.4.0\Projects\zstack\ #
#                          Samples\GenericApp\CC2530DB\..\..\..\..\..\COMPONE #
#                          NTS\MAC\LOW_LEVEL\srf04\" -I "D:\µ{¦¡¶}µo\TI       #
#                          Zigbee Z-Stack\ZStack-CC2530-2.3.0-1.4.0\Projects\ #
#                          zstack\Samples\GenericApp\CC2530DB\..\..\..\..\..\ #
#                          COMPONENTS\MAC\LOW_LEVEL\srf04\SINGLE_CHIP\" -I    #
#                          "C:\Program Files\IAR Systems\Embedded Workbench   #
#                          5.3\8051\INC\" -I "C:\Program Files\IAR            #
#                          Systems\Embedded Workbench 5.3\8051\INC\CLIB\"     #
#                          -Ohz                                               #
#    List file          =  D:\µ{¦¡¶}µo\TI Zigbee Z-Stack\ZStack-CC2530-2.3.0- #
#                          1.4.0\Projects\zstack\Samples\GenericApp\CC2530DB\ #
#                          EndDeviceBB\List\GenericApp.lst                    #
#    Object file        =  D:\µ{¦¡¶}µo\TI Zigbee Z-Stack\ZStack-CC2530-2.3.0- #
#                          1.4.0\Projects\zstack\Samples\GenericApp\CC2530DB\ #
#                          EndDeviceBB\Obj\GenericApp.r51                     #
#                                                                             #
#                                                                             #
###############################################################################

D:\µ{¦¡¶}µo\TI Zigbee Z-Stack\ZStack-CC2530-2.3.0-1.4.0\Projects\zstack\Samples\GenericApp\Source\GenericApp.c
      1          /**************************************************************************************************
      2            Filename:       GenericApp.c
      3            Revised:        $Date: 2009-03-18 15:56:27 -0700 (Wed, 18 Mar 2009) $
      4            Revision:       $Revision: 19453 $
      5          
      6            Description:    Generic Application (no Profile).
      7          
      8          
      9            Copyright 2004-2009 Texas Instruments Incorporated. All rights reserved.
     10          
     11            IMPORTANT: Your use of this Software is limited to those specific rights
     12            granted under the terms of a software license agreement between the user
     13            who downloaded the software, his/her employer (which must be your employer)
     14            and Texas Instruments Incorporated (the "License").  You may not use this
     15            Software unless you agree to abide by the terms of the License. The License
     16            limits your use, and you acknowledge, that the Software may not be modified,
     17            copied or distributed unless embedded on a Texas Instruments microcontroller
     18            or used solely and exclusively in conjunction with a Texas Instruments radio
     19            frequency transceiver, which is integrated into your product.  Other than for
     20            the foregoing purpose, you may not use, reproduce, copy, prepare derivative
     21            works of, modify, distribute, perform, display or sell this Software and/or
     22            its documentation for any purpose.
     23          
     24            YOU FURTHER ACKNOWLEDGE AND AGREE THAT THE SOFTWARE AND DOCUMENTATION ARE
     25            PROVIDED “AS IS?WITHOUT WARRANTY OF ANY KIND, EITHER EXPRESS OR IMPLIED, 
     26            INCLUDING WITHOUT LIMITATION, ANY WARRANTY OF MERCHANTABILITY, TITLE, 
     27            NON-INFRINGEMENT AND FITNESS FOR A PARTICULAR PURPOSE. IN NO EVENT SHALL
     28            TEXAS INSTRUMENTS OR ITS LICENSORS BE LIABLE OR OBLIGATED UNDER CONTRACT,
     29            NEGLIGENCE, STRICT LIABILITY, CONTRIBUTION, BREACH OF WARRANTY, OR OTHER
     30            LEGAL EQUITABLE THEORY ANY DIRECT OR INDIRECT DAMAGES OR EXPENSES
     31            INCLUDING BUT NOT LIMITED TO ANY INCIDENTAL, SPECIAL, INDIRECT, PUNITIVE
     32            OR CONSEQUENTIAL DAMAGES, LOST PROFITS OR LOST DATA, COST OF PROCUREMENT
     33            OF SUBSTITUTE GOODS, TECHNOLOGY, SERVICES, OR ANY CLAIMS BY THIRD PARTIES
     34            (INCLUDING BUT NOT LIMITED TO ANY DEFENSE THEREOF), OR OTHER SIMILAR COSTS.
     35          
     36            Should you have any questions regarding your right to use this Software,
     37            contact Texas Instruments Incorporated at www.TI.com. 
     38          **************************************************************************************************/
     39          
     40          /*********************************************************************
     41            This application isn't intended to do anything useful, it is
     42            intended to be a simple example of an application's structure.
     43          
     44            This application sends "Hello World" to another "Generic"
     45            application every 15 seconds.  The application will also
     46            receive "Hello World" packets.
     47          
     48            The "Hello World" messages are sent/received as MSG type message.
     49          
     50            This applications doesn't have a profile, so it handles everything
     51            directly - itself.
     52          
     53            Key control:
     54              SW1:
     55              SW2:  initiates end device binding
     56              SW3:
     57              SW4:  initiates a match description request
     58          *********************************************************************/
     59          
     60          /*********************************************************************
     61           * INCLUDES
     62           */
     63          #include "OSAL.h"
     64          #include "AF.h"
     65          #include "ZDApp.h"
     66          #include "ZDObject.h"
     67          #include "ZDProfile.h"
     68          
     69          #include "GenericApp.h"
     70          #include "DebugTrace.h"
     71          
     72          #if !defined( WIN32 )
     73            #include "OnBoard.h"
     74          #endif
     75          
     76          /* HAL */
     77          #include "hal_lcd.h"
     78          #include "hal_led.h"
     79          #include "hal_key.h"
     80          #include "hal_uart.h"
     81          
     82          /*********************************************************************
     83           * MACROS
     84           */
     85          
     86          /*********************************************************************
     87           * CONSTANTS
     88           */
     89          
     90          /*********************************************************************
     91           * TYPEDEFS
     92           */
     93          
     94          /*********************************************************************
     95           * GLOBAL VARIABLES
     96           */
     97          
     98          // This list should be filled with Application specific Cluster IDs.

   \                                 In  segment XDATA_ROM_C, align 1
     99          const cId_t GenericApp_ClusterList[GENERICAPP_MAX_CLUSTERS] =
   \                     GenericApp_ClusterList:
   \   000000   0100         DW 1
    100          {
    101            GENERICAPP_CLUSTERID
    102          };
    103          

   \                                 In  segment XDATA_ROM_C, align 1
    104          const SimpleDescriptionFormat_t GenericApp_SimpleDesc =
   \                     GenericApp_SimpleDesc:
   \   000000   0A           DB 10
   \   000001   040F0100     DW 3844, 1
   \   000005   0001         DB 0, 1
   \   000007   ....         DW GenericApp_ClusterList
   \   000009   01           DB 1
   \   00000A   ....         DW GenericApp_ClusterList
    105          {
    106            GENERICAPP_ENDPOINT,              //  int Endpoint;
    107            GENERICAPP_PROFID,                //  uint16 AppProfId[2];
    108            GENERICAPP_DEVICEID,              //  uint16 AppDeviceId[2];
    109            GENERICAPP_DEVICE_VERSION,        //  int   AppDevVer:4;
    110            GENERICAPP_FLAGS,                 //  int   AppFlags:4;
    111            GENERICAPP_MAX_CLUSTERS,          //  byte  AppNumInClusters;
    112            (cId_t *)GenericApp_ClusterList,  //  byte *pAppInClusterList;
    113            GENERICAPP_MAX_CLUSTERS,          //  byte  AppNumInClusters;
    114            (cId_t *)GenericApp_ClusterList   //  byte *pAppInClusterList;
    115          };
    116          
    117          // This is the Endpoint/Interface description.  It is defined here, but
    118          // filled-in in GenericApp_Init().  Another way to go would be to fill
    119          // in the structure here and make it a "const" (in code space).  The
    120          // way it's defined in this sample app it is define in RAM.

   \                                 In  segment XDATA_Z, align 1, keep-with-next
    121          endPointDesc_t GenericApp_epDesc;
   \                     GenericApp_epDesc:
   \   000000                DS 6
   \   000006                REQUIRE __INIT_XDATA_Z
    122          
    123          /*********************************************************************
    124           * EXTERNAL VARIABLES
    125           */
    126          
    127          /*********************************************************************
    128           * EXTERNAL FUNCTIONS
    129           */
    130          
    131          /*********************************************************************
    132           * LOCAL VARIABLES
    133           */

   \                                 In  segment XDATA_Z, align 1, keep-with-next
    134          byte GenericApp_TaskID;   // Task ID for internal task/event processing
   \                     GenericApp_TaskID:
   \   000000                DS 1
   \   000001                REQUIRE __INIT_XDATA_Z
    135                                    // This variable will be received when
    136                                    // GenericApp_Init() is called.

   \                                 In  segment XDATA_Z, align 1, keep-with-next
    137          devStates_t GenericApp_NwkState;
   \                     GenericApp_NwkState:
   \   000000                DS 1
   \   000001                REQUIRE __INIT_XDATA_Z
    138          
    139          

   \                                 In  segment XDATA_Z, align 1, keep-with-next
    140          byte GenericApp_TransID;  // This is the unique message ID (counter)
   \                     GenericApp_TransID:
   \   000000                DS 1
   \   000001                REQUIRE __INIT_XDATA_Z
    141          

   \                                 In  segment XDATA_Z, align 1, keep-with-next
    142          afAddrType_t GenericApp_DstAddr;
   \                     GenericApp_DstAddr:
   \   000000                DS 12
   \   00000C                REQUIRE __INIT_XDATA_Z
    143          
    144          /*********************************************************************
    145           * LOCAL FUNCTIONS
    146           */
    147          void GenericApp_ProcessZDOMsgs( zdoIncomingMsg_t *inMsg );
    148          void GenericApp_HandleKeys( byte shift, byte keys );
    149          void GenericApp_MessageMSGCB( afIncomingMSGPacket_t *pckt );
    150          void GenericApp_SendTheMessage( void );
    151          
    152          /*********************************************************************
    153           * NETWORK LAYER CALLBACKS
    154           */
    155          
    156          /*********************************************************************
    157           * PUBLIC FUNCTIONS
    158           */
    159          
    160          /*********************************************************************
    161           * @fn      GenericApp_Init
    162           *
    163           * @brief   Initialization function for the Generic App Task.
    164           *          This is called during initialization and should contain
    165           *          any application specific initialization (ie. hardware
    166           *          initialization/setup, table initialization, power up
    167           *          notificaiton ... ).
    168           *
    169           * @param   task_id - the ID assigned by OSAL.  This ID should be
    170           *                    used to send messages and set timers.
    171           *
    172           * @return  none
    173           */

   \                                 In  segment BANKED_CODE, align 1, keep-with-next
    174          void GenericApp_Init( byte task_id )
   \                     GenericApp_Init:
    175          {
   \   000000   C082         PUSH    DPL
   \   000002   C083         PUSH    DPH
   \   000004                ; Saved register size: 2
   \   000004                ; Auto size: 0
    176            GenericApp_TaskID = task_id;
   \   000004   E9           MOV     A,R1
   \   000005   90....       MOV     DPTR,#GenericApp_TaskID
   \   000008   F0           MOVX    @DPTR,A
    177            GenericApp_NwkState = DEV_INIT;
   \   000009   7401         MOV     A,#0x1
   \   00000B   90....       MOV     DPTR,#GenericApp_NwkState
   \   00000E   F0           MOVX    @DPTR,A
    178            GenericApp_TransID = 0;
   \   00000F   E4           CLR     A
   \   000010   90....       MOV     DPTR,#GenericApp_TransID
   \   000013   F0           MOVX    @DPTR,A
    179          
    180            // Device hardware initialization can be added here or in main() (Zmain.c).
    181            // If the hardware is application specific - add it here.
    182            // If the hardware is other parts of the device add it in main().
    183          
    184            GenericApp_DstAddr.addrMode = (afAddrMode_t)AddrNotPresent; //¶Ç°e¼Ò¦¡-AddrNotPresent=0; AddrBroadcast=15(¼s¼½)
   \   000014   90....       MOV     DPTR,#(GenericApp_DstAddr + 8)
   \   000017   F0           MOVX    @DPTR,A
    185            GenericApp_DstAddr.endPoint = 0;
   \   000018   90....       MOV     DPTR,#(GenericApp_DstAddr + 9)
   \   00001B   F0           MOVX    @DPTR,A
    186            GenericApp_DstAddr.addr.shortAddr = 0;
   \   00001C   90....       MOV     DPTR,#GenericApp_DstAddr
   \   00001F   F0           MOVX    @DPTR,A
   \   000020   A3           INC     DPTR
   \   000021   F0           MOVX    @DPTR,A
    187          
    188            // Fill out the endpoint description.
    189            GenericApp_epDesc.endPoint = GENERICAPP_ENDPOINT;
   \   000022   740A         MOV     A,#0xa
   \   000024   90....       MOV     DPTR,#GenericApp_epDesc
   \   000027   F0           MOVX    @DPTR,A
    190            GenericApp_epDesc.task_id = &GenericApp_TaskID;
   \   000028   90....       MOV     DPTR,#(GenericApp_epDesc + 1)
   \   00002B   74..         MOV     A,#(GenericApp_TaskID & 0xff)
   \   00002D   F0           MOVX    @DPTR,A
   \   00002E   A3           INC     DPTR
   \   00002F   74..         MOV     A,#((GenericApp_TaskID >> 8) & 0xff)
   \   000031   F0           MOVX    @DPTR,A
    191            GenericApp_epDesc.simpleDesc
    192                      = (SimpleDescriptionFormat_t *)&GenericApp_SimpleDesc;
   \   000032   90....       MOV     DPTR,#(GenericApp_epDesc + 3)
   \   000035   74..         MOV     A,#(GenericApp_SimpleDesc & 0xff)
   \   000037   F0           MOVX    @DPTR,A
   \   000038   A3           INC     DPTR
   \   000039   74..         MOV     A,#((GenericApp_SimpleDesc >> 8) & 0xff)
   \   00003B   F0           MOVX    @DPTR,A
    193            GenericApp_epDesc.latencyReq = noLatencyReqs;
   \   00003C   E4           CLR     A
   \   00003D   90....       MOV     DPTR,#(GenericApp_epDesc + 5)
   \   000040   F0           MOVX    @DPTR,A
    194          
    195            // Register the endpoint description with the AF
    196            afRegister( &GenericApp_epDesc );
   \   000041                ; Setup parameters for call to function afRegister
   \   000041   7A..         MOV     R2,#(GenericApp_epDesc & 0xff)
   \   000043   7B..         MOV     R3,#((GenericApp_epDesc >> 8) & 0xff)
   \   000045   12....       LCALL   ??afRegister?relay
    197          
    198            // Register for all key events - This app will handle all key events
    199            RegisterForKeys( GenericApp_TaskID );
   \   000048                ; Setup parameters for call to function RegisterForKeys
   \   000048   90....       MOV     DPTR,#GenericApp_TaskID
   \   00004B   E0           MOVX    A,@DPTR
   \   00004C   F9           MOV     R1,A
   \   00004D   12....       LCALL   ??RegisterForKeys?relay
    200          
    201            // Update the display
    202          #if defined ( LCD_SUPPORTED )
    203              HalLcdWriteString( "GenericApp", HAL_LCD_LINE_1 );
    204          #endif
    205              
    206            ZDO_RegisterForZDOMsg( GenericApp_TaskID, End_Device_Bind_rsp );
   \   000050                ; Setup parameters for call to function ZDO_RegisterForZDOMsg
   \   000050   7A20         MOV     R2,#0x20
   \   000052   7B80         MOV     R3,#-0x80
   \   000054   90....       MOV     DPTR,#GenericApp_TaskID
   \   000057   E0           MOVX    A,@DPTR
   \   000058   F9           MOV     R1,A
   \   000059   12....       LCALL   ??ZDO_RegisterForZDOMsg?relay
    207            ZDO_RegisterForZDOMsg( GenericApp_TaskID, Match_Desc_rsp );
   \   00005C                ; Setup parameters for call to function ZDO_RegisterForZDOMsg
   \   00005C   7A06         MOV     R2,#0x6
   \   00005E   7B80         MOV     R3,#-0x80
   \   000060   90....       MOV     DPTR,#GenericApp_TaskID
   \   000063   E0           MOVX    A,@DPTR
   \   000064   F9           MOV     R1,A
   \   000065   12....       LCALL   ??ZDO_RegisterForZDOMsg?relay
    208          }
   \   000068   D083         POP     DPH
   \   00006A   D082         POP     DPL
   \   00006C   02....       LJMP    ?BRET
    209          
    210          /*********************************************************************
    211           * @fn      GenericApp_ProcessEvent
    212           *
    213           * @brief   Generic Application Task event processor.  This function
    214           *          is called to process all events for the task.  Events
    215           *          include timers, messages and any other user defined events.
    216           *
    217           * @param   task_id  - The OSAL assigned task ID.
    218           * @param   events - events to process.  This is a bit map and can
    219           *                   contain more than one event.
    220           *
    221           * @return  none
    222           */

   \                                 In  segment BANKED_CODE, align 1, keep-with-next
    223          UINT16 GenericApp_ProcessEvent( byte task_id, UINT16 events )
   \                     GenericApp_ProcessEvent:
    224          {
   \   000000   74F4         MOV     A,#-0xc
   \   000002   12....       LCALL   ?BANKED_ENTER_XDATA
   \   000005                ; Saved register size: 12
   \   000005                ; Auto size: 0
   \   000005   EA           MOV     A,R2
   \   000006   FE           MOV     R6,A
   \   000007   EB           MOV     A,R3
   \   000008   FF           MOV     R7,A
    225            afIncomingMSGPacket_t *MSGpkt;
    226            afDataConfirm_t *afDataConfirm;
    227          
    228            // Data Confirmation message fields
    229            byte sentEP;
    230            ZStatus_t sentStatus;
    231            byte sentTransID;       // This should match the value sent
    232            (void)task_id;  // Intentionally unreferenced parameter
    233          
    234            if ( events & SYS_EVENT_MSG )
   \   000009   7480         MOV     A,#-0x80
   \   00000B   5F           ANL     A,R7
   \   00000C   F9           MOV     R1,A
   \   00000D   E4           CLR     A
   \   00000E   7001         JNZ     ??GenericApp_ProcessEvent_0
   \   000010   E9           MOV     A,R1
   \                     ??GenericApp_ProcessEvent_0:
   \   000011   7003         JNZ     $+5
   \   000013   02....       LJMP    ??GenericApp_ProcessEvent_1 & 0xFFFF
    235            {
    236              MSGpkt = (afIncomingMSGPacket_t *)osal_msg_receive( GenericApp_TaskID );
   \   000016                ; Setup parameters for call to function osal_msg_receive
   \   000016   8031         SJMP    ??GenericApp_ProcessEvent_2
    237              while ( MSGpkt )
    238              {
    239                switch ( MSGpkt->hdr.event )
    240                {
    241                  case ZDO_CB_MSG:
    242                    GenericApp_ProcessZDOMsgs( (zdoIncomingMsg_t *)MSGpkt );
    243                    break;
    244                    
    245                  case KEY_CHANGE:
    246                    GenericApp_HandleKeys( ((keyChange_t *)MSGpkt)->state, ((keyChange_t *)MSGpkt)->keys );
    247                    break;
    248          
    249                  case AF_DATA_CONFIRM_CMD:
    250                    // This message is received as a confirmation of a data packet sent.
    251                    // The status is of ZStatus_t type [defined in ZComDef.h]
    252                    // The message fields are defined in AF.h
    253                    afDataConfirm = (afDataConfirm_t *)MSGpkt;
    254                    sentEP = afDataConfirm->endpoint;
    255                    sentStatus = afDataConfirm->hdr.status;
    256                    sentTransID = afDataConfirm->transID;
    257                    (void)sentEP;
    258                    (void)sentTransID;
    259                    
    260                    // Action taken when confirmation is received.
    261                    if ( sentStatus != ZSuccess )
    262                    {
    263                      // The data wasn't delivered -- Do something
    264                    }
    265                    break;
    266          
    267                  case AF_INCOMING_MSG_CMD:
    268                    GenericApp_MessageMSGCB( MSGpkt );
    269                    break;
    270          
    271                  case ZDO_STATE_CHANGE:
    272                    GenericApp_NwkState = (devStates_t)(MSGpkt->hdr.status);
   \                     ??GenericApp_ProcessEvent_3:
   \   000018   85..82       MOV     DPL,?V0 + 0
   \   00001B   85..83       MOV     DPH,?V0 + 1
   \   00001E   A3           INC     DPTR
   \   00001F   E0           MOVX    A,@DPTR
   \   000020   90....       MOV     DPTR,#GenericApp_NwkState
   \   000023   F0           MOVX    @DPTR,A
    273          
    274                    if ( (GenericApp_NwkState == DEV_ZB_COORD)
    275                        || (GenericApp_NwkState == DEV_ROUTER)
    276                        || (GenericApp_NwkState == DEV_END_DEVICE) )
   \   000024   6409         XRL     A,#0x9
   \   000026   600A         JZ      ??GenericApp_ProcessEvent_4
   \   000028   E0           MOVX    A,@DPTR
   \   000029   6407         XRL     A,#0x7
   \   00002B   6005         JZ      ??GenericApp_ProcessEvent_4
   \   00002D   E0           MOVX    A,@DPTR
   \   00002E   6406         XRL     A,#0x6
   \   000030   7010         JNZ     ??GenericApp_ProcessEvent_5
    277                    {
    278                      // Start sending "the" message in a regular interval.
    279                      osal_start_timerEx( GenericApp_TaskID,
    280                                          GENERICAPP_SEND_MSG_EVT,
    281                                        GENERICAPP_SEND_MSG_TIMEOUT );
   \                     ??GenericApp_ProcessEvent_4:
   \   000032                ; Setup parameters for call to function osal_start_timerEx
   \   000032   7C88         MOV     R4,#-0x78
   \   000034   7D13         MOV     R5,#0x13
   \   000036   7A01         MOV     R2,#0x1
   \   000038   7B00         MOV     R3,#0x0
   \   00003A   90....       MOV     DPTR,#GenericApp_TaskID
   \   00003D   E0           MOVX    A,@DPTR
   \   00003E   F9           MOV     R1,A
   \   00003F   12....       LCALL   ??osal_start_timerEx?relay
    282                    }
    283                    break;
    284          
    285                  default:
    286                    break;
    287                }
    288          
    289                // Release the memory
    290                osal_msg_deallocate( (uint8 *)MSGpkt );
   \                     ??GenericApp_ProcessEvent_5:
   \   000042                ; Setup parameters for call to function osal_msg_deallocate
   \   000042   AA..         MOV     R2,?V0 + 0
   \   000044   AB..         MOV     R3,?V0 + 1
   \   000046   12....       LCALL   ??osal_msg_deallocate?relay
    291          
    292                // Next
    293                MSGpkt = (afIncomingMSGPacket_t *)osal_msg_receive( GenericApp_TaskID );
   \   000049                ; Setup parameters for call to function osal_msg_receive
   \                     ??GenericApp_ProcessEvent_2:
   \   000049   90....       MOV     DPTR,#GenericApp_TaskID
   \   00004C   E0           MOVX    A,@DPTR
   \   00004D   F9           MOV     R1,A
   \   00004E   12....       LCALL   ??osal_msg_receive?relay
   \   000051   8A..         MOV     ?V0 + 0,R2
   \   000053   8B..         MOV     ?V0 + 1,R3
   \   000055   E5..         MOV     A,?V0 + 0
   \   000057   7002         JNZ     ??GenericApp_ProcessEvent_6
   \   000059   E5..         MOV     A,?V0 + 1
   \                     ??GenericApp_ProcessEvent_6:
   \   00005B   603A         JZ      ??GenericApp_ProcessEvent_7
   \   00005D   85..82       MOV     DPL,?V0 + 0
   \   000060   85..83       MOV     DPH,?V0 + 1
   \   000063   E0           MOVX    A,@DPTR
   \   000064   12....       LCALL   ?UC_SWITCH_SPARSE
   \                     `?<Jumptable for GenericApp_ProcessEvent>_0`:
   \   000067   00           DB        0
   \   000068   03           DB        3
   \   000069   C0           DB        192
   \   00006A   ....         DW        ??GenericApp_ProcessEvent_8
   \   00006C   D1           DB        209
   \   00006D   ....         DW        ??GenericApp_ProcessEvent_3
   \   00006F   D3           DB        211
   \   000070   ....         DW        ??GenericApp_ProcessEvent_9
   \   000072   ....         DW        ??GenericApp_ProcessEvent_5
   \                     ??GenericApp_ProcessEvent_9:
   \   000074                ; Setup parameters for call to function GenericApp_ProcessZDOMsgs
   \   000074   AA..         MOV     R2,?V0 + 0
   \   000076   AB..         MOV     R3,?V0 + 1
   \   000078   12....       LCALL   ??GenericApp_ProcessZDOMsgs?relay
   \   00007B   80C5         SJMP    ??GenericApp_ProcessEvent_5
   \                     ??GenericApp_ProcessEvent_8:
   \   00007D                ; Setup parameters for call to function GenericApp_HandleKeys
   \   00007D   85..82       MOV     DPL,?V0 + 0
   \   000080   85..83       MOV     DPH,?V0 + 1
   \   000083   A3           INC     DPTR
   \   000084   A3           INC     DPTR
   \   000085   A3           INC     DPTR
   \   000086   E0           MOVX    A,@DPTR
   \   000087   FA           MOV     R2,A
   \   000088   85..82       MOV     DPL,?V0 + 0
   \   00008B   85..83       MOV     DPH,?V0 + 1
   \   00008E   A3           INC     DPTR
   \   00008F   A3           INC     DPTR
   \   000090   E0           MOVX    A,@DPTR
   \   000091   F9           MOV     R1,A
   \   000092   12....       LCALL   ??GenericApp_HandleKeys?relay
   \   000095   80AB         SJMP    ??GenericApp_ProcessEvent_5
    294              }
    295          
    296              // return unprocessed events
    297              return (events ^ SYS_EVENT_MSG);
   \                     ??GenericApp_ProcessEvent_7:
   \   000097   EE           MOV     A,R6
   \   000098   FA           MOV     R2,A
   \   000099   7480         MOV     A,#-0x80
   \   00009B   6F           XRL     A,R7
   \                     ??GenericApp_ProcessEvent_10:
   \   00009C   FB           MOV     R3,A
   \   00009D   8023         SJMP    ??GenericApp_ProcessEvent_11
    298            }
    299          
    300            // Send a message out - This event is generated by a timer
    301            //  (setup in GenericApp_Init()).
    302            if ( events & GENERICAPP_SEND_MSG_EVT )
   \                     ??GenericApp_ProcessEvent_1:
   \   00009F   EE           MOV     A,R6
   \   0000A0   A2E0         MOV     C,0xE0 /* A   */.0
   \   0000A2   501A         JNC     ??GenericApp_ProcessEvent_12
    303            {
    304              // Send "Hello World" message
    305              GenericApp_SendTheMessage();
   \   0000A4                ; Setup parameters for call to function GenericApp_SendTheMessage
   \   0000A4   12....       LCALL   ??GenericApp_SendTheMessage?relay
    306          
    307              // Setup to send message again
    308              osal_start_timerEx( GenericApp_TaskID,
    309                                  GENERICAPP_SEND_MSG_EVT,
    310                                  GENERICAPP_SEND_MSG_TIMEOUT );
   \   0000A7                ; Setup parameters for call to function osal_start_timerEx
   \   0000A7   7C88         MOV     R4,#-0x78
   \   0000A9   7D13         MOV     R5,#0x13
   \   0000AB   7A01         MOV     R2,#0x1
   \   0000AD   7B00         MOV     R3,#0x0
   \   0000AF   90....       MOV     DPTR,#GenericApp_TaskID
   \   0000B2   E0           MOVX    A,@DPTR
   \   0000B3   F9           MOV     R1,A
   \   0000B4   12....       LCALL   ??osal_start_timerEx?relay
    311          
    312              // return unprocessed events
    313              return (events ^ GENERICAPP_SEND_MSG_EVT);
   \   0000B7   7401         MOV     A,#0x1
   \   0000B9   6E           XRL     A,R6
   \   0000BA   FA           MOV     R2,A
   \   0000BB   EF           MOV     A,R7
   \   0000BC   80DE         SJMP    ??GenericApp_ProcessEvent_10
    314            }
    315          
    316            // Discard unknown events
    317            return 0;
   \                     ??GenericApp_ProcessEvent_12:
   \   0000BE   7A00         MOV     R2,#0x0
   \   0000C0   7B00         MOV     R3,#0x0
   \                     ??GenericApp_ProcessEvent_11:
   \   0000C2                REQUIRE ?Subroutine0
   \   0000C2                ; // Fall through to label ?Subroutine0
    318          }

   \                                 In  segment BANKED_CODE, align 1, keep-with-next
   \                     ?Subroutine0:
   \   000000   7F04         MOV     R7,#0x4
   \   000002   02....       LJMP    ?BANKED_LEAVE_XDATA
    319          
    320          /*********************************************************************
    321           * Event Generation Functions
    322           */
    323          
    324          /*********************************************************************
    325           * @fn      GenericApp_ProcessZDOMsgs()
    326           *
    327           * @brief   Process response messages
    328           *
    329           * @param   none
    330           *
    331           * @return  none
    332           */

   \                                 In  segment BANKED_CODE, align 1, keep-with-next
    333          void GenericApp_ProcessZDOMsgs( zdoIncomingMsg_t *inMsg )
   \                     GenericApp_ProcessZDOMsgs:
    334          {
   \   000000   74F6         MOV     A,#-0xa
   \   000002   12....       LCALL   ?BANKED_ENTER_XDATA
   \   000005                ; Saved register size: 10
   \   000005                ; Auto size: 0
    335            switch ( inMsg->clusterID )
   \   000005   EA           MOV     A,R2
   \   000006   240C         ADD     A,#0xc
   \   000008   F582         MOV     DPL,A
   \   00000A   EB           MOV     A,R3
   \   00000B   3400         ADDC    A,#0x0
   \   00000D   F583         MOV     DPH,A
   \   00000F   E0           MOVX    A,@DPTR
   \   000010   F5..         MOV     ?V0 + 0,A
   \   000012   A3           INC     DPTR
   \   000013   E0           MOVX    A,@DPTR
   \   000014   F5..         MOV     ?V0 + 1,A
   \   000016   78..         MOV     R0,#?V0 + 0
   \   000018   12....       LCALL   ?US_SWITCH_SPARSE
   \                     `?<Jumptable for GenericApp_ProcessZDOMsgs>_0`:
   \   00001B   0000         DW        0
   \   00001D   0200         DW        2
   \   00001F   0680         DW        32774
   \   000021   ....         DW        ??GenericApp_ProcessZDOMsgs_0
   \   000023   2080         DW        32800
   \   000025   ....         DW        ??GenericApp_ProcessZDOMsgs_1
   \   000027   ....         DW        ??GenericApp_ProcessZDOMsgs_2
    336            {
    337              case End_Device_Bind_rsp:
    338                if ( ZDO_ParseBindRsp( inMsg ) == ZSuccess )
   \                     ??GenericApp_ProcessZDOMsgs_1:
   \   000029   EA           MOV     A,R2
   \   00002A   2413         ADD     A,#0x13
   \   00002C   F582         MOV     DPL,A
   \   00002E   EB           MOV     A,R3
   \   00002F   3400         ADDC    A,#0x0
   \   000031   F583         MOV     DPH,A
   \   000033   E0           MOVX    A,@DPTR
   \   000034   F8           MOV     R0,A
   \   000035   A3           INC     DPTR
   \   000036   E0           MOVX    A,@DPTR
   \   000037   F583         MOV     DPH,A
   \   000039   8882         MOV     DPL,R0
   \   00003B   E0           MOVX    A,@DPTR
   \   00003C   7009         JNZ     ??GenericApp_ProcessZDOMsgs_3
    339                {
    340                  // Light LED
    341                  HalLedSet( HAL_LED_4, HAL_LED_MODE_ON );
   \   00003E                ; Setup parameters for call to function HalLedSet
   \   00003E   7A01         MOV     R2,#0x1
   \                     ??GenericApp_ProcessZDOMsgs_4:
   \   000040   7908         MOV     R1,#0x8
   \   000042   12....       LCALL   ??HalLedSet?relay
   \   000045   8055         SJMP    ??GenericApp_ProcessZDOMsgs_2
    342                }
    343          #if defined(BLINK_LEDS)
    344                else
    345                {
    346                  // Flash LED to show failure
    347                  HalLedSet ( HAL_LED_4, HAL_LED_MODE_FLASH );
   \                     ??GenericApp_ProcessZDOMsgs_3:
   \   000047                ; Setup parameters for call to function HalLedSet
   \   000047   7A04         MOV     R2,#0x4
   \   000049   80F5         SJMP    ??GenericApp_ProcessZDOMsgs_4
    348                }
    349          #endif
    350                break;
    351          
    352              case Match_Desc_rsp:
    353                {
    354                  ZDO_ActiveEndpointRsp_t *pRsp = ZDO_ParseEPListRsp( inMsg );
   \                     ??GenericApp_ProcessZDOMsgs_0:
   \   00004B                ; Setup parameters for call to function ZDO_ParseEPListRsp
   \   00004B   12....       LCALL   ??ZDO_ParseEPListRsp?relay
   \   00004E   8A..         MOV     ?V0 + 0,R2
   \   000050   8B..         MOV     ?V0 + 1,R3
   \   000052   AE..         MOV     R6,?V0 + 0
   \   000054   AF..         MOV     R7,?V0 + 1
    355                  if ( pRsp )
   \   000056   EE           MOV     A,R6
   \   000057   7001         JNZ     ??GenericApp_ProcessZDOMsgs_5
   \   000059   EF           MOV     A,R7
   \                     ??GenericApp_ProcessZDOMsgs_5:
   \   00005A   6040         JZ      ??GenericApp_ProcessZDOMsgs_2
    356                  {
    357                    if ( pRsp->status == ZSuccess && pRsp->cnt )
   \   00005C   8E82         MOV     DPL,R6
   \   00005E   8F83         MOV     DPH,R7
   \   000060   E0           MOVX    A,@DPTR
   \   000061   7032         JNZ     ??GenericApp_ProcessZDOMsgs_6
   \   000063   A3           INC     DPTR
   \   000064   A3           INC     DPTR
   \   000065   A3           INC     DPTR
   \   000066   E0           MOVX    A,@DPTR
   \   000067   602C         JZ      ??GenericApp_ProcessZDOMsgs_6
    358                    {
    359                      GenericApp_DstAddr.addrMode = (afAddrMode_t)Addr16Bit;
   \   000069   7402         MOV     A,#0x2
   \   00006B   90....       MOV     DPTR,#(GenericApp_DstAddr + 8)
   \   00006E   F0           MOVX    @DPTR,A
    360                      GenericApp_DstAddr.addr.shortAddr = pRsp->nwkAddr;
   \   00006F   8E82         MOV     DPL,R6
   \   000071   8F83         MOV     DPH,R7
   \   000073   A3           INC     DPTR
   \   000074   E0           MOVX    A,@DPTR
   \   000075   F8           MOV     R0,A
   \   000076   A3           INC     DPTR
   \   000077   E0           MOVX    A,@DPTR
   \   000078   F9           MOV     R1,A
   \   000079   90....       MOV     DPTR,#GenericApp_DstAddr
   \   00007C   E8           MOV     A,R0
   \   00007D   F0           MOVX    @DPTR,A
   \   00007E   A3           INC     DPTR
   \   00007F   E9           MOV     A,R1
   \   000080   F0           MOVX    @DPTR,A
    361                      // Take the first endpoint, Can be changed to search through endpoints
    362                      GenericApp_DstAddr.endPoint = pRsp->epList[0];
   \   000081   8E82         MOV     DPL,R6
   \   000083   8F83         MOV     DPH,R7
   \   000085   A3           INC     DPTR
   \   000086   A3           INC     DPTR
   \   000087   A3           INC     DPTR
   \   000088   A3           INC     DPTR
   \   000089   E0           MOVX    A,@DPTR
   \   00008A   90....       MOV     DPTR,#(GenericApp_DstAddr + 9)
   \   00008D   F0           MOVX    @DPTR,A
    363          
    364                      // Light LED
    365                      HalLedSet( HAL_LED_4, HAL_LED_MODE_ON );
   \   00008E                ; Setup parameters for call to function HalLedSet
   \   00008E   7A01         MOV     R2,#0x1
   \   000090   7908         MOV     R1,#0x8
   \   000092   12....       LCALL   ??HalLedSet?relay
    366                    }
    367                    osal_mem_free( pRsp );
   \                     ??GenericApp_ProcessZDOMsgs_6:
   \   000095                ; Setup parameters for call to function osal_mem_free
   \   000095   EE           MOV     A,R6
   \   000096   FA           MOV     R2,A
   \   000097   EF           MOV     A,R7
   \   000098   FB           MOV     R3,A
   \   000099   12....       LCALL   ??osal_mem_free?relay
    368                  }
    369                }
    370                break;
    371            }
    372          }
   \                     ??GenericApp_ProcessZDOMsgs_2:
   \   00009C                REQUIRE ?Subroutine1
   \   00009C                ; // Fall through to label ?Subroutine1

   \                                 In  segment BANKED_CODE, align 1, keep-with-next
   \                     ?Subroutine1:
   \   000000   7F02         MOV     R7,#0x2
   \   000002   02....       LJMP    ?BANKED_LEAVE_XDATA
    373          
    374          /*********************************************************************
    375           * @fn      GenericApp_HandleKeys
    376           *
    377           * @brief   Handles all key events for this device.
    378           *
    379           * @param   shift - true if in shift/alt.
    380           * @param   keys - bit field for key events. Valid entries:
    381           *                 HAL_KEY_SW_4
    382           *                 HAL_KEY_SW_3
    383           *                 HAL_KEY_SW_2
    384           *                 HAL_KEY_SW_1
    385           *
    386           * @return  none
    387           */

   \                                 In  segment BANKED_CODE, align 1, keep-with-next
    388          void GenericApp_HandleKeys( byte shift, byte keys )
   \                     GenericApp_HandleKeys:
    389          {
   \   000000   74F4         MOV     A,#-0xc
   \   000002   12....       LCALL   ?BANKED_ENTER_XDATA
   \   000005                ; Saved register size: 12
   \   000005                ; Auto size: 9
   \   000005   74F7         MOV     A,#-0x9
   \   000007   12....       LCALL   ?ALLOC_XSTACK8
   \   00000A   EA           MOV     A,R2
   \   00000B   FE           MOV     R6,A
    390            zAddrType_t dstAddr;
    391            
    392            // Shift is used to make each button/switch dual purpose.
    393            if ( shift )
   \   00000C   E9           MOV     A,R1
   \   00000D   6003         JZ      $+5
   \   00000F   02....       LJMP    ??GenericApp_HandleKeys_0 & 0xFFFF
    394            {
    395              if ( keys & HAL_KEY_SW_1 )
    396              {
    397              }
    398              if ( keys & HAL_KEY_SW_2 )
    399              {
    400              }
    401              if ( keys & HAL_KEY_SW_3 )
    402              {
    403              }
    404              if ( keys & HAL_KEY_SW_4 )
    405              {
    406              }
    407            }
    408            else
    409            {
    410              if ( keys & HAL_KEY_SW_1 )
    411              {
    412              }
    413          
    414              if ( keys & HAL_KEY_SW_2 )
   \   000012   75....       MOV     ?V0 + 0,#(GenericApp_ClusterList & 0xff)
   \   000015   75....       MOV     ?V0 + 1,#((GenericApp_ClusterList >> 8) & 0xff)
   \   000018   EE           MOV     A,R6
   \   000019   A2E1         MOV     C,0xE0 /* A   */.1
   \   00001B   5064         JNC     ??GenericApp_HandleKeys_1
    415              {
    416                HalLedSet ( HAL_LED_4, HAL_LED_MODE_OFF );
   \   00001D                ; Setup parameters for call to function HalLedSet
   \   00001D   7A00         MOV     R2,#0x0
   \   00001F   7908         MOV     R1,#0x8
   \   000021   12....       LCALL   ??HalLedSet?relay
    417          
    418                // Initiate an End Device Bind Request for the mandatory endpoint
    419                dstAddr.addrMode = Addr16Bit;
   \   000024   7408         MOV     A,#0x8
   \   000026   12....       LCALL   ?XSTACK_DISP0_8
   \   000029   7402         MOV     A,#0x2
   \   00002B   F0           MOVX    @DPTR,A
    420                dstAddr.addr.shortAddr = 0x0000; // Coordinator
   \   00002C   85..82       MOV     DPL,?XSP + 0
   \   00002F   85..83       MOV     DPH,?XSP + 1
   \   000032   E4           CLR     A
   \   000033   F0           MOVX    @DPTR,A
   \   000034   A3           INC     DPTR
   \   000035   F0           MOVX    @DPTR,A
    421                ZDP_EndDeviceBindReq( &dstAddr, NLME_GetShortAddr(), 
    422                                      GenericApp_epDesc.endPoint,
    423                                      GENERICAPP_PROFID,
    424                                      GENERICAPP_MAX_CLUSTERS, (cId_t *)GenericApp_ClusterList,
    425                                      GENERICAPP_MAX_CLUSTERS, (cId_t *)GenericApp_ClusterList,
    426                                      FALSE );
   \   000036                ; Setup parameters for call to function NLME_GetShortAddr
   \   000036   12....       LCALL   ??NLME_GetShortAddr?relay
   \   000039   8A..         MOV     ?V0 + 2,R2
   \   00003B   8B..         MOV     ?V0 + 3,R3
   \   00003D   AC..         MOV     R4,?V0 + 2
   \   00003F   AD..         MOV     R5,?V0 + 3
   \   000041                ; Setup parameters for call to function ZDP_EndDeviceBindReq
   \   000041   75..00       MOV     ?V0 + 2,#0x0
   \   000044   78..         MOV     R0,#?V0 + 2
   \   000046   12....       LCALL   ?PUSH_XSTACK_I_ONE
   \   000049   78..         MOV     R0,#?V0 + 0
   \   00004B   12....       LCALL   ?PUSH_XSTACK_I_TWO
   \   00004E   75..01       MOV     ?V0 + 2,#0x1
   \   000051   78..         MOV     R0,#?V0 + 2
   \   000053   12....       LCALL   ?PUSH_XSTACK_I_ONE
   \   000056   78..         MOV     R0,#?V0 + 0
   \   000058   12....       LCALL   ?PUSH_XSTACK_I_TWO
   \   00005B   78..         MOV     R0,#?V0 + 2
   \   00005D   12....       LCALL   ?PUSH_XSTACK_I_ONE
   \   000060   75..04       MOV     ?V0 + 2,#0x4
   \   000063   75..0F       MOV     ?V0 + 3,#0xf
   \   000066   78..         MOV     R0,#?V0 + 2
   \   000068   12....       LCALL   ?PUSH_XSTACK_I_TWO
   \   00006B   90....       MOV     DPTR,#GenericApp_epDesc
   \   00006E   E0           MOVX    A,@DPTR
   \   00006F   F9           MOV     R1,A
   \   000070   7409         MOV     A,#0x9
   \   000072   12....       LCALL   ?XSTACK_DISP0_8
   \   000075   AA82         MOV     R2,DPL
   \   000077   AB83         MOV     R3,DPH
   \   000079   12....       LCALL   ??ZDP_EndDeviceBindReq?relay
   \   00007C   7409         MOV     A,#0x9
   \   00007E   12....       LCALL   ?DEALLOC_XSTACK8
    427              }
    428          
    429              if ( keys & HAL_KEY_SW_3 )
    430              {
    431              }
    432          
    433              if ( keys & HAL_KEY_SW_4 )
   \                     ??GenericApp_HandleKeys_1:
   \   000081   EE           MOV     A,R6
   \   000082   A2E3         MOV     C,0xE0 /* A   */.3
   \   000084   5056         JNC     ??GenericApp_HandleKeys_0
    434              {
    435                HalLedSet ( HAL_LED_4, HAL_LED_MODE_OFF );
   \   000086                ; Setup parameters for call to function HalLedSet
   \   000086   7A00         MOV     R2,#0x0
   \   000088   7908         MOV     R1,#0x8
   \   00008A   12....       LCALL   ??HalLedSet?relay
    436                // Initiate a Match Description Request (Service Discovery)
    437                dstAddr.addrMode = AddrBroadcast;
   \   00008D   7408         MOV     A,#0x8
   \   00008F   12....       LCALL   ?XSTACK_DISP0_8
   \   000092   740F         MOV     A,#0xf
   \   000094   F0           MOVX    @DPTR,A
    438                dstAddr.addr.shortAddr = NWK_BROADCAST_SHORTADDR;
   \   000095   85..82       MOV     DPL,?XSP + 0
   \   000098   85..83       MOV     DPH,?XSP + 1
   \   00009B   74FF         MOV     A,#-0x1
   \   00009D   F0           MOVX    @DPTR,A
   \   00009E   A3           INC     DPTR
   \   00009F   F0           MOVX    @DPTR,A
    439                ZDP_MatchDescReq( &dstAddr, NWK_BROADCAST_SHORTADDR,
    440                                  GENERICAPP_PROFID,
    441                                  GENERICAPP_MAX_CLUSTERS, (cId_t *)GenericApp_ClusterList,
    442                                  GENERICAPP_MAX_CLUSTERS, (cId_t *)GenericApp_ClusterList,
    443                                  FALSE );
   \   0000A0                ; Setup parameters for call to function ZDP_MatchDescReq
   \   0000A0   75..00       MOV     ?V0 + 2,#0x0
   \   0000A3   78..         MOV     R0,#?V0 + 2
   \   0000A5   12....       LCALL   ?PUSH_XSTACK_I_ONE
   \   0000A8   78..         MOV     R0,#?V0 + 0
   \   0000AA   12....       LCALL   ?PUSH_XSTACK_I_TWO
   \   0000AD   75..01       MOV     ?V0 + 2,#0x1
   \   0000B0   78..         MOV     R0,#?V0 + 2
   \   0000B2   12....       LCALL   ?PUSH_XSTACK_I_ONE
   \   0000B5   78..         MOV     R0,#?V0 + 0
   \   0000B7   12....       LCALL   ?PUSH_XSTACK_I_TWO
   \   0000BA   75..04       MOV     ?V0 + 0,#0x4
   \   0000BD   75..0F       MOV     ?V0 + 1,#0xf
   \   0000C0   78..         MOV     R0,#?V0 + 0
   \   0000C2   12....       LCALL   ?PUSH_XSTACK_I_TWO
   \   0000C5   7901         MOV     R1,#0x1
   \   0000C7   7CFF         MOV     R4,#-0x1
   \   0000C9   7DFF         MOV     R5,#-0x1
   \   0000CB   7408         MOV     A,#0x8
   \   0000CD   12....       LCALL   ?XSTACK_DISP0_8
   \   0000D0   AA82         MOV     R2,DPL
   \   0000D2   AB83         MOV     R3,DPH
   \   0000D4   12....       LCALL   ??ZDP_MatchDescReq?relay
   \   0000D7   7408         MOV     A,#0x8
   \   0000D9   12....       LCALL   ?DEALLOC_XSTACK8
    444              }
    445            }
    446          }
   \                     ??GenericApp_HandleKeys_0:
   \   0000DC   7409         MOV     A,#0x9
   \   0000DE   12....       LCALL   ?DEALLOC_XSTACK8
   \   0000E1   02....       LJMP    ?Subroutine0 & 0xFFFF
    447          
    448          /*********************************************************************
    449           * LOCAL FUNCTIONS
    450           */
    451          
    452          /*********************************************************************
    453           * @fn      GenericApp_MessageMSGCB
    454           *
    455           * @brief   Data message processor callback.  This function processes
    456           *          any incoming data - probably from other devices.  So, based
    457           *          on cluster ID, perform the intended action.
    458           *
    459           * @param   none
    460           *
    461           * @return  none
    462           */

   \                                 In  segment BANKED_CODE, align 1, keep-with-next
    463          void GenericApp_MessageMSGCB( afIncomingMSGPacket_t *pkt )
   \                     GenericApp_MessageMSGCB:
    464          {
   \   000000                ; Saved register size: 0
   \   000000                ; Auto size: 0
    465            switch ( pkt->clusterId )
    466            {
    467              case GENERICAPP_CLUSTERID:
    468                // "Hello World" message
    469          #if defined( LCD_SUPPORTED )
    470                HalLcdWriteScreen( (char*)pkt->cmd.Data, "rcvd" );
    471          #elif defined( WIN32 )
    472                WPRINTSTR( pkt->cmd.Data );
    473          #endif
    474                break;
    475            }
    476          }
   \   000000   02....       LJMP    ?BRET
    477          
    478          /*********************************************************************
    479           * @fn      GenericApp_SendTheMessage
    480           *
    481           * @brief   Send "Hello World" message.
    482           *
    483           * @param   none
    484           *
    485           * @return  none
    486           */

   \                                 In  segment BANKED_CODE, align 1, keep-with-next
    487          void GenericApp_SendTheMessage( void )
   \                     GenericApp_SendTheMessage:
    488          {
   \   000000   74F6         MOV     A,#-0xa
   \   000002   12....       LCALL   ?BANKED_ENTER_XDATA
   \   000005                ; Saved register size: 10
   \   000005                ; Auto size: 12
   \   000005   74F4         MOV     A,#-0xc
   \   000007   12....       LCALL   ?ALLOC_XSTACK8
    489            char theMessageData[] = "Hello World";
   \   00000A   85..82       MOV     DPL,?XSP + 0
   \   00000D   85..83       MOV     DPH,?XSP + 1
   \   000010   AC82         MOV     R4,DPL
   \   000012   AD83         MOV     R5,DPH
   \   000014   7583..       MOV     DPH,#((`?<Constant "Hello World">` >> 8) & 0xff)
   \   000017   7582..       MOV     DPL,#(`?<Constant "Hello World">` & 0xff)
   \   00001A   740C         MOV     A,#0xc
   \   00001C   12....       LCALL   ?MOVE_LONG8_XDATA_XDATA
    490          
    491            if ( AF_DataRequest( &GenericApp_DstAddr, &GenericApp_epDesc,
    492                                 GENERICAPP_CLUSTERID,
    493                                 (byte)osal_strlen( theMessageData ) + 1,
    494                                 (byte *)&theMessageData,
    495                                 &GenericApp_TransID,
    496                                 AF_DISCV_ROUTE, AF_DEFAULT_RADIUS ) == afStatus_SUCCESS )
   \   00001F                ; Setup parameters for call to function AF_DataRequest
   \   00001F   75..1E       MOV     ?V0 + 0,#0x1e
   \   000022   78..         MOV     R0,#?V0 + 0
   \   000024   12....       LCALL   ?PUSH_XSTACK_I_ONE
   \   000027   75....       MOV     ?V0 + 0,#(GenericApp_TransID & 0xff)
   \   00002A   75....       MOV     ?V0 + 1,#((GenericApp_TransID >> 8) & 0xff)
   \   00002D   78..         MOV     R0,#?V0 + 0
   \   00002F   12....       LCALL   ?PUSH_XSTACK_I_TWO
   \   000032   7403         MOV     A,#0x3
   \   000034   12....       LCALL   ?XSTACK_DISP0_8
   \   000037   8582..       MOV     ?V0 + 0,DPL
   \   00003A   8583..       MOV     ?V0 + 1,DPH
   \   00003D   78..         MOV     R0,#?V0 + 0
   \   00003F   12....       LCALL   ?PUSH_XSTACK_I_TWO
   \   000042                ; Setup parameters for call to function osal_strlen
   \   000042   7405         MOV     A,#0x5
   \   000044   12....       LCALL   ?XSTACK_DISP0_8
   \   000047   AA82         MOV     R2,DPL
   \   000049   AB83         MOV     R3,DPH
   \   00004B   12....       LCALL   ??osal_strlen?relay
   \   00004E   EA           MOV     A,R2
   \   00004F   F8           MOV     R0,A
   \   000050   7401         MOV     A,#0x1
   \   000052   28           ADD     A,R0
   \   000053   F5..         MOV     ?V0 + 0,A
   \   000055   E4           CLR     A
   \   000056   3400         ADDC    A,#0x0
   \   000058   F5..         MOV     ?V0 + 1,A
   \   00005A   78..         MOV     R0,#?V0 + 0
   \   00005C   12....       LCALL   ?PUSH_XSTACK_I_TWO
   \   00005F   75..01       MOV     ?V0 + 0,#0x1
   \   000062   75..00       MOV     ?V0 + 1,#0x0
   \   000065   78..         MOV     R0,#?V0 + 0
   \   000067   12....       LCALL   ?PUSH_XSTACK_I_TWO
   \   00006A   7920         MOV     R1,#0x20
   \   00006C   7C..         MOV     R4,#(GenericApp_epDesc & 0xff)
   \   00006E   7D..         MOV     R5,#((GenericApp_epDesc >> 8) & 0xff)
   \   000070   7A..         MOV     R2,#(GenericApp_DstAddr & 0xff)
   \   000072   7B..         MOV     R3,#((GenericApp_DstAddr >> 8) & 0xff)
   \   000074   12....       LCALL   ??AF_DataRequest?relay
   \   000077   7409         MOV     A,#0x9
   \   000079   12....       LCALL   ?DEALLOC_XSTACK8
    497            {
    498              // Successfully requested to be sent.
    499            }
    500            else
    501            {
    502              // Error occurred in request to send.
    503            }
    504          }
   \   00007C   740C         MOV     A,#0xc
   \   00007E   12....       LCALL   ?DEALLOC_XSTACK8
   \   000081   02....       LJMP    ?Subroutine1 & 0xFFFF

   \                                 In  segment BANK_RELAYS, align 1
   \                     ??GenericApp_Init?relay:
   \   000000   12....       LCALL   ?BDISPATCH
   \   000003   ......       DC24    GenericApp_Init

   \                                 In  segment BANK_RELAYS, align 1
   \                     ??GenericApp_ProcessEvent?relay:
   \   000000   12....       LCALL   ?BDISPATCH
   \   000003   ......       DC24    GenericApp_ProcessEvent

   \                                 In  segment BANK_RELAYS, align 1
   \                     ??GenericApp_ProcessZDOMsgs?relay:
   \   000000   12....       LCALL   ?BDISPATCH
   \   000003   ......       DC24    GenericApp_ProcessZDOMsgs

   \                                 In  segment BANK_RELAYS, align 1
   \                     ??GenericApp_HandleKeys?relay:
   \   000000   12....       LCALL   ?BDISPATCH
   \   000003   ......       DC24    GenericApp_HandleKeys

   \                                 In  segment BANK_RELAYS, align 1
   \                     ??GenericApp_MessageMSGCB?relay:
   \   000000   12....       LCALL   ?BDISPATCH
   \   000003   ......       DC24    GenericApp_MessageMSGCB

   \                                 In  segment BANK_RELAYS, align 1
   \                     ??GenericApp_SendTheMessage?relay:
   \   000000   12....       LCALL   ?BDISPATCH
   \   000003   ......       DC24    GenericApp_SendTheMessage

   \                                 In  segment XDATA_ROM_C, align 1
   \                     `?<Constant "Hello World">`:
   \   000000   48656C6C     DB "Hello World"
   \            6F20576F
   \            726C6400
    505          
    506          /*********************************************************************
    507          *********************************************************************/

   Maximum stack usage in bytes:

     Function                       ISTACK PSTACK XSTACK
     --------                       ------ ------ ------
     GenericApp_HandleKeys              1      0     42
       -> HalLedSet                     0      0     42
       -> NLME_GetShortAddr             0      0     42
       -> ZDP_EndDeviceBindReq          0      0     60
       -> HalLedSet                     0      0     42
       -> ZDP_MatchDescReq              0      0     58
     GenericApp_Init                    2      0      0
       -> afRegister                    4      0      0
       -> RegisterForKeys               4      0      0
       -> ZDO_RegisterForZDOMsg         4      0      0
       -> ZDO_RegisterForZDOMsg         4      0      0
     GenericApp_MessageMSGCB            0      0      0
     GenericApp_ProcessEvent            0      0     12
       -> osal_msg_receive              0      0     24
       -> osal_start_timerEx            0      0     24
       -> osal_msg_deallocate           0      0     24
       -> osal_msg_receive              0      0     24
       -> GenericApp_ProcessZDOMsgs     0      0     24
       -> GenericApp_HandleKeys         0      0     24
       -> GenericApp_SendTheMessage     0      0     24
       -> osal_start_timerEx            0      0     24
     GenericApp_ProcessZDOMsgs          0      0     22
       -> HalLedSet                     0      0     20
       -> HalLedSet                     0      0     20
       -> ZDO_ParseEPListRsp            0      0     20
       -> HalLedSet                     0      0     20
       -> osal_mem_free                 0      0     20
     GenericApp_SendTheMessage          2      0     43
       -> osal_strlen                   0      0     54
       -> AF_DataRequest                0      0     62


   Segment part sizes:

     Function/Label                    Bytes
     --------------                    -----
     GenericApp_ClusterList               2
     GenericApp_SimpleDesc               12
     GenericApp_epDesc                    6
     GenericApp_TaskID                    1
     GenericApp_NwkState                  1
     GenericApp_TransID                   1
     GenericApp_DstAddr                  12
     GenericApp_Init                    111
     GenericApp_ProcessEvent            194
     ?Subroutine0                         5
     GenericApp_ProcessZDOMsgs          156
     ?Subroutine1                         5
     GenericApp_HandleKeys              228
     GenericApp_MessageMSGCB              3
     GenericApp_SendTheMessage          132
     ??GenericApp_Init?relay              6
     ??GenericApp_ProcessEvent?relay      6
     ??GenericApp_ProcessZDOMsgs?relay    6
     ??GenericApp_HandleKeys?relay        6
     ??GenericApp_MessageMSGCB?relay      6
     ??GenericApp_SendTheMessage?relay    6
     ?<Constant "Hello World">           12

 
 834 bytes in segment BANKED_CODE
  36 bytes in segment BANK_RELAYS
  26 bytes in segment XDATA_ROM_C
  21 bytes in segment XDATA_Z
 
 870 bytes of CODE  memory
  26 bytes of CONST memory
  21 bytes of XDATA memory

Errors: none
Warnings: none
