///////////////////////////////////////////////////////////////////////////////
//                                                                            /
// IAR C/C++ Compiler V7.51A/W32 for 8051               12/Mar/2010  12:16:07 /
// Copyright 2004-2009 IAR Systems AB.                                        /
//                                                                            /
//    Core               =  plain                                             /
//    Code model         =  banked                                            /
//    Data model         =  large                                             /
//    Calling convention =  xdata reentrant                                   /
//    Constant location  =  data_rom                                          /
//    Dptr setup         =  1,16                                              /
//    Source file        =  D:\µ{¦¡¶}µo\TI Zigbee Z-Stack\ZStack-CC2530-2.3.0 /
//                          -1.4.0\Components\hal\target\CC2530BB\hal_lcd.c   /
//    Command line       =  -f "D:\µ{¦¡¶}µo\TI Zigbee                         /
//                          Z-Stack\ZStack-CC2530-2.3.0-1.4.0\Projects\zstack /
//                          \Samples\GenericApp\CC2530DB\..\..\..\Tools\CC253 /
//                          0DB\f8wEndev.cfg" (-DCPU32MHZ -DROOT=__near_func  /
//                          -DBLINK_LEDS) -f "D:\µ{¦¡¶}µo\TI Zigbee           /
//                          Z-Stack\ZStack-CC2530-2.3.0-1.4.0\Projects\zstack /
//                          \Samples\GenericApp\CC2530DB\..\..\..\Tools\CC253 /
//                          0DB\f8wConfig.cfg" (-DSECURE=0                    /
//                          -DZG_SECURE_DYNAMIC=0 -DREFLECTOR                 /
//                          -DDEFAULT_CHANLIST=0x00000800                     /
//                          -DZDAPP_CONFIG_PAN_ID=0xFFFF                      /
//                          -DNWK_START_DELAY=100 -DEXTENDED_JOINING_RANDOM_M /
//                          ASK=0x007F -DBEACON_REQUEST_DELAY=100             /
//                          -DBEACON_REQ_DELAY_MASK=0x00FF                    /
//                          -DROUTE_EXPIRY_TIME=30 -DAPSC_ACK_WAIT_DURATION_P /
//                          OLLED=3000 -DNWK_INDIRECT_MSG_TIMEOUT=7           /
//                          -DMAX_RREQ_ENTRIES=8 -DAPSC_MAX_FRAME_RETRIES=3   /
//                          -DNWK_MAX_DATA_RETRIES=2                          /
//                          -DMAX_POLL_FAILURE_RETRIES=2 -DMAX_BCAST=9        /
//                          -DAPS_MAX_GROUPS=16 -DMAX_RTG_ENTRIES=40          /
//                          -DNWK_MAX_BINDING_ENTRIES=4                       /
//                          -DMAX_BINDING_CLUSTER_IDS=4                       /
//                          "-DDEFAULT_KEY={0x01, 0x03, 0x05, 0x07, 0x09,     /
//                          0x0B, 0x0D, 0x0F, 0x00, 0x02, 0x04, 0x06, 0x08,   /
//                          0x0A, 0x0C, 0x0D}" -DMAC_MAX_FRAME_SIZE=116       /
//                          "-DCONST=const __code" -DGENERIC=__generic        /
//                          -DRFD_RCVC_ALWAYS_ON=FALSE -DPOLL_RATE=1000       /
//                          -DQUEUED_POLL_RATE=100 -DRESPONSE_POLL_RATE=100)  /
//                          -DREJOIN_POLL_RATE=440 "D:\µ{¦¡¶}µo\TI Zigbee     /
//                          Z-Stack\ZStack-CC2530-2.3.0-1.4.0\Components\hal\ /
//                          target\CC2530BB\hal_lcd.c" -D NWK_AUTO_POLL -D    /
//                          ZTOOL_P1 -D MT_TASK -D MT_SYS_FUNC -D             /
//                          MT_ZDO_FUNC -D xLCD_SUPPORTED=DEBUG -D            /
//                          xPOWER_SAVING -lC "D:\µ{¦¡¶}µo\TI Zigbee          /
//                          Z-Stack\ZStack-CC2530-2.3.0-1.4.0\Projects\zstack /
//                          \Samples\GenericApp\CC2530DB\EndDeviceBB\List\"   /
//                          -lA "D:\µ{¦¡¶}µo\TI Zigbee                        /
//                          Z-Stack\ZStack-CC2530-2.3.0-1.4.0\Projects\zstack /
//                          \Samples\GenericApp\CC2530DB\EndDeviceBB\List\"   /
//                          --diag_suppress Pe001,Pa010 -o "D:\µ{¦¡¶}µo\TI    /
//                          Zigbee Z-Stack\ZStack-CC2530-2.3.0-1.4.0\Projects /
//                          \zstack\Samples\GenericApp\CC2530DB\EndDeviceBB\O /
//                          bj\" -e --require_prototypes --debug              /
//                          --core=plain --dptr=16,1 --data_model=large       /
//                          --code_model=banked --calling_convention=xdata_re /
//                          entrant --place_constants=data_rom                /
//                          --nr_virtual_regs 16 -I "D:\µ{¦¡¶}µo\TI Zigbee    /
//                          Z-Stack\ZStack-CC2530-2.3.0-1.4.0\Projects\zstack /
//                          \Samples\GenericApp\CC2530DB\" -I                 /
//                          "D:\µ{¦¡¶}µo\TI Zigbee Z-Stack\ZStack-CC2530-2.3. /
//                          0-1.4.0\Projects\zstack\Samples\GenericApp\CC2530 /
//                          DB\..\SOURCE\" -I "D:\µ{¦¡¶}µo\TI Zigbee          /
//                          Z-Stack\ZStack-CC2530-2.3.0-1.4.0\Projects\zstack /
//                          \Samples\GenericApp\CC2530DB\..\..\..\ZMAIN\TI253 /
//                          0DB\" -I "D:\µ{¦¡¶}µo\TI Zigbee                   /
//                          Z-Stack\ZStack-CC2530-2.3.0-1.4.0\Projects\zstack /
//                          \Samples\GenericApp\CC2530DB\..\..\..\..\..\COMPO /
//                          NENTS\MT\" -I "D:\µ{¦¡¶}µo\TI Zigbee              /
//                          Z-Stack\ZStack-CC2530-2.3.0-1.4.0\Projects\zstack /
//                          \Samples\GenericApp\CC2530DB\..\..\..\..\..\COMPO /
//                          NENTS\HAL\INCLUDE\" -I "D:\µ{¦¡¶}µo\TI Zigbee     /
//                          Z-Stack\ZStack-CC2530-2.3.0-1.4.0\Projects\zstack /
//                          \Samples\GenericApp\CC2530DB\..\..\..\..\..\COMPO /
//                          NENTS\HAL\TARGET\CC2530EB\" -I "D:\µ{¦¡¶}µo\TI    /
//                          Zigbee Z-Stack\ZStack-CC2530-2.3.0-1.4.0\Projects /
//                          \zstack\Samples\GenericApp\CC2530DB\..\..\..\..\. /
//                          .\COMPONENTS\OSAL\MCU\CCSOC\" -I "D:\µ{¦¡¶}µo\TI  /
//                          Zigbee Z-Stack\ZStack-CC2530-2.3.0-1.4.0\Projects /
//                          \zstack\Samples\GenericApp\CC2530DB\..\..\..\..\. /
//                          .\COMPONENTS\OSAL\INCLUDE\" -I "D:\µ{¦¡¶}µo\TI    /
//                          Zigbee Z-Stack\ZStack-CC2530-2.3.0-1.4.0\Projects /
//                          \zstack\Samples\GenericApp\CC2530DB\..\..\..\..\. /
//                          .\COMPONENTS\STACK\AF\" -I "D:\µ{¦¡¶}µo\TI        /
//                          Zigbee Z-Stack\ZStack-CC2530-2.3.0-1.4.0\Projects /
//                          \zstack\Samples\GenericApp\CC2530DB\..\..\..\..\. /
//                          .\COMPONENTS\STACK\NWK\" -I "D:\µ{¦¡¶}µo\TI       /
//                          Zigbee Z-Stack\ZStack-CC2530-2.3.0-1.4.0\Projects /
//                          \zstack\Samples\GenericApp\CC2530DB\..\..\..\..\. /
//                          .\COMPONENTS\STACK\SEC\" -I "D:\µ{¦¡¶}µo\TI       /
//                          Zigbee Z-Stack\ZStack-CC2530-2.3.0-1.4.0\Projects /
//                          \zstack\Samples\GenericApp\CC2530DB\..\..\..\..\. /
//                          .\COMPONENTS\STACK\SAPI\" -I "D:\µ{¦¡¶}µo\TI      /
//                          Zigbee Z-Stack\ZStack-CC2530-2.3.0-1.4.0\Projects /
//                          \zstack\Samples\GenericApp\CC2530DB\..\..\..\..\. /
//                          .\COMPONENTS\STACK\SYS\" -I "D:\µ{¦¡¶}µo\TI       /
//                          Zigbee Z-Stack\ZStack-CC2530-2.3.0-1.4.0\Projects /
//                          \zstack\Samples\GenericApp\CC2530DB\..\..\..\..\. /
//                          .\COMPONENTS\STACK\ZDO\" -I "D:\µ{¦¡¶}µo\TI       /
//                          Zigbee Z-Stack\ZStack-CC2530-2.3.0-1.4.0\Projects /
//                          \zstack\Samples\GenericApp\CC2530DB\..\..\..\..\. /
//                          .\COMPONENTS\ZMAC\F8W\" -I "D:\µ{¦¡¶}µo\TI        /
//                          Zigbee Z-Stack\ZStack-CC2530-2.3.0-1.4.0\Projects /
//                          \zstack\Samples\GenericApp\CC2530DB\..\..\..\..\. /
//                          .\COMPONENTS\ZMAC\" -I "D:\µ{¦¡¶}µo\TI Zigbee     /
//                          Z-Stack\ZStack-CC2530-2.3.0-1.4.0\Projects\zstack /
//                          \Samples\GenericApp\CC2530DB\..\..\..\..\..\COMPO /
//                          NENTS\SERVICES\SADDR\" -I "D:\µ{¦¡¶}µo\TI Zigbee  /
//                          Z-Stack\ZStack-CC2530-2.3.0-1.4.0\Projects\zstack /
//                          \Samples\GenericApp\CC2530DB\..\..\..\..\..\COMPO /
//                          NENTS\SERVICES\SDATA\" -I "D:\µ{¦¡¶}µo\TI Zigbee  /
//                          Z-Stack\ZStack-CC2530-2.3.0-1.4.0\Projects\zstack /
//                          \Samples\GenericApp\CC2530DB\..\..\..\..\..\COMPO /
//                          NENTS\MAC\INCLUDE\" -I "D:\µ{¦¡¶}µo\TI Zigbee     /
//                          Z-Stack\ZStack-CC2530-2.3.0-1.4.0\Projects\zstack /
//                          \Samples\GenericApp\CC2530DB\..\..\..\..\..\COMPO /
//                          NENTS\MAC\HIGH_LEVEL\" -I "D:\µ{¦¡¶}µo\TI Zigbee  /
//                          Z-Stack\ZStack-CC2530-2.3.0-1.4.0\Projects\zstack /
//                          \Samples\GenericApp\CC2530DB\..\..\..\..\..\COMPO /
//                          NENTS\MAC\LOW_LEVEL\srf04\" -I "D:\µ{¦¡¶}µo\TI    /
//                          Zigbee Z-Stack\ZStack-CC2530-2.3.0-1.4.0\Projects /
//                          \zstack\Samples\GenericApp\CC2530DB\..\..\..\..\. /
//                          .\COMPONENTS\MAC\LOW_LEVEL\srf04\SINGLE_CHIP\"    /
//                          -I "C:\Program Files\IAR Systems\Embedded         /
//                          Workbench 5.3\8051\INC\" -I "C:\Program           /
//                          Files\IAR Systems\Embedded Workbench              /
//                          5.3\8051\INC\CLIB\" -Ohz                          /
//    List file          =  D:\µ{¦¡¶}µo\TI Zigbee Z-Stack\ZStack-CC2530-2.3.0 /
//                          -1.4.0\Projects\zstack\Samples\GenericApp\CC2530D /
//                          B\EndDeviceBB\List\hal_lcd.s51                    /
//                                                                            /
//                                                                            /
///////////////////////////////////////////////////////////////////////////////

        NAME hal_lcd

        RTMODEL "__calling_convention", "xdata_reentrant"
        RTMODEL "__code_model", "banked"
        RTMODEL "__core", "plain"
        RTMODEL "__data_model", "large"
        RTMODEL "__dptr_size", "16"
        RTMODEL "__extended_stack", "disabled"
        RTMODEL "__location_for_constants", "data"
        RTMODEL "__number_of_dptrs", "1"
        RTMODEL "__rt_version", "1"

        RSEG DOVERLAY:DATA:NOROOT(0)
        RSEG IOVERLAY:IDATA:NOROOT(0)
        RSEG ISTACK:IDATA:NOROOT(0)
        RSEG PSTACK:XDATA:NOROOT(0)
        RSEG XSTACK:XDATA:NOROOT(0)

        EXTERN ??HalLcdWriteString?relay
        EXTERN ??HalLcd_HW_Clear?relay
        EXTERN ??HalLcd_HW_WriteLine?relay
        EXTERN ??initLcd?relay
        EXTERN ??lcbWait?relay
        EXTERN ??lcdCommand?relay
        EXTERN ??lcdData?relay
        EXTERN ??lcdUpdateChar?relay
        EXTERN ?ALLOC_XSTACK8
        EXTERN ?BANKED_ENTER_XDATA
        EXTERN ?BANKED_LEAVE_XDATA
        EXTERN ?BDISPATCH
        EXTERN ?BRET
        EXTERN ?DEALLOC_XSTACK8
        EXTERN ?PUSH_XSTACK_I_THREE
        EXTERN ?PUSH_XSTACK_I_TWO
        EXTERN ?SS_SHR
        EXTERN ?S_SHL
        EXTERN ?V0
        EXTERN ?XSP
        EXTERN ?XSTACK_DISP0_8
        EXTERN __INIT_XDATA_Z

        PUBLIC ??HalLcdDisplayPercentBar?relay
        FUNCTION ??HalLcdDisplayPercentBar?relay,0203H
        PUBLIC ??HalLcdInit?relay
        FUNCTION ??HalLcdInit?relay,0203H
        PUBLIC ??HalLcdWriteScreen?relay
        FUNCTION ??HalLcdWriteScreen?relay,0203H
        PUBLIC ??HalLcdWriteString?relay
        FUNCTION ??HalLcdWriteString?relay,0203H
        PUBLIC ??HalLcdWriteStringValue?relay
        FUNCTION ??HalLcdWriteStringValue?relay,0203H
        PUBLIC ??HalLcdWriteStringValueValue?relay
        FUNCTION ??HalLcdWriteStringValueValue?relay,0203H
        PUBLIC ??HalLcdWriteValue?relay
        FUNCTION ??HalLcdWriteValue?relay,0203H
        PUBLIC ??HalLcd_HW_Clear?relay
        FUNCTION ??HalLcd_HW_Clear?relay,0203H
        PUBLIC ??HalLcd_HW_ClearAllSpecChars?relay
        FUNCTION ??HalLcd_HW_ClearAllSpecChars?relay,0203H
        PUBLIC ??HalLcd_HW_SetContrast?relay
        FUNCTION ??HalLcd_HW_SetContrast?relay,0203H
        PUBLIC ??HalLcd_HW_WaitUs?relay
        FUNCTION ??HalLcd_HW_WaitUs?relay,0203H
        PUBLIC ??HalLcd_HW_WriteLine?relay
        FUNCTION ??HalLcd_HW_WriteLine?relay,0203H
        FUNCTION ??initLcd?relay,0203H
        FUNCTION ??lcbWait?relay,0203H
        FUNCTION ??lcdCommand?relay,0203H
        FUNCTION ??lcdData?relay,0203H
        FUNCTION ??lcdUpdateChar?relay,0203H
        PUBLIC Font16x8
        PUBLIC HalLcdDisplayPercentBar
        FUNCTION HalLcdDisplayPercentBar,021203H
        ARGFRAME XSTACK, 0, STACK
        LOCFRAME ISTACK, 1, STACK
        LOCFRAME XSTACK, 35, STACK
        PUBLIC HalLcdInit
        FUNCTION HalLcdInit,021203H
        ARGFRAME XSTACK, 0, STACK
        LOCFRAME ISTACK, 2, STACK
        PUBLIC HalLcdWriteScreen
        FUNCTION HalLcdWriteScreen,021203H
        ARGFRAME XSTACK, 0, STACK
        LOCFRAME XSTACK, 9, STACK
        PUBLIC HalLcdWriteString
        FUNCTION HalLcdWriteString,021203H
        ARGFRAME XSTACK, 43, STACK
        ARGFRAME IOVERLAY, 0, STATIC
        ARGFRAME DOVERLAY, 0, STATIC
        LOCFRAME ISTACK, 1, STACK
        LOCFRAME XSTACK, 27, STACK
        PUBLIC HalLcdWriteStringValue
        FUNCTION HalLcdWriteStringValue,021203H
        ARGFRAME XSTACK, 1, STACK
        LOCFRAME ISTACK, 1, STACK
        LOCFRAME XSTACK, 46, STACK
        PUBLIC HalLcdWriteStringValueValue
        FUNCTION HalLcdWriteStringValueValue,021203H
        ARGFRAME XSTACK, 4, STACK
        LOCFRAME ISTACK, 1, STACK
        LOCFRAME XSTACK, 46, STACK
        PUBLIC HalLcdWriteValue
        FUNCTION HalLcdWriteValue,021203H
        ARGFRAME XSTACK, 1, STACK
        LOCFRAME XSTACK, 41, STACK
        PUBLIC HalLcd_HW_Clear
        FUNCTION HalLcd_HW_Clear,021203H
        ARGFRAME XSTACK, 0, STACK
        ARGFRAME IOVERLAY, 0, STATIC
        ARGFRAME DOVERLAY, 0, STATIC
        LOCFRAME XSTACK, 9, STACK
        PUBLIC HalLcd_HW_ClearAllSpecChars
        FUNCTION HalLcd_HW_ClearAllSpecChars,021203H
        ARGFRAME XSTACK, 0, STACK
        LOCFRAME XSTACK, 9, STACK
        PUBLIC HalLcd_HW_SetContrast
        FUNCTION HalLcd_HW_SetContrast,021203H
        ARGFRAME XSTACK, 0, STACK
        LOCFRAME XSTACK, 9, STACK
        PUBLIC HalLcd_HW_WaitUs
        FUNCTION HalLcd_HW_WaitUs,080203H
        ARGFRAME XSTACK, 0, STACK
        PUBLIC HalLcd_HW_WriteLine
        FUNCTION HalLcd_HW_WriteLine,021203H
        ARGFRAME XSTACK, 24, STACK
        ARGFRAME IOVERLAY, 0, STATIC
        ARGFRAME DOVERLAY, 0, STATIC
        LOCFRAME XSTACK, 11, STACK
        PUBWEAK P1DIR
        PUBWEAK P2DIR
        PUBWEAK _A_P1
        PUBWEAK _A_P2
        FUNCTION initLcd,021203H
        ARGFRAME XSTACK, 0, STACK
        ARGFRAME IOVERLAY, 0, STATIC
        ARGFRAME DOVERLAY, 0, STATIC
        LOCFRAME ISTACK, 2, STACK
        FUNCTION lcbWait,080203H
        ARGFRAME XSTACK, 0, STACK
        ARGFRAME IOVERLAY, 0, STATIC
        ARGFRAME DOVERLAY, 0, STATIC
        FUNCTION lcdCommand,0203H
        ARGFRAME XSTACK, 13, STACK
        ARGFRAME IOVERLAY, 0, STATIC
        ARGFRAME DOVERLAY, 0, STATIC
        LOCFRAME ISTACK, 2, STACK
        FUNCTION lcdData,0203H
        ARGFRAME XSTACK, 13, STACK
        ARGFRAME IOVERLAY, 0, STATIC
        ARGFRAME DOVERLAY, 0, STATIC
        LOCFRAME ISTACK, 2, STACK
        FUNCTION lcdUpdateChar,021203H
        ARGFRAME XSTACK, 11, STACK
        ARGFRAME IOVERLAY, 0, STATIC
        ARGFRAME DOVERLAY, 0, STATIC
        LOCFRAME XSTACK, 13, STACK
        
        CFI Names cfiNames0
        CFI StackFrame CFA_SP SP IDATA
        CFI StackFrame CFA_PSP16 PSP16 XDATA
        CFI StackFrame CFA_XSP16 XSP16 XDATA
        CFI StaticOverlayFrame CFA_IOVERLAY IOVERLAY
        CFI StaticOverlayFrame CFA_DOVERLAY DOVERLAY
        CFI Resource `PSW.CY`:1, `B.BR0`:1, `B.BR1`:1, `B.BR2`:1, `B.BR3`:1
        CFI Resource `B.BR4`:1, `B.BR5`:1, `B.BR6`:1, `B.BR7`:1, `VB.BR8`:1
        CFI Resource `VB.BR9`:1, `VB.BR10`:1, `VB.BR11`:1, `VB.BR12`:1
        CFI Resource `VB.BR13`:1, `VB.BR14`:1, `VB.BR15`:1, VB:8, B:8, A:8
        CFI Resource PSW:8, DPL0:8, DPH0:8, R0:8, R1:8, R2:8, R3:8, R4:8, R5:8
        CFI Resource R6:8, R7:8, V0:8, V1:8, V2:8, V3:8, V4:8, V5:8, V6:8, V7:8
        CFI Resource V8:8, V9:8, V10:8, V11:8, V12:8, V13:8, V14:8, V15:8, SP:8
        CFI Resource PSPH:8, PSPL:8, PSP16:16, XSPH:8, XSPL:8, XSP16:16
        CFI VirtualResource ?RET:24
        CFI Resource ?BRET_EXT:8
        CFI VirtualResource ?RET_HIGH:8, ?RET_LOW:8
        CFI ResourceParts PSP16 PSPH, PSPL
        CFI ResourceParts XSP16 XSPH, XSPL
        CFI ResourceParts ?RET ?BRET_EXT, ?RET_HIGH, ?RET_LOW
        CFI EndNames cfiNames0
        
        CFI Common cfiCommon0 Using cfiNames0
        CFI CodeAlign 1
        CFI DataAlign -1
        CFI ReturnAddress ?RET CODE
        CFI CFA_DOVERLAY Used
        CFI CFA_IOVERLAY Used
        CFI CFA_SP SP+-3
        CFI CFA_PSP16 PSP16+0
        CFI CFA_XSP16 XSP16+0
        CFI `PSW.CY` SameValue
        CFI `B.BR0` SameValue
        CFI `B.BR1` SameValue
        CFI `B.BR2` SameValue
        CFI `B.BR3` SameValue
        CFI `B.BR4` SameValue
        CFI `B.BR5` SameValue
        CFI `B.BR6` SameValue
        CFI `B.BR7` SameValue
        CFI `VB.BR8` SameValue
        CFI `VB.BR9` SameValue
        CFI `VB.BR10` SameValue
        CFI `VB.BR11` SameValue
        CFI `VB.BR12` SameValue
        CFI `VB.BR13` SameValue
        CFI `VB.BR14` SameValue
        CFI `VB.BR15` SameValue
        CFI VB SameValue
        CFI B Undefined
        CFI A Undefined
        CFI PSW SameValue
        CFI DPL0 SameValue
        CFI DPH0 SameValue
        CFI R0 Undefined
        CFI R1 Undefined
        CFI R2 Undefined
        CFI R3 Undefined
        CFI R4 Undefined
        CFI R5 Undefined
        CFI R6 SameValue
        CFI R7 SameValue
        CFI V0 SameValue
        CFI V1 SameValue
        CFI V2 SameValue
        CFI V3 SameValue
        CFI V4 SameValue
        CFI V5 SameValue
        CFI V6 SameValue
        CFI V7 SameValue
        CFI V8 SameValue
        CFI V9 SameValue
        CFI V10 SameValue
        CFI V11 SameValue
        CFI V12 SameValue
        CFI V13 SameValue
        CFI V14 SameValue
        CFI V15 SameValue
        CFI PSPH Undefined
        CFI PSPL Undefined
        CFI XSPH Undefined
        CFI XSPL Undefined
        CFI ?RET Concat
        CFI ?BRET_EXT Frame(CFA_SP, 3)
        CFI ?RET_HIGH Frame(CFA_SP, 2)
        CFI ?RET_LOW Frame(CFA_SP, 1)
        CFI EndCommon cfiCommon0
        
        
        CFI Common cfiCommon1 Using cfiNames0
        CFI CodeAlign 1
        CFI DataAlign -1
        CFI ReturnAddress ?RET CODE
        CFI CFA_DOVERLAY Used
        CFI CFA_IOVERLAY Used
        CFI CFA_SP SP+-2
        CFI CFA_PSP16 PSP16+0
        CFI CFA_XSP16 XSP16+0
        CFI `PSW.CY` SameValue
        CFI `B.BR0` SameValue
        CFI `B.BR1` SameValue
        CFI `B.BR2` SameValue
        CFI `B.BR3` SameValue
        CFI `B.BR4` SameValue
        CFI `B.BR5` SameValue
        CFI `B.BR6` SameValue
        CFI `B.BR7` SameValue
        CFI `VB.BR8` SameValue
        CFI `VB.BR9` SameValue
        CFI `VB.BR10` SameValue
        CFI `VB.BR11` SameValue
        CFI `VB.BR12` SameValue
        CFI `VB.BR13` SameValue
        CFI `VB.BR14` SameValue
        CFI `VB.BR15` SameValue
        CFI VB SameValue
        CFI B SameValue
        CFI A SameValue
        CFI PSW SameValue
        CFI DPL0 SameValue
        CFI DPH0 SameValue
        CFI R0 SameValue
        CFI R1 SameValue
        CFI R2 SameValue
        CFI R3 SameValue
        CFI R4 SameValue
        CFI R5 SameValue
        CFI R6 SameValue
        CFI R7 SameValue
        CFI V0 SameValue
        CFI V1 SameValue
        CFI V2 SameValue
        CFI V3 SameValue
        CFI V4 SameValue
        CFI V5 SameValue
        CFI V6 SameValue
        CFI V7 SameValue
        CFI V8 SameValue
        CFI V9 SameValue
        CFI V10 SameValue
        CFI V11 SameValue
        CFI V12 SameValue
        CFI V13 SameValue
        CFI V14 SameValue
        CFI V15 SameValue
        CFI PSPH Undefined
        CFI PSPL Undefined
        CFI XSPH Undefined
        CFI XSPL Undefined
        CFI ?RET Concat
        CFI ?BRET_EXT SameValue
        CFI ?RET_HIGH Frame(CFA_SP, 2)
        CFI ?RET_LOW Frame(CFA_SP, 1)
        CFI EndCommon cfiCommon1
        
osal_mem_alloc      SYMBOL "osal_mem_alloc"
osal_strlen         SYMBOL "osal_strlen"
osal_memcpy         SYMBOL "osal_memcpy"
osal_mem_free       SYMBOL "osal_mem_free"
_ltoa               SYMBOL "_ltoa"
??_ltoa?relay       SYMBOL "?relay", _ltoa
??osal_mem_alloc?relay SYMBOL "?relay", osal_mem_alloc
??osal_mem_free?relay SYMBOL "?relay", osal_mem_free
??osal_memcpy?relay SYMBOL "?relay", osal_memcpy
??osal_strlen?relay SYMBOL "?relay", osal_strlen
HalLcdDisplayPercentBar SYMBOL "HalLcdDisplayPercentBar"
??HalLcdDisplayPercentBar?relay SYMBOL "?relay", HalLcdDisplayPercentBar
HalLcdInit          SYMBOL "HalLcdInit"
??HalLcdInit?relay  SYMBOL "?relay", HalLcdInit
HalLcdWriteScreen   SYMBOL "HalLcdWriteScreen"
??HalLcdWriteScreen?relay SYMBOL "?relay", HalLcdWriteScreen
HalLcdWriteString   SYMBOL "HalLcdWriteString"
??HalLcdWriteString?relay SYMBOL "?relay", HalLcdWriteString
HalLcdWriteStringValue SYMBOL "HalLcdWriteStringValue"
??HalLcdWriteStringValue?relay SYMBOL "?relay", HalLcdWriteStringValue
HalLcdWriteStringValueValue SYMBOL "HalLcdWriteStringValueValue"
??HalLcdWriteStringValueValue?relay SYMBOL "?relay", HalLcdWriteStringValueValue
HalLcdWriteValue    SYMBOL "HalLcdWriteValue"
??HalLcdWriteValue?relay SYMBOL "?relay", HalLcdWriteValue
HalLcd_HW_Clear     SYMBOL "HalLcd_HW_Clear"
??HalLcd_HW_Clear?relay SYMBOL "?relay", HalLcd_HW_Clear
HalLcd_HW_ClearAllSpecChars SYMBOL "HalLcd_HW_ClearAllSpecChars"
??HalLcd_HW_ClearAllSpecChars?relay SYMBOL "?relay", HalLcd_HW_ClearAllSpecChars
HalLcd_HW_SetContrast SYMBOL "HalLcd_HW_SetContrast"
??HalLcd_HW_SetContrast?relay SYMBOL "?relay", HalLcd_HW_SetContrast
HalLcd_HW_WaitUs    SYMBOL "HalLcd_HW_WaitUs"
??HalLcd_HW_WaitUs?relay SYMBOL "?relay", HalLcd_HW_WaitUs
HalLcd_HW_WriteLine SYMBOL "HalLcd_HW_WriteLine"
??HalLcd_HW_WriteLine?relay SYMBOL "?relay", HalLcd_HW_WriteLine

        EXTERN osal_mem_alloc
        FUNCTION osal_mem_alloc,0202H
        ARGFRAME ISTACK, 0, STACK
        ARGFRAME PSTACK, 0, STACK
        ARGFRAME XSTACK, 24, STACK
        ARGFRAME IOVERLAY, 0, STATIC
        ARGFRAME DOVERLAY, 0, STATIC
        EXTERN osal_strlen
        FUNCTION osal_strlen,0202H
        ARGFRAME ISTACK, 0, STACK
        ARGFRAME PSTACK, 0, STACK
        ARGFRAME XSTACK, 43, STACK
        ARGFRAME IOVERLAY, 0, STATIC
        ARGFRAME DOVERLAY, 0, STATIC
        EXTERN osal_memcpy
        FUNCTION osal_memcpy,0202H
        ARGFRAME ISTACK, 0, STACK
        ARGFRAME PSTACK, 0, STACK
        ARGFRAME XSTACK, 46, STACK
        ARGFRAME IOVERLAY, 0, STATIC
        ARGFRAME DOVERLAY, 0, STATIC
        EXTERN osal_mem_free
        FUNCTION osal_mem_free,0202H
        ARGFRAME ISTACK, 0, STACK
        ARGFRAME PSTACK, 0, STACK
        ARGFRAME XSTACK, 24, STACK
        ARGFRAME IOVERLAY, 0, STATIC
        ARGFRAME DOVERLAY, 0, STATIC
        EXTERN _ltoa
        FUNCTION _ltoa,0202H
        ARGFRAME ISTACK, 0, STACK
        ARGFRAME PSTACK, 0, STACK
        ARGFRAME XSTACK, 45, STACK
        ARGFRAME IOVERLAY, 0, STATIC
        ARGFRAME DOVERLAY, 0, STATIC
        EXTERN ??_ltoa?relay
        FUNCTION ??_ltoa?relay,00H
        EXTERN ??osal_mem_alloc?relay
        FUNCTION ??osal_mem_alloc?relay,00H
        EXTERN ??osal_mem_free?relay
        FUNCTION ??osal_mem_free?relay,00H
        EXTERN ??osal_memcpy?relay
        FUNCTION ??osal_memcpy?relay,00H
        EXTERN ??osal_strlen?relay
        FUNCTION ??osal_strlen?relay,00H

// D:\µ{¦¡¶}µo\TI Zigbee Z-Stack\ZStack-CC2530-2.3.0-1.4.0\Components\hal\target\CC2530BB\hal_lcd.c
//    1 /**************************************************************************************************
//    2   Filename:       hal_lcd.c
//    3   Revised:        $Date: 2009-11-09 20:03:17 -0800 (Mon, 09 Nov 2009) $
//    4   Revision:       $Revision: 21106 $
//    5 
//    6   Description:    This file contains the interface to the HAL LCD Service.
//    7 
//    8 
//    9   Copyright 2007 - 2009 Texas Instruments Incorporated. All rights reserved.
//   10 
//   11   IMPORTANT: Your use of this Software is limited to those specific rights
//   12   granted under the terms of a software license agreement between the user
//   13   who downloaded the software, his/her employer (which must be your employer)
//   14   and Texas Instruments Incorporated (the "License").  You may not use this
//   15   Software unless you agree to abide by the terms of the License. The License
//   16   limits your use, and you acknowledge, that the Software may not be modified,
//   17   copied or distributed unless embedded on a Texas Instruments microcontroller
//   18   or used solely and exclusively in conjunction with a Texas Instruments radio
//   19   frequency transceiver, which is integrated into your product.  Other than for
//   20   the foregoing purpose, you may not use, reproduce, copy, prepare derivative
//   21   works of, modify, distribute, perform, display or sell this Software and/or
//   22   its documentation for any purpose.
//   23 
//   24   YOU FURTHER ACKNOWLEDGE AND AGREE THAT THE SOFTWARE AND DOCUMENTATION ARE
//   25   PROVIDED “AS IS?WITHOUT WARRANTY OF ANY KIND, EITHER EXPRESS OR IMPLIED,
//   26   INCLUDING WITHOUT LIMITATION, ANY WARRANTY OF MERCHANTABILITY, TITLE,
//   27   NON-INFRINGEMENT AND FITNESS FOR A PARTICULAR PURPOSE. IN NO EVENT SHALL
//   28   TEXAS INSTRUMENTS OR ITS LICENSORS BE LIABLE OR OBLIGATED UNDER CONTRACT,
//   29   NEGLIGENCE, STRICT LIABILITY, CONTRIBUTION, BREACH OF WARRANTY, OR OTHER
//   30   LEGAL EQUITABLE THEORY ANY DIRECT OR INDIRECT DAMAGES OR EXPENSES
//   31   INCLUDING BUT NOT LIMITED TO ANY INCIDENTAL, SPECIAL, INDIRECT, PUNITIVE
//   32   OR CONSEQUENTIAL DAMAGES, LOST PROFITS OR LOST DATA, COST OF PROCUREMENT
//   33   OF SUBSTITUTE GOODS, TECHNOLOGY, SERVICES, OR ANY CLAIMS BY THIRD PARTIES
//   34   (INCLUDING BUT NOT LIMITED TO ANY DEFENSE THEREOF), OR OTHER SIMILAR COSTS.
//   35 
//   36   Should you have any questions regarding your right to use this Software,
//   37   contact Texas Instruments Incorporated at www.TI.com.
//   38 **************************************************************************************************/
//   39 
//   40 /**************************************************************************************************
//   41  *                                           INCLUDES
//   42  **************************************************************************************************/
//   43 #include "hal_types.h"
//   44 #include "hal_lcd.h"

        ASEGN SFR_AN:DATA:NOROOT,090H
// union <unnamed> volatile __sfr _A_P1
_A_P1:
        DS 1

        ASEGN SFR_AN:DATA:NOROOT,0a0H
// union <unnamed> volatile __sfr _A_P2
_A_P2:
        DS 1

        ASEGN SFR_AN:DATA:NOROOT,0feH
// unsigned char volatile __sfr P1DIR
P1DIR:
        DS 1

        ASEGN SFR_AN:DATA:NOROOT,0ffH
// unsigned char volatile __sfr P2DIR
P2DIR:
        DS 1
//   45 #include "OSAL.h"
//   46 #include "OnBoard.h"
//   47 //#include "hal_assert.h"
//   48 #include <string.h>
//   49 
//   50 #if defined (ZTOOL_P1) || defined (ZTOOL_P2)
//   51   #include "DebugTrace.h"
//   52 #endif
//   53 
//   54 /*
//   55 __code const uint8 Logo[]=
//   56 {
//   57     0xFF,0x01,0x01,0x01,0x01,0x01,0x01,0x01,0x01,0x01,0x01,0x01,0x01,0x81,0xC1,0x41,
//   58     0x41,0x41,0xC1,0x81,0x01,0x01,0xC1,0xC1,0x01,0x01,0x01,0x01,0xC1,0xC1,0x01,0x01,
//   59     0xC1,0xC1,0x01,0x01,0x01,0xF1,0x21,0x21,0x21,0xA1,0xA1,0xA1,0xA1,0xA1,0x21,0x21,
//   60     0x21,0xF1,0x21,0x01,0x21,0x21,0xE1,0x21,0x21,0xE1,0x31,0x21,0x01,0x01,0x81,0x41,
//   61     0x31,0x11,0x01,0x01,0x01,0xF1,0x51,0x51,0x51,0x51,0xF1,0x01,0x21,0x21,0xA1,0x61,
//   62     0x21,0xB1,0x21,0x01,0x01,0x01,0x21,0x21,0x21,0x21,0x21,0x21,0x21,0x21,0x21,0x31,
//   63     0x21,0x01,0x01,0x01,0x01,0xF1,0xA1,0xA1,0xA1,0xF1,0x21,0x01,0xF1,0xA1,0xA1,0xA1,
//   64     0xF1,0x21,0x01,0x01,0x01,0x01,0x01,0x01,0x01,0x01,0x01,0x01,0x01,0x01,0x01,0xFF,
//   65     0xFF,0x00,0x00,0x00,0x00,0x00,0x00,0x00,0x00,0x00,0x00,0x00,0x3F,0x7F,0xC0,0x80,
//   66     0x88,0x88,0x78,0xF9,0x00,0x00,0x3F,0x7F,0xC0,0x80,0x80,0xC0,0x7F,0x3F,0x00,0x00,
//   67     0xFF,0xFF,0x00,0x00,0x00,0xFF,0x00,0x08,0xE8,0x2B,0xEA,0xAE,0xEA,0x2B,0xE8,0x08,
//   68     0x00,0xFF,0x00,0x00,0x08,0x08,0xFF,0x08,0x08,0xFF,0x08,0x0C,0x29,0x21,0x10,0x08,
//   69     0x86,0x62,0x20,0x00,0x28,0xBD,0x2B,0x35,0x69,0x3D,0xAB,0x34,0x60,0xFF,0x95,0x95,
//   70     0x95,0xFF,0x01,0x00,0x02,0xC2,0x32,0x12,0x02,0x02,0x02,0xFE,0x02,0x02,0x12,0x22,
//   71     0xC2,0x83,0x02,0x00,0x48,0xC9,0x68,0x68,0x58,0xC9,0x0E,0x0A,0xC9,0x48,0x5A,0x6C,
//   72     0xE9,0x4C,0x48,0x00,0x00,0x00,0x00,0x00,0x00,0x00,0x00,0x00,0x00,0x00,0x00,0xFF,
//   73     0xFF,0x00,0x00,0x00,0x00,0x00,0x00,0x00,0x00,0x00,0x00,0x00,0x00,0x00,0x00,0x00,
//   74     0x00,0x80,0x80,0x00,0x80,0x00,0x00,0x00,0x00,0x80,0x00,0x00,0x80,0x00,0x00,0x00,
//   75     0x80,0x00,0x00,0x00,0x00,0x87,0x82,0x02,0x03,0x82,0x02,0x82,0x82,0x02,0x83,0x02,
//   76     0x02,0x07,0x00,0x00,0x04,0x83,0x00,0x00,0x00,0x07,0x00,0x00,0x04,0x04,0x82,0x81,
//   77     0x00,0x00,0x00,0x00,0x02,0x01,0x00,0x03,0x00,0x03,0x00,0x03,0x04,0x02,0x01,0x00,
//   78     0x01,0x02,0x04,0x00,0x01,0x80,0x00,0x00,0x00,0x80,0x00,0x07,0x00,0x00,0x00,0x00,
//   79     0x80,0x01,0x00,0x00,0x00,0x87,0x02,0x02,0x82,0x07,0x00,0x00,0x87,0x02,0x02,0x02,
//   80     0x07,0x80,0x80,0x00,0x00,0x00,0x00,0x00,0x00,0x00,0x00,0x00,0x00,0x00,0x00,0xFF,
//   81     0xFF,0x00,0x00,0x00,0x00,0x00,0x00,0x00,0x00,0xFF,0x02,0xEA,0xAA,0xAA,0xAA,0xEA,
//   82     0x02,0x7F,0x82,0x02,0x02,0xF3,0x12,0x00,0x08,0x30,0x03,0x00,0xFF,0x49,0x49,0x49,
//   83     0xFF,0x01,0xFE,0x02,0x00,0xFF,0x00,0x00,0x00,0xFF,0x49,0x6C,0x48,0x00,0xEF,0x09,
//   84     0xFD,0x00,0x49,0x49,0x49,0xFF,0x01,0x00,0x20,0x20,0x10,0x08,0xE4,0x23,0x00,0x01,
//   85     0x02,0xE4,0x28,0x08,0x10,0x30,0x10,0x00,0x01,0xFD,0x09,0x09,0xF9,0x49,0x4D,0x4B,
//   86     0x49,0xF9,0x09,0x09,0xFD,0x09,0x01,0x00,0x04,0x03,0x05,0xC5,0x5F,0x55,0x55,0x5F,
//   87     0x55,0x55,0x5F,0xC5,0x05,0x03,0x01,0x00,0xFF,0x95,0x95,0xFF,0x95,0xD5,0x08,0xF4,
//   88     0x92,0xF5,0x04,0xF5,0x92,0xF4,0x04,0x00,0x00,0x00,0x00,0x00,0x00,0x00,0x00,0xFF,
//   89     0xFF,0x00,0x00,0x00,0x00,0x00,0x00,0x00,0x30,0x0F,0x10,0x08,0x1C,0x22,0x24,0x38,
//   90     0x04,0x28,0x13,0x0C,0x13,0x20,0x38,0x00,0x30,0x0C,0x23,0x20,0x17,0x0A,0x02,0x0A,
//   91     0x17,0x30,0x03,0x10,0x30,0x1F,0x00,0x00,0x22,0x23,0x12,0x12,0x0A,0x0A,0x03,0x02,
//   92     0x03,0x02,0x0A,0x0A,0x12,0x33,0x02,0x00,0x00,0x20,0x10,0x0C,0x03,0x00,0x00,0x00,
//   93     0x00,0x3F,0x00,0x00,0x00,0x00,0x00,0x00,0x00,0x3F,0x10,0x10,0x1F,0x12,0x12,0x12,
//   94     0x12,0x1F,0x10,0x10,0x3F,0x00,0x00,0x00,0x00,0x00,0x20,0x3F,0x15,0x15,0x15,0x15,
//   95     0x15,0x15,0x15,0x3F,0x20,0x00,0x00,0x00,0x0D,0x02,0x2C,0x22,0x14,0x0F,0x20,0x18,
//   96     0x06,0x2A,0x10,0x0E,0x0A,0x30,0x00,0x00,0x00,0x00,0x00,0x00,0x00,0x00,0x00,0xFF,
//   97     0xFF,0x00,0x00,0x00,0x00,0x00,0x00,0x00,0x00,0x00,0x00,0x00,0x80,0x80,0x80,0x80,
//   98     0x80,0x80,0x80,0x80,0x80,0x80,0xF0,0xB0,0xB0,0xB0,0xB0,0xF0,0x80,0x80,0x80,0x80,
//   99     0x80,0x00,0x00,0x00,0x00,0x00,0x00,0x00,0x00,0x00,0x00,0x00,0x00,0x00,0x00,0x00,
//  100     0x00,0x00,0xC0,0x00,0x00,0x00,0xC0,0x00,0x80,0x40,0x40,0x80,0x00,0x00,0x00,0x80,
//  101     0xC0,0x00,0x00,0x00,0x80,0x40,0x40,0x80,0x00,0x00,0x80,0x40,0x40,0x80,0x00,0x00,
//  102     0x00,0x00,0x00,0x00,0x00,0x00,0x00,0x00,0x00,0x00,0x00,0x00,0x00,0x00,0x00,0x00,
//  103     0x00,0x00,0x00,0xC0,0x20,0x10,0x90,0x88,0x08,0x08,0x08,0x88,0x90,0x10,0x20,0xC0,
//  104     0x00,0x00,0x00,0x00,0x00,0x00,0x00,0x00,0x00,0x00,0x00,0x00,0x00,0x00,0x00,0xFF,
//  105     0xFF,0x00,0x00,0x00,0x00,0x00,0x00,0x00,0x00,0x00,0x00,0x00,0x3F,0x2A,0x2A,0xEA,
//  106     0xEA,0x7F,0x2A,0x2A,0x3A,0x3A,0x3F,0x2A,0x2A,0x3A,0x3A,0x3F,0x2A,0x2A,0x2A,0x2A,
//  107     0x3F,0x00,0x00,0x00,0x00,0x00,0x00,0x00,0x00,0x00,0x00,0x00,0x00,0x00,0x00,0x00,
//  108     0x00,0x00,0x01,0x0E,0x70,0x0E,0x01,0x00,0x3F,0x40,0x40,0x3F,0x00,0x00,0x00,0x00,
//  109     0x7F,0x00,0x00,0x00,0x3F,0x40,0x40,0x3F,0x00,0x00,0x3F,0x40,0x40,0x3F,0x00,0x00,
//  110     0x00,0x00,0x00,0x00,0x00,0x00,0x00,0x00,0x00,0x00,0x00,0x00,0x00,0x00,0x00,0x00,
//  111     0x00,0x00,0x1F,0x60,0x80,0x18,0x31,0x61,0x40,0x40,0x40,0x61,0x31,0x18,0x80,0x60,
//  112     0x1F,0x00,0x00,0x00,0x00,0x00,0x00,0x00,0x00,0x00,0x00,0x00,0x00,0x00,0x00,0xFF,
//  113     0x7F,0x40,0x40,0x40,0x40,0x40,0x40,0x40,0x40,0x40,0x40,0x40,0x40,0x40,0x40,0x40,
//  114     0x40,0x40,0x40,0x40,0x40,0x40,0x40,0x40,0x40,0x40,0x40,0x40,0x40,0x40,0x40,0x40,
//  115     0x40,0x40,0x40,0x40,0x40,0x40,0x40,0x40,0x40,0x40,0x40,0x40,0x40,0x40,0x40,0x40,
//  116     0x40,0x40,0x40,0x40,0x40,0x40,0x40,0x40,0x40,0x40,0x40,0x40,0x40,0x40,0x40,0x40,
//  117     0x40,0x40,0x40,0x40,0x40,0x40,0x40,0x40,0x40,0x40,0x40,0x40,0x40,0x40,0x40,0x40,
//  118     0x40,0x40,0x40,0x40,0x40,0x40,0x40,0x40,0x40,0x40,0x40,0x40,0x40,0x40,0x40,0x40,
//  119     0x40,0x40,0x40,0x40,0x40,0x41,0x41,0x42,0x42,0x42,0x42,0x42,0x41,0x41,0x40,0x40,
//  120     0x40,0x40,0x40,0x40,0x40,0x40,0x40,0x40,0x40,0x40,0x40,0x40,0x40,0x40,0x40,0x7F
//  121 };
//  122 */
//  123 
//  124 //-------------------------------------------------------------------
//  125 // English Font  16 x 8   ASCII 32 ~ 127
//  126 //-------------------------------------------------------------------

        RSEG CODE_C:CODE:REORDER:NOROOT(0)
        DATA
//  127 __code const uint8 Font16x8[]={
Font16x8:
        DB 0, 0, 0, 0, 0, 0, 0, 0, 0, 0, 0, 0, 0, 0, 0, 0, 0, 0, 112, 248, 248
        DB 112, 0, 0, 0, 0, 0, 13, 13, 0, 0, 0, 0, 28, 60, 0, 0, 0, 60, 28, 0
        DB 0, 0, 0, 0, 0, 0, 0, 0, 32, 248, 248, 32, 248, 248, 32, 0, 2, 15, 15
        DB 2, 15, 15, 2, 0, 112, 248, 136, 142, 142, 152, 48, 0, 6, 12, 8, 56
        DB 56, 15, 7, 0, 96, 96, 0, 0, 128, 192, 96, 0, 8, 12, 6, 3, 1, 12, 12
        DB 0, 0, 176, 248, 200, 120, 176, 128, 0, 7, 15, 8, 9, 7, 15, 8, 0, 32
        DB 60, 28, 0, 0, 0, 0, 0, 0, 0, 0, 0, 0, 0, 0, 0, 0, 224, 240, 24, 8, 0
        DB 0, 0, 0, 3, 7, 12, 8, 0, 0, 0, 0, 0, 8, 24, 240, 224, 0, 0, 0, 0, 8
        DB 12, 7, 3, 0, 128, 160, 224, 192, 192, 224, 160, 128, 0, 2, 3, 1, 1
        DB 3, 2, 0, 128, 128, 128, 240, 240, 128, 128, 128, 0, 0, 0, 7, 7, 0, 0
        DB 0, 0, 0, 0, 0, 0, 0, 0, 0, 0, 0, 16, 30, 14, 0, 0, 0, 128, 128, 128
        DB 128, 128, 128, 128, 0, 0, 0, 0, 0, 0, 0, 0, 0, 0, 0, 0, 0, 0, 0, 0
        DB 0, 0, 0, 0, 12, 12, 0, 0, 0, 0, 0, 0, 128, 192, 96, 48, 24, 0, 6, 3
        DB 1, 0, 0, 0, 0, 0, 240, 248, 136, 200, 104, 248, 240, 0, 7, 15, 9, 8
        DB 8, 15, 7, 0, 0, 32, 48, 248, 248, 0, 0, 0, 0, 8, 8, 15, 15, 8, 8, 0
        DB 16, 24, 8, 136, 200, 120, 48, 0, 12, 14, 11, 9, 8, 12, 12, 0, 16, 24
        DB 136, 136, 136, 248, 112, 0, 4, 12, 8, 8, 8, 15, 7, 0, 128, 192, 96
        DB 48, 248, 248, 0, 0, 1, 1, 1, 9, 15, 15, 9, 0, 248, 248, 136, 136
        DB 136, 136, 8, 0, 4, 12, 8, 8, 8, 15, 7, 0, 224, 240, 152, 136, 136
        DB 128, 0, 0, 7, 15, 8, 8, 8, 15, 7, 0, 24, 24, 8, 136, 200, 120, 56, 0
        DB 0, 0, 15, 15, 0, 0, 0, 0, 112, 248, 136, 136, 136, 248, 112, 0, 7
        DB 15, 8, 8, 8, 15, 7, 0, 112, 248, 136, 136, 136, 248, 240, 0, 0, 8, 8
        DB 8, 12, 7, 3, 0, 0, 0, 48, 48, 0, 0, 0, 0, 0, 0, 6, 6, 0, 0, 0, 0, 0
        DB 0, 48, 48, 0, 0, 0, 0, 0, 8, 14, 6, 0, 0, 0, 0, 128, 192, 96, 48, 24
        DB 8, 0, 0, 0, 1, 3, 6, 12, 8, 0, 0, 64, 64, 64, 64, 64, 64, 0, 0, 2, 2
        DB 2, 2, 2, 2, 0, 0, 8, 24, 48, 96, 192, 128, 0, 0, 8, 12, 6, 3, 1, 0
        DB 0, 0, 48, 56, 8, 136, 200, 120, 48, 0, 0, 0, 0, 13, 13, 0, 0, 0, 240
        DB 248, 8, 200, 200, 248, 240, 0, 7, 15, 8, 11, 11, 11, 1, 0, 192, 224
        DB 48, 24, 48, 224, 192, 0, 15, 15, 1, 1, 1, 15, 15, 0, 8, 248, 248
        DB 136, 136, 248, 112, 0, 8, 15, 15, 8, 8, 15, 7, 0, 224, 240, 24, 8, 8
        DB 24, 48, 0, 3, 7, 12, 8, 8, 12, 6, 0, 8, 248, 248, 8, 24, 240, 224, 0
        DB 8, 15, 15, 8, 12, 7, 3, 0, 8, 248, 248, 136, 200, 24, 56, 0, 8, 15
        DB 15, 8, 9, 12, 14, 0, 8, 248, 248, 136, 200, 24, 56, 0, 8, 15, 15, 8
        DB 1, 0, 0, 0, 224, 240, 24, 8, 8, 24, 48, 0, 3, 7, 12, 9, 9, 7, 15, 0
        DB 248, 248, 128, 128, 128, 248, 248, 0, 15, 15, 0, 0, 0, 15, 15, 0, 0
        DB 8, 248, 248, 8, 0, 0, 0, 0, 8, 15, 15, 8, 0, 0, 0, 0, 0, 0, 8, 248
        DB 248, 8, 0, 6, 14, 8, 8, 15, 7, 0, 0, 8, 248, 248, 128, 224, 120, 24
        DB 0, 8, 15, 15, 0, 3, 15, 12, 0, 8, 248, 248, 8, 0, 0, 0, 0, 8, 15, 15
        DB 8, 8, 12, 14, 0, 248, 248, 48, 96, 48, 248, 248, 0, 15, 15, 0, 0, 0
        DB 15, 15, 0, 248, 248, 112, 224, 192, 248, 248, 0, 15, 15, 0, 0, 1, 15
        DB 15, 0, 224, 240, 24, 8, 24, 240, 224, 0, 3, 7, 12, 8, 12, 7, 3, 0, 8
        DB 248, 248, 136, 136, 248, 112, 0, 8, 15, 15, 8, 0, 0, 0, 0, 240, 248
        DB 8, 8, 8, 248, 240, 0, 3, 7, 4, 7, 30, 31, 19, 0, 8, 248, 248, 136
        DB 136, 248, 112, 0, 8, 15, 15, 0, 1, 15, 14, 0, 48, 120, 200, 136, 136
        DB 56, 48, 0, 6, 14, 8, 8, 9, 15, 6, 24, 8, 8, 248, 248, 8, 8, 24, 0, 0
        DB 8, 15, 15, 8, 0, 0, 0, 248, 248, 0, 0, 0, 248, 248, 0, 7, 15, 8, 8
        DB 8, 15, 7, 0, 248, 248, 0, 0, 0, 248, 248, 0, 1, 3, 6, 12, 6, 3, 1, 0
        DB 248, 248, 0, 0, 0, 248, 248, 0, 15, 15, 6, 3, 6, 15, 15, 0, 56, 120
        DB 192, 128, 192, 120, 56, 0, 14, 15, 1, 0, 1, 15, 14, 0, 56, 120, 192
        DB 128, 192, 120, 56, 0, 0, 8, 15, 15, 15, 8, 0, 0, 56, 24, 136, 200
        DB 104, 56, 24, 0, 14, 15, 9, 8, 8, 12, 14, 0, 0, 248, 248, 8, 8, 0, 0
        DB 0, 0, 15, 15, 8, 8, 0, 0, 0, 56, 112, 224, 192, 128, 0, 0, 0, 0, 0
        DB 0, 1, 3, 7, 14, 0, 0, 8, 8, 248, 248, 0, 0, 0, 0, 8, 8, 15, 15, 0, 0
        DB 0, 16, 24, 12, 6, 12, 24, 16, 0, 0, 0, 0, 0, 0, 0, 0, 0, 0, 0, 0, 0
        DB 0, 0, 0, 0, 32, 32, 32, 32, 32, 32, 0, 0, 0, 0, 6, 14, 8, 0, 0, 0, 0
        DB 0, 0, 0, 0, 0, 0, 0, 0, 64, 64, 64, 192, 128, 0, 0, 6, 15, 9, 9, 7
        DB 15, 8, 0, 8, 248, 248, 64, 192, 128, 0, 0, 8, 15, 7, 8, 8, 15, 7, 0
        DB 128, 192, 64, 64, 64, 192, 128, 0, 7, 15, 8, 8, 8, 12, 4, 0, 0, 128
        DB 192, 72, 248, 248, 0, 0, 7, 15, 8, 8, 7, 15, 8, 0, 128, 192, 64, 64
        DB 64, 192, 128, 0, 7, 15, 9, 9, 9, 13, 5, 0, 128, 240, 248, 136, 152
        DB 48, 0, 0, 8, 15, 15, 8, 0, 0, 0, 0, 128, 192, 64, 64, 128, 192, 64
        DB 0, 19, 55, 36, 36, 63, 31, 0, 0, 8, 248, 248, 128, 64, 192, 128, 0
        DB 8, 15, 15, 0, 0, 15, 15, 0, 0, 0, 64, 216, 216, 0, 0, 0, 0, 0, 8, 15
        DB 15, 8, 0, 0, 0, 0, 0, 64, 216, 216, 0, 0, 24, 56, 32, 32, 63, 31, 0
        DB 0, 8, 248, 248, 0, 128, 192, 64, 0, 8, 15, 15, 1, 3, 14, 12, 0, 0, 0
        DB 8, 248, 248, 0, 0, 0, 0, 0, 8, 15, 15, 8, 0, 0, 128, 192, 128, 128
        DB 128, 192, 128, 0, 15, 15, 0, 15, 0, 15, 15, 0, 64, 192, 128, 64, 64
        DB 192, 128, 0, 0, 15, 15, 0, 0, 15, 15, 0, 128, 192, 64, 64, 64, 192
        DB 128, 0, 7, 15, 8, 8, 8, 15, 7, 0, 64, 192, 128, 64, 64, 192, 128, 0
        DB 32, 63, 63, 36, 4, 7, 3, 0, 128, 192, 64, 64, 128, 192, 64, 0, 3, 7
        DB 4, 36, 63, 63, 32, 0, 64, 192, 128, 192, 64, 192, 128, 0, 8, 15, 15
        DB 8, 0, 1, 1, 0, 128, 192, 64, 64, 64, 192, 128, 0, 4, 13, 9, 11, 10
        DB 14, 4, 0, 64, 64, 240, 248, 64, 64, 0, 0, 0, 0, 7, 15, 8, 12, 4, 0
        DB 192, 192, 0, 0, 192, 192, 0, 0, 7, 15, 8, 8, 7, 15, 8, 0, 192, 192
        DB 0, 0, 0, 192, 192, 0, 1, 3, 6, 12, 6, 3, 1, 0, 192, 192, 0, 0, 0
        DB 192, 192, 0, 7, 15, 12, 6, 12, 15, 7, 0, 64, 192, 128, 0, 128, 192
        DB 64, 0, 8, 12, 7, 3, 7, 12, 8, 0, 192, 192, 0, 0, 0, 192, 192, 0, 3
        DB 39, 36, 36, 52, 31, 15, 0, 192, 192, 64, 64, 192, 192, 64, 0, 8, 12
        DB 14, 11, 9, 12, 12, 0, 128, 128, 240, 120, 8, 8, 0, 0, 0, 0, 7, 15, 8
        DB 8, 0, 0, 0, 0, 120, 120, 0, 0, 0, 0, 0, 0, 15, 15, 0, 0, 0, 0, 8, 8
        DB 120, 240, 128, 128, 0, 0, 8, 8, 15, 7, 0, 0, 0, 0, 16, 24, 8, 24, 16
        DB 24, 8, 0, 0, 0, 0, 0, 0, 0, 0, 0, 0, 0, 14, 10, 14, 0, 0, 0, 0, 0, 0
        DB 0, 0, 0, 0
//  128     //   - 32
//  129     0x00,0x00,0x00,0x00,0x00,0x00,0x00,0x00,0x00,0x00,0x00,0x00,0x00,0x00,0x00,0x00,
//  130     // ! - 33
//  131     0x00,0x00,0x70,0xF8,0xF8,0x70,0x00,0x00,0x00,0x00,0x00,0x0D,0x0D,0x00,0x00,0x00,
//  132     // " - 34
//  133     0x00,0x1C,0x3C,0x00,0x00,0x00,0x3C,0x1C,0x00,0x00,0x00,0x00,0x00,0x00,0x00,0x00,
//  134     // # - 35
//  135     0x00,0x20,0xF8,0xF8,0x20,0xF8,0xF8,0x20,0x00,0x02,0x0F,0x0F,0x02,0x0F,0x0F,0x02,
//  136     // $ - 36
//  137     0x00,0x70,0xF8,0x88,0x8E,0x8E,0x98,0x30,0x00,0x06,0x0C,0x08,0x38,0x38,0x0F,0x07,
//  138     // % - 37
//  139     0x00,0x60,0x60,0x00,0x00,0x80,0xC0,0x60,0x00,0x08,0x0C,0x06,0x03,0x01,0x0C,0x0C,
//  140     // & - 38
//  141     0x00,0x00,0xB0,0xF8,0xC8,0x78,0xB0,0x80,0x00,0x07,0x0F,0x08,0x09,0x07,0x0F,0x08,
//  142     // ' - 39
//  143     0x00,0x20,0x3C,0x1C,0x00,0x00,0x00,0x00,0x00,0x00,0x00,0x00,0x00,0x00,0x00,0x00,
//  144     // ( - 40
//  145     0x00,0x00,0xE0,0xF0,0x18,0x08,0x00,0x00,0x00,0x00,0x03,0x07,0x0C,0x08,0x00,0x00,
//  146     // ) - 41
//  147     0x00,0x00,0x00,0x08,0x18,0xF0,0xE0,0x00,0x00,0x00,0x00,0x08,0x0C,0x07,0x03,0x00,
//  148     // * - 42
//  149     0x80,0xA0,0xE0,0xC0,0xC0,0xE0,0xA0,0x80,0x00,0x02,0x03,0x01,0x01,0x03,0x02,0x00,
//  150     // + - 43
//  151     0x80,0x80,0x80,0xF0,0xF0,0x80,0x80,0x80,0x00,0x00,0x00,0x07,0x07,0x00,0x00,0x00,
//  152     // , - 44
//  153     0x00,0x00,0x00,0x00,0x00,0x00,0x00,0x00,0x00,0x00,0x10,0x1E,0x0E,0x00,0x00,0x00,
//  154     // - - 45
//  155     0x80,0x80,0x80,0x80,0x80,0x80,0x80,0x00,0x00,0x00,0x00,0x00,0x00,0x00,0x00,0x00,
//  156     // . - 46
//  157     0x00,0x00,0x00,0x00,0x00,0x00,0x00,0x00,0x00,0x00,0x00,0x0C,0x0C,0x00,0x00,0x00,
//  158     // / - 47
//  159     0x00,0x00,0x00,0x80,0xC0,0x60,0x30,0x18,0x00,0x06,0x03,0x01,0x00,0x00,0x00,0x00,
//  160     // 0 - 48
//  161     0x00,0xF0,0xF8,0x88,0xC8,0x68,0xF8,0xF0,0x00,0x07,0x0F,0x09,0x08,0x08,0x0F,0x07,
//  162     // 1 - 49
//  163     0x00,0x00,0x20,0x30,0xF8,0xF8,0x00,0x00,0x00,0x00,0x08,0x08,0x0F,0x0F,0x08,0x08,
//  164     // 2 - 50
//  165     0x00,0x10,0x18,0x08,0x88,0xC8,0x78,0x30,0x00,0x0C,0x0E,0x0B,0x09,0x08,0x0C,0x0C,
//  166     // 3 - 51
//  167     0x00,0x10,0x18,0x88,0x88,0x88,0xF8,0x70,0x00,0x04,0x0C,0x08,0x08,0x08,0x0F,0x07,
//  168     // 4 - 52
//  169     0x00,0x80,0xC0,0x60,0x30,0xF8,0xF8,0x00,0x00,0x01,0x01,0x01,0x09,0x0F,0x0F,0x09,
//  170     // 5 - 53
//  171     0x00,0xF8,0xF8,0x88,0x88,0x88,0x88,0x08,0x00,0x04,0x0C,0x08,0x08,0x08,0x0F,0x07,
//  172     // 6 - 54
//  173     0x00,0xE0,0xF0,0x98,0x88,0x88,0x80,0x00,0x00,0x07,0x0F,0x08,0x08,0x08,0x0F,0x07,
//  174     // 7 - 55
//  175     0x00,0x18,0x18,0x08,0x88,0xC8,0x78,0x38,0x00,0x00,0x00,0x0F,0x0F,0x00,0x00,0x00,
//  176     // 8 - 56
//  177     0x00,0x70,0xF8,0x88,0x88,0x88,0xF8,0x70,0x00,0x07,0x0F,0x08,0x08,0x08,0x0F,0x07,
//  178     // 9 - 57
//  179     0x00,0x70,0xF8,0x88,0x88,0x88,0xF8,0xF0,0x00,0x00,0x08,0x08,0x08,0x0C,0x07,0x03,
//  180     // : - 58
//  181     0x00,0x00,0x00,0x30,0x30,0x00,0x00,0x00,0x00,0x00,0x00,0x06,0x06,0x00,0x00,0x00,
//  182     // ; - 59
//  183     0x00,0x00,0x00,0x30,0x30,0x00,0x00,0x00,0x00,0x00,0x08,0x0E,0x06,0x00,0x00,0x00,
//  184     // < - 60
//  185     0x00,0x80,0xC0,0x60,0x30,0x18,0x08,0x00,0x00,0x00,0x01,0x03,0x06,0x0C,0x08,0x00,
//  186     // = - 61
//  187     0x00,0x40,0x40,0x40,0x40,0x40,0x40,0x00,0x00,0x02,0x02,0x02,0x02,0x02,0x02,0x00,
//  188     // > - 62
//  189     0x00,0x08,0x18,0x30,0x60,0xC0,0x80,0x00,0x00,0x08,0x0C,0x06,0x03,0x01,0x00,0x00,
//  190     // ? - 63
//  191     0x00,0x30,0x38,0x08,0x88,0xC8,0x78,0x30,0x00,0x00,0x00,0x00,0x0D,0x0D,0x00,0x00,
//  192     // @ - 64
//  193     0x00,0xF0,0xF8,0x08,0xC8,0xC8,0xF8,0xF0,0x00,0x07,0x0F,0x08,0x0B,0x0B,0x0B,0x01,
//  194     // A - 65
//  195     0x00,0xC0,0xE0,0x30,0x18,0x30,0xE0,0xC0,0x00,0x0F,0x0F,0x01,0x01,0x01,0x0F,0x0F,
//  196     // B - 66
//  197     0x00,0x08,0xF8,0xF8,0x88,0x88,0xF8,0x70,0x00,0x08,0x0F,0x0F,0x08,0x08,0x0F,0x07,
//  198     // C - 67
//  199     0x00,0xE0,0xF0,0x18,0x08,0x08,0x18,0x30,0x00,0x03,0x07,0x0C,0x08,0x08,0x0C,0x06,
//  200     // D - 68
//  201     0x00,0x08,0xF8,0xF8,0x08,0x18,0xF0,0xE0,0x00,0x08,0x0F,0x0F,0x08,0x0C,0x07,0x03,
//  202     // E - 69
//  203     0x00,0x08,0xF8,0xF8,0x88,0xC8,0x18,0x38,0x00,0x08,0x0F,0x0F,0x08,0x09,0x0C,0x0E,
//  204     // F - 70
//  205     0x00,0x08,0xF8,0xF8,0x88,0xC8,0x18,0x38,0x00,0x08,0x0F,0x0F,0x08,0x01,0x00,0x00,
//  206     // G - 71
//  207     0x00,0xE0,0xF0,0x18,0x08,0x08,0x18,0x30,0x00,0x03,0x07,0x0C,0x09,0x09,0x07,0x0F,
//  208     // H - 72
//  209     0x00,0xF8,0xF8,0x80,0x80,0x80,0xF8,0xF8,0x00,0x0F,0x0F,0x00,0x00,0x00,0x0F,0x0F,
//  210     // I - 73
//  211     0x00,0x00,0x08,0xF8,0xF8,0x08,0x00,0x00,0x00,0x00,0x08,0x0F,0x0F,0x08,0x00,0x00,
//  212     // J - 74
//  213     0x00,0x00,0x00,0x00,0x08,0xF8,0xF8,0x08,0x00,0x06,0x0E,0x08,0x08,0x0F,0x07,0x00,
//  214     // K - 75
//  215     0x00,0x08,0xF8,0xF8,0x80,0xE0,0x78,0x18,0x00,0x08,0x0F,0x0F,0x00,0x03,0x0F,0x0C,
//  216     // L - 76
//  217     0x00,0x08,0xF8,0xF8,0x08,0x00,0x00,0x00,0x00,0x08,0x0F,0x0F,0x08,0x08,0x0C,0x0E,
//  218     // M - 77
//  219     0x00,0xF8,0xF8,0x30,0x60,0x30,0xF8,0xF8,0x00,0x0F,0x0F,0x00,0x00,0x00,0x0F,0x0F,
//  220     // N - 78
//  221     0x00,0xF8,0xF8,0x70,0xE0,0xC0,0xF8,0xF8,0x00,0x0F,0x0F,0x00,0x00,0x01,0x0F,0x0F,
//  222     // O - 79
//  223     0x00,0xE0,0xF0,0x18,0x08,0x18,0xF0,0xE0,0x00,0x03,0x07,0x0C,0x08,0x0C,0x07,0x03,
//  224     // P - 80
//  225     0x00,0x08,0xF8,0xF8,0x88,0x88,0xF8,0x70,0x00,0x08,0x0F,0x0F,0x08,0x00,0x00,0x00,
//  226     // Q - 81
//  227     0x00,0xF0,0xF8,0x08,0x08,0x08,0xF8,0xF0,0x00,0x03,0x07,0x04,0x07,0x1E,0x1F,0x13,
//  228     // R - 82
//  229     0x00,0x08,0xF8,0xF8,0x88,0x88,0xF8,0x70,0x00,0x08,0x0F,0x0F,0x00,0x01,0x0F,0x0E,
//  230     // S - 83
//  231     0x00,0x30,0x78,0xC8,0x88,0x88,0x38,0x30,0x00,0x06,0x0E,0x08,0x08,0x09,0x0F,0x06,
//  232     // T - 84
//  233     0x18,0x08,0x08,0xF8,0xF8,0x08,0x08,0x18,0x00,0x00,0x08,0x0F,0x0F,0x08,0x00,0x00,
//  234     // U - 85
//  235     0x00,0xF8,0xF8,0x00,0x00,0x00,0xF8,0xF8,0x00,0x07,0x0F,0x08,0x08,0x08,0x0F,0x07,
//  236     // V - 86
//  237     0x00,0xF8,0xF8,0x00,0x00,0x00,0xF8,0xF8,0x00,0x01,0x03,0x06,0x0C,0x06,0x03,0x01,
//  238     // W - 87
//  239     0x00,0xF8,0xF8,0x00,0x00,0x00,0xF8,0xF8,0x00,0x0F,0x0F,0x06,0x03,0x06,0x0F,0x0F,
//  240     // X - 88
//  241     0x00,0x38,0x78,0xC0,0x80,0xC0,0x78,0x38,0x00,0x0E,0x0F,0x01,0x00,0x01,0x0F,0x0E,
//  242     // Y - 89
//  243     0x00,0x38,0x78,0xC0,0x80,0xC0,0x78,0x38,0x00,0x00,0x08,0x0F,0x0F,0x0F,0x08,0x00,
//  244     // Z - 90
//  245     0x00,0x38,0x18,0x88,0xC8,0x68,0x38,0x18,0x00,0x0E,0x0F,0x09,0x08,0x08,0x0C,0x0E,
//  246     // [ - 91
//  247     0x00,0x00,0xF8,0xF8,0x08,0x08,0x00,0x00,0x00,0x00,0x0F,0x0F,0x08,0x08,0x00,0x00,
//  248     // \ - 92
//  249     0x00,0x38,0x70,0xE0,0xC0,0x80,0x00,0x00,0x00,0x00,0x00,0x00,0x01,0x03,0x07,0x0E,
//  250     // ] - 93
//  251     0x00,0x00,0x08,0x08,0xF8,0xF8,0x00,0x00,0x00,0x00,0x08,0x08,0x0F,0x0F,0x00,0x00,
//  252     // ^ - 94
//  253     0x00,0x10,0x18,0x0C,0x06,0x0C,0x18,0x10,0x00,0x00,0x00,0x00,0x00,0x00,0x00,0x00,
//  254     // _ - 95
//  255     0x00,0x00,0x00,0x00,0x00,0x00,0x00,0x00,0x00,0x20,0x20,0x20,0x20,0x20,0x20,0x00,
//  256     // ` - 96
//  257     0x00,0x00,0x00,0x06,0x0E,0x08,0x00,0x00,0x00,0x00,0x00,0x00,0x00,0x00,0x00,0x00,
//  258     // a - 97
//  259     0x00,0x00,0x40,0x40,0x40,0xC0,0x80,0x00,0x00,0x06,0x0F,0x09,0x09,0x07,0x0F,0x08,
//  260     // b - 98
//  261     0x00,0x08,0xF8,0xF8,0x40,0xC0,0x80,0x00,0x00,0x08,0x0F,0x07,0x08,0x08,0x0F,0x07,
//  262     // c - 99
//  263     0x00,0x80,0xC0,0x40,0x40,0x40,0xC0,0x80,0x00,0x07,0x0F,0x08,0x08,0x08,0x0C,0x04,
//  264     // d - 100
//  265     0x00,0x00,0x80,0xC0,0x48,0xF8,0xF8,0x00,0x00,0x07,0x0F,0x08,0x08,0x07,0x0F,0x08,
//  266     // e - 101
//  267     0x00,0x80,0xC0,0x40,0x40,0x40,0xC0,0x80,0x00,0x07,0x0F,0x09,0x09,0x09,0x0D,0x05,
//  268     // f - 102
//  269     0x00,0x80,0xF0,0xF8,0x88,0x98,0x30,0x00,0x00,0x08,0x0F,0x0F,0x08,0x00,0x00,0x00,
//  270     // g - 103
//  271     0x00,0x80,0xC0,0x40,0x40,0x80,0xC0,0x40,0x00,0x13,0x37,0x24,0x24,0x3F,0x1F,0x00,
//  272     // h - 104
//  273     0x00,0x08,0xF8,0xF8,0x80,0x40,0xC0,0x80,0x00,0x08,0x0F,0x0F,0x00,0x00,0x0F,0x0F,
//  274     // i - 105
//  275     0x00,0x00,0x00,0x40,0xD8,0xD8,0x00,0x00,0x00,0x00,0x00,0x08,0x0F,0x0F,0x08,0x00,
//  276     // j - 106
//  277     0x00,0x00,0x00,0x00,0x40,0xD8,0xD8,0x00,0x00,0x18,0x38,0x20,0x20,0x3F,0x1F,0x00,
//  278     // k - 107
//  279     0x00,0x08,0xF8,0xF8,0x00,0x80,0xC0,0x40,0x00,0x08,0x0F,0x0F,0x01,0x03,0x0E,0x0C,
//  280     // l - 108
//  281     0x00,0x00,0x00,0x08,0xF8,0xF8,0x00,0x00,0x00,0x00,0x00,0x08,0x0F,0x0F,0x08,0x00,
//  282     // m - 109
//  283     0x00,0x80,0xC0,0x80,0x80,0x80,0xC0,0x80,0x00,0x0F,0x0F,0x00,0x0F,0x00,0x0F,0x0F,
//  284     // n - 110
//  285     0x00,0x40,0xC0,0x80,0x40,0x40,0xC0,0x80,0x00,0x00,0x0F,0x0F,0x00,0x00,0x0F,0x0F,
//  286     // o - 111
//  287     0x00,0x80,0xC0,0x40,0x40,0x40,0xC0,0x80,0x00,0x07,0x0F,0x08,0x08,0x08,0x0F,0x07,
//  288     // p - 112
//  289     0x00,0x40,0xC0,0x80,0x40,0x40,0xC0,0x80,0x00,0x20,0x3F,0x3F,0x24,0x04,0x07,0x03,
//  290     // q - 113
//  291     0x00,0x80,0xC0,0x40,0x40,0x80,0xC0,0x40,0x00,0x03,0x07,0x04,0x24,0x3F,0x3F,0x20,
//  292     // r - 114
//  293     0x00,0x40,0xC0,0x80,0xC0,0x40,0xC0,0x80,0x00,0x08,0x0F,0x0F,0x08,0x00,0x01,0x01,
//  294     // s - 115
//  295     0x00,0x80,0xC0,0x40,0x40,0x40,0xC0,0x80,0x00,0x04,0x0D,0x09,0x0B,0x0A,0x0E,0x04,
//  296     // t - 116
//  297     0x00,0x40,0x40,0xF0,0xF8,0x40,0x40,0x00,0x00,0x00,0x00,0x07,0x0F,0x08,0x0C,0x04,
//  298     // u - 117
//  299     0x00,0xC0,0xC0,0x00,0x00,0xC0,0xC0,0x00,0x00,0x07,0x0F,0x08,0x08,0x07,0x0F,0x08,
//  300     // v - 118
//  301     0x00,0xC0,0xC0,0x00,0x00,0x00,0xC0,0xC0,0x00,0x01,0x03,0x06,0x0C,0x06,0x03,0x01,
//  302     // w - 119
//  303     0x00,0xC0,0xC0,0x00,0x00,0x00,0xC0,0xC0,0x00,0x07,0x0F,0x0C,0x06,0x0C,0x0F,0x07,
//  304     // x - 120
//  305     0x00,0x40,0xC0,0x80,0x00,0x80,0xC0,0x40,0x00,0x08,0x0C,0x07,0x03,0x07,0x0C,0x08,
//  306     // y - 121
//  307     0x00,0xC0,0xC0,0x00,0x00,0x00,0xC0,0xC0,0x00,0x03,0x27,0x24,0x24,0x34,0x1F,0x0F,
//  308     // z - 122
//  309     0x00,0xC0,0xC0,0x40,0x40,0xC0,0xC0,0x40,0x00,0x08,0x0C,0x0E,0x0B,0x09,0x0C,0x0C,
//  310     // { - 123
//  311     0x00,0x80,0x80,0xF0,0x78,0x08,0x08,0x00,0x00,0x00,0x00,0x07,0x0F,0x08,0x08,0x00,
//  312     // | - 124
//  313     0x00,0x00,0x00,0x78,0x78,0x00,0x00,0x00,0x00,0x00,0x00,0x0F,0x0F,0x00,0x00,0x00,
//  314     // } - 125
//  315     0x00,0x08,0x08,0x78,0xF0,0x80,0x80,0x00,0x00,0x08,0x08,0x0F,0x07,0x00,0x00,0x00,
//  316     // ~ - 126
//  317     0x00,0x10,0x18,0x08,0x18,0x10,0x18,0x08,0x00,0x00,0x00,0x00,0x00,0x00,0x00,0x00,
//  318     // d - 127
//  319     0x00,0x00,0x00,0x0E,0x0A,0x0E,0x00,0x00,0x00,0x00,0x00,0x00,0x00,0x00,0x00,0x00
//  320    
//  321     };
//  322 
//  323 /*******************************************************************************
//  324  *                                          CONSTANTS
//  325  ******************************************************************************/
//  326 /* LCD lines */
//  327 #define LCD_LINE_COUNT       4
//  328 #define LCD_LINE_LENGTH      16
//  329 #define LCD_MAX_BUF          25
//  330 
//  331 /* LCD Control */
//  332 #define LCD_CS_BV           BV(0)
//  333 #define LCD_CS_SBIT         P2_0
//  334 #define LCD_CS_DDR          P2DIR
//  335 
//  336 #define LCD_A0_BV           BV(0)
//  337 #define LCD_A0_SBIT         P1_0
//  338 #define LCD_A0_DDR          P1DIR
//  339 
//  340 #define LCD_SCL_BV          BV(1)
//  341 #define LCD_SCL_SBIT        P1_1
//  342 #define LCD_SCL_DDR         P1DIR
//  343 
//  344 #define LCD_SI_BV           BV(2)
//  345 #define LCD_SI_SBIT         P1_2
//  346 #define LCD_SI_DDR          P1DIR
//  347 
//  348 /* LED Control */
//  349 #define HAL_TURN_OFF_LED3()       st( LED3_SBIT = LED3_POLARITY (0); )
//  350 #define HAL_TURN_OFF_LED4()       HAL_TURN_OFF_LED1()
//  351 #define HAL_TURN_ON_LED1()        st( LED1_SBIT = LED1_POLARITY (1); )
//  352 
//  353 /* LCD SPI lines */
//  354 #define HAL_LCD_CLK_PORT 1
//  355 #define HAL_LCD_CLK_PIN  5
//  356 
//  357 #define HAL_LCD_MOSI_PORT 1
//  358 #define HAL_LCD_MOSI_PIN  6
//  359 
//  360 #define HAL_LCD_MISO_PORT 1
//  361 #define HAL_LCD_MISO_PIN  7
//  362 
//  363 /* LCD Setting */
//  364 #define HAL_LCD_CS_SET()          LCD_CS_SBIT=1
//  365 #define HAL_LCD_CS_CLR()          LCD_CS_SBIT=0
//  366 #define HAL_LCD_A0_SET()          LCD_A0_SBIT=1
//  367 #define HAL_LCD_A0_CLR()          LCD_A0_SBIT=0
//  368 #define HAL_LCD_SCL_SET()         LCD_SCL_SBIT=1
//  369 #define HAL_LCD_SCL_CLR()         LCD_SCL_SBIT=0
//  370 #define HAL_LCD_SI_SET()          LCD_SI_SBIT=1
//  371 #define HAL_LCD_SI_CLR()          LCD_SI_SBIT=0
//  372 
//  373 /**************Defines for HW LCD*****************/
//  374 
//  375 /* Set power save mode */
//  376 #define OSC_OFF                         0x00
//  377 #define OSC_ON                          0x01
//  378 #define POWER_SAVE_OFF                  0x00
//  379 #define POWER_SAVE_ON                   0x02
//  380 #define SET_POWER_SAVE_MODE(options)    lcdCommand(0x0C | (options))
//  381 
//  382 /* Function Set */
//  383 #define CGROM                           0x00
//  384 #define CGRAM                           0x01
//  385 #define COM_FORWARD                     0x00
//  386 #define COM_BACKWARD                    0x02
//  387 #define TWO_LINE                        0x00
//  388 #define THREE_LINE                      0x04
//  389 #define FUNCTION_SET(options)           lcdCommand(0x10 | (options))
//  390 
//  391 ///* Set Display Start Line */
//  392 //#define LINE1                           0x00
//  393 //#define LINE2                           0x01
//  394 //#define LINE3                           0x02
//  395 //#define LINE4                           0x03
//  396 //#define SET_DISPLAY_START_LINE(line)    HalLcd_HW_Control(0x18 | (line))
//  397 //
//  398 ///* Bias control */
//  399 //#define BIAS_1_5                        0x00
//  400 //#define BIAS_1_4                        0x01
//  401 //#define SET_BIAS_CTRL(bias)             HalLcd_HW_Control(0x1C | (bias))
//  402 
//  403 /* Power control */
//  404 #define VOLTAGE_DIVIDER_OFF             0x00
//  405 #define VOLTAGE_DIVIDER_ON              0x01
//  406 #define CONVERTER_AND_REG_OFF           0x00
//  407 #define CONVERTER_AND_REG_ON            0x04
//  408 #define SET_POWER_CTRL(options)         lcdCommand(0x20 | (options))
//  409 
//  410 //// Set display control
//  411 //#define DISPLAY_CTRL_ON                 0x01
//  412 //#define DISPLAY_CTRL_OFF                0x00
//  413 //#define DISPLAY_CTRL_BLINK_ON           0x02
//  414 //#define DISPLAY_CTRL_BLINK_OFF          0x00
//  415 //#define DISPLAY_CTRL_CURSOR_ON          0x04
//  416 //#define DISPLAY_CTRL_CURSOR_OFF         0x00
//  417 //#define SET_DISPLAY_CTRL(options)       HalLcd_HW_Control(0x28 | (options))
//  418 
//  419 /* Set DD/ CGRAM address */
//  420 #define SET_DDRAM_ADDR(charIndex)       lcdCommand(0x80 | (charIndex))
//  421 #define SET_GCRAM_CHAR(specIndex)       lcdCommand(0xC0 | (specIndex))
//  422 
//  423 /* Set ICONRAM address */
//  424 #define CONTRAST_CTRL_REGISTER          0x10
//  425 #define SET_ICONRAM_ADDR(addr)          lcdCommand(0x40 | (addr))
//  426 
//  427 ///* Set double height */
//  428 //#define LINE_1_AND_2                    0x01
//  429 //#define LINE_2_AND_3                    0x02
//  430 //#define NORMAL_DISPLAY                  0x00
//  431 //#define SET_DOUBLE_HEIGHT(options)      HalLcd_HW_Control(0x08 | (options))
//  432 
//  433 /*******************************************************************************
//  434  *                                           MACROS
//  435  ******************************************************************************/
//  436 
//  437 #define HAL_IO_SET(port, pin, val)        HAL_IO_SET_PREP(port, pin, val)
//  438 #define HAL_IO_SET_PREP(port, pin, val)   st( P##port##_##pin## = val; )
//  439 
//  440 #define HAL_CONFIG_IO_OUTPUT(port, pin, val)      HAL_CONFIG_IO_OUTPUT_PREP(port, pin, val)
//  441 #define HAL_CONFIG_IO_OUTPUT_PREP(port, pin, val) st( P##port##SEL &= ~BV(pin); \ 
//  442                                                       P##port##_##pin## = val; \ 
//  443                                                       P##port##DIR |= BV(pin); )
//  444 
//  445 #define HAL_CONFIG_IO_PERIPHERAL(port, pin)      HAL_CONFIG_IO_PERIPHERAL_PREP(port, pin)
//  446 #define HAL_CONFIG_IO_PERIPHERAL_PREP(port, pin) st( P##port##SEL |= BV(pin); )
//  447 
//  448 
//  449 
//  450 ///* SPI interface control */
//  451 //#define LCD_SPI_BEGIN()     HAL_IO_SET(HAL_LCD_CS_PORT,  HAL_LCD_CS_PIN,  0); /* chip select */
//  452 //#define LCD_SPI_END()                                                         \ 
//  453 //{                                                                             \ 
//  454 //  asm("NOP");                                                                 \ 
//  455 //  asm("NOP");                                                                 \ 
//  456 //  asm("NOP");                                                                 \ 
//  457 //  asm("NOP");                                                                 \ 
//  458 //  HAL_IO_SET(HAL_LCD_CS_PORT,  HAL_LCD_CS_PIN,  1); /* chip select */         \ 
//  459 //}
//  460 ///* clear the received and transmit byte status, write tx data to buffer, wait till transmit done */
//  461 //#define LCD_SPI_TX(x)                   { U1CSR &= ~(BV(2) | BV(1)); U1DBUF = x; while( !(U1CSR & BV(1)) ); }
//  462 //#define LCD_SPI_WAIT_RXRDY()            { while(!(U1CSR & BV(1))); }
//  463 
//  464 ///* Control macros */
//  465 //#define LCD_DO_WRITE()        HAL_IO_SET(HAL_LCD_MODE_PORT,  HAL_LCD_MODE_PIN,  1);
//  466 //#define LCD_DO_CONTROL()      HAL_IO_SET(HAL_LCD_MODE_PORT,  HAL_LCD_MODE_PIN,  0);
//  467 //
//  468 //#define LCD_ACTIVATE_RESET()  HAL_IO_SET(HAL_LCD_RESET_PORT, HAL_LCD_RESET_PIN, 0);
//  469 //#define LCD_RELEASE_RESET()   HAL_IO_SET(HAL_LCD_RESET_PORT, HAL_LCD_RESET_PIN, 1);
//  470 
//  471 
//  472 /**************************************************************************************************
//  473  *                                       GLOBAL VARIABLES
//  474  **************************************************************************************************/

        RSEG XDATA_Z:XDATA:NOROOT(0)
//  475 static uint8 *Lcd_Line1;
Lcd_Line1:
        DS 2
        REQUIRE __INIT_XDATA_Z
//  476 
//  477 /*******************************************************************************
//  478  *                                       FUNCTIONS - API
//  479  ******************************************************************************/
//  480 #if (HAL_LCD == TRUE)
//  481 void HalLcd_HW_WaitUs(uint16 i);
//  482 void HalLcd_HW_Clear(void);
//  483 void HalLcd_HW_ClearAllSpecChars(void);
//  484 void HalLcd_HW_SetContrast(uint8 value);
//  485 void HalLcd_HW_WriteLine(uint8 line, const char *pText);
//  486 
//  487 static void initLcd(void);
//  488 static void lcdCommand(uint8 command);
//  489 static void lcdData(uint8 ch);
//  490 static void lcdUpdateChar(uint8 line, uint8 col, char ch);
//  491 static void lcbWait( uint16 timeout );
//  492 #endif //LCD
//  493 
//  494 /*******************************************************************************
//  495  * @fn      HalLcdInit
//  496  *
//  497  * @brief   Initilize LCD Service
//  498  *
//  499  * @param   init - pointer to void that contains the initialized value
//  500  *
//  501  * @return  None
//  502  ******************************************************************************/

        RSEG BANKED_CODE:CODE:NOROOT(0)
//  503 void HalLcdInit(void)
HalLcdInit:
        CFI Block cfiBlock0 Using cfiCommon0
        CFI Function HalLcdInit
//  504 {
        FUNCALL HalLcdInit, initLcd
        LOCFRAME ISTACK, 2, STACK
        LOCFRAME PSTACK, 0, STACK
        LOCFRAME XSTACK, 0, STACK
        LOCFRAME IOVERLAY, 0, STATIC
        LOCFRAME DOVERLAY, 0, STATIC
        ARGFRAME ISTACK, 2, STACK
        ARGFRAME PSTACK, 0, STACK
        ARGFRAME XSTACK, 0, STACK
        ARGFRAME IOVERLAY, 0, STATIC
        ARGFRAME DOVERLAY, 0, STATIC
        PUSH    DPL
        CFI DPL0 Frame(CFA_SP, 4)
        CFI CFA_SP SP+-4
        PUSH    DPH
        CFI DPH0 Frame(CFA_SP, 5)
        CFI CFA_SP SP+-5
        ; Saved register size: 2
        ; Auto size: 0
//  505   Lcd_Line1 = NULL;
        MOV     DPTR,#Lcd_Line1
        CLR     A
        MOVX    @DPTR,A
        INC     DPTR
        MOVX    @DPTR,A
//  506 #if (HAL_LCD == TRUE)
//  507   initLcd();
        ; Setup parameters for call to function initLcd
        LCALL   ??initLcd?relay
        CFI EndBlock cfiBlock0
//  508 #endif
//  509 }
        REQUIRE ?Subroutine7
        ; // Fall through to label ?Subroutine7

        RSEG BANKED_CODE:CODE:NOROOT(0)
?Subroutine7:
        CFI Block cfiBlock1 Using cfiCommon0
        CFI NoFunction
        CFI CFA_SP SP+-5
        CFI DPL0 Frame(CFA_SP, 4)
        CFI DPH0 Frame(CFA_SP, 5)
        POP     DPH
        CFI CFA_SP SP+-4
        CFI DPH0 SameValue
        POP     DPL
        CFI CFA_SP SP+-3
        CFI DPL0 SameValue
        LJMP    ?BRET
        CFI EndBlock cfiBlock1
//  510 
//  511 /*************************************************************************************************
//  512  *                    LCD EMULATION FUNCTIONS
//  513  *
//  514  * Some evaluation boards are equipped with Liquid Crystal Displays
//  515  * (LCD) which may be used to display diagnostic information. These
//  516  * functions provide LCD emulation, sending the diagnostic strings
//  517  * to Z-Tool via the RS232 serial port. These functions are enabled
//  518  * when the "LCD_SUPPORTED" compiler flag is placed in the makefile.
//  519  *
//  520  * Most applications update both lines (1 and 2) of the LCD whenever
//  521  * text is posted to the device. This emulator assumes that line 1 is
//  522  * updated first (saved locally) and the formatting and send operation
//  523  * is triggered by receipt of line 2. Nothing will be transmitted if
//  524  * only line 1 is updated.
//  525  *
//  526  *************************************************************************************************/
//  527 
//  528 /*******************************************************************************
//  529  * @fn      HalLcdWriteString
//  530  *
//  531  * @brief   Write a string to the LCD
//  532  *
//  533  * @param   str    - pointer to the string that will be displayed
//  534  *          option - display options
//  535  *
//  536  * @return  None
//  537  ******************************************************************************/

        RSEG BANKED_CODE:CODE:NOROOT(0)
//  538 void HalLcdWriteString ( char *str, uint8 option)
HalLcdWriteString:
        CFI Block cfiBlock2 Using cfiCommon0
        CFI Function HalLcdWriteString
//  539 {
        FUNCALL HalLcdWriteString, osal_mem_alloc
        LOCFRAME ISTACK, 0, STACK
        LOCFRAME PSTACK, 0, STACK
        LOCFRAME XSTACK, 24, STACK
        LOCFRAME IOVERLAY, 0, STATIC
        LOCFRAME DOVERLAY, 0, STATIC
        ARGFRAME ISTACK, 0, STACK
        ARGFRAME PSTACK, 0, STACK
        ARGFRAME XSTACK, 24, STACK
        ARGFRAME IOVERLAY, 0, STATIC
        ARGFRAME DOVERLAY, 0, STATIC
        FUNCALL HalLcdWriteString, osal_strlen
        LOCFRAME ISTACK, 0, STACK
        LOCFRAME PSTACK, 0, STACK
        LOCFRAME XSTACK, 24, STACK
        LOCFRAME IOVERLAY, 0, STATIC
        LOCFRAME DOVERLAY, 0, STATIC
        ARGFRAME ISTACK, 0, STACK
        ARGFRAME PSTACK, 0, STACK
        ARGFRAME XSTACK, 24, STACK
        ARGFRAME IOVERLAY, 0, STATIC
        ARGFRAME DOVERLAY, 0, STATIC
        FUNCALL HalLcdWriteString, osal_memcpy
        LOCFRAME ISTACK, 0, STACK
        LOCFRAME PSTACK, 0, STACK
        LOCFRAME XSTACK, 27, STACK
        LOCFRAME IOVERLAY, 0, STATIC
        LOCFRAME DOVERLAY, 0, STATIC
        ARGFRAME ISTACK, 0, STACK
        ARGFRAME PSTACK, 0, STACK
        ARGFRAME XSTACK, 27, STACK
        ARGFRAME IOVERLAY, 0, STATIC
        ARGFRAME DOVERLAY, 0, STATIC
        FUNCALL HalLcdWriteString, osal_strlen
        LOCFRAME ISTACK, 0, STACK
        LOCFRAME PSTACK, 0, STACK
        LOCFRAME XSTACK, 24, STACK
        LOCFRAME IOVERLAY, 0, STATIC
        LOCFRAME DOVERLAY, 0, STATIC
        ARGFRAME ISTACK, 0, STACK
        ARGFRAME PSTACK, 0, STACK
        ARGFRAME XSTACK, 24, STACK
        ARGFRAME IOVERLAY, 0, STATIC
        ARGFRAME DOVERLAY, 0, STATIC
        FUNCALL HalLcdWriteString, osal_mem_alloc
        LOCFRAME ISTACK, 0, STACK
        LOCFRAME PSTACK, 0, STACK
        LOCFRAME XSTACK, 24, STACK
        LOCFRAME IOVERLAY, 0, STATIC
        LOCFRAME DOVERLAY, 0, STATIC
        ARGFRAME ISTACK, 0, STACK
        ARGFRAME PSTACK, 0, STACK
        ARGFRAME XSTACK, 24, STACK
        ARGFRAME IOVERLAY, 0, STATIC
        ARGFRAME DOVERLAY, 0, STATIC
        FUNCALL HalLcdWriteString, osal_memcpy
        LOCFRAME ISTACK, 0, STACK
        LOCFRAME PSTACK, 0, STACK
        LOCFRAME XSTACK, 27, STACK
        LOCFRAME IOVERLAY, 0, STATIC
        LOCFRAME DOVERLAY, 0, STATIC
        ARGFRAME ISTACK, 0, STACK
        ARGFRAME PSTACK, 0, STACK
        ARGFRAME XSTACK, 27, STACK
        ARGFRAME IOVERLAY, 0, STATIC
        ARGFRAME DOVERLAY, 0, STATIC
        FUNCALL HalLcdWriteString, osal_memcpy
        LOCFRAME ISTACK, 0, STACK
        LOCFRAME PSTACK, 0, STACK
        LOCFRAME XSTACK, 27, STACK
        LOCFRAME IOVERLAY, 0, STATIC
        LOCFRAME DOVERLAY, 0, STATIC
        ARGFRAME ISTACK, 0, STACK
        ARGFRAME PSTACK, 0, STACK
        ARGFRAME XSTACK, 27, STACK
        ARGFRAME IOVERLAY, 0, STATIC
        ARGFRAME DOVERLAY, 0, STATIC
        FUNCALL HalLcdWriteString, osal_mem_free
        LOCFRAME ISTACK, 0, STACK
        LOCFRAME PSTACK, 0, STACK
        LOCFRAME XSTACK, 24, STACK
        LOCFRAME IOVERLAY, 0, STATIC
        LOCFRAME DOVERLAY, 0, STATIC
        ARGFRAME ISTACK, 0, STACK
        ARGFRAME PSTACK, 0, STACK
        ARGFRAME XSTACK, 24, STACK
        ARGFRAME IOVERLAY, 0, STATIC
        ARGFRAME DOVERLAY, 0, STATIC
        FUNCALL HalLcdWriteString, HalLcd_HW_WriteLine
        LOCFRAME ISTACK, 0, STACK
        LOCFRAME PSTACK, 0, STACK
        LOCFRAME XSTACK, 24, STACK
        LOCFRAME IOVERLAY, 0, STATIC
        LOCFRAME DOVERLAY, 0, STATIC
        ARGFRAME ISTACK, 0, STACK
        ARGFRAME PSTACK, 0, STACK
        ARGFRAME XSTACK, 24, STACK
        ARGFRAME IOVERLAY, 0, STATIC
        ARGFRAME DOVERLAY, 0, STATIC
        MOV     A,#-0x18
        LCALL   ?BANKED_ENTER_XDATA
        CFI DPH0 load(1, XDATA, add(CFA_XSP16, literal(-1)))
        CFI DPL0 load(1, XDATA, add(CFA_XSP16, literal(-2)))
        CFI ?BRET_EXT load(1, XDATA, add(CFA_XSP16, literal(-3)))
        CFI ?RET_HIGH load(1, XDATA, add(CFA_XSP16, literal(-4)))
        CFI ?RET_LOW load(1, XDATA, add(CFA_XSP16, literal(-5)))
        CFI R7 load(1, XDATA, add(CFA_XSP16, literal(-6)))
        CFI V15 load(1, XDATA, add(CFA_XSP16, literal(-7)))
        CFI V14 load(1, XDATA, add(CFA_XSP16, literal(-8)))
        CFI V13 load(1, XDATA, add(CFA_XSP16, literal(-9)))
        CFI V12 load(1, XDATA, add(CFA_XSP16, literal(-10)))
        CFI V11 load(1, XDATA, add(CFA_XSP16, literal(-11)))
        CFI V10 load(1, XDATA, add(CFA_XSP16, literal(-12)))
        CFI V9 load(1, XDATA, add(CFA_XSP16, literal(-13)))
        CFI V8 load(1, XDATA, add(CFA_XSP16, literal(-14)))
        CFI V7 load(1, XDATA, add(CFA_XSP16, literal(-15)))
        CFI V6 load(1, XDATA, add(CFA_XSP16, literal(-16)))
        CFI V5 load(1, XDATA, add(CFA_XSP16, literal(-17)))
        CFI V4 load(1, XDATA, add(CFA_XSP16, literal(-18)))
        CFI V3 load(1, XDATA, add(CFA_XSP16, literal(-19)))
        CFI V2 load(1, XDATA, add(CFA_XSP16, literal(-20)))
        CFI V1 load(1, XDATA, add(CFA_XSP16, literal(-21)))
        CFI V0 load(1, XDATA, add(CFA_XSP16, literal(-22)))
        CFI VB load(1, XDATA, add(CFA_XSP16, literal(-23)))
        CFI R6 load(1, XDATA, add(CFA_XSP16, literal(-24)))
        CFI CFA_SP SP+0
        CFI CFA_XSP16 add(XSP16, 24)
        ; Saved register size: 24
        ; Auto size: 0
        MOV     ?V0 + 14,R2
        MOV     ?V0 + 15,R3
        MOV     ?V0 + 3,R1
//  540 #if (HAL_LCD == TRUE)
//  541 
//  542   uint8 strLen = 0;
//  543   uint8 totalLen = 0;
//  544   uint8 *buf;
//  545   uint8 tmpLen;
//  546 
//  547   if ( Lcd_Line1 == NULL )
        MOV     DPTR,#Lcd_Line1
        MOVX    A,@DPTR
        JNZ     ??HalLcdWriteString_0
        INC     DPTR
        MOVX    A,@DPTR
??HalLcdWriteString_0:
        JNZ     ??HalLcdWriteString_1
//  548   {
//  549     Lcd_Line1 = osal_mem_alloc( HAL_LCD_MAX_CHARS+1 );
        ; Setup parameters for call to function osal_mem_alloc
        MOV     R2,#0x11
        MOV     R3,#0x0
        LCALL   ??osal_mem_alloc?relay
        MOV     DPTR,#Lcd_Line1
        MOV     A,R2
        MOVX    @DPTR,A
        INC     DPTR
        MOV     A,R3
        MOVX    @DPTR,A
//  550     //HalLcdWriteString( "TexasInstruments", 1 );
//  551   }
//  552 
//  553   strLen = (uint8)osal_strlen( (char*)str );
??HalLcdWriteString_1:
        ; Setup parameters for call to function osal_strlen
        MOV     R2,?V0 + 14
        MOV     R3,?V0 + 15
        LCALL   ??osal_strlen?relay
        MOV     A,R2
        MOV     ?V0 + 4,A
//  554 
//  555   /* Check boundries */
//  556   if ( strLen > HAL_LCD_MAX_CHARS )
        CLR     C
        SUBB    A,#0x11
        JC      ??HalLcdWriteString_2
//  557     strLen = HAL_LCD_MAX_CHARS;
        MOV     ?V0 + 4,#0x10
//  558 
//  559   if ( option == HAL_LCD_LINE_1 )
??HalLcdWriteString_2:
        MOV     DPL,?V0 + 4
        MOV     ?V0 + 12,DPL
        MOV     ?V0 + 0,?V0 + 14
        MOV     ?V0 + 1,?V0 + 15
        MOV     ?V0 + 2,#0x0
        MOV     R6,DPL
        MOV     A,#0x1
        XRL     A,?V0 + 3
        JNZ     ??HalLcdWriteString_3
//  560   {
//  561     /* Line 1 gets saved for later */
//  562     osal_memcpy( Lcd_Line1, str, strLen );
        ; Setup parameters for call to function osal_memcpy
        MOV     R0,#?V0 + 0
        LCALL   ?PUSH_XSTACK_I_THREE
        CFI CFA_XSP16 add(XSP16, 27)
        MOV     A,R6
        MOV     R4,A
        MOV     R5,#0x0
        MOV     DPTR,#Lcd_Line1
        MOVX    A,@DPTR
        MOV     R2,A
        INC     DPTR
        MOVX    A,@DPTR
        MOV     R3,A
        LCALL   ??Subroutine11_0 & 0xFFFF
??CrossCallReturnLabel_15:
        LCALL   ?DEALLOC_XSTACK8
        CFI CFA_XSP16 add(XSP16, 24)
//  563     Lcd_Line1[strLen] = '\0';
        MOV     DPTR,#Lcd_Line1
        MOVX    A,@DPTR
        ADD     A,?V0 + 12
        MOV     R2,A
        INC     DPTR
        MOVX    A,@DPTR
        ADDC    A,#0x0
        MOV     DPL,R2
        MOV     DPH,A
        CLR     A
        MOVX    @DPTR,A
        LJMP    ??HalLcdWriteString_4 & 0xFFFF
//  564   }
//  565   else
//  566   {
//  567     /* Line 2 triggers action */
//  568     tmpLen = (uint8)osal_strlen( (char*)Lcd_Line1 );
??HalLcdWriteString_3:
        ; Setup parameters for call to function osal_strlen
        MOV     DPTR,#Lcd_Line1
        MOVX    A,@DPTR
        MOV     R2,A
        INC     DPTR
        MOVX    A,@DPTR
        MOV     R3,A
        LCALL   ??osal_strlen?relay
        MOV     A,R2
        MOV     ?V0 + 6,A
//  569     totalLen =  tmpLen + 1 + strLen + 1;
//  570     buf = osal_mem_alloc( totalLen );
        ; Setup parameters for call to function osal_mem_alloc
        MOV     A,R6
        ADD     A,?V0 + 6
        ADD     A,#0x2
        MOV     R2,A
        MOV     R3,#0x0
        LCALL   ??osal_mem_alloc?relay
        MOV     ?V0 + 4,R2
        MOV     ?V0 + 5,R3
//  571     if ( buf != NULL )
        MOV     A,R2
        JNZ     ??HalLcdWriteString_5
        MOV     A,R3
??HalLcdWriteString_5:
        JZ      ??HalLcdWriteString_4
//  572     {
//  573       /* Concatenate strings */
//  574       osal_memcpy( buf, Lcd_Line1, tmpLen );
        ; Setup parameters for call to function osal_memcpy
        MOV     DPTR,#Lcd_Line1
        MOVX    A,@DPTR
        MOV     ?V0 + 8,A
        INC     DPTR
        MOVX    A,@DPTR
        MOV     ?V0 + 9,A
        MOV     ?V0 + 10,#0x0
        MOV     R0,#?V0 + 8
        LCALL   ?PUSH_XSTACK_I_THREE
        CFI CFA_XSP16 add(XSP16, 27)
        MOV     R4,?V0 + 6
        MOV     R5,#0x0
        LCALL   ??Subroutine11_0 & 0xFFFF
??CrossCallReturnLabel_16:
        LCALL   ?DEALLOC_XSTACK8
        CFI CFA_XSP16 add(XSP16, 24)
//  575       buf[tmpLen++] = ' ';
        MOV     ?V0 + 8,?V0 + 6
        MOV     A,?V0 + 4
        ADD     A,?V0 + 8
        MOV     DPL,A
        MOV     A,?V0 + 5
        LCALL   ??Subroutine10_0 & 0xFFFF
??CrossCallReturnLabel_8:
        INC     ?V0 + 6
//  576       osal_memcpy( &buf[tmpLen], str, strLen );
        ; Setup parameters for call to function osal_memcpy
        MOV     R0,#?V0 + 0
        LCALL   ?PUSH_XSTACK_I_THREE
        CFI CFA_XSP16 add(XSP16, 27)
        MOV     A,R6
        MOV     R4,A
        MOV     R5,#0x0
        MOV     A,?V0 + 4
        ADD     A,?V0 + 6
        MOV     R2,A
        MOV     A,?V0 + 5
        ADDC    A,#0x0
        MOV     R3,A
        LCALL   ??Subroutine11_0 & 0xFFFF
??CrossCallReturnLabel_17:
        LCALL   ?DEALLOC_XSTACK8
        CFI CFA_XSP16 add(XSP16, 24)
//  577       buf[tmpLen+strLen] = '\0';
        MOV     A,R6
        ADD     A,?V0 + 6
        MOV     R0,A
        CLR     A
        ADDC    A,#0x0
        MOV     R1,A
        MOV     A,?V0 + 4
        ADD     A,R0
        MOV     DPL,A
        MOV     A,?V0 + 5
        ADDC    A,R1
        MOV     DPH,A
        CLR     A
        MOVX    @DPTR,A
//  578 
//  579       /* Send it out */
//  580 #if defined (ZTOOL_P1) || defined (ZTOOL_P2)
//  581 
//  582 #if defined(SERIAL_DEBUG_SUPPORTED)
//  583       debug_str( (uint8*)buf );
//  584 #endif //LCD_SUPPORTED
//  585 
//  586 #endif //ZTOOL_P1
//  587 
//  588       /* Free mem */
//  589       osal_mem_free( buf );
        ; Setup parameters for call to function osal_mem_free
        MOV     R2,?V0 + 4
        MOV     R3,?V0 + 5
        LCALL   ??osal_mem_free?relay
//  590     }
//  591   }
//  592 
//  593   /* Display the string */
//  594   HalLcd_HW_WriteLine (option, str);
??HalLcdWriteString_4:
        ; Setup parameters for call to function HalLcd_HW_WriteLine
        MOV     R2,?V0 + 14
        MOV     R3,?V0 + 15
        MOV     R1,?V0 + 3
        LCALL   ??HalLcd_HW_WriteLine?relay
//  595 
//  596 #endif //HAL_LCD
//  597 
//  598 }
        MOV     R7,#0x10
        LJMP    ?BANKED_LEAVE_XDATA
        CFI EndBlock cfiBlock2
//  599 
//  600 /**************************************************************************************************
//  601  * @fn      HalLcdWriteValue
//  602  *
//  603  * @brief   Write a value to the LCD
//  604  *
//  605  * @param   value  - value that will be displayed
//  606  *          radix  - 8, 10, 16
//  607  *          option - display options
//  608  *
//  609  * @return  None
//  610  **************************************************************************************************/

        RSEG BANKED_CODE:CODE:NOROOT(0)
//  611 void HalLcdWriteValue ( uint32 value, const uint8 radix, uint8 option)
HalLcdWriteValue:
        CFI Block cfiBlock3 Using cfiCommon0
        CFI Function HalLcdWriteValue
//  612 {
        FUNCALL HalLcdWriteValue, _ltoa
        LOCFRAME ISTACK, 0, STACK
        LOCFRAME PSTACK, 0, STACK
        LOCFRAME XSTACK, 41, STACK
        LOCFRAME IOVERLAY, 0, STATIC
        LOCFRAME DOVERLAY, 0, STATIC
        ARGFRAME ISTACK, 0, STACK
        ARGFRAME PSTACK, 0, STACK
        ARGFRAME XSTACK, 41, STACK
        ARGFRAME IOVERLAY, 0, STATIC
        ARGFRAME DOVERLAY, 0, STATIC
        FUNCALL HalLcdWriteValue, HalLcdWriteString
        LOCFRAME ISTACK, 0, STACK
        LOCFRAME PSTACK, 0, STACK
        LOCFRAME XSTACK, 39, STACK
        LOCFRAME IOVERLAY, 0, STATIC
        LOCFRAME DOVERLAY, 0, STATIC
        ARGFRAME ISTACK, 0, STACK
        ARGFRAME PSTACK, 0, STACK
        ARGFRAME XSTACK, 39, STACK
        ARGFRAME IOVERLAY, 0, STATIC
        ARGFRAME DOVERLAY, 0, STATIC
        MOV     A,#-0xe
        LCALL   ?BANKED_ENTER_XDATA
        CFI DPH0 load(1, XDATA, add(CFA_XSP16, literal(-1)))
        CFI DPL0 load(1, XDATA, add(CFA_XSP16, literal(-2)))
        CFI ?BRET_EXT load(1, XDATA, add(CFA_XSP16, literal(-3)))
        CFI ?RET_HIGH load(1, XDATA, add(CFA_XSP16, literal(-4)))
        CFI ?RET_LOW load(1, XDATA, add(CFA_XSP16, literal(-5)))
        CFI R7 load(1, XDATA, add(CFA_XSP16, literal(-6)))
        CFI V5 load(1, XDATA, add(CFA_XSP16, literal(-7)))
        CFI V4 load(1, XDATA, add(CFA_XSP16, literal(-8)))
        CFI V3 load(1, XDATA, add(CFA_XSP16, literal(-9)))
        CFI V2 load(1, XDATA, add(CFA_XSP16, literal(-10)))
        CFI V1 load(1, XDATA, add(CFA_XSP16, literal(-11)))
        CFI V0 load(1, XDATA, add(CFA_XSP16, literal(-12)))
        CFI VB load(1, XDATA, add(CFA_XSP16, literal(-13)))
        CFI R6 load(1, XDATA, add(CFA_XSP16, literal(-14)))
        CFI CFA_SP SP+0
        CFI CFA_XSP16 add(XSP16, 14)
        ; Saved register size: 14
        ; Auto size: 25
        MOV     A,#-0x19
        LCALL   ?ALLOC_XSTACK8
        CFI CFA_XSP16 add(XSP16, 39)
        MOV     A,#0x27
        LCALL   ?XSTACK_DISP0_8
        MOVX    A,@DPTR
        MOV     R6,A
//  613 #if (HAL_LCD == TRUE)
//  614   uint8 buf[LCD_MAX_BUF];
//  615 
//  616   _ltoa( value, &buf[0], radix );
        ; Setup parameters for call to function _ltoa
        MOV     DPL,?XSP + 0
        MOV     DPH,?XSP + 1
        MOV     ?V0 + 4,DPL
        MOV     ?V0 + 5,DPH
        MOV     R0,#?V0 + 4
        LCALL   ?PUSH_XSTACK_I_TWO
        CFI CFA_XSP16 add(XSP16, 41)
        LCALL   ??Subroutine13_0 & 0xFFFF
??CrossCallReturnLabel_22:
        LCALL   ?DEALLOC_XSTACK8
        CFI CFA_XSP16 add(XSP16, 39)
//  617   HalLcdWriteString( (char*)buf, option );
        ; Setup parameters for call to function HalLcdWriteString
        MOV     A,R6
        MOV     R1,A
        MOV     DPL,?XSP + 0
        MOV     DPH,?XSP + 1
        MOV     R2,DPL
        MOV     R3,DPH
        LCALL   ??HalLcdWriteString?relay
//  618 #endif
//  619 }
        MOV     A,#0x19
        LCALL   ?DEALLOC_XSTACK8
        CFI CFA_XSP16 add(XSP16, 14)
        MOV     R7,#0x6
        LJMP    ?BANKED_LEAVE_XDATA
        CFI EndBlock cfiBlock3
//  620 
//  621 /**************************************************************************************************
//  622  * @fn      HalLcdWriteScreen
//  623  *
//  624  * @brief   Write a value to the LCD
//  625  *
//  626  * @param   line1  - string that will be displayed on line 1
//  627  *          line2  - string that will be displayed on line 2
//  628  *
//  629  * @return  None
//  630  **************************************************************************************************/

        RSEG BANKED_CODE:CODE:NOROOT(0)
//  631 void HalLcdWriteScreen( char *line1, char *line2 )
HalLcdWriteScreen:
        CFI Block cfiBlock4 Using cfiCommon0
        CFI Function HalLcdWriteScreen
//  632 {
        FUNCALL HalLcdWriteScreen, HalLcdWriteString
        LOCFRAME ISTACK, 0, STACK
        LOCFRAME PSTACK, 0, STACK
        LOCFRAME XSTACK, 9, STACK
        LOCFRAME IOVERLAY, 0, STATIC
        LOCFRAME DOVERLAY, 0, STATIC
        ARGFRAME ISTACK, 0, STACK
        ARGFRAME PSTACK, 0, STACK
        ARGFRAME XSTACK, 9, STACK
        ARGFRAME IOVERLAY, 0, STATIC
        ARGFRAME DOVERLAY, 0, STATIC
        FUNCALL HalLcdWriteScreen, HalLcdWriteString
        LOCFRAME ISTACK, 0, STACK
        LOCFRAME PSTACK, 0, STACK
        LOCFRAME XSTACK, 9, STACK
        LOCFRAME IOVERLAY, 0, STATIC
        LOCFRAME DOVERLAY, 0, STATIC
        ARGFRAME ISTACK, 0, STACK
        ARGFRAME PSTACK, 0, STACK
        ARGFRAME XSTACK, 9, STACK
        ARGFRAME IOVERLAY, 0, STATIC
        ARGFRAME DOVERLAY, 0, STATIC
        MOV     A,#-0x9
        LCALL   ?BANKED_ENTER_XDATA
        CFI DPH0 load(1, XDATA, add(CFA_XSP16, literal(-1)))
        CFI DPL0 load(1, XDATA, add(CFA_XSP16, literal(-2)))
        CFI ?BRET_EXT load(1, XDATA, add(CFA_XSP16, literal(-3)))
        CFI ?RET_HIGH load(1, XDATA, add(CFA_XSP16, literal(-4)))
        CFI ?RET_LOW load(1, XDATA, add(CFA_XSP16, literal(-5)))
        CFI R7 load(1, XDATA, add(CFA_XSP16, literal(-6)))
        CFI V0 load(1, XDATA, add(CFA_XSP16, literal(-7)))
        CFI VB load(1, XDATA, add(CFA_XSP16, literal(-8)))
        CFI R6 load(1, XDATA, add(CFA_XSP16, literal(-9)))
        CFI CFA_SP SP+0
        CFI CFA_XSP16 add(XSP16, 9)
        ; Saved register size: 9
        ; Auto size: 0
        MOV     A,R4
        MOV     R6,A
        MOV     A,R5
        MOV     R7,A
//  633 #if (HAL_LCD == TRUE)
//  634   HalLcdWriteString( line1, 1 );
        ; Setup parameters for call to function HalLcdWriteString
        MOV     R1,#0x1
        LCALL   ??HalLcdWriteString?relay
//  635   HalLcdWriteString( line2, 2 );
        ; Setup parameters for call to function HalLcdWriteString
        MOV     R1,#0x2
        MOV     A,R6
        MOV     R2,A
        MOV     A,R7
        MOV     R3,A
        LCALL   ??HalLcdWriteString?relay
//  636 #endif
//  637 }
        LJMP    ?Subroutine8 & 0xFFFF
        CFI EndBlock cfiBlock4
//  638 
//  639 /**************************************************************************************************
//  640  * @fn      HalLcdWriteStringValue
//  641  *
//  642  * @brief   Write a string followed by a value to the LCD
//  643  *
//  644  * @param   title  - Title that will be displayed before the value
//  645  *          value  - value
//  646  *          format - redix
//  647  *          line   - line number
//  648  *
//  649  * @return  None
//  650  **************************************************************************************************/

        RSEG BANKED_CODE:CODE:NOROOT(0)
//  651 void HalLcdWriteStringValue( char *title, uint16 value, uint8 format, uint8 line )
HalLcdWriteStringValue:
        CFI Block cfiBlock5 Using cfiCommon0
        CFI Function HalLcdWriteStringValue
//  652 {
        FUNCALL HalLcdWriteStringValue, osal_strlen
        LOCFRAME ISTACK, 0, STACK
        LOCFRAME PSTACK, 0, STACK
        LOCFRAME XSTACK, 43, STACK
        LOCFRAME IOVERLAY, 0, STATIC
        LOCFRAME DOVERLAY, 0, STATIC
        ARGFRAME ISTACK, 0, STACK
        ARGFRAME PSTACK, 0, STACK
        ARGFRAME XSTACK, 43, STACK
        ARGFRAME IOVERLAY, 0, STATIC
        ARGFRAME DOVERLAY, 0, STATIC
        FUNCALL HalLcdWriteStringValue, osal_memcpy
        LOCFRAME ISTACK, 0, STACK
        LOCFRAME PSTACK, 0, STACK
        LOCFRAME XSTACK, 46, STACK
        LOCFRAME IOVERLAY, 0, STATIC
        LOCFRAME DOVERLAY, 0, STATIC
        ARGFRAME ISTACK, 0, STACK
        ARGFRAME PSTACK, 0, STACK
        ARGFRAME XSTACK, 46, STACK
        ARGFRAME IOVERLAY, 0, STATIC
        ARGFRAME DOVERLAY, 0, STATIC
        FUNCALL HalLcdWriteStringValue, _ltoa
        LOCFRAME ISTACK, 0, STACK
        LOCFRAME PSTACK, 0, STACK
        LOCFRAME XSTACK, 45, STACK
        LOCFRAME IOVERLAY, 0, STATIC
        LOCFRAME DOVERLAY, 0, STATIC
        ARGFRAME ISTACK, 0, STACK
        ARGFRAME PSTACK, 0, STACK
        ARGFRAME XSTACK, 45, STACK
        ARGFRAME IOVERLAY, 0, STATIC
        ARGFRAME DOVERLAY, 0, STATIC
        FUNCALL HalLcdWriteStringValue, HalLcdWriteString
        LOCFRAME ISTACK, 0, STACK
        LOCFRAME PSTACK, 0, STACK
        LOCFRAME XSTACK, 43, STACK
        LOCFRAME IOVERLAY, 0, STATIC
        LOCFRAME DOVERLAY, 0, STATIC
        ARGFRAME ISTACK, 0, STACK
        ARGFRAME PSTACK, 0, STACK
        ARGFRAME XSTACK, 43, STACK
        ARGFRAME IOVERLAY, 0, STATIC
        ARGFRAME DOVERLAY, 0, STATIC
        MOV     A,#-0x12
        LCALL   ?BANKED_ENTER_XDATA
        CFI DPH0 load(1, XDATA, add(CFA_XSP16, literal(-1)))
        CFI DPL0 load(1, XDATA, add(CFA_XSP16, literal(-2)))
        CFI ?BRET_EXT load(1, XDATA, add(CFA_XSP16, literal(-3)))
        CFI ?RET_HIGH load(1, XDATA, add(CFA_XSP16, literal(-4)))
        CFI ?RET_LOW load(1, XDATA, add(CFA_XSP16, literal(-5)))
        CFI R7 load(1, XDATA, add(CFA_XSP16, literal(-6)))
        CFI V9 load(1, XDATA, add(CFA_XSP16, literal(-7)))
        CFI V8 load(1, XDATA, add(CFA_XSP16, literal(-8)))
        CFI V7 load(1, XDATA, add(CFA_XSP16, literal(-9)))
        CFI V6 load(1, XDATA, add(CFA_XSP16, literal(-10)))
        CFI V5 load(1, XDATA, add(CFA_XSP16, literal(-11)))
        CFI V4 load(1, XDATA, add(CFA_XSP16, literal(-12)))
        CFI V3 load(1, XDATA, add(CFA_XSP16, literal(-13)))
        CFI V2 load(1, XDATA, add(CFA_XSP16, literal(-14)))
        CFI V1 load(1, XDATA, add(CFA_XSP16, literal(-15)))
        CFI V0 load(1, XDATA, add(CFA_XSP16, literal(-16)))
        CFI VB load(1, XDATA, add(CFA_XSP16, literal(-17)))
        CFI R6 load(1, XDATA, add(CFA_XSP16, literal(-18)))
        CFI CFA_SP SP+0
        CFI CFA_XSP16 add(XSP16, 18)
        ; Saved register size: 18
        ; Auto size: 25
        MOV     A,#-0x19
        LCALL   ?ALLOC_XSTACK8
        CFI CFA_XSP16 add(XSP16, 43)
        MOV     A,R2
        MOV     R6,A
        MOV     A,R3
        MOV     R7,A
        MOV     ?V0 + 6,R4
        MOV     ?V0 + 7,R5
        MOV     ?V0 + 4,R1
        MOV     A,#0x2b
        LCALL   ?XSTACK_DISP0_8
        MOVX    A,@DPTR
        MOV     ?V0 + 3,A
//  653 #if (HAL_LCD == TRUE)
//  654   uint8 tmpLen;
//  655   uint8 buf[LCD_MAX_BUF];
//  656   uint32 err;
//  657 
//  658   tmpLen = (uint8)osal_strlen( (char*)title );
        ; Setup parameters for call to function osal_strlen
        LCALL   ?Subroutine3 & 0xFFFF
//  659   osal_memcpy( buf, title, tmpLen );
??CrossCallReturnLabel_0:
        ; Setup parameters for call to function osal_memcpy
        MOV     ?V0 + 0,R6
        MOV     ?V0 + 1,R7
        MOV     ?V0 + 2,#0x0
        MOV     R0,#?V0 + 0
        LCALL   ?PUSH_XSTACK_I_THREE
        CFI CFA_XSP16 add(XSP16, 46)
        MOV     A,R2
        MOV     R4,A
        MOV     R5,#0x0
        MOV     A,#0x3
        LCALL   ?XSTACK_DISP0_8
        LCALL   ?Subroutine1 & 0xFFFF
??CrossCallReturnLabel_12:
        LCALL   ?DEALLOC_XSTACK8
        CFI CFA_XSP16 add(XSP16, 43)
//  660   buf[tmpLen] = ' ';
        MOV     DPL,?XSP + 0
        MOV     DPH,?XSP + 1
        MOV     A,DPL
        ADD     A,?V0 + 8
        LCALL   ?Subroutine0 & 0xFFFF
//  661   err = (uint32)(value);
//  662   _ltoa( err, &buf[tmpLen+1], format );
??CrossCallReturnLabel_9:
        ; Setup parameters for call to function _ltoa
        INC     DPTR
        MOV     ?V0 + 0,DPL
        MOV     ?V0 + 1,DPH
        MOV     R0,#?V0 + 0
        LCALL   ?PUSH_XSTACK_I_TWO
        CFI CFA_XSP16 add(XSP16, 45)
        MOV     R1,?V0 + 4
        MOV     R2,?V0 + 6
        MOV     R3,?V0 + 7
        LCALL   ??Subroutine12_0 & 0xFFFF
??CrossCallReturnLabel_20:
        LCALL   ?DEALLOC_XSTACK8
        CFI CFA_XSP16 add(XSP16, 43)
//  663   HalLcdWriteString( (char*)buf, line );		
        ; Setup parameters for call to function HalLcdWriteString
        MOV     R1,?V0 + 3
        CFI EndBlock cfiBlock5
        REQUIRE ?Subroutine9
        ; // Fall through to label ?Subroutine9
//  664 #endif
//  665 }

        RSEG BANKED_CODE:CODE:NOROOT(0)
?Subroutine9:
        CFI Block cfiBlock6 Using cfiCommon0
        CFI NoFunction
        CFI CFA_SP SP+0
        CFI CFA_XSP16 add(XSP16, 43)
        CFI VB load(1, XDATA, add(CFA_XSP16, literal(-17)))
        CFI DPL0 load(1, XDATA, add(CFA_XSP16, literal(-2)))
        CFI DPH0 load(1, XDATA, add(CFA_XSP16, literal(-1)))
        CFI R6 load(1, XDATA, add(CFA_XSP16, literal(-18)))
        CFI R7 load(1, XDATA, add(CFA_XSP16, literal(-6)))
        CFI V0 load(1, XDATA, add(CFA_XSP16, literal(-16)))
        CFI V1 load(1, XDATA, add(CFA_XSP16, literal(-15)))
        CFI V2 load(1, XDATA, add(CFA_XSP16, literal(-14)))
        CFI V3 load(1, XDATA, add(CFA_XSP16, literal(-13)))
        CFI V4 load(1, XDATA, add(CFA_XSP16, literal(-12)))
        CFI V5 load(1, XDATA, add(CFA_XSP16, literal(-11)))
        CFI V6 load(1, XDATA, add(CFA_XSP16, literal(-10)))
        CFI V7 load(1, XDATA, add(CFA_XSP16, literal(-9)))
        CFI V8 load(1, XDATA, add(CFA_XSP16, literal(-8)))
        CFI V9 load(1, XDATA, add(CFA_XSP16, literal(-7)))
        CFI ?BRET_EXT load(1, XDATA, add(CFA_XSP16, literal(-3)))
        CFI ?RET_HIGH load(1, XDATA, add(CFA_XSP16, literal(-4)))
        CFI ?RET_LOW load(1, XDATA, add(CFA_XSP16, literal(-5)))
        MOV     DPL,?XSP + 0
        MOV     DPH,?XSP + 1
        MOV     R2,DPL
        MOV     R3,DPH
        LCALL   ??HalLcdWriteString?relay
        MOV     A,#0x19
        LCALL   ?DEALLOC_XSTACK8
        CFI CFA_XSP16 add(XSP16, 18)
        MOV     R7,#0xa
        LJMP    ?BANKED_LEAVE_XDATA
        CFI EndBlock cfiBlock6

        RSEG BANKED_CODE:CODE:NOROOT(0)
?Subroutine0:
        CFI Block cfiCond7 Using cfiCommon0
        CFI NoFunction
        CFI Conditional ??CrossCallReturnLabel_9
        CFI R6 load(1, XDATA, add(CFA_XSP16, literal(-18)))
        CFI VB load(1, XDATA, add(CFA_XSP16, literal(-17)))
        CFI V0 load(1, XDATA, add(CFA_XSP16, literal(-16)))
        CFI V1 load(1, XDATA, add(CFA_XSP16, literal(-15)))
        CFI V2 load(1, XDATA, add(CFA_XSP16, literal(-14)))
        CFI V3 load(1, XDATA, add(CFA_XSP16, literal(-13)))
        CFI V4 load(1, XDATA, add(CFA_XSP16, literal(-12)))
        CFI V5 load(1, XDATA, add(CFA_XSP16, literal(-11)))
        CFI V6 load(1, XDATA, add(CFA_XSP16, literal(-10)))
        CFI V7 load(1, XDATA, add(CFA_XSP16, literal(-9)))
        CFI V8 load(1, XDATA, add(CFA_XSP16, literal(-8)))
        CFI V9 load(1, XDATA, add(CFA_XSP16, literal(-7)))
        CFI R7 load(1, XDATA, add(CFA_XSP16, literal(-6)))
        CFI ?RET_LOW load(1, XDATA, add(CFA_XSP16, literal(-5)))
        CFI ?RET_HIGH load(1, XDATA, add(CFA_XSP16, literal(-4)))
        CFI ?BRET_EXT load(1, XDATA, add(CFA_XSP16, literal(-3)))
        CFI DPL0 load(1, XDATA, add(CFA_XSP16, literal(-2)))
        CFI DPH0 load(1, XDATA, add(CFA_XSP16, literal(-1)))
        CFI CFA_SP SP+0
        CFI CFA_XSP16 add(XSP16, 43)
        CFI Block cfiCond8 Using cfiCommon0
        CFI (cfiCond8) NoFunction
        CFI (cfiCond8) Conditional ??CrossCallReturnLabel_10
        CFI (cfiCond8) R6 load(1, XDATA, add(CFA_XSP16, literal(-18)))
        CFI (cfiCond8) VB load(1, XDATA, add(CFA_XSP16, literal(-17)))
        CFI (cfiCond8) V0 load(1, XDATA, add(CFA_XSP16, literal(-16)))
        CFI (cfiCond8) V1 load(1, XDATA, add(CFA_XSP16, literal(-15)))
        CFI (cfiCond8) V2 load(1, XDATA, add(CFA_XSP16, literal(-14)))
        CFI (cfiCond8) V3 load(1, XDATA, add(CFA_XSP16, literal(-13)))
        CFI (cfiCond8) V4 load(1, XDATA, add(CFA_XSP16, literal(-12)))
        CFI (cfiCond8) V5 load(1, XDATA, add(CFA_XSP16, literal(-11)))
        CFI (cfiCond8) V6 load(1, XDATA, add(CFA_XSP16, literal(-10)))
        CFI (cfiCond8) V7 load(1, XDATA, add(CFA_XSP16, literal(-9)))
        CFI (cfiCond8) V8 load(1, XDATA, add(CFA_XSP16, literal(-8)))
        CFI (cfiCond8) V9 load(1, XDATA, add(CFA_XSP16, literal(-7)))
        CFI (cfiCond8) R7 load(1, XDATA, add(CFA_XSP16, literal(-6)))
        CFI (cfiCond8) ?RET_LOW load(1, XDATA, add(CFA_XSP16, literal(-5)))
        CFI (cfiCond8) ?RET_HIGH load(1, XDATA, add(CFA_XSP16, literal(-4)))
        CFI (cfiCond8) ?BRET_EXT load(1, XDATA, add(CFA_XSP16, literal(-3)))
        CFI (cfiCond8) DPL0 load(1, XDATA, add(CFA_XSP16, literal(-2)))
        CFI (cfiCond8) DPH0 load(1, XDATA, add(CFA_XSP16, literal(-1)))
        CFI (cfiCond8) CFA_SP SP+0
        CFI (cfiCond8) CFA_XSP16 add(XSP16, 43)
        CFI Block cfiCond9 Using cfiCommon0
        CFI (cfiCond9) NoFunction
        CFI (cfiCond9) Conditional ??CrossCallReturnLabel_11
        CFI (cfiCond9) R6 load(1, XDATA, add(CFA_XSP16, literal(-18)))
        CFI (cfiCond9) VB load(1, XDATA, add(CFA_XSP16, literal(-17)))
        CFI (cfiCond9) V0 load(1, XDATA, add(CFA_XSP16, literal(-16)))
        CFI (cfiCond9) V1 load(1, XDATA, add(CFA_XSP16, literal(-15)))
        CFI (cfiCond9) V2 load(1, XDATA, add(CFA_XSP16, literal(-14)))
        CFI (cfiCond9) V3 load(1, XDATA, add(CFA_XSP16, literal(-13)))
        CFI (cfiCond9) V4 load(1, XDATA, add(CFA_XSP16, literal(-12)))
        CFI (cfiCond9) V5 load(1, XDATA, add(CFA_XSP16, literal(-11)))
        CFI (cfiCond9) V6 load(1, XDATA, add(CFA_XSP16, literal(-10)))
        CFI (cfiCond9) V7 load(1, XDATA, add(CFA_XSP16, literal(-9)))
        CFI (cfiCond9) V8 load(1, XDATA, add(CFA_XSP16, literal(-8)))
        CFI (cfiCond9) V9 load(1, XDATA, add(CFA_XSP16, literal(-7)))
        CFI (cfiCond9) R7 load(1, XDATA, add(CFA_XSP16, literal(-6)))
        CFI (cfiCond9) ?RET_LOW load(1, XDATA, add(CFA_XSP16, literal(-5)))
        CFI (cfiCond9) ?RET_HIGH load(1, XDATA, add(CFA_XSP16, literal(-4)))
        CFI (cfiCond9) ?BRET_EXT load(1, XDATA, add(CFA_XSP16, literal(-3)))
        CFI (cfiCond9) DPL0 load(1, XDATA, add(CFA_XSP16, literal(-2)))
        CFI (cfiCond9) DPH0 load(1, XDATA, add(CFA_XSP16, literal(-1)))
        CFI (cfiCond9) CFA_SP SP+0
        CFI (cfiCond9) CFA_XSP16 add(XSP16, 43)
        CFI Block cfiPicker10 Using cfiCommon1
        CFI (cfiPicker10) NoFunction
        CFI (cfiPicker10) Picker
        MOV     DPL,A
        MOV     A,DPH
        CFI EndBlock cfiCond7
        CFI EndBlock cfiCond8
        CFI EndBlock cfiCond9
        CFI EndBlock cfiPicker10
        REQUIRE ??Subroutine10_0
        ; // Fall through to label ??Subroutine10_0

        RSEG BANKED_CODE:CODE:NOROOT(0)
??Subroutine10_0:
        CFI Block cfiCond11 Using cfiCommon0
        CFI NoFunction
        CFI Conditional ??CrossCallReturnLabel_8
        CFI R6 load(1, XDATA, add(CFA_XSP16, literal(-24)))
        CFI VB load(1, XDATA, add(CFA_XSP16, literal(-23)))
        CFI V0 load(1, XDATA, add(CFA_XSP16, literal(-22)))
        CFI V1 load(1, XDATA, add(CFA_XSP16, literal(-21)))
        CFI V2 load(1, XDATA, add(CFA_XSP16, literal(-20)))
        CFI V3 load(1, XDATA, add(CFA_XSP16, literal(-19)))
        CFI V4 load(1, XDATA, add(CFA_XSP16, literal(-18)))
        CFI V5 load(1, XDATA, add(CFA_XSP16, literal(-17)))
        CFI V6 load(1, XDATA, add(CFA_XSP16, literal(-16)))
        CFI V7 load(1, XDATA, add(CFA_XSP16, literal(-15)))
        CFI V8 load(1, XDATA, add(CFA_XSP16, literal(-14)))
        CFI V9 load(1, XDATA, add(CFA_XSP16, literal(-13)))
        CFI V10 load(1, XDATA, add(CFA_XSP16, literal(-12)))
        CFI V11 load(1, XDATA, add(CFA_XSP16, literal(-11)))
        CFI V12 load(1, XDATA, add(CFA_XSP16, literal(-10)))
        CFI V13 load(1, XDATA, add(CFA_XSP16, literal(-9)))
        CFI V14 load(1, XDATA, add(CFA_XSP16, literal(-8)))
        CFI V15 load(1, XDATA, add(CFA_XSP16, literal(-7)))
        CFI R7 load(1, XDATA, add(CFA_XSP16, literal(-6)))
        CFI ?RET_LOW load(1, XDATA, add(CFA_XSP16, literal(-5)))
        CFI ?RET_HIGH load(1, XDATA, add(CFA_XSP16, literal(-4)))
        CFI ?BRET_EXT load(1, XDATA, add(CFA_XSP16, literal(-3)))
        CFI DPL0 load(1, XDATA, add(CFA_XSP16, literal(-2)))
        CFI DPH0 load(1, XDATA, add(CFA_XSP16, literal(-1)))
        CFI CFA_SP SP+0
        CFI CFA_XSP16 add(XSP16, 24)
        CFI Block cfiCond12 Using cfiCommon0
        CFI (cfiCond12) NoFunction
        CFI (cfiCond12) Conditional ??CrossCallReturnLabel_9
        CFI (cfiCond12) R6 load(1, XDATA, add(CFA_XSP16, literal(-18)))
        CFI (cfiCond12) VB load(1, XDATA, add(CFA_XSP16, literal(-17)))
        CFI (cfiCond12) V0 load(1, XDATA, add(CFA_XSP16, literal(-16)))
        CFI (cfiCond12) V1 load(1, XDATA, add(CFA_XSP16, literal(-15)))
        CFI (cfiCond12) V2 load(1, XDATA, add(CFA_XSP16, literal(-14)))
        CFI (cfiCond12) V3 load(1, XDATA, add(CFA_XSP16, literal(-13)))
        CFI (cfiCond12) V4 load(1, XDATA, add(CFA_XSP16, literal(-12)))
        CFI (cfiCond12) V5 load(1, XDATA, add(CFA_XSP16, literal(-11)))
        CFI (cfiCond12) V6 load(1, XDATA, add(CFA_XSP16, literal(-10)))
        CFI (cfiCond12) V7 load(1, XDATA, add(CFA_XSP16, literal(-9)))
        CFI (cfiCond12) V8 load(1, XDATA, add(CFA_XSP16, literal(-8)))
        CFI (cfiCond12) V9 load(1, XDATA, add(CFA_XSP16, literal(-7)))
        CFI (cfiCond12) R7 load(1, XDATA, add(CFA_XSP16, literal(-6)))
        CFI (cfiCond12) ?RET_LOW load(1, XDATA, add(CFA_XSP16, literal(-5)))
        CFI (cfiCond12) ?RET_HIGH load(1, XDATA, add(CFA_XSP16, literal(-4)))
        CFI (cfiCond12) ?BRET_EXT load(1, XDATA, add(CFA_XSP16, literal(-3)))
        CFI (cfiCond12) DPL0 load(1, XDATA, add(CFA_XSP16, literal(-2)))
        CFI (cfiCond12) DPH0 load(1, XDATA, add(CFA_XSP16, literal(-1)))
        CFI (cfiCond12) CFA_SP SP+0
        CFI (cfiCond12) CFA_XSP16 add(XSP16, 43)
        CFI Block cfiCond13 Using cfiCommon0
        CFI (cfiCond13) NoFunction
        CFI (cfiCond13) Conditional ??CrossCallReturnLabel_10
        CFI (cfiCond13) R6 load(1, XDATA, add(CFA_XSP16, literal(-18)))
        CFI (cfiCond13) VB load(1, XDATA, add(CFA_XSP16, literal(-17)))
        CFI (cfiCond13) V0 load(1, XDATA, add(CFA_XSP16, literal(-16)))
        CFI (cfiCond13) V1 load(1, XDATA, add(CFA_XSP16, literal(-15)))
        CFI (cfiCond13) V2 load(1, XDATA, add(CFA_XSP16, literal(-14)))
        CFI (cfiCond13) V3 load(1, XDATA, add(CFA_XSP16, literal(-13)))
        CFI (cfiCond13) V4 load(1, XDATA, add(CFA_XSP16, literal(-12)))
        CFI (cfiCond13) V5 load(1, XDATA, add(CFA_XSP16, literal(-11)))
        CFI (cfiCond13) V6 load(1, XDATA, add(CFA_XSP16, literal(-10)))
        CFI (cfiCond13) V7 load(1, XDATA, add(CFA_XSP16, literal(-9)))
        CFI (cfiCond13) V8 load(1, XDATA, add(CFA_XSP16, literal(-8)))
        CFI (cfiCond13) V9 load(1, XDATA, add(CFA_XSP16, literal(-7)))
        CFI (cfiCond13) R7 load(1, XDATA, add(CFA_XSP16, literal(-6)))
        CFI (cfiCond13) ?RET_LOW load(1, XDATA, add(CFA_XSP16, literal(-5)))
        CFI (cfiCond13) ?RET_HIGH load(1, XDATA, add(CFA_XSP16, literal(-4)))
        CFI (cfiCond13) ?BRET_EXT load(1, XDATA, add(CFA_XSP16, literal(-3)))
        CFI (cfiCond13) DPL0 load(1, XDATA, add(CFA_XSP16, literal(-2)))
        CFI (cfiCond13) DPH0 load(1, XDATA, add(CFA_XSP16, literal(-1)))
        CFI (cfiCond13) CFA_SP SP+0
        CFI (cfiCond13) CFA_XSP16 add(XSP16, 43)
        CFI Block cfiCond14 Using cfiCommon0
        CFI (cfiCond14) NoFunction
        CFI (cfiCond14) Conditional ??CrossCallReturnLabel_11
        CFI (cfiCond14) R6 load(1, XDATA, add(CFA_XSP16, literal(-18)))
        CFI (cfiCond14) VB load(1, XDATA, add(CFA_XSP16, literal(-17)))
        CFI (cfiCond14) V0 load(1, XDATA, add(CFA_XSP16, literal(-16)))
        CFI (cfiCond14) V1 load(1, XDATA, add(CFA_XSP16, literal(-15)))
        CFI (cfiCond14) V2 load(1, XDATA, add(CFA_XSP16, literal(-14)))
        CFI (cfiCond14) V3 load(1, XDATA, add(CFA_XSP16, literal(-13)))
        CFI (cfiCond14) V4 load(1, XDATA, add(CFA_XSP16, literal(-12)))
        CFI (cfiCond14) V5 load(1, XDATA, add(CFA_XSP16, literal(-11)))
        CFI (cfiCond14) V6 load(1, XDATA, add(CFA_XSP16, literal(-10)))
        CFI (cfiCond14) V7 load(1, XDATA, add(CFA_XSP16, literal(-9)))
        CFI (cfiCond14) V8 load(1, XDATA, add(CFA_XSP16, literal(-8)))
        CFI (cfiCond14) V9 load(1, XDATA, add(CFA_XSP16, literal(-7)))
        CFI (cfiCond14) R7 load(1, XDATA, add(CFA_XSP16, literal(-6)))
        CFI (cfiCond14) ?RET_LOW load(1, XDATA, add(CFA_XSP16, literal(-5)))
        CFI (cfiCond14) ?RET_HIGH load(1, XDATA, add(CFA_XSP16, literal(-4)))
        CFI (cfiCond14) ?BRET_EXT load(1, XDATA, add(CFA_XSP16, literal(-3)))
        CFI (cfiCond14) DPL0 load(1, XDATA, add(CFA_XSP16, literal(-2)))
        CFI (cfiCond14) DPH0 load(1, XDATA, add(CFA_XSP16, literal(-1)))
        CFI (cfiCond14) CFA_SP SP+0
        CFI (cfiCond14) CFA_XSP16 add(XSP16, 43)
        CFI Block cfiPicker15 Using cfiCommon1
        CFI (cfiPicker15) NoFunction
        CFI (cfiPicker15) Picker
        ADDC    A,#0x0
        MOV     DPH,A
        MOV     A,#0x20
        MOVX    @DPTR,A
        RET
        CFI EndBlock cfiCond11
        CFI EndBlock cfiCond12
        CFI EndBlock cfiCond13
        CFI EndBlock cfiCond14
        CFI EndBlock cfiPicker15
//  666 
//  667 /**************************************************************************************************
//  668  * @fn      HalLcdWriteStringValue
//  669  *
//  670  * @brief   Write a string followed by a value to the LCD
//  671  *
//  672  * @param   title   - Title that will be displayed before the value
//  673  *          value1  - value #1
//  674  *          format1 - redix of value #1
//  675  *          value2  - value #2
//  676  *          format2 - redix of value #2
//  677  *          line    - line number
//  678  *
//  679  * @return  None
//  680  **************************************************************************************************/

        RSEG BANKED_CODE:CODE:NOROOT(0)
//  681 void HalLcdWriteStringValueValue( char *title, uint16 value1, uint8 format1,
HalLcdWriteStringValueValue:
        CFI Block cfiBlock16 Using cfiCommon0
        CFI Function HalLcdWriteStringValueValue
//  682                                   uint16 value2, uint8 format2, uint8 line )
//  683 {
        FUNCALL HalLcdWriteStringValueValue, osal_strlen
        LOCFRAME ISTACK, 0, STACK
        LOCFRAME PSTACK, 0, STACK
        LOCFRAME XSTACK, 43, STACK
        LOCFRAME IOVERLAY, 0, STATIC
        LOCFRAME DOVERLAY, 0, STATIC
        ARGFRAME ISTACK, 0, STACK
        ARGFRAME PSTACK, 0, STACK
        ARGFRAME XSTACK, 43, STACK
        ARGFRAME IOVERLAY, 0, STATIC
        ARGFRAME DOVERLAY, 0, STATIC
        FUNCALL HalLcdWriteStringValueValue, osal_memcpy
        LOCFRAME ISTACK, 0, STACK
        LOCFRAME PSTACK, 0, STACK
        LOCFRAME XSTACK, 46, STACK
        LOCFRAME IOVERLAY, 0, STATIC
        LOCFRAME DOVERLAY, 0, STATIC
        ARGFRAME ISTACK, 0, STACK
        ARGFRAME PSTACK, 0, STACK
        ARGFRAME XSTACK, 46, STACK
        ARGFRAME IOVERLAY, 0, STATIC
        ARGFRAME DOVERLAY, 0, STATIC
        FUNCALL HalLcdWriteStringValueValue, _ltoa
        LOCFRAME ISTACK, 0, STACK
        LOCFRAME PSTACK, 0, STACK
        LOCFRAME XSTACK, 45, STACK
        LOCFRAME IOVERLAY, 0, STATIC
        LOCFRAME DOVERLAY, 0, STATIC
        ARGFRAME ISTACK, 0, STACK
        ARGFRAME PSTACK, 0, STACK
        ARGFRAME XSTACK, 45, STACK
        ARGFRAME IOVERLAY, 0, STATIC
        ARGFRAME DOVERLAY, 0, STATIC
        FUNCALL HalLcdWriteStringValueValue, osal_strlen
        LOCFRAME ISTACK, 0, STACK
        LOCFRAME PSTACK, 0, STACK
        LOCFRAME XSTACK, 43, STACK
        LOCFRAME IOVERLAY, 0, STATIC
        LOCFRAME DOVERLAY, 0, STATIC
        ARGFRAME ISTACK, 0, STACK
        ARGFRAME PSTACK, 0, STACK
        ARGFRAME XSTACK, 43, STACK
        ARGFRAME IOVERLAY, 0, STATIC
        ARGFRAME DOVERLAY, 0, STATIC
        FUNCALL HalLcdWriteStringValueValue, _ltoa
        LOCFRAME ISTACK, 0, STACK
        LOCFRAME PSTACK, 0, STACK
        LOCFRAME XSTACK, 45, STACK
        LOCFRAME IOVERLAY, 0, STATIC
        LOCFRAME DOVERLAY, 0, STATIC
        ARGFRAME ISTACK, 0, STACK
        ARGFRAME PSTACK, 0, STACK
        ARGFRAME XSTACK, 45, STACK
        ARGFRAME IOVERLAY, 0, STATIC
        ARGFRAME DOVERLAY, 0, STATIC
        FUNCALL HalLcdWriteStringValueValue, HalLcdWriteString
        LOCFRAME ISTACK, 0, STACK
        LOCFRAME PSTACK, 0, STACK
        LOCFRAME XSTACK, 43, STACK
        LOCFRAME IOVERLAY, 0, STATIC
        LOCFRAME DOVERLAY, 0, STATIC
        ARGFRAME ISTACK, 0, STACK
        ARGFRAME PSTACK, 0, STACK
        ARGFRAME XSTACK, 43, STACK
        ARGFRAME IOVERLAY, 0, STATIC
        ARGFRAME DOVERLAY, 0, STATIC
        MOV     A,#-0x12
        LCALL   ?BANKED_ENTER_XDATA
        CFI DPH0 load(1, XDATA, add(CFA_XSP16, literal(-1)))
        CFI DPL0 load(1, XDATA, add(CFA_XSP16, literal(-2)))
        CFI ?BRET_EXT load(1, XDATA, add(CFA_XSP16, literal(-3)))
        CFI ?RET_HIGH load(1, XDATA, add(CFA_XSP16, literal(-4)))
        CFI ?RET_LOW load(1, XDATA, add(CFA_XSP16, literal(-5)))
        CFI R7 load(1, XDATA, add(CFA_XSP16, literal(-6)))
        CFI V9 load(1, XDATA, add(CFA_XSP16, literal(-7)))
        CFI V8 load(1, XDATA, add(CFA_XSP16, literal(-8)))
        CFI V7 load(1, XDATA, add(CFA_XSP16, literal(-9)))
        CFI V6 load(1, XDATA, add(CFA_XSP16, literal(-10)))
        CFI V5 load(1, XDATA, add(CFA_XSP16, literal(-11)))
        CFI V4 load(1, XDATA, add(CFA_XSP16, literal(-12)))
        CFI V3 load(1, XDATA, add(CFA_XSP16, literal(-13)))
        CFI V2 load(1, XDATA, add(CFA_XSP16, literal(-14)))
        CFI V1 load(1, XDATA, add(CFA_XSP16, literal(-15)))
        CFI V0 load(1, XDATA, add(CFA_XSP16, literal(-16)))
        CFI VB load(1, XDATA, add(CFA_XSP16, literal(-17)))
        CFI R6 load(1, XDATA, add(CFA_XSP16, literal(-18)))
        CFI CFA_SP SP+0
        CFI CFA_XSP16 add(XSP16, 18)
        ; Saved register size: 18
        ; Auto size: 25
        MOV     A,#-0x19
        LCALL   ?ALLOC_XSTACK8
        CFI CFA_XSP16 add(XSP16, 43)
        MOV     ?V0 + 4,R2
        MOV     ?V0 + 5,R3
        MOV     ?V0 + 0,R4
        MOV     ?V0 + 1,R5
        MOV     ?V0 + 7,R1
        MOV     A,#0x2b
        LCALL   ?XSTACK_DISP0_8
        MOVX    A,@DPTR
        MOV     R6,A
        INC     DPTR
        MOVX    A,@DPTR
        MOV     R7,A
        MOV     A,#0x2d
        LCALL   ?XSTACK_DISP0_8
        MOVX    A,@DPTR
        MOV     ?V0 + 3,A
        MOV     A,#0x2e
        LCALL   ?XSTACK_DISP0_8
        MOVX    A,@DPTR
        MOV     ?V0 + 2,A
//  684 
//  685 #if (HAL_LCD == TRUE)
//  686 
//  687   uint8 tmpLen;
//  688   uint8 buf[LCD_MAX_BUF];
//  689   uint32 err;
//  690 
//  691   tmpLen = (uint8)osal_strlen( (char*)title );
        ; Setup parameters for call to function osal_strlen
        LCALL   ?Subroutine3 & 0xFFFF
//  692   if ( tmpLen )
??CrossCallReturnLabel_1:
        JZ      ??HalLcdWriteStringValueValue_0
//  693   {
//  694     osal_memcpy( buf, title, tmpLen );
        ; Setup parameters for call to function osal_memcpy
        MOV     ?V0 + 6,#0x0
        MOV     R0,#?V0 + 4
        LCALL   ?PUSH_XSTACK_I_THREE
        CFI CFA_XSP16 add(XSP16, 46)
        MOV     A,R2
        MOV     ?V0 + 4,A
        MOV     R4,A
        MOV     R5,#0x0
        MOV     A,#0x3
        LCALL   ?XSTACK_DISP0_8
        LCALL   ?Subroutine1 & 0xFFFF
??CrossCallReturnLabel_13:
        LCALL   ?DEALLOC_XSTACK8
        CFI CFA_XSP16 add(XSP16, 43)
//  695     buf[tmpLen++] = ' ';
        MOV     DPL,?XSP + 0
        MOV     DPH,?XSP + 1
        MOV     A,DPL
        ADD     A,?V0 + 4
        LCALL   ?Subroutine0 & 0xFFFF
//  696   }
??CrossCallReturnLabel_10:
        INC     ?V0 + 8
//  697 
//  698   err = (uint32)(value1);
//  699   _ltoa( err, &buf[tmpLen], format1 );
??HalLcdWriteStringValueValue_0:
        ; Setup parameters for call to function _ltoa
        MOV     DPL,?XSP + 0
        MOV     DPH,?XSP + 1
        MOV     A,DPL
        ADD     A,?V0 + 8
        MOV     ?V0 + 4,A
        MOV     A,DPH
        ADDC    A,#0x0
        MOV     ?V0 + 5,A
        MOV     R0,#?V0 + 4
        LCALL   ?PUSH_XSTACK_I_TWO
        CFI CFA_XSP16 add(XSP16, 45)
        MOV     R1,?V0 + 7
        LCALL   ?Subroutine2 & 0xFFFF
??CrossCallReturnLabel_18:
        LCALL   ?DEALLOC_XSTACK8
        CFI CFA_XSP16 add(XSP16, 43)
//  700   tmpLen = (uint8)osal_strlen( (char*)buf );
        ; Setup parameters for call to function osal_strlen
        MOV     DPL,?XSP + 0
        MOV     DPH,?XSP + 1
        MOV     R2,DPL
        MOV     R3,DPH
        LCALL   ?Subroutine3 & 0xFFFF
//  701 
//  702   buf[tmpLen++] = ',';
??CrossCallReturnLabel_2:
        MOV     ?V0 + 0,A
        MOV     DPL,?XSP + 0
        MOV     DPH,?XSP + 1
        MOV     A,DPL
        ADD     A,?V0 + 0
        MOV     DPL,A
        MOV     A,DPH
        ADDC    A,#0x0
        MOV     DPH,A
        MOV     A,#0x2c
        MOVX    @DPTR,A
        INC     ?V0 + 8
//  703   buf[tmpLen++] = ' ';
        MOV     ?V0 + 0,?V0 + 8
        MOV     DPL,?XSP + 0
        MOV     DPH,?XSP + 1
        MOV     A,DPL
        ADD     A,?V0 + 0
        LCALL   ?Subroutine0 & 0xFFFF
//  704   err = (uint32)(value2);
//  705   _ltoa( err, &buf[tmpLen], format2 );
??CrossCallReturnLabel_11:
        ; Setup parameters for call to function _ltoa
        MOV     A,#0x1
        ADD     A,?V0 + 8
        MOV     R0,A
        MOV     DPL,?XSP + 0
        MOV     DPH,?XSP + 1
        MOV     A,DPL
        ADD     A,R0
        MOV     ?V0 + 0,A
        MOV     A,DPH
        ADDC    A,#0x0
        MOV     ?V0 + 1,A
        MOV     R0,#?V0 + 0
        LCALL   ?PUSH_XSTACK_I_TWO
        CFI CFA_XSP16 add(XSP16, 45)
        MOV     R1,?V0 + 3
        MOV     ?V0 + 0,R6
        MOV     ?V0 + 1,R7
        LCALL   ?Subroutine2 & 0xFFFF
??CrossCallReturnLabel_19:
        LCALL   ?DEALLOC_XSTACK8
        CFI CFA_XSP16 add(XSP16, 43)
//  706 
//  707   HalLcdWriteString( (char *)buf, line );		
        ; Setup parameters for call to function HalLcdWriteString
        MOV     R1,?V0 + 2
        LJMP    ?Subroutine9 & 0xFFFF
        CFI EndBlock cfiBlock16
//  708 
//  709 #endif
//  710 }

        RSEG BANKED_CODE:CODE:NOROOT(0)
?Subroutine3:
        CFI Block cfiCond17 Using cfiCommon0
        CFI NoFunction
        CFI Conditional ??CrossCallReturnLabel_0
        CFI R6 load(1, XDATA, add(CFA_XSP16, literal(-18)))
        CFI VB load(1, XDATA, add(CFA_XSP16, literal(-17)))
        CFI V0 load(1, XDATA, add(CFA_XSP16, literal(-16)))
        CFI V1 load(1, XDATA, add(CFA_XSP16, literal(-15)))
        CFI V2 load(1, XDATA, add(CFA_XSP16, literal(-14)))
        CFI V3 load(1, XDATA, add(CFA_XSP16, literal(-13)))
        CFI V4 load(1, XDATA, add(CFA_XSP16, literal(-12)))
        CFI V5 load(1, XDATA, add(CFA_XSP16, literal(-11)))
        CFI V6 load(1, XDATA, add(CFA_XSP16, literal(-10)))
        CFI V7 load(1, XDATA, add(CFA_XSP16, literal(-9)))
        CFI V8 load(1, XDATA, add(CFA_XSP16, literal(-8)))
        CFI V9 load(1, XDATA, add(CFA_XSP16, literal(-7)))
        CFI R7 load(1, XDATA, add(CFA_XSP16, literal(-6)))
        CFI ?RET_LOW load(1, XDATA, add(CFA_XSP16, literal(-5)))
        CFI ?RET_HIGH load(1, XDATA, add(CFA_XSP16, literal(-4)))
        CFI ?BRET_EXT load(1, XDATA, add(CFA_XSP16, literal(-3)))
        CFI DPL0 load(1, XDATA, add(CFA_XSP16, literal(-2)))
        CFI DPH0 load(1, XDATA, add(CFA_XSP16, literal(-1)))
        CFI CFA_SP SP+0
        CFI CFA_XSP16 add(XSP16, 43)
        CFI Block cfiCond18 Using cfiCommon0
        CFI (cfiCond18) NoFunction
        CFI (cfiCond18) Conditional ??CrossCallReturnLabel_1
        CFI (cfiCond18) R6 load(1, XDATA, add(CFA_XSP16, literal(-18)))
        CFI (cfiCond18) VB load(1, XDATA, add(CFA_XSP16, literal(-17)))
        CFI (cfiCond18) V0 load(1, XDATA, add(CFA_XSP16, literal(-16)))
        CFI (cfiCond18) V1 load(1, XDATA, add(CFA_XSP16, literal(-15)))
        CFI (cfiCond18) V2 load(1, XDATA, add(CFA_XSP16, literal(-14)))
        CFI (cfiCond18) V3 load(1, XDATA, add(CFA_XSP16, literal(-13)))
        CFI (cfiCond18) V4 load(1, XDATA, add(CFA_XSP16, literal(-12)))
        CFI (cfiCond18) V5 load(1, XDATA, add(CFA_XSP16, literal(-11)))
        CFI (cfiCond18) V6 load(1, XDATA, add(CFA_XSP16, literal(-10)))
        CFI (cfiCond18) V7 load(1, XDATA, add(CFA_XSP16, literal(-9)))
        CFI (cfiCond18) V8 load(1, XDATA, add(CFA_XSP16, literal(-8)))
        CFI (cfiCond18) V9 load(1, XDATA, add(CFA_XSP16, literal(-7)))
        CFI (cfiCond18) R7 load(1, XDATA, add(CFA_XSP16, literal(-6)))
        CFI (cfiCond18) ?RET_LOW load(1, XDATA, add(CFA_XSP16, literal(-5)))
        CFI (cfiCond18) ?RET_HIGH load(1, XDATA, add(CFA_XSP16, literal(-4)))
        CFI (cfiCond18) ?BRET_EXT load(1, XDATA, add(CFA_XSP16, literal(-3)))
        CFI (cfiCond18) DPL0 load(1, XDATA, add(CFA_XSP16, literal(-2)))
        CFI (cfiCond18) DPH0 load(1, XDATA, add(CFA_XSP16, literal(-1)))
        CFI (cfiCond18) CFA_SP SP+0
        CFI (cfiCond18) CFA_XSP16 add(XSP16, 43)
        CFI Block cfiCond19 Using cfiCommon0
        CFI (cfiCond19) NoFunction
        CFI (cfiCond19) Conditional ??CrossCallReturnLabel_2
        CFI (cfiCond19) R6 load(1, XDATA, add(CFA_XSP16, literal(-18)))
        CFI (cfiCond19) VB load(1, XDATA, add(CFA_XSP16, literal(-17)))
        CFI (cfiCond19) V0 load(1, XDATA, add(CFA_XSP16, literal(-16)))
        CFI (cfiCond19) V1 load(1, XDATA, add(CFA_XSP16, literal(-15)))
        CFI (cfiCond19) V2 load(1, XDATA, add(CFA_XSP16, literal(-14)))
        CFI (cfiCond19) V3 load(1, XDATA, add(CFA_XSP16, literal(-13)))
        CFI (cfiCond19) V4 load(1, XDATA, add(CFA_XSP16, literal(-12)))
        CFI (cfiCond19) V5 load(1, XDATA, add(CFA_XSP16, literal(-11)))
        CFI (cfiCond19) V6 load(1, XDATA, add(CFA_XSP16, literal(-10)))
        CFI (cfiCond19) V7 load(1, XDATA, add(CFA_XSP16, literal(-9)))
        CFI (cfiCond19) V8 load(1, XDATA, add(CFA_XSP16, literal(-8)))
        CFI (cfiCond19) V9 load(1, XDATA, add(CFA_XSP16, literal(-7)))
        CFI (cfiCond19) R7 load(1, XDATA, add(CFA_XSP16, literal(-6)))
        CFI (cfiCond19) ?RET_LOW load(1, XDATA, add(CFA_XSP16, literal(-5)))
        CFI (cfiCond19) ?RET_HIGH load(1, XDATA, add(CFA_XSP16, literal(-4)))
        CFI (cfiCond19) ?BRET_EXT load(1, XDATA, add(CFA_XSP16, literal(-3)))
        CFI (cfiCond19) DPL0 load(1, XDATA, add(CFA_XSP16, literal(-2)))
        CFI (cfiCond19) DPH0 load(1, XDATA, add(CFA_XSP16, literal(-1)))
        CFI (cfiCond19) CFA_SP SP+0
        CFI (cfiCond19) CFA_XSP16 add(XSP16, 43)
        CFI Block cfiPicker20 Using cfiCommon1
        CFI (cfiPicker20) NoFunction
        CFI (cfiPicker20) Picker
        LCALL   ??osal_strlen?relay
        MOV     A,R2
        MOV     ?V0 + 8,A
        RET
        CFI EndBlock cfiCond17
        CFI EndBlock cfiCond18
        CFI EndBlock cfiCond19
        CFI EndBlock cfiPicker20

        RSEG BANKED_CODE:CODE:NOROOT(0)
?Subroutine1:
        CFI Block cfiCond21 Using cfiCommon0
        CFI NoFunction
        CFI Conditional ??CrossCallReturnLabel_12
        CFI R6 load(1, XDATA, add(CFA_XSP16, literal(-18)))
        CFI VB load(1, XDATA, add(CFA_XSP16, literal(-17)))
        CFI V0 load(1, XDATA, add(CFA_XSP16, literal(-16)))
        CFI V1 load(1, XDATA, add(CFA_XSP16, literal(-15)))
        CFI V2 load(1, XDATA, add(CFA_XSP16, literal(-14)))
        CFI V3 load(1, XDATA, add(CFA_XSP16, literal(-13)))
        CFI V4 load(1, XDATA, add(CFA_XSP16, literal(-12)))
        CFI V5 load(1, XDATA, add(CFA_XSP16, literal(-11)))
        CFI V6 load(1, XDATA, add(CFA_XSP16, literal(-10)))
        CFI V7 load(1, XDATA, add(CFA_XSP16, literal(-9)))
        CFI V8 load(1, XDATA, add(CFA_XSP16, literal(-8)))
        CFI V9 load(1, XDATA, add(CFA_XSP16, literal(-7)))
        CFI R7 load(1, XDATA, add(CFA_XSP16, literal(-6)))
        CFI ?RET_LOW load(1, XDATA, add(CFA_XSP16, literal(-5)))
        CFI ?RET_HIGH load(1, XDATA, add(CFA_XSP16, literal(-4)))
        CFI ?BRET_EXT load(1, XDATA, add(CFA_XSP16, literal(-3)))
        CFI DPL0 load(1, XDATA, add(CFA_XSP16, literal(-2)))
        CFI DPH0 load(1, XDATA, add(CFA_XSP16, literal(-1)))
        CFI CFA_SP SP+0
        CFI CFA_XSP16 add(XSP16, 46)
        CFI Block cfiCond22 Using cfiCommon0
        CFI (cfiCond22) NoFunction
        CFI (cfiCond22) Conditional ??CrossCallReturnLabel_13
        CFI (cfiCond22) R6 load(1, XDATA, add(CFA_XSP16, literal(-18)))
        CFI (cfiCond22) VB load(1, XDATA, add(CFA_XSP16, literal(-17)))
        CFI (cfiCond22) V0 load(1, XDATA, add(CFA_XSP16, literal(-16)))
        CFI (cfiCond22) V1 load(1, XDATA, add(CFA_XSP16, literal(-15)))
        CFI (cfiCond22) V2 load(1, XDATA, add(CFA_XSP16, literal(-14)))
        CFI (cfiCond22) V3 load(1, XDATA, add(CFA_XSP16, literal(-13)))
        CFI (cfiCond22) V4 load(1, XDATA, add(CFA_XSP16, literal(-12)))
        CFI (cfiCond22) V5 load(1, XDATA, add(CFA_XSP16, literal(-11)))
        CFI (cfiCond22) V6 load(1, XDATA, add(CFA_XSP16, literal(-10)))
        CFI (cfiCond22) V7 load(1, XDATA, add(CFA_XSP16, literal(-9)))
        CFI (cfiCond22) V8 load(1, XDATA, add(CFA_XSP16, literal(-8)))
        CFI (cfiCond22) V9 load(1, XDATA, add(CFA_XSP16, literal(-7)))
        CFI (cfiCond22) R7 load(1, XDATA, add(CFA_XSP16, literal(-6)))
        CFI (cfiCond22) ?RET_LOW load(1, XDATA, add(CFA_XSP16, literal(-5)))
        CFI (cfiCond22) ?RET_HIGH load(1, XDATA, add(CFA_XSP16, literal(-4)))
        CFI (cfiCond22) ?BRET_EXT load(1, XDATA, add(CFA_XSP16, literal(-3)))
        CFI (cfiCond22) DPL0 load(1, XDATA, add(CFA_XSP16, literal(-2)))
        CFI (cfiCond22) DPH0 load(1, XDATA, add(CFA_XSP16, literal(-1)))
        CFI (cfiCond22) CFA_SP SP+0
        CFI (cfiCond22) CFA_XSP16 add(XSP16, 46)
        CFI Block cfiCond23 Using cfiCommon0
        CFI (cfiCond23) NoFunction
        CFI (cfiCond23) Conditional ??CrossCallReturnLabel_14
        CFI (cfiCond23) R6 load(1, XDATA, add(CFA_XSP16, literal(-15)))
        CFI (cfiCond23) VB load(1, XDATA, add(CFA_XSP16, literal(-14)))
        CFI (cfiCond23) V0 load(1, XDATA, add(CFA_XSP16, literal(-13)))
        CFI (cfiCond23) V1 load(1, XDATA, add(CFA_XSP16, literal(-12)))
        CFI (cfiCond23) V2 load(1, XDATA, add(CFA_XSP16, literal(-11)))
        CFI (cfiCond23) V3 load(1, XDATA, add(CFA_XSP16, literal(-10)))
        CFI (cfiCond23) V4 load(1, XDATA, add(CFA_XSP16, literal(-9)))
        CFI (cfiCond23) V5 load(1, XDATA, add(CFA_XSP16, literal(-8)))
        CFI (cfiCond23) V6 load(1, XDATA, add(CFA_XSP16, literal(-7)))
        CFI (cfiCond23) R7 load(1, XDATA, add(CFA_XSP16, literal(-6)))
        CFI (cfiCond23) ?RET_LOW load(1, XDATA, add(CFA_XSP16, literal(-5)))
        CFI (cfiCond23) ?RET_HIGH load(1, XDATA, add(CFA_XSP16, literal(-4)))
        CFI (cfiCond23) ?BRET_EXT load(1, XDATA, add(CFA_XSP16, literal(-3)))
        CFI (cfiCond23) DPL0 load(1, XDATA, add(CFA_XSP16, literal(-2)))
        CFI (cfiCond23) DPH0 load(1, XDATA, add(CFA_XSP16, literal(-1)))
        CFI (cfiCond23) CFA_SP SP+0
        CFI (cfiCond23) CFA_XSP16 add(XSP16, 35)
        CFI Block cfiPicker24 Using cfiCommon1
        CFI (cfiPicker24) NoFunction
        CFI (cfiPicker24) Picker
        MOV     R2,DPL
        MOV     R3,DPH
        CFI EndBlock cfiCond21
        CFI EndBlock cfiCond22
        CFI EndBlock cfiCond23
        CFI EndBlock cfiPicker24
        REQUIRE ??Subroutine11_0
        ; // Fall through to label ??Subroutine11_0

        RSEG BANKED_CODE:CODE:NOROOT(0)
??Subroutine11_0:
        CFI Block cfiCond25 Using cfiCommon0
        CFI NoFunction
        CFI Conditional ??CrossCallReturnLabel_15
        CFI R6 load(1, XDATA, add(CFA_XSP16, literal(-24)))
        CFI VB load(1, XDATA, add(CFA_XSP16, literal(-23)))
        CFI V0 load(1, XDATA, add(CFA_XSP16, literal(-22)))
        CFI V1 load(1, XDATA, add(CFA_XSP16, literal(-21)))
        CFI V2 load(1, XDATA, add(CFA_XSP16, literal(-20)))
        CFI V3 load(1, XDATA, add(CFA_XSP16, literal(-19)))
        CFI V4 load(1, XDATA, add(CFA_XSP16, literal(-18)))
        CFI V5 load(1, XDATA, add(CFA_XSP16, literal(-17)))
        CFI V6 load(1, XDATA, add(CFA_XSP16, literal(-16)))
        CFI V7 load(1, XDATA, add(CFA_XSP16, literal(-15)))
        CFI V8 load(1, XDATA, add(CFA_XSP16, literal(-14)))
        CFI V9 load(1, XDATA, add(CFA_XSP16, literal(-13)))
        CFI V10 load(1, XDATA, add(CFA_XSP16, literal(-12)))
        CFI V11 load(1, XDATA, add(CFA_XSP16, literal(-11)))
        CFI V12 load(1, XDATA, add(CFA_XSP16, literal(-10)))
        CFI V13 load(1, XDATA, add(CFA_XSP16, literal(-9)))
        CFI V14 load(1, XDATA, add(CFA_XSP16, literal(-8)))
        CFI V15 load(1, XDATA, add(CFA_XSP16, literal(-7)))
        CFI R7 load(1, XDATA, add(CFA_XSP16, literal(-6)))
        CFI ?RET_LOW load(1, XDATA, add(CFA_XSP16, literal(-5)))
        CFI ?RET_HIGH load(1, XDATA, add(CFA_XSP16, literal(-4)))
        CFI ?BRET_EXT load(1, XDATA, add(CFA_XSP16, literal(-3)))
        CFI DPL0 load(1, XDATA, add(CFA_XSP16, literal(-2)))
        CFI DPH0 load(1, XDATA, add(CFA_XSP16, literal(-1)))
        CFI CFA_SP SP+0
        CFI CFA_XSP16 add(XSP16, 27)
        CFI Block cfiCond26 Using cfiCommon0
        CFI (cfiCond26) NoFunction
        CFI (cfiCond26) Conditional ??CrossCallReturnLabel_16
        CFI (cfiCond26) R6 load(1, XDATA, add(CFA_XSP16, literal(-24)))
        CFI (cfiCond26) VB load(1, XDATA, add(CFA_XSP16, literal(-23)))
        CFI (cfiCond26) V0 load(1, XDATA, add(CFA_XSP16, literal(-22)))
        CFI (cfiCond26) V1 load(1, XDATA, add(CFA_XSP16, literal(-21)))
        CFI (cfiCond26) V2 load(1, XDATA, add(CFA_XSP16, literal(-20)))
        CFI (cfiCond26) V3 load(1, XDATA, add(CFA_XSP16, literal(-19)))
        CFI (cfiCond26) V4 load(1, XDATA, add(CFA_XSP16, literal(-18)))
        CFI (cfiCond26) V5 load(1, XDATA, add(CFA_XSP16, literal(-17)))
        CFI (cfiCond26) V6 load(1, XDATA, add(CFA_XSP16, literal(-16)))
        CFI (cfiCond26) V7 load(1, XDATA, add(CFA_XSP16, literal(-15)))
        CFI (cfiCond26) V8 load(1, XDATA, add(CFA_XSP16, literal(-14)))
        CFI (cfiCond26) V9 load(1, XDATA, add(CFA_XSP16, literal(-13)))
        CFI (cfiCond26) V10 load(1, XDATA, add(CFA_XSP16, literal(-12)))
        CFI (cfiCond26) V11 load(1, XDATA, add(CFA_XSP16, literal(-11)))
        CFI (cfiCond26) V12 load(1, XDATA, add(CFA_XSP16, literal(-10)))
        CFI (cfiCond26) V13 load(1, XDATA, add(CFA_XSP16, literal(-9)))
        CFI (cfiCond26) V14 load(1, XDATA, add(CFA_XSP16, literal(-8)))
        CFI (cfiCond26) V15 load(1, XDATA, add(CFA_XSP16, literal(-7)))
        CFI (cfiCond26) R7 load(1, XDATA, add(CFA_XSP16, literal(-6)))
        CFI (cfiCond26) ?RET_LOW load(1, XDATA, add(CFA_XSP16, literal(-5)))
        CFI (cfiCond26) ?RET_HIGH load(1, XDATA, add(CFA_XSP16, literal(-4)))
        CFI (cfiCond26) ?BRET_EXT load(1, XDATA, add(CFA_XSP16, literal(-3)))
        CFI (cfiCond26) DPL0 load(1, XDATA, add(CFA_XSP16, literal(-2)))
        CFI (cfiCond26) DPH0 load(1, XDATA, add(CFA_XSP16, literal(-1)))
        CFI (cfiCond26) CFA_SP SP+0
        CFI (cfiCond26) CFA_XSP16 add(XSP16, 27)
        CFI Block cfiCond27 Using cfiCommon0
        CFI (cfiCond27) NoFunction
        CFI (cfiCond27) Conditional ??CrossCallReturnLabel_17
        CFI (cfiCond27) R6 load(1, XDATA, add(CFA_XSP16, literal(-24)))
        CFI (cfiCond27) VB load(1, XDATA, add(CFA_XSP16, literal(-23)))
        CFI (cfiCond27) V0 load(1, XDATA, add(CFA_XSP16, literal(-22)))
        CFI (cfiCond27) V1 load(1, XDATA, add(CFA_XSP16, literal(-21)))
        CFI (cfiCond27) V2 load(1, XDATA, add(CFA_XSP16, literal(-20)))
        CFI (cfiCond27) V3 load(1, XDATA, add(CFA_XSP16, literal(-19)))
        CFI (cfiCond27) V4 load(1, XDATA, add(CFA_XSP16, literal(-18)))
        CFI (cfiCond27) V5 load(1, XDATA, add(CFA_XSP16, literal(-17)))
        CFI (cfiCond27) V6 load(1, XDATA, add(CFA_XSP16, literal(-16)))
        CFI (cfiCond27) V7 load(1, XDATA, add(CFA_XSP16, literal(-15)))
        CFI (cfiCond27) V8 load(1, XDATA, add(CFA_XSP16, literal(-14)))
        CFI (cfiCond27) V9 load(1, XDATA, add(CFA_XSP16, literal(-13)))
        CFI (cfiCond27) V10 load(1, XDATA, add(CFA_XSP16, literal(-12)))
        CFI (cfiCond27) V11 load(1, XDATA, add(CFA_XSP16, literal(-11)))
        CFI (cfiCond27) V12 load(1, XDATA, add(CFA_XSP16, literal(-10)))
        CFI (cfiCond27) V13 load(1, XDATA, add(CFA_XSP16, literal(-9)))
        CFI (cfiCond27) V14 load(1, XDATA, add(CFA_XSP16, literal(-8)))
        CFI (cfiCond27) V15 load(1, XDATA, add(CFA_XSP16, literal(-7)))
        CFI (cfiCond27) R7 load(1, XDATA, add(CFA_XSP16, literal(-6)))
        CFI (cfiCond27) ?RET_LOW load(1, XDATA, add(CFA_XSP16, literal(-5)))
        CFI (cfiCond27) ?RET_HIGH load(1, XDATA, add(CFA_XSP16, literal(-4)))
        CFI (cfiCond27) ?BRET_EXT load(1, XDATA, add(CFA_XSP16, literal(-3)))
        CFI (cfiCond27) DPL0 load(1, XDATA, add(CFA_XSP16, literal(-2)))
        CFI (cfiCond27) DPH0 load(1, XDATA, add(CFA_XSP16, literal(-1)))
        CFI (cfiCond27) CFA_SP SP+0
        CFI (cfiCond27) CFA_XSP16 add(XSP16, 27)
        CFI Block cfiCond28 Using cfiCommon0
        CFI (cfiCond28) NoFunction
        CFI (cfiCond28) Conditional ??CrossCallReturnLabel_12
        CFI (cfiCond28) R6 load(1, XDATA, add(CFA_XSP16, literal(-18)))
        CFI (cfiCond28) VB load(1, XDATA, add(CFA_XSP16, literal(-17)))
        CFI (cfiCond28) V0 load(1, XDATA, add(CFA_XSP16, literal(-16)))
        CFI (cfiCond28) V1 load(1, XDATA, add(CFA_XSP16, literal(-15)))
        CFI (cfiCond28) V2 load(1, XDATA, add(CFA_XSP16, literal(-14)))
        CFI (cfiCond28) V3 load(1, XDATA, add(CFA_XSP16, literal(-13)))
        CFI (cfiCond28) V4 load(1, XDATA, add(CFA_XSP16, literal(-12)))
        CFI (cfiCond28) V5 load(1, XDATA, add(CFA_XSP16, literal(-11)))
        CFI (cfiCond28) V6 load(1, XDATA, add(CFA_XSP16, literal(-10)))
        CFI (cfiCond28) V7 load(1, XDATA, add(CFA_XSP16, literal(-9)))
        CFI (cfiCond28) V8 load(1, XDATA, add(CFA_XSP16, literal(-8)))
        CFI (cfiCond28) V9 load(1, XDATA, add(CFA_XSP16, literal(-7)))
        CFI (cfiCond28) R7 load(1, XDATA, add(CFA_XSP16, literal(-6)))
        CFI (cfiCond28) ?RET_LOW load(1, XDATA, add(CFA_XSP16, literal(-5)))
        CFI (cfiCond28) ?RET_HIGH load(1, XDATA, add(CFA_XSP16, literal(-4)))
        CFI (cfiCond28) ?BRET_EXT load(1, XDATA, add(CFA_XSP16, literal(-3)))
        CFI (cfiCond28) DPL0 load(1, XDATA, add(CFA_XSP16, literal(-2)))
        CFI (cfiCond28) DPH0 load(1, XDATA, add(CFA_XSP16, literal(-1)))
        CFI (cfiCond28) CFA_SP SP+0
        CFI (cfiCond28) CFA_XSP16 add(XSP16, 46)
        CFI Block cfiCond29 Using cfiCommon0
        CFI (cfiCond29) NoFunction
        CFI (cfiCond29) Conditional ??CrossCallReturnLabel_13
        CFI (cfiCond29) R6 load(1, XDATA, add(CFA_XSP16, literal(-18)))
        CFI (cfiCond29) VB load(1, XDATA, add(CFA_XSP16, literal(-17)))
        CFI (cfiCond29) V0 load(1, XDATA, add(CFA_XSP16, literal(-16)))
        CFI (cfiCond29) V1 load(1, XDATA, add(CFA_XSP16, literal(-15)))
        CFI (cfiCond29) V2 load(1, XDATA, add(CFA_XSP16, literal(-14)))
        CFI (cfiCond29) V3 load(1, XDATA, add(CFA_XSP16, literal(-13)))
        CFI (cfiCond29) V4 load(1, XDATA, add(CFA_XSP16, literal(-12)))
        CFI (cfiCond29) V5 load(1, XDATA, add(CFA_XSP16, literal(-11)))
        CFI (cfiCond29) V6 load(1, XDATA, add(CFA_XSP16, literal(-10)))
        CFI (cfiCond29) V7 load(1, XDATA, add(CFA_XSP16, literal(-9)))
        CFI (cfiCond29) V8 load(1, XDATA, add(CFA_XSP16, literal(-8)))
        CFI (cfiCond29) V9 load(1, XDATA, add(CFA_XSP16, literal(-7)))
        CFI (cfiCond29) R7 load(1, XDATA, add(CFA_XSP16, literal(-6)))
        CFI (cfiCond29) ?RET_LOW load(1, XDATA, add(CFA_XSP16, literal(-5)))
        CFI (cfiCond29) ?RET_HIGH load(1, XDATA, add(CFA_XSP16, literal(-4)))
        CFI (cfiCond29) ?BRET_EXT load(1, XDATA, add(CFA_XSP16, literal(-3)))
        CFI (cfiCond29) DPL0 load(1, XDATA, add(CFA_XSP16, literal(-2)))
        CFI (cfiCond29) DPH0 load(1, XDATA, add(CFA_XSP16, literal(-1)))
        CFI (cfiCond29) CFA_SP SP+0
        CFI (cfiCond29) CFA_XSP16 add(XSP16, 46)
        CFI Block cfiCond30 Using cfiCommon0
        CFI (cfiCond30) NoFunction
        CFI (cfiCond30) Conditional ??CrossCallReturnLabel_14
        CFI (cfiCond30) R6 load(1, XDATA, add(CFA_XSP16, literal(-15)))
        CFI (cfiCond30) VB load(1, XDATA, add(CFA_XSP16, literal(-14)))
        CFI (cfiCond30) V0 load(1, XDATA, add(CFA_XSP16, literal(-13)))
        CFI (cfiCond30) V1 load(1, XDATA, add(CFA_XSP16, literal(-12)))
        CFI (cfiCond30) V2 load(1, XDATA, add(CFA_XSP16, literal(-11)))
        CFI (cfiCond30) V3 load(1, XDATA, add(CFA_XSP16, literal(-10)))
        CFI (cfiCond30) V4 load(1, XDATA, add(CFA_XSP16, literal(-9)))
        CFI (cfiCond30) V5 load(1, XDATA, add(CFA_XSP16, literal(-8)))
        CFI (cfiCond30) V6 load(1, XDATA, add(CFA_XSP16, literal(-7)))
        CFI (cfiCond30) R7 load(1, XDATA, add(CFA_XSP16, literal(-6)))
        CFI (cfiCond30) ?RET_LOW load(1, XDATA, add(CFA_XSP16, literal(-5)))
        CFI (cfiCond30) ?RET_HIGH load(1, XDATA, add(CFA_XSP16, literal(-4)))
        CFI (cfiCond30) ?BRET_EXT load(1, XDATA, add(CFA_XSP16, literal(-3)))
        CFI (cfiCond30) DPL0 load(1, XDATA, add(CFA_XSP16, literal(-2)))
        CFI (cfiCond30) DPH0 load(1, XDATA, add(CFA_XSP16, literal(-1)))
        CFI (cfiCond30) CFA_SP SP+0
        CFI (cfiCond30) CFA_XSP16 add(XSP16, 35)
        CFI Block cfiPicker31 Using cfiCommon1
        CFI (cfiPicker31) NoFunction
        CFI (cfiPicker31) Picker
        LCALL   ??osal_memcpy?relay
        MOV     A,#0x3
        RET
        CFI EndBlock cfiCond25
        CFI EndBlock cfiCond26
        CFI EndBlock cfiCond27
        CFI EndBlock cfiCond28
        CFI EndBlock cfiCond29
        CFI EndBlock cfiCond30
        CFI EndBlock cfiPicker31
//  711 
//  712 /**************************************************************************************************
//  713  * @fn      HalLcdDisplayPercentBar
//  714  *
//  715  * @brief   Display percentage bar on the LCD
//  716  *
//  717  * @param   title   -
//  718  *          value   -
//  719  *
//  720  * @return  None
//  721  **************************************************************************************************/

        RSEG BANKED_CODE:CODE:NOROOT(0)
//  722 void HalLcdDisplayPercentBar( char *title, uint8 value )
HalLcdDisplayPercentBar:
        CFI Block cfiBlock32 Using cfiCommon0
        CFI Function HalLcdDisplayPercentBar
//  723 {
        FUNCALL HalLcdDisplayPercentBar, HalLcdWriteString
        LOCFRAME ISTACK, 0, STACK
        LOCFRAME PSTACK, 0, STACK
        LOCFRAME XSTACK, 32, STACK
        LOCFRAME IOVERLAY, 0, STATIC
        LOCFRAME DOVERLAY, 0, STATIC
        ARGFRAME ISTACK, 0, STACK
        ARGFRAME PSTACK, 0, STACK
        ARGFRAME XSTACK, 32, STACK
        ARGFRAME IOVERLAY, 0, STATIC
        ARGFRAME DOVERLAY, 0, STATIC
        FUNCALL HalLcdDisplayPercentBar, osal_memcpy
        LOCFRAME ISTACK, 0, STACK
        LOCFRAME PSTACK, 0, STACK
        LOCFRAME XSTACK, 35, STACK
        LOCFRAME IOVERLAY, 0, STATIC
        LOCFRAME DOVERLAY, 0, STATIC
        ARGFRAME ISTACK, 0, STACK
        ARGFRAME PSTACK, 0, STACK
        ARGFRAME XSTACK, 35, STACK
        ARGFRAME IOVERLAY, 0, STATIC
        ARGFRAME DOVERLAY, 0, STATIC
        FUNCALL HalLcdDisplayPercentBar, _ltoa
        LOCFRAME ISTACK, 0, STACK
        LOCFRAME PSTACK, 0, STACK
        LOCFRAME XSTACK, 34, STACK
        LOCFRAME IOVERLAY, 0, STATIC
        LOCFRAME DOVERLAY, 0, STATIC
        ARGFRAME ISTACK, 0, STACK
        ARGFRAME PSTACK, 0, STACK
        ARGFRAME XSTACK, 34, STACK
        ARGFRAME IOVERLAY, 0, STATIC
        ARGFRAME DOVERLAY, 0, STATIC
        FUNCALL HalLcdDisplayPercentBar, HalLcdWriteString
        LOCFRAME ISTACK, 0, STACK
        LOCFRAME PSTACK, 0, STACK
        LOCFRAME XSTACK, 32, STACK
        LOCFRAME IOVERLAY, 0, STATIC
        LOCFRAME DOVERLAY, 0, STATIC
        ARGFRAME ISTACK, 0, STACK
        ARGFRAME PSTACK, 0, STACK
        ARGFRAME XSTACK, 32, STACK
        ARGFRAME IOVERLAY, 0, STATIC
        ARGFRAME DOVERLAY, 0, STATIC
        MOV     A,#-0xf
        LCALL   ?BANKED_ENTER_XDATA
        CFI DPH0 load(1, XDATA, add(CFA_XSP16, literal(-1)))
        CFI DPL0 load(1, XDATA, add(CFA_XSP16, literal(-2)))
        CFI ?BRET_EXT load(1, XDATA, add(CFA_XSP16, literal(-3)))
        CFI ?RET_HIGH load(1, XDATA, add(CFA_XSP16, literal(-4)))
        CFI ?RET_LOW load(1, XDATA, add(CFA_XSP16, literal(-5)))
        CFI R7 load(1, XDATA, add(CFA_XSP16, literal(-6)))
        CFI V6 load(1, XDATA, add(CFA_XSP16, literal(-7)))
        CFI V5 load(1, XDATA, add(CFA_XSP16, literal(-8)))
        CFI V4 load(1, XDATA, add(CFA_XSP16, literal(-9)))
        CFI V3 load(1, XDATA, add(CFA_XSP16, literal(-10)))
        CFI V2 load(1, XDATA, add(CFA_XSP16, literal(-11)))
        CFI V1 load(1, XDATA, add(CFA_XSP16, literal(-12)))
        CFI V0 load(1, XDATA, add(CFA_XSP16, literal(-13)))
        CFI VB load(1, XDATA, add(CFA_XSP16, literal(-14)))
        CFI R6 load(1, XDATA, add(CFA_XSP16, literal(-15)))
        CFI CFA_SP SP+0
        CFI CFA_XSP16 add(XSP16, 15)
        ; Saved register size: 15
        ; Auto size: 17
        MOV     A,#-0x11
        LCALL   ?ALLOC_XSTACK8
        CFI CFA_XSP16 add(XSP16, 32)
        MOV     A,R1
        MOV     R6,A
//  724 #if (HAL_LCD == TRUE)
//  725 
//  726   uint8 percent;
//  727   uint8 leftOver;
//  728   uint8 buf[17];
//  729   uint32 err;
//  730   uint8 x;
//  731 
//  732   /* Write the title: */
//  733   HalLcdWriteString( title, HAL_LCD_LINE_1 );
        ; Setup parameters for call to function HalLcdWriteString
        MOV     R1,#0x1
        LCALL   ??HalLcdWriteString?relay
//  734 
//  735   if ( value > 100 )
        MOV     A,R6
        CLR     C
        SUBB    A,#0x65
        JC      ??HalLcdDisplayPercentBar_0
//  736     value = 100;
        MOV     R6,#0x64
//  737 
//  738   /* convert to blocks */
//  739   percent = (uint8)(value / 10);
??HalLcdDisplayPercentBar_0:
        MOV     B,#0xa
        MOV     A,R6
        DIV     AB
        MOV     R7,A
//  740   leftOver = (uint8)(value % 10);
        MOV     A,R6
        MOV     B,#0xa
        DIV     AB
        MOV     A,B
        MOV     ?V0 + 0,A
//  741 
//  742   /* Make window */
//  743   osal_memcpy( buf, "[          ]  ", 15 );
        ; Setup parameters for call to function osal_memcpy
        MOV     ?V0 + 4,#(`?<Constant "[          ]  ">` & 0xff)
        MOV     ?V0 + 5,#((`?<Constant "[          ]  ">` >> 8) & 0xff)
        MOV     ?V0 + 6,#0x0
        MOV     R0,#?V0 + 4
        LCALL   ?PUSH_XSTACK_I_THREE
        CFI CFA_XSP16 add(XSP16, 35)
        MOV     R4,#0xf
        MOV     R5,#0x0
        MOV     A,#0x3
        LCALL   ?XSTACK_DISP0_8
        LCALL   ?Subroutine1 & 0xFFFF
??CrossCallReturnLabel_14:
        LCALL   ?DEALLOC_XSTACK8
        CFI CFA_XSP16 add(XSP16, 32)
//  744 
//  745   for ( x = 0; x < percent; x ++ )
        MOV     R2,#0x0
        SJMP    ??HalLcdDisplayPercentBar_1
//  746   {
//  747     buf[1+x] = '>';
??HalLcdDisplayPercentBar_2:
        MOV     A,#0x3e
        MOVX    @DPTR,A
//  748   }
        INC     R2
??HalLcdDisplayPercentBar_1:
        MOV     ?V0 + 2,R2
        MOV     DPL,?XSP + 0
        MOV     DPH,?XSP + 1
        MOV     A,DPL
        ADD     A,?V0 + 2
        MOV     DPL,A
        MOV     A,DPH
        ADDC    A,#0x0
        MOV     DPH,A
        INC     DPTR
        MOV     A,R2
        CLR     C
        SUBB    A,R7
        JC      ??HalLcdDisplayPercentBar_2
//  749 
//  750   if ( leftOver >= 5 )
        MOV     A,?V0 + 0
        CLR     C
        SUBB    A,#0x5
        JC      ??HalLcdDisplayPercentBar_3
//  751     buf[1+x] = '+';
        MOV     A,#0x2b
        MOVX    @DPTR,A
//  752 
//  753   err = (uint32)value;
//  754   _ltoa( err, (uint8*)&buf[13], 10 );
??HalLcdDisplayPercentBar_3:
        ; Setup parameters for call to function _ltoa
        MOV     A,#0xd
        LCALL   ?XSTACK_DISP0_8
        MOV     ?V0 + 0,DPL
        MOV     ?V0 + 1,DPH
        MOV     R0,#?V0 + 0
        LCALL   ?PUSH_XSTACK_I_TWO
        CFI CFA_XSP16 add(XSP16, 34)
        MOV     R1,#0xa
        MOV     A,R6
        MOV     R2,A
        MOV     R3,#0x0
        LCALL   ??Subroutine12_0 & 0xFFFF
??CrossCallReturnLabel_21:
        LCALL   ?DEALLOC_XSTACK8
        CFI CFA_XSP16 add(XSP16, 32)
//  755 
//  756   HalLcdWriteString( (char*)buf, HAL_LCD_LINE_2 );
        ; Setup parameters for call to function HalLcdWriteString
        MOV     R1,#0x2
        MOV     DPL,?XSP + 0
        MOV     DPH,?XSP + 1
        MOV     R2,DPL
        MOV     R3,DPH
        LCALL   ??HalLcdWriteString?relay
//  757 
//  758 #endif
//  759 
//  760 }
        MOV     A,#0x11
        LCALL   ?DEALLOC_XSTACK8
        CFI CFA_XSP16 add(XSP16, 15)
        MOV     R7,#0x7
        LJMP    ?BANKED_LEAVE_XDATA
        CFI EndBlock cfiBlock32

        RSEG BANKED_CODE:CODE:NOROOT(0)
?Subroutine2:
        CFI Block cfiCond33 Using cfiCommon0
        CFI NoFunction
        CFI Conditional ??CrossCallReturnLabel_18
        CFI R6 load(1, XDATA, add(CFA_XSP16, literal(-18)))
        CFI VB load(1, XDATA, add(CFA_XSP16, literal(-17)))
        CFI V0 load(1, XDATA, add(CFA_XSP16, literal(-16)))
        CFI V1 load(1, XDATA, add(CFA_XSP16, literal(-15)))
        CFI V2 load(1, XDATA, add(CFA_XSP16, literal(-14)))
        CFI V3 load(1, XDATA, add(CFA_XSP16, literal(-13)))
        CFI V4 load(1, XDATA, add(CFA_XSP16, literal(-12)))
        CFI V5 load(1, XDATA, add(CFA_XSP16, literal(-11)))
        CFI V6 load(1, XDATA, add(CFA_XSP16, literal(-10)))
        CFI V7 load(1, XDATA, add(CFA_XSP16, literal(-9)))
        CFI V8 load(1, XDATA, add(CFA_XSP16, literal(-8)))
        CFI V9 load(1, XDATA, add(CFA_XSP16, literal(-7)))
        CFI R7 load(1, XDATA, add(CFA_XSP16, literal(-6)))
        CFI ?RET_LOW load(1, XDATA, add(CFA_XSP16, literal(-5)))
        CFI ?RET_HIGH load(1, XDATA, add(CFA_XSP16, literal(-4)))
        CFI ?BRET_EXT load(1, XDATA, add(CFA_XSP16, literal(-3)))
        CFI DPL0 load(1, XDATA, add(CFA_XSP16, literal(-2)))
        CFI DPH0 load(1, XDATA, add(CFA_XSP16, literal(-1)))
        CFI CFA_SP SP+0
        CFI CFA_XSP16 add(XSP16, 45)
        CFI Block cfiCond34 Using cfiCommon0
        CFI (cfiCond34) NoFunction
        CFI (cfiCond34) Conditional ??CrossCallReturnLabel_19
        CFI (cfiCond34) R6 load(1, XDATA, add(CFA_XSP16, literal(-18)))
        CFI (cfiCond34) VB load(1, XDATA, add(CFA_XSP16, literal(-17)))
        CFI (cfiCond34) V0 load(1, XDATA, add(CFA_XSP16, literal(-16)))
        CFI (cfiCond34) V1 load(1, XDATA, add(CFA_XSP16, literal(-15)))
        CFI (cfiCond34) V2 load(1, XDATA, add(CFA_XSP16, literal(-14)))
        CFI (cfiCond34) V3 load(1, XDATA, add(CFA_XSP16, literal(-13)))
        CFI (cfiCond34) V4 load(1, XDATA, add(CFA_XSP16, literal(-12)))
        CFI (cfiCond34) V5 load(1, XDATA, add(CFA_XSP16, literal(-11)))
        CFI (cfiCond34) V6 load(1, XDATA, add(CFA_XSP16, literal(-10)))
        CFI (cfiCond34) V7 load(1, XDATA, add(CFA_XSP16, literal(-9)))
        CFI (cfiCond34) V8 load(1, XDATA, add(CFA_XSP16, literal(-8)))
        CFI (cfiCond34) V9 load(1, XDATA, add(CFA_XSP16, literal(-7)))
        CFI (cfiCond34) R7 load(1, XDATA, add(CFA_XSP16, literal(-6)))
        CFI (cfiCond34) ?RET_LOW load(1, XDATA, add(CFA_XSP16, literal(-5)))
        CFI (cfiCond34) ?RET_HIGH load(1, XDATA, add(CFA_XSP16, literal(-4)))
        CFI (cfiCond34) ?BRET_EXT load(1, XDATA, add(CFA_XSP16, literal(-3)))
        CFI (cfiCond34) DPL0 load(1, XDATA, add(CFA_XSP16, literal(-2)))
        CFI (cfiCond34) DPH0 load(1, XDATA, add(CFA_XSP16, literal(-1)))
        CFI (cfiCond34) CFA_SP SP+0
        CFI (cfiCond34) CFA_XSP16 add(XSP16, 45)
        CFI Block cfiPicker35 Using cfiCommon1
        CFI (cfiPicker35) NoFunction
        CFI (cfiPicker35) Picker
        MOV     R2,?V0 + 0
        MOV     R3,?V0 + 1
        CFI EndBlock cfiCond33
        CFI EndBlock cfiCond34
        CFI EndBlock cfiPicker35
        REQUIRE ??Subroutine12_0
        ; // Fall through to label ??Subroutine12_0

        RSEG BANKED_CODE:CODE:NOROOT(0)
??Subroutine12_0:
        CFI Block cfiCond36 Using cfiCommon0
        CFI NoFunction
        CFI Conditional ??CrossCallReturnLabel_20
        CFI R6 load(1, XDATA, add(CFA_XSP16, literal(-18)))
        CFI VB load(1, XDATA, add(CFA_XSP16, literal(-17)))
        CFI V0 load(1, XDATA, add(CFA_XSP16, literal(-16)))
        CFI V1 load(1, XDATA, add(CFA_XSP16, literal(-15)))
        CFI V2 load(1, XDATA, add(CFA_XSP16, literal(-14)))
        CFI V3 load(1, XDATA, add(CFA_XSP16, literal(-13)))
        CFI V4 load(1, XDATA, add(CFA_XSP16, literal(-12)))
        CFI V5 load(1, XDATA, add(CFA_XSP16, literal(-11)))
        CFI V6 load(1, XDATA, add(CFA_XSP16, literal(-10)))
        CFI V7 load(1, XDATA, add(CFA_XSP16, literal(-9)))
        CFI V8 load(1, XDATA, add(CFA_XSP16, literal(-8)))
        CFI V9 load(1, XDATA, add(CFA_XSP16, literal(-7)))
        CFI R7 load(1, XDATA, add(CFA_XSP16, literal(-6)))
        CFI ?RET_LOW load(1, XDATA, add(CFA_XSP16, literal(-5)))
        CFI ?RET_HIGH load(1, XDATA, add(CFA_XSP16, literal(-4)))
        CFI ?BRET_EXT load(1, XDATA, add(CFA_XSP16, literal(-3)))
        CFI DPL0 load(1, XDATA, add(CFA_XSP16, literal(-2)))
        CFI DPH0 load(1, XDATA, add(CFA_XSP16, literal(-1)))
        CFI CFA_SP SP+0
        CFI CFA_XSP16 add(XSP16, 45)
        CFI Block cfiCond37 Using cfiCommon0
        CFI (cfiCond37) NoFunction
        CFI (cfiCond37) Conditional ??CrossCallReturnLabel_21
        CFI (cfiCond37) R6 load(1, XDATA, add(CFA_XSP16, literal(-15)))
        CFI (cfiCond37) VB load(1, XDATA, add(CFA_XSP16, literal(-14)))
        CFI (cfiCond37) V0 load(1, XDATA, add(CFA_XSP16, literal(-13)))
        CFI (cfiCond37) V1 load(1, XDATA, add(CFA_XSP16, literal(-12)))
        CFI (cfiCond37) V2 load(1, XDATA, add(CFA_XSP16, literal(-11)))
        CFI (cfiCond37) V3 load(1, XDATA, add(CFA_XSP16, literal(-10)))
        CFI (cfiCond37) V4 load(1, XDATA, add(CFA_XSP16, literal(-9)))
        CFI (cfiCond37) V5 load(1, XDATA, add(CFA_XSP16, literal(-8)))
        CFI (cfiCond37) V6 load(1, XDATA, add(CFA_XSP16, literal(-7)))
        CFI (cfiCond37) R7 load(1, XDATA, add(CFA_XSP16, literal(-6)))
        CFI (cfiCond37) ?RET_LOW load(1, XDATA, add(CFA_XSP16, literal(-5)))
        CFI (cfiCond37) ?RET_HIGH load(1, XDATA, add(CFA_XSP16, literal(-4)))
        CFI (cfiCond37) ?BRET_EXT load(1, XDATA, add(CFA_XSP16, literal(-3)))
        CFI (cfiCond37) DPL0 load(1, XDATA, add(CFA_XSP16, literal(-2)))
        CFI (cfiCond37) DPH0 load(1, XDATA, add(CFA_XSP16, literal(-1)))
        CFI (cfiCond37) CFA_SP SP+0
        CFI (cfiCond37) CFA_XSP16 add(XSP16, 34)
        CFI Block cfiCond38 Using cfiCommon0
        CFI (cfiCond38) NoFunction
        CFI (cfiCond38) Conditional ??CrossCallReturnLabel_18
        CFI (cfiCond38) R6 load(1, XDATA, add(CFA_XSP16, literal(-18)))
        CFI (cfiCond38) VB load(1, XDATA, add(CFA_XSP16, literal(-17)))
        CFI (cfiCond38) V0 load(1, XDATA, add(CFA_XSP16, literal(-16)))
        CFI (cfiCond38) V1 load(1, XDATA, add(CFA_XSP16, literal(-15)))
        CFI (cfiCond38) V2 load(1, XDATA, add(CFA_XSP16, literal(-14)))
        CFI (cfiCond38) V3 load(1, XDATA, add(CFA_XSP16, literal(-13)))
        CFI (cfiCond38) V4 load(1, XDATA, add(CFA_XSP16, literal(-12)))
        CFI (cfiCond38) V5 load(1, XDATA, add(CFA_XSP16, literal(-11)))
        CFI (cfiCond38) V6 load(1, XDATA, add(CFA_XSP16, literal(-10)))
        CFI (cfiCond38) V7 load(1, XDATA, add(CFA_XSP16, literal(-9)))
        CFI (cfiCond38) V8 load(1, XDATA, add(CFA_XSP16, literal(-8)))
        CFI (cfiCond38) V9 load(1, XDATA, add(CFA_XSP16, literal(-7)))
        CFI (cfiCond38) R7 load(1, XDATA, add(CFA_XSP16, literal(-6)))
        CFI (cfiCond38) ?RET_LOW load(1, XDATA, add(CFA_XSP16, literal(-5)))
        CFI (cfiCond38) ?RET_HIGH load(1, XDATA, add(CFA_XSP16, literal(-4)))
        CFI (cfiCond38) ?BRET_EXT load(1, XDATA, add(CFA_XSP16, literal(-3)))
        CFI (cfiCond38) DPL0 load(1, XDATA, add(CFA_XSP16, literal(-2)))
        CFI (cfiCond38) DPH0 load(1, XDATA, add(CFA_XSP16, literal(-1)))
        CFI (cfiCond38) CFA_SP SP+0
        CFI (cfiCond38) CFA_XSP16 add(XSP16, 45)
        CFI Block cfiCond39 Using cfiCommon0
        CFI (cfiCond39) NoFunction
        CFI (cfiCond39) Conditional ??CrossCallReturnLabel_19
        CFI (cfiCond39) R6 load(1, XDATA, add(CFA_XSP16, literal(-18)))
        CFI (cfiCond39) VB load(1, XDATA, add(CFA_XSP16, literal(-17)))
        CFI (cfiCond39) V0 load(1, XDATA, add(CFA_XSP16, literal(-16)))
        CFI (cfiCond39) V1 load(1, XDATA, add(CFA_XSP16, literal(-15)))
        CFI (cfiCond39) V2 load(1, XDATA, add(CFA_XSP16, literal(-14)))
        CFI (cfiCond39) V3 load(1, XDATA, add(CFA_XSP16, literal(-13)))
        CFI (cfiCond39) V4 load(1, XDATA, add(CFA_XSP16, literal(-12)))
        CFI (cfiCond39) V5 load(1, XDATA, add(CFA_XSP16, literal(-11)))
        CFI (cfiCond39) V6 load(1, XDATA, add(CFA_XSP16, literal(-10)))
        CFI (cfiCond39) V7 load(1, XDATA, add(CFA_XSP16, literal(-9)))
        CFI (cfiCond39) V8 load(1, XDATA, add(CFA_XSP16, literal(-8)))
        CFI (cfiCond39) V9 load(1, XDATA, add(CFA_XSP16, literal(-7)))
        CFI (cfiCond39) R7 load(1, XDATA, add(CFA_XSP16, literal(-6)))
        CFI (cfiCond39) ?RET_LOW load(1, XDATA, add(CFA_XSP16, literal(-5)))
        CFI (cfiCond39) ?RET_HIGH load(1, XDATA, add(CFA_XSP16, literal(-4)))
        CFI (cfiCond39) ?BRET_EXT load(1, XDATA, add(CFA_XSP16, literal(-3)))
        CFI (cfiCond39) DPL0 load(1, XDATA, add(CFA_XSP16, literal(-2)))
        CFI (cfiCond39) DPH0 load(1, XDATA, add(CFA_XSP16, literal(-1)))
        CFI (cfiCond39) CFA_SP SP+0
        CFI (cfiCond39) CFA_XSP16 add(XSP16, 45)
        CFI Block cfiPicker40 Using cfiCommon1
        CFI (cfiPicker40) NoFunction
        CFI (cfiPicker40) Picker
        MOV     R4,#0x0
        MOV     R5,#0x0
        CFI EndBlock cfiCond36
        CFI EndBlock cfiCond37
        CFI EndBlock cfiCond38
        CFI EndBlock cfiCond39
        CFI EndBlock cfiPicker40
        REQUIRE ??Subroutine13_0
        ; // Fall through to label ??Subroutine13_0

        RSEG BANKED_CODE:CODE:NOROOT(0)
??Subroutine13_0:
        CFI Block cfiCond41 Using cfiCommon0
        CFI NoFunction
        CFI Conditional ??CrossCallReturnLabel_22
        CFI R6 load(1, XDATA, add(CFA_XSP16, literal(-14)))
        CFI VB load(1, XDATA, add(CFA_XSP16, literal(-13)))
        CFI V0 load(1, XDATA, add(CFA_XSP16, literal(-12)))
        CFI V1 load(1, XDATA, add(CFA_XSP16, literal(-11)))
        CFI V2 load(1, XDATA, add(CFA_XSP16, literal(-10)))
        CFI V3 load(1, XDATA, add(CFA_XSP16, literal(-9)))
        CFI V4 load(1, XDATA, add(CFA_XSP16, literal(-8)))
        CFI V5 load(1, XDATA, add(CFA_XSP16, literal(-7)))
        CFI R7 load(1, XDATA, add(CFA_XSP16, literal(-6)))
        CFI ?RET_LOW load(1, XDATA, add(CFA_XSP16, literal(-5)))
        CFI ?RET_HIGH load(1, XDATA, add(CFA_XSP16, literal(-4)))
        CFI ?BRET_EXT load(1, XDATA, add(CFA_XSP16, literal(-3)))
        CFI DPL0 load(1, XDATA, add(CFA_XSP16, literal(-2)))
        CFI DPH0 load(1, XDATA, add(CFA_XSP16, literal(-1)))
        CFI CFA_SP SP+0
        CFI CFA_XSP16 add(XSP16, 41)
        CFI Block cfiCond42 Using cfiCommon0
        CFI (cfiCond42) NoFunction
        CFI (cfiCond42) Conditional ??CrossCallReturnLabel_20
        CFI (cfiCond42) R6 load(1, XDATA, add(CFA_XSP16, literal(-18)))
        CFI (cfiCond42) VB load(1, XDATA, add(CFA_XSP16, literal(-17)))
        CFI (cfiCond42) V0 load(1, XDATA, add(CFA_XSP16, literal(-16)))
        CFI (cfiCond42) V1 load(1, XDATA, add(CFA_XSP16, literal(-15)))
        CFI (cfiCond42) V2 load(1, XDATA, add(CFA_XSP16, literal(-14)))
        CFI (cfiCond42) V3 load(1, XDATA, add(CFA_XSP16, literal(-13)))
        CFI (cfiCond42) V4 load(1, XDATA, add(CFA_XSP16, literal(-12)))
        CFI (cfiCond42) V5 load(1, XDATA, add(CFA_XSP16, literal(-11)))
        CFI (cfiCond42) V6 load(1, XDATA, add(CFA_XSP16, literal(-10)))
        CFI (cfiCond42) V7 load(1, XDATA, add(CFA_XSP16, literal(-9)))
        CFI (cfiCond42) V8 load(1, XDATA, add(CFA_XSP16, literal(-8)))
        CFI (cfiCond42) V9 load(1, XDATA, add(CFA_XSP16, literal(-7)))
        CFI (cfiCond42) R7 load(1, XDATA, add(CFA_XSP16, literal(-6)))
        CFI (cfiCond42) ?RET_LOW load(1, XDATA, add(CFA_XSP16, literal(-5)))
        CFI (cfiCond42) ?RET_HIGH load(1, XDATA, add(CFA_XSP16, literal(-4)))
        CFI (cfiCond42) ?BRET_EXT load(1, XDATA, add(CFA_XSP16, literal(-3)))
        CFI (cfiCond42) DPL0 load(1, XDATA, add(CFA_XSP16, literal(-2)))
        CFI (cfiCond42) DPH0 load(1, XDATA, add(CFA_XSP16, literal(-1)))
        CFI (cfiCond42) CFA_SP SP+0
        CFI (cfiCond42) CFA_XSP16 add(XSP16, 45)
        CFI Block cfiCond43 Using cfiCommon0
        CFI (cfiCond43) NoFunction
        CFI (cfiCond43) Conditional ??CrossCallReturnLabel_21
        CFI (cfiCond43) R6 load(1, XDATA, add(CFA_XSP16, literal(-15)))
        CFI (cfiCond43) VB load(1, XDATA, add(CFA_XSP16, literal(-14)))
        CFI (cfiCond43) V0 load(1, XDATA, add(CFA_XSP16, literal(-13)))
        CFI (cfiCond43) V1 load(1, XDATA, add(CFA_XSP16, literal(-12)))
        CFI (cfiCond43) V2 load(1, XDATA, add(CFA_XSP16, literal(-11)))
        CFI (cfiCond43) V3 load(1, XDATA, add(CFA_XSP16, literal(-10)))
        CFI (cfiCond43) V4 load(1, XDATA, add(CFA_XSP16, literal(-9)))
        CFI (cfiCond43) V5 load(1, XDATA, add(CFA_XSP16, literal(-8)))
        CFI (cfiCond43) V6 load(1, XDATA, add(CFA_XSP16, literal(-7)))
        CFI (cfiCond43) R7 load(1, XDATA, add(CFA_XSP16, literal(-6)))
        CFI (cfiCond43) ?RET_LOW load(1, XDATA, add(CFA_XSP16, literal(-5)))
        CFI (cfiCond43) ?RET_HIGH load(1, XDATA, add(CFA_XSP16, literal(-4)))
        CFI (cfiCond43) ?BRET_EXT load(1, XDATA, add(CFA_XSP16, literal(-3)))
        CFI (cfiCond43) DPL0 load(1, XDATA, add(CFA_XSP16, literal(-2)))
        CFI (cfiCond43) DPH0 load(1, XDATA, add(CFA_XSP16, literal(-1)))
        CFI (cfiCond43) CFA_SP SP+0
        CFI (cfiCond43) CFA_XSP16 add(XSP16, 34)
        CFI Block cfiCond44 Using cfiCommon0
        CFI (cfiCond44) NoFunction
        CFI (cfiCond44) Conditional ??CrossCallReturnLabel_18
        CFI (cfiCond44) R6 load(1, XDATA, add(CFA_XSP16, literal(-18)))
        CFI (cfiCond44) VB load(1, XDATA, add(CFA_XSP16, literal(-17)))
        CFI (cfiCond44) V0 load(1, XDATA, add(CFA_XSP16, literal(-16)))
        CFI (cfiCond44) V1 load(1, XDATA, add(CFA_XSP16, literal(-15)))
        CFI (cfiCond44) V2 load(1, XDATA, add(CFA_XSP16, literal(-14)))
        CFI (cfiCond44) V3 load(1, XDATA, add(CFA_XSP16, literal(-13)))
        CFI (cfiCond44) V4 load(1, XDATA, add(CFA_XSP16, literal(-12)))
        CFI (cfiCond44) V5 load(1, XDATA, add(CFA_XSP16, literal(-11)))
        CFI (cfiCond44) V6 load(1, XDATA, add(CFA_XSP16, literal(-10)))
        CFI (cfiCond44) V7 load(1, XDATA, add(CFA_XSP16, literal(-9)))
        CFI (cfiCond44) V8 load(1, XDATA, add(CFA_XSP16, literal(-8)))
        CFI (cfiCond44) V9 load(1, XDATA, add(CFA_XSP16, literal(-7)))
        CFI (cfiCond44) R7 load(1, XDATA, add(CFA_XSP16, literal(-6)))
        CFI (cfiCond44) ?RET_LOW load(1, XDATA, add(CFA_XSP16, literal(-5)))
        CFI (cfiCond44) ?RET_HIGH load(1, XDATA, add(CFA_XSP16, literal(-4)))
        CFI (cfiCond44) ?BRET_EXT load(1, XDATA, add(CFA_XSP16, literal(-3)))
        CFI (cfiCond44) DPL0 load(1, XDATA, add(CFA_XSP16, literal(-2)))
        CFI (cfiCond44) DPH0 load(1, XDATA, add(CFA_XSP16, literal(-1)))
        CFI (cfiCond44) CFA_SP SP+0
        CFI (cfiCond44) CFA_XSP16 add(XSP16, 45)
        CFI Block cfiCond45 Using cfiCommon0
        CFI (cfiCond45) NoFunction
        CFI (cfiCond45) Conditional ??CrossCallReturnLabel_19
        CFI (cfiCond45) R6 load(1, XDATA, add(CFA_XSP16, literal(-18)))
        CFI (cfiCond45) VB load(1, XDATA, add(CFA_XSP16, literal(-17)))
        CFI (cfiCond45) V0 load(1, XDATA, add(CFA_XSP16, literal(-16)))
        CFI (cfiCond45) V1 load(1, XDATA, add(CFA_XSP16, literal(-15)))
        CFI (cfiCond45) V2 load(1, XDATA, add(CFA_XSP16, literal(-14)))
        CFI (cfiCond45) V3 load(1, XDATA, add(CFA_XSP16, literal(-13)))
        CFI (cfiCond45) V4 load(1, XDATA, add(CFA_XSP16, literal(-12)))
        CFI (cfiCond45) V5 load(1, XDATA, add(CFA_XSP16, literal(-11)))
        CFI (cfiCond45) V6 load(1, XDATA, add(CFA_XSP16, literal(-10)))
        CFI (cfiCond45) V7 load(1, XDATA, add(CFA_XSP16, literal(-9)))
        CFI (cfiCond45) V8 load(1, XDATA, add(CFA_XSP16, literal(-8)))
        CFI (cfiCond45) V9 load(1, XDATA, add(CFA_XSP16, literal(-7)))
        CFI (cfiCond45) R7 load(1, XDATA, add(CFA_XSP16, literal(-6)))
        CFI (cfiCond45) ?RET_LOW load(1, XDATA, add(CFA_XSP16, literal(-5)))
        CFI (cfiCond45) ?RET_HIGH load(1, XDATA, add(CFA_XSP16, literal(-4)))
        CFI (cfiCond45) ?BRET_EXT load(1, XDATA, add(CFA_XSP16, literal(-3)))
        CFI (cfiCond45) DPL0 load(1, XDATA, add(CFA_XSP16, literal(-2)))
        CFI (cfiCond45) DPH0 load(1, XDATA, add(CFA_XSP16, literal(-1)))
        CFI (cfiCond45) CFA_SP SP+0
        CFI (cfiCond45) CFA_XSP16 add(XSP16, 45)
        CFI Block cfiPicker46 Using cfiCommon1
        CFI (cfiPicker46) NoFunction
        CFI (cfiPicker46) Picker
        LCALL   ??_ltoa?relay
        MOV     A,#0x2
        RET
        CFI EndBlock cfiCond41
        CFI EndBlock cfiCond42
        CFI EndBlock cfiCond43
        CFI EndBlock cfiCond44
        CFI EndBlock cfiCond45
        CFI EndBlock cfiPicker46
//  761 
//  762 
//  763 #if (HAL_LCD == TRUE)
//  764 /**************************************************************************************************
//  765  *                                    HARDWARE LCD
//  766  **************************************************************************************************/
//  767 
//  768 /*******************************************************************************
//  769  * @fn      initLcd
//  770  *
//  771  * @brief   Initilize HW LCD Driver.
//  772  *
//  773  * @param   None
//  774  *
//  775  * @return  None
//  776  ******************************************************************************/

        RSEG BANKED_CODE:CODE:NOROOT(0)
//  777 void initLcd(void)
initLcd:
        CFI Block cfiBlock47 Using cfiCommon0
        CFI Function initLcd
//  778 {
        FUNCALL initLcd, lcdCommand
        LOCFRAME ISTACK, 2, STACK
        LOCFRAME PSTACK, 0, STACK
        LOCFRAME XSTACK, 0, STACK
        LOCFRAME IOVERLAY, 0, STATIC
        LOCFRAME DOVERLAY, 0, STATIC
        ARGFRAME ISTACK, 2, STACK
        ARGFRAME PSTACK, 0, STACK
        ARGFRAME XSTACK, 0, STACK
        ARGFRAME IOVERLAY, 0, STATIC
        ARGFRAME DOVERLAY, 0, STATIC
        FUNCALL initLcd, lcbWait
        LOCFRAME ISTACK, 2, STACK
        LOCFRAME PSTACK, 0, STACK
        LOCFRAME XSTACK, 0, STACK
        LOCFRAME IOVERLAY, 0, STATIC
        LOCFRAME DOVERLAY, 0, STATIC
        ARGFRAME ISTACK, 2, STACK
        ARGFRAME PSTACK, 0, STACK
        ARGFRAME XSTACK, 0, STACK
        ARGFRAME IOVERLAY, 0, STATIC
        ARGFRAME DOVERLAY, 0, STATIC
        FUNCALL initLcd, lcdCommand
        LOCFRAME ISTACK, 2, STACK
        LOCFRAME PSTACK, 0, STACK
        LOCFRAME XSTACK, 0, STACK
        LOCFRAME IOVERLAY, 0, STATIC
        LOCFRAME DOVERLAY, 0, STATIC
        ARGFRAME ISTACK, 2, STACK
        ARGFRAME PSTACK, 0, STACK
        ARGFRAME XSTACK, 0, STACK
        ARGFRAME IOVERLAY, 0, STATIC
        ARGFRAME DOVERLAY, 0, STATIC
        FUNCALL initLcd, lcbWait
        LOCFRAME ISTACK, 2, STACK
        LOCFRAME PSTACK, 0, STACK
        LOCFRAME XSTACK, 0, STACK
        LOCFRAME IOVERLAY, 0, STATIC
        LOCFRAME DOVERLAY, 0, STATIC
        ARGFRAME ISTACK, 2, STACK
        ARGFRAME PSTACK, 0, STACK
        ARGFRAME XSTACK, 0, STACK
        ARGFRAME IOVERLAY, 0, STATIC
        ARGFRAME DOVERLAY, 0, STATIC
        FUNCALL initLcd, lcdCommand
        LOCFRAME ISTACK, 2, STACK
        LOCFRAME PSTACK, 0, STACK
        LOCFRAME XSTACK, 0, STACK
        LOCFRAME IOVERLAY, 0, STATIC
        LOCFRAME DOVERLAY, 0, STATIC
        ARGFRAME ISTACK, 2, STACK
        ARGFRAME PSTACK, 0, STACK
        ARGFRAME XSTACK, 0, STACK
        ARGFRAME IOVERLAY, 0, STATIC
        ARGFRAME DOVERLAY, 0, STATIC
        FUNCALL initLcd, lcdCommand
        LOCFRAME ISTACK, 2, STACK
        LOCFRAME PSTACK, 0, STACK
        LOCFRAME XSTACK, 0, STACK
        LOCFRAME IOVERLAY, 0, STATIC
        LOCFRAME DOVERLAY, 0, STATIC
        ARGFRAME ISTACK, 2, STACK
        ARGFRAME PSTACK, 0, STACK
        ARGFRAME XSTACK, 0, STACK
        ARGFRAME IOVERLAY, 0, STATIC
        ARGFRAME DOVERLAY, 0, STATIC
        FUNCALL initLcd, lcdCommand
        LOCFRAME ISTACK, 2, STACK
        LOCFRAME PSTACK, 0, STACK
        LOCFRAME XSTACK, 0, STACK
        LOCFRAME IOVERLAY, 0, STATIC
        LOCFRAME DOVERLAY, 0, STATIC
        ARGFRAME ISTACK, 2, STACK
        ARGFRAME PSTACK, 0, STACK
        ARGFRAME XSTACK, 0, STACK
        ARGFRAME IOVERLAY, 0, STATIC
        ARGFRAME DOVERLAY, 0, STATIC
        FUNCALL initLcd, lcdCommand
        LOCFRAME ISTACK, 2, STACK
        LOCFRAME PSTACK, 0, STACK
        LOCFRAME XSTACK, 0, STACK
        LOCFRAME IOVERLAY, 0, STATIC
        LOCFRAME DOVERLAY, 0, STATIC
        ARGFRAME ISTACK, 2, STACK
        ARGFRAME PSTACK, 0, STACK
        ARGFRAME XSTACK, 0, STACK
        ARGFRAME IOVERLAY, 0, STATIC
        ARGFRAME DOVERLAY, 0, STATIC
        FUNCALL initLcd, lcdCommand
        LOCFRAME ISTACK, 2, STACK
        LOCFRAME PSTACK, 0, STACK
        LOCFRAME XSTACK, 0, STACK
        LOCFRAME IOVERLAY, 0, STATIC
        LOCFRAME DOVERLAY, 0, STATIC
        ARGFRAME ISTACK, 2, STACK
        ARGFRAME PSTACK, 0, STACK
        ARGFRAME XSTACK, 0, STACK
        ARGFRAME IOVERLAY, 0, STATIC
        ARGFRAME DOVERLAY, 0, STATIC
        FUNCALL initLcd, lcdCommand
        LOCFRAME ISTACK, 2, STACK
        LOCFRAME PSTACK, 0, STACK
        LOCFRAME XSTACK, 0, STACK
        LOCFRAME IOVERLAY, 0, STATIC
        LOCFRAME DOVERLAY, 0, STATIC
        ARGFRAME ISTACK, 2, STACK
        ARGFRAME PSTACK, 0, STACK
        ARGFRAME XSTACK, 0, STACK
        ARGFRAME IOVERLAY, 0, STATIC
        ARGFRAME DOVERLAY, 0, STATIC
        FUNCALL initLcd, lcdCommand
        LOCFRAME ISTACK, 2, STACK
        LOCFRAME PSTACK, 0, STACK
        LOCFRAME XSTACK, 0, STACK
        LOCFRAME IOVERLAY, 0, STATIC
        LOCFRAME DOVERLAY, 0, STATIC
        ARGFRAME ISTACK, 2, STACK
        ARGFRAME PSTACK, 0, STACK
        ARGFRAME XSTACK, 0, STACK
        ARGFRAME IOVERLAY, 0, STATIC
        ARGFRAME DOVERLAY, 0, STATIC
        FUNCALL initLcd, lcdCommand
        LOCFRAME ISTACK, 2, STACK
        LOCFRAME PSTACK, 0, STACK
        LOCFRAME XSTACK, 0, STACK
        LOCFRAME IOVERLAY, 0, STATIC
        LOCFRAME DOVERLAY, 0, STATIC
        ARGFRAME ISTACK, 2, STACK
        ARGFRAME PSTACK, 0, STACK
        ARGFRAME XSTACK, 0, STACK
        ARGFRAME IOVERLAY, 0, STATIC
        ARGFRAME DOVERLAY, 0, STATIC
        FUNCALL initLcd, lcdCommand
        LOCFRAME ISTACK, 2, STACK
        LOCFRAME PSTACK, 0, STACK
        LOCFRAME XSTACK, 0, STACK
        LOCFRAME IOVERLAY, 0, STATIC
        LOCFRAME DOVERLAY, 0, STATIC
        ARGFRAME ISTACK, 2, STACK
        ARGFRAME PSTACK, 0, STACK
        ARGFRAME XSTACK, 0, STACK
        ARGFRAME IOVERLAY, 0, STATIC
        ARGFRAME DOVERLAY, 0, STATIC
        FUNCALL initLcd, lcdCommand
        LOCFRAME ISTACK, 2, STACK
        LOCFRAME PSTACK, 0, STACK
        LOCFRAME XSTACK, 0, STACK
        LOCFRAME IOVERLAY, 0, STATIC
        LOCFRAME DOVERLAY, 0, STATIC
        ARGFRAME ISTACK, 2, STACK
        ARGFRAME PSTACK, 0, STACK
        ARGFRAME XSTACK, 0, STACK
        ARGFRAME IOVERLAY, 0, STATIC
        ARGFRAME DOVERLAY, 0, STATIC
        FUNCALL initLcd, lcdCommand
        LOCFRAME ISTACK, 2, STACK
        LOCFRAME PSTACK, 0, STACK
        LOCFRAME XSTACK, 0, STACK
        LOCFRAME IOVERLAY, 0, STATIC
        LOCFRAME DOVERLAY, 0, STATIC
        ARGFRAME ISTACK, 2, STACK
        ARGFRAME PSTACK, 0, STACK
        ARGFRAME XSTACK, 0, STACK
        ARGFRAME IOVERLAY, 0, STATIC
        ARGFRAME DOVERLAY, 0, STATIC
        FUNCALL initLcd, lcbWait
        LOCFRAME ISTACK, 2, STACK
        LOCFRAME PSTACK, 0, STACK
        LOCFRAME XSTACK, 0, STACK
        LOCFRAME IOVERLAY, 0, STATIC
        LOCFRAME DOVERLAY, 0, STATIC
        ARGFRAME ISTACK, 2, STACK
        ARGFRAME PSTACK, 0, STACK
        ARGFRAME XSTACK, 0, STACK
        ARGFRAME IOVERLAY, 0, STATIC
        ARGFRAME DOVERLAY, 0, STATIC
        FUNCALL initLcd, HalLcd_HW_Clear
        LOCFRAME ISTACK, 2, STACK
        LOCFRAME PSTACK, 0, STACK
        LOCFRAME XSTACK, 0, STACK
        LOCFRAME IOVERLAY, 0, STATIC
        LOCFRAME DOVERLAY, 0, STATIC
        ARGFRAME ISTACK, 2, STACK
        ARGFRAME PSTACK, 0, STACK
        ARGFRAME XSTACK, 0, STACK
        ARGFRAME IOVERLAY, 0, STATIC
        ARGFRAME DOVERLAY, 0, STATIC
        PUSH    DPL
        CFI DPL0 Frame(CFA_SP, 4)
        CFI CFA_SP SP+-4
        PUSH    DPH
        CFI DPH0 Frame(CFA_SP, 5)
        CFI CFA_SP SP+-5
        ; Saved register size: 2
        ; Auto size: 0
//  779   LCD_CS_DDR |= LCD_CS_BV; 
        ORL     0xff,#0x1
//  780   LCD_A0_DDR |= LCD_A0_BV; 
        ORL     0xfe,#0x1
//  781   LCD_SCL_DDR |= LCD_SCL_BV; 
        ORL     0xfe,#0x2
//  782   LCD_SI_DDR |= LCD_SI_BV; 
        ORL     0xfe,#0x4
//  783     
//  784   lcdCommand(0xE2);                 //Reset Function
        ; Setup parameters for call to function lcdCommand
        MOV     R1,#-0x1e
        LCALL   ?Subroutine4 & 0xFFFF
//  785   lcbWait(2000);
//  786   lcdCommand(0x2F);                 //Set Power Control
??CrossCallReturnLabel_3:
        ; Setup parameters for call to function lcdCommand
        MOV     R1,#0x2f
        LCALL   ?Subroutine4 & 0xFFFF
//  787   lcbWait(2000);
//  788 
//  789   lcdCommand(0xF8);                 //Set BOOSTER RATIO SET 1
??CrossCallReturnLabel_4:
        ; Setup parameters for call to function lcdCommand
        MOV     R1,#-0x8
        LCALL   ??lcdCommand?relay
//  790   lcdCommand(0x01);                 //Set BOOSTER RATIO SET 2 (5X)
        ; Setup parameters for call to function lcdCommand
        MOV     R1,#0x1
        LCALL   ??lcdCommand?relay
//  791 
//  792   lcdCommand(0xA3);                 //Set 1/7 Bias
        ; Setup parameters for call to function lcdCommand
        MOV     R1,#-0x5d
        LCALL   ??lcdCommand?relay
//  793   lcdCommand(0x26);                 //Set V5 Ratio
        ; Setup parameters for call to function lcdCommand
        MOV     R1,#0x26
        LCALL   ??lcdCommand?relay
//  794   lcdCommand(0x81);                 //Set Electronic Mode
        ; Setup parameters for call to function lcdCommand
        MOV     R1,#-0x7f
        LCALL   ??lcdCommand?relay
//  795   lcdCommand(0x20);                 //Set Electronic EQUister 
        ; Setup parameters for call to function lcdCommand
        MOV     R1,#0x20
        LCALL   ??lcdCommand?relay
//  796 
//  797   lcdCommand(0xC0);                 //COM output -> 0xC0:normal;0xC8:reverse
        ; Setup parameters for call to function lcdCommand
        MOV     R1,#-0x40
        LCALL   ??lcdCommand?relay
//  798   lcdCommand(0xA1);                 //SEG output -> 0xA0:normal;0xA1:reverse
        ; Setup parameters for call to function lcdCommand
        MOV     R1,#-0x5f
        LCALL   ??lcdCommand?relay
//  799   lcdCommand(0xA6);                 //LCD display -> 0xA6:normal;0xA7:reverse
        ; Setup parameters for call to function lcdCommand
        MOV     R1,#-0x5a
        LCALL   ??lcdCommand?relay
//  800   lcdCommand(0xAF);                 //LCD display -> 0xAF:on;0xAE:off
        ; Setup parameters for call to function lcdCommand
        MOV     R1,#-0x51
        LCALL   ??lcdCommand?relay
//  801 
//  802   lcdCommand(0x40);                 //Start Line
        ; Setup parameters for call to function lcdCommand
        MOV     R1,#0x40
        LCALL   ?Subroutine4 & 0xFFFF
//  803   lcbWait(2000);
//  804 
//  805   HalLcd_HW_Clear();
??CrossCallReturnLabel_5:
        ; Setup parameters for call to function HalLcd_HW_Clear
        LCALL   ??HalLcd_HW_Clear?relay
//  806 }
        LJMP    ?Subroutine7 & 0xFFFF
        CFI EndBlock cfiBlock47
        REQUIRE P1DIR
        REQUIRE P2DIR

        RSEG BANKED_CODE:CODE:NOROOT(0)
?Subroutine4:
        CFI Block cfiCond48 Using cfiCommon0
        CFI NoFunction
        CFI Conditional ??CrossCallReturnLabel_3
        CFI DPL0 Frame(CFA_SP, 4)
        CFI DPH0 Frame(CFA_SP, 5)
        CFI CFA_SP SP+-5
        CFI Block cfiCond49 Using cfiCommon0
        CFI (cfiCond49) NoFunction
        CFI (cfiCond49) Conditional ??CrossCallReturnLabel_4
        CFI (cfiCond49) DPL0 Frame(CFA_SP, 4)
        CFI (cfiCond49) DPH0 Frame(CFA_SP, 5)
        CFI (cfiCond49) CFA_SP SP+-5
        CFI Block cfiCond50 Using cfiCommon0
        CFI (cfiCond50) NoFunction
        CFI (cfiCond50) Conditional ??CrossCallReturnLabel_5
        CFI (cfiCond50) DPL0 Frame(CFA_SP, 4)
        CFI (cfiCond50) DPH0 Frame(CFA_SP, 5)
        CFI (cfiCond50) CFA_SP SP+-5
        CFI Block cfiPicker51 Using cfiCommon1
        CFI (cfiPicker51) NoFunction
        CFI (cfiPicker51) Picker
        LCALL   ??lcdCommand?relay
        ; Setup parameters for call to function lcbWait
        ; Setup parameters for call to function lcbWait
        ; Setup parameters for call to function lcbWait
        MOV     R2,#-0x30
        MOV     R3,#0x7
        LCALL   ??lcbWait?relay
        RET
        CFI EndBlock cfiCond48
        CFI EndBlock cfiCond49
        CFI EndBlock cfiCond50
        CFI EndBlock cfiPicker51
//  807 
//  808 /*******************************************************************************
//  809  * @fn      HalLcd_HW_Control
//  810  *
//  811  * @brief   Write 1 command to the LCD
//  812  *
//  813  * @param   uint8 cmd - command to be written to the LCD
//  814  *
//  815  * @return  None
//  816  ******************************************************************************/
//  817 //-------------------------------------------------------------------
//  818 // @fn          lcdCommand
//  819 // @brief       Send command to display
//  820 // @param       uint8 command
//  821 // @return      none
//  822 //-------------------------------------------------------------------

        RSEG BANKED_CODE:CODE:NOROOT(0)
//  823 static void lcdCommand(uint8 command)
lcdCommand:
        CFI Block cfiBlock52 Using cfiCommon0
        CFI Function lcdCommand
//  824 {
        PUSH    ?V0 + 0
        CFI V0 Frame(CFA_SP, 4)
        CFI CFA_SP SP+-4
        PUSH    ?V0 + 1
        CFI V1 Frame(CFA_SP, 5)
        CFI CFA_SP SP+-5
        ; Saved register size: 2
        ; Auto size: 0
//  825     uint8 i;
//  826     HAL_LCD_A0_CLR();
        CLR     0x90.0
//  827     HAL_LCD_CS_CLR();
        CLR     0xa0.0
//  828     for(i=0;i<8;i++)
        MOV     R2,#0x0
//  829     {
//  830         if(command&(0x80>>i))
??lcdCommand_0:
        MOV     ?V0 + 0,#-0x80
        MOV     ?V0 + 1,#0x0
        MOV     A,R2
        MOV     R0,#?V0 + 0
        LCALL   ?SS_SHR
        MOV     A,?V0 + 0
        ANL     A,R1
        JZ      ??lcdCommand_1
//  831         {
//  832             HAL_LCD_SI_SET();
        SETB    0x90.2
        SJMP    ??lcdCommand_2
//  833         }
//  834         else
//  835         {
//  836             HAL_LCD_SI_CLR();
??lcdCommand_1:
        CLR     0x90.2
//  837         }
//  838         HAL_LCD_SCL_CLR();
??lcdCommand_2:
        CLR     0x90.1
//  839         HAL_LCD_SCL_SET();
        SETB    0x90.1
//  840     }
        INC     R2
        MOV     A,R2
        CLR     C
        SUBB    A,#0x8
        JC      ??lcdCommand_0
        CFI EndBlock cfiBlock52
//  841     HAL_LCD_CS_SET();
        REQUIRE ?Subroutine6
        REQUIRE _A_P1
        REQUIRE _A_P2
        ; // Fall through to label ?Subroutine6
//  842     HAL_LCD_SI_SET();
//  843 }

        RSEG BANKED_CODE:CODE:NOROOT(0)
?Subroutine6:
        CFI Block cfiBlock53 Using cfiCommon0
        CFI NoFunction
        CFI CFA_SP SP+-5
        CFI V0 Frame(CFA_SP, 4)
        CFI V1 Frame(CFA_SP, 5)
        SETB    0xa0.0
        SETB    0x90.2
        POP     ?V0 + 1
        CFI CFA_SP SP+-4
        CFI V1 SameValue
        POP     ?V0 + 0
        CFI CFA_SP SP+-3
        CFI V0 SameValue
        LJMP    ?BRET
        CFI EndBlock cfiBlock53
//  844 
//  845 /*******************************************************************************
//  846  * @fn      HalLcd_HW_Write
//  847  *
//  848  * @brief   Write 1 byte to the LCD
//  849  *
//  850  * @param   uint8 data - data to be written to the LCD
//  851  *
//  852  * @return  None
//  853  ******************************************************************************/
//  854 //-------------------------------------------------------------------
//  855 // @fn          lcdData
//  856 // @brief       Write character to display
//  857 // @param       uint8 ch - character to display
//  858 // @return      none
//  859 //-------------------------------------------------------------------

        RSEG BANKED_CODE:CODE:NOROOT(0)
//  860 static void lcdData(uint8 ch)
lcdData:
        CFI Block cfiBlock54 Using cfiCommon0
        CFI Function lcdData
//  861 {
        PUSH    ?V0 + 0
        CFI V0 Frame(CFA_SP, 4)
        CFI CFA_SP SP+-4
        PUSH    ?V0 + 1
        CFI V1 Frame(CFA_SP, 5)
        CFI CFA_SP SP+-5
        ; Saved register size: 2
        ; Auto size: 0
//  862     uint8 i;
//  863     HAL_LCD_A0_SET();
        SETB    0x90.0
//  864     HAL_LCD_CS_CLR();
        CLR     0xa0.0
//  865     for(i=0;i<8;i++)
        MOV     R2,#0x0
//  866     {
//  867         if(ch&(0x80>>i))
??lcdData_0:
        MOV     ?V0 + 0,#-0x80
        MOV     ?V0 + 1,#0x0
        MOV     A,R2
        MOV     R0,#?V0 + 0
        LCALL   ?SS_SHR
        MOV     A,?V0 + 0
        ANL     A,R1
        JZ      ??lcdData_1
//  868         {
//  869             HAL_LCD_SI_SET();
        SETB    0x90.2
        SJMP    ??lcdData_2
//  870         }
//  871         else
//  872         {
//  873             HAL_LCD_SI_CLR();
??lcdData_1:
        CLR     0x90.2
//  874         }
//  875         HAL_LCD_SCL_CLR();
??lcdData_2:
        CLR     0x90.1
//  876         HAL_LCD_SCL_SET();
        SETB    0x90.1
//  877     }
        INC     R2
        MOV     A,R2
        CLR     C
        SUBB    A,#0x8
        JC      ??lcdData_0
//  878     HAL_LCD_CS_SET();
        SJMP    ?Subroutine6
        CFI EndBlock cfiBlock54
        REQUIRE _A_P1
        REQUIRE _A_P2
//  879     HAL_LCD_SI_SET();
//  880 }
//  881 
//  882 /**************************************************************************************************
//  883  * @fn          HalLcd_HW_SetContrast
//  884  *
//  885  * @brief       Set display contrast
//  886  *
//  887  * @param       uint8 value - contrast value
//  888  *
//  889  * @return      none
//  890  **************************************************************************************************/

        RSEG BANKED_CODE:CODE:NOROOT(0)
//  891 void HalLcd_HW_SetContrast(uint8 value)
HalLcd_HW_SetContrast:
        CFI Block cfiBlock55 Using cfiCommon0
        CFI Function HalLcd_HW_SetContrast
//  892 {
        FUNCALL HalLcd_HW_SetContrast, lcdCommand
        LOCFRAME ISTACK, 0, STACK
        LOCFRAME PSTACK, 0, STACK
        LOCFRAME XSTACK, 9, STACK
        LOCFRAME IOVERLAY, 0, STATIC
        LOCFRAME DOVERLAY, 0, STATIC
        ARGFRAME ISTACK, 0, STACK
        ARGFRAME PSTACK, 0, STACK
        ARGFRAME XSTACK, 9, STACK
        ARGFRAME IOVERLAY, 0, STATIC
        ARGFRAME DOVERLAY, 0, STATIC
        FUNCALL HalLcd_HW_SetContrast, lcdData
        LOCFRAME ISTACK, 0, STACK
        LOCFRAME PSTACK, 0, STACK
        LOCFRAME XSTACK, 9, STACK
        LOCFRAME IOVERLAY, 0, STATIC
        LOCFRAME DOVERLAY, 0, STATIC
        ARGFRAME ISTACK, 0, STACK
        ARGFRAME PSTACK, 0, STACK
        ARGFRAME XSTACK, 9, STACK
        ARGFRAME IOVERLAY, 0, STATIC
        ARGFRAME DOVERLAY, 0, STATIC
        MOV     A,#-0x9
        LCALL   ?BANKED_ENTER_XDATA
        CFI DPH0 load(1, XDATA, add(CFA_XSP16, literal(-1)))
        CFI DPL0 load(1, XDATA, add(CFA_XSP16, literal(-2)))
        CFI ?BRET_EXT load(1, XDATA, add(CFA_XSP16, literal(-3)))
        CFI ?RET_HIGH load(1, XDATA, add(CFA_XSP16, literal(-4)))
        CFI ?RET_LOW load(1, XDATA, add(CFA_XSP16, literal(-5)))
        CFI R7 load(1, XDATA, add(CFA_XSP16, literal(-6)))
        CFI V0 load(1, XDATA, add(CFA_XSP16, literal(-7)))
        CFI VB load(1, XDATA, add(CFA_XSP16, literal(-8)))
        CFI R6 load(1, XDATA, add(CFA_XSP16, literal(-9)))
        CFI CFA_SP SP+0
        CFI CFA_XSP16 add(XSP16, 9)
        ; Saved register size: 9
        ; Auto size: 0
        MOV     A,R1
        MOV     R6,A
//  893   SET_ICONRAM_ADDR(CONTRAST_CTRL_REGISTER);
        ; Setup parameters for call to function lcdCommand
        MOV     R1,#0x50
        LCALL   ??lcdCommand?relay
//  894   lcdData(value);
        ; Setup parameters for call to function lcdData
        MOV     A,R6
        MOV     R1,A
        LCALL   ??lcdData?relay
//  895 }
        SJMP    ?Subroutine8
        CFI EndBlock cfiBlock55
//  896 
//  897 /*******************************************************************************
//  898  * @fn      HalLcd_HW_Clear
//  899  *
//  900  * @brief   Clear the HW LCD
//  901  *
//  902  * @param   None
//  903  *
//  904  * @return  None
//  905  ******************************************************************************/

        RSEG BANKED_CODE:CODE:NOROOT(0)
//  906 void HalLcd_HW_Clear(void)
HalLcd_HW_Clear:
        CFI Block cfiBlock56 Using cfiCommon0
        CFI Function HalLcd_HW_Clear
//  907 {
        FUNCALL HalLcd_HW_Clear, lcdCommand
        LOCFRAME ISTACK, 0, STACK
        LOCFRAME PSTACK, 0, STACK
        LOCFRAME XSTACK, 9, STACK
        LOCFRAME IOVERLAY, 0, STATIC
        LOCFRAME DOVERLAY, 0, STATIC
        ARGFRAME ISTACK, 0, STACK
        ARGFRAME PSTACK, 0, STACK
        ARGFRAME XSTACK, 9, STACK
        ARGFRAME IOVERLAY, 0, STATIC
        ARGFRAME DOVERLAY, 0, STATIC
        FUNCALL HalLcd_HW_Clear, lcdCommand
        LOCFRAME ISTACK, 0, STACK
        LOCFRAME PSTACK, 0, STACK
        LOCFRAME XSTACK, 9, STACK
        LOCFRAME IOVERLAY, 0, STATIC
        LOCFRAME DOVERLAY, 0, STATIC
        ARGFRAME ISTACK, 0, STACK
        ARGFRAME PSTACK, 0, STACK
        ARGFRAME XSTACK, 9, STACK
        ARGFRAME IOVERLAY, 0, STATIC
        ARGFRAME DOVERLAY, 0, STATIC
        FUNCALL HalLcd_HW_Clear, lcdCommand
        LOCFRAME ISTACK, 0, STACK
        LOCFRAME PSTACK, 0, STACK
        LOCFRAME XSTACK, 9, STACK
        LOCFRAME IOVERLAY, 0, STATIC
        LOCFRAME DOVERLAY, 0, STATIC
        ARGFRAME ISTACK, 0, STACK
        ARGFRAME PSTACK, 0, STACK
        ARGFRAME XSTACK, 9, STACK
        ARGFRAME IOVERLAY, 0, STATIC
        ARGFRAME DOVERLAY, 0, STATIC
        FUNCALL HalLcd_HW_Clear, lcdData
        LOCFRAME ISTACK, 0, STACK
        LOCFRAME PSTACK, 0, STACK
        LOCFRAME XSTACK, 9, STACK
        LOCFRAME IOVERLAY, 0, STATIC
        LOCFRAME DOVERLAY, 0, STATIC
        ARGFRAME ISTACK, 0, STACK
        ARGFRAME PSTACK, 0, STACK
        ARGFRAME XSTACK, 9, STACK
        ARGFRAME IOVERLAY, 0, STATIC
        ARGFRAME DOVERLAY, 0, STATIC
        MOV     A,#-0x9
        LCALL   ?BANKED_ENTER_XDATA
        CFI DPH0 load(1, XDATA, add(CFA_XSP16, literal(-1)))
        CFI DPL0 load(1, XDATA, add(CFA_XSP16, literal(-2)))
        CFI ?BRET_EXT load(1, XDATA, add(CFA_XSP16, literal(-3)))
        CFI ?RET_HIGH load(1, XDATA, add(CFA_XSP16, literal(-4)))
        CFI ?RET_LOW load(1, XDATA, add(CFA_XSP16, literal(-5)))
        CFI R7 load(1, XDATA, add(CFA_XSP16, literal(-6)))
        CFI V0 load(1, XDATA, add(CFA_XSP16, literal(-7)))
        CFI VB load(1, XDATA, add(CFA_XSP16, literal(-8)))
        CFI R6 load(1, XDATA, add(CFA_XSP16, literal(-9)))
        CFI CFA_SP SP+0
        CFI CFA_XSP16 add(XSP16, 9)
        ; Saved register size: 9
        ; Auto size: 0
//  908     uint8 i,j;
//  909     for(i = 0xB0;i<0xB8;i++)
        MOV     R7,#-0x50
//  910     { 
//  911         lcdCommand(i); //¼g­¶¦a§}
??HalLcd_HW_Clear_0:
        ; Setup parameters for call to function lcdCommand
        MOV     A,R7
        MOV     R1,A
        LCALL   ??lcdCommand?relay
//  912         lcdCommand(0x10); //¼gªì©l¦C¦a§}
        ; Setup parameters for call to function lcdCommand
        MOV     R1,#0x10
        LCALL   ??lcdCommand?relay
//  913         lcdCommand(0x04);
        ; Setup parameters for call to function lcdCommand
        MOV     R1,#0x4
        LCALL   ??lcdCommand?relay
//  914         for(j = 0;j<128;j++)
        MOV     R6,#-0x80
//  915         {
//  916             lcdData(0x00); //¼gÅã¥Ü¸ê®Æ
??HalLcd_HW_Clear_1:
        ; Setup parameters for call to function lcdData
        MOV     R1,#0x0
        LCALL   ??lcdData?relay
//  917         }
        DEC     R6
        MOV     A,R6
        JNZ     ??HalLcd_HW_Clear_1
//  918     }
        INC     R7
        MOV     A,R7
        CLR     C
        SUBB    A,#-0x48
        JC      ??HalLcd_HW_Clear_0
        CFI EndBlock cfiBlock56
//  919 }
        REQUIRE ?Subroutine8
        ; // Fall through to label ?Subroutine8

        RSEG BANKED_CODE:CODE:NOROOT(0)
?Subroutine8:
        CFI Block cfiBlock57 Using cfiCommon0
        CFI NoFunction
        CFI CFA_SP SP+0
        CFI CFA_XSP16 add(XSP16, 9)
        CFI VB load(1, XDATA, add(CFA_XSP16, literal(-8)))
        CFI DPL0 load(1, XDATA, add(CFA_XSP16, literal(-2)))
        CFI DPH0 load(1, XDATA, add(CFA_XSP16, literal(-1)))
        CFI R6 load(1, XDATA, add(CFA_XSP16, literal(-9)))
        CFI R7 load(1, XDATA, add(CFA_XSP16, literal(-6)))
        CFI V0 load(1, XDATA, add(CFA_XSP16, literal(-7)))
        CFI ?BRET_EXT load(1, XDATA, add(CFA_XSP16, literal(-3)))
        CFI ?RET_HIGH load(1, XDATA, add(CFA_XSP16, literal(-4)))
        CFI ?RET_LOW load(1, XDATA, add(CFA_XSP16, literal(-5)))
        MOV     R7,#0x1
        LJMP    ?BANKED_LEAVE_XDATA
        CFI EndBlock cfiBlock57
//  920 
//  921 /**************************************************************************************************
//  922  * @fn      HalLcd_HW_ClearAllSpecChars
//  923  *
//  924  * @brief   Clear all special chars
//  925  *
//  926  * @param   None
//  927  *
//  928  * @return  None
//  929  **************************************************************************************************/

        RSEG BANKED_CODE:CODE:NOROOT(0)
//  930 void HalLcd_HW_ClearAllSpecChars(void)
HalLcd_HW_ClearAllSpecChars:
        CFI Block cfiBlock58 Using cfiCommon0
        CFI Function HalLcd_HW_ClearAllSpecChars
//  931 {
        FUNCALL HalLcd_HW_ClearAllSpecChars, lcdCommand
        LOCFRAME ISTACK, 0, STACK
        LOCFRAME PSTACK, 0, STACK
        LOCFRAME XSTACK, 9, STACK
        LOCFRAME IOVERLAY, 0, STATIC
        LOCFRAME DOVERLAY, 0, STATIC
        ARGFRAME ISTACK, 0, STACK
        ARGFRAME PSTACK, 0, STACK
        ARGFRAME XSTACK, 9, STACK
        ARGFRAME IOVERLAY, 0, STATIC
        ARGFRAME DOVERLAY, 0, STATIC
        FUNCALL HalLcd_HW_ClearAllSpecChars, lcdData
        LOCFRAME ISTACK, 0, STACK
        LOCFRAME PSTACK, 0, STACK
        LOCFRAME XSTACK, 9, STACK
        LOCFRAME IOVERLAY, 0, STATIC
        LOCFRAME DOVERLAY, 0, STATIC
        ARGFRAME ISTACK, 0, STACK
        ARGFRAME PSTACK, 0, STACK
        ARGFRAME XSTACK, 9, STACK
        ARGFRAME IOVERLAY, 0, STATIC
        ARGFRAME DOVERLAY, 0, STATIC
        MOV     A,#-0x9
        LCALL   ?BANKED_ENTER_XDATA
        CFI DPH0 load(1, XDATA, add(CFA_XSP16, literal(-1)))
        CFI DPL0 load(1, XDATA, add(CFA_XSP16, literal(-2)))
        CFI ?BRET_EXT load(1, XDATA, add(CFA_XSP16, literal(-3)))
        CFI ?RET_HIGH load(1, XDATA, add(CFA_XSP16, literal(-4)))
        CFI ?RET_LOW load(1, XDATA, add(CFA_XSP16, literal(-5)))
        CFI R7 load(1, XDATA, add(CFA_XSP16, literal(-6)))
        CFI V0 load(1, XDATA, add(CFA_XSP16, literal(-7)))
        CFI VB load(1, XDATA, add(CFA_XSP16, literal(-8)))
        CFI R6 load(1, XDATA, add(CFA_XSP16, literal(-9)))
        CFI CFA_SP SP+0
        CFI CFA_XSP16 add(XSP16, 9)
        ; Saved register size: 9
        ; Auto size: 0
//  932   uint8 n = 0;
//  933 
//  934   SET_GCRAM_CHAR(0);
        ; Setup parameters for call to function lcdCommand
        MOV     R1,#-0x40
        LCALL   ??lcdCommand?relay
//  935   for (n = 0; n < (8 * 8); n++)
        MOV     R6,#0x40
//  936   {
//  937     lcdData(0x00);
??HalLcd_HW_ClearAllSpecChars_0:
        ; Setup parameters for call to function lcdData
        MOV     R1,#0x0
        LCALL   ??lcdData?relay
//  938   }
        DEC     R6
        MOV     A,R6
        JNZ     ??HalLcd_HW_ClearAllSpecChars_0
//  939 }
        SJMP    ?Subroutine8
        CFI EndBlock cfiBlock58
//  940 
//  941 /*******************************************************************************
//  942  * @fn      HalLcd_HW_WriteChar
//  943  *
//  944  * @brief   Write one char to the display
//  945  *
//  946  * @param   uint8 line - line number that the char will be displayed
//  947  *          uint8 col - colum where the char will be displayed
//  948  *
//  949  * @return  None
//  950  ******************************************************************************/
//  951 /************************************************************
//  952  * @fn      HalLcd_HW_WriteChar
//  953 ************************************************************/

        RSEG BANKED_CODE:CODE:NOROOT(0)
//  954 static void lcdUpdateChar( uint8 line, uint8 col, char ch )
lcdUpdateChar:
        CFI Block cfiBlock59 Using cfiCommon0
        CFI Function lcdUpdateChar
//  955 {
        FUNCALL lcdUpdateChar, lcdCommand
        LOCFRAME ISTACK, 0, STACK
        LOCFRAME PSTACK, 0, STACK
        LOCFRAME XSTACK, 13, STACK
        LOCFRAME IOVERLAY, 0, STATIC
        LOCFRAME DOVERLAY, 0, STATIC
        ARGFRAME ISTACK, 0, STACK
        ARGFRAME PSTACK, 0, STACK
        ARGFRAME XSTACK, 13, STACK
        ARGFRAME IOVERLAY, 0, STATIC
        ARGFRAME DOVERLAY, 0, STATIC
        FUNCALL lcdUpdateChar, lcdCommand
        LOCFRAME ISTACK, 0, STACK
        LOCFRAME PSTACK, 0, STACK
        LOCFRAME XSTACK, 13, STACK
        LOCFRAME IOVERLAY, 0, STATIC
        LOCFRAME DOVERLAY, 0, STATIC
        ARGFRAME ISTACK, 0, STACK
        ARGFRAME PSTACK, 0, STACK
        ARGFRAME XSTACK, 13, STACK
        ARGFRAME IOVERLAY, 0, STATIC
        ARGFRAME DOVERLAY, 0, STATIC
        FUNCALL lcdUpdateChar, lcdCommand
        LOCFRAME ISTACK, 0, STACK
        LOCFRAME PSTACK, 0, STACK
        LOCFRAME XSTACK, 13, STACK
        LOCFRAME IOVERLAY, 0, STATIC
        LOCFRAME DOVERLAY, 0, STATIC
        ARGFRAME ISTACK, 0, STACK
        ARGFRAME PSTACK, 0, STACK
        ARGFRAME XSTACK, 13, STACK
        ARGFRAME IOVERLAY, 0, STATIC
        ARGFRAME DOVERLAY, 0, STATIC
        FUNCALL lcdUpdateChar, lcdCommand
        LOCFRAME ISTACK, 0, STACK
        LOCFRAME PSTACK, 0, STACK
        LOCFRAME XSTACK, 13, STACK
        LOCFRAME IOVERLAY, 0, STATIC
        LOCFRAME DOVERLAY, 0, STATIC
        ARGFRAME ISTACK, 0, STACK
        ARGFRAME PSTACK, 0, STACK
        ARGFRAME XSTACK, 13, STACK
        ARGFRAME IOVERLAY, 0, STATIC
        ARGFRAME DOVERLAY, 0, STATIC
        FUNCALL lcdUpdateChar, lcdCommand
        LOCFRAME ISTACK, 0, STACK
        LOCFRAME PSTACK, 0, STACK
        LOCFRAME XSTACK, 13, STACK
        LOCFRAME IOVERLAY, 0, STATIC
        LOCFRAME DOVERLAY, 0, STATIC
        ARGFRAME ISTACK, 0, STACK
        ARGFRAME PSTACK, 0, STACK
        ARGFRAME XSTACK, 13, STACK
        ARGFRAME IOVERLAY, 0, STATIC
        ARGFRAME DOVERLAY, 0, STATIC
        FUNCALL lcdUpdateChar, lcdCommand
        LOCFRAME ISTACK, 0, STACK
        LOCFRAME PSTACK, 0, STACK
        LOCFRAME XSTACK, 13, STACK
        LOCFRAME IOVERLAY, 0, STATIC
        LOCFRAME DOVERLAY, 0, STATIC
        ARGFRAME ISTACK, 0, STACK
        ARGFRAME PSTACK, 0, STACK
        ARGFRAME XSTACK, 13, STACK
        ARGFRAME IOVERLAY, 0, STATIC
        ARGFRAME DOVERLAY, 0, STATIC
        FUNCALL lcdUpdateChar, lcdData
        LOCFRAME ISTACK, 0, STACK
        LOCFRAME PSTACK, 0, STACK
        LOCFRAME XSTACK, 13, STACK
        LOCFRAME IOVERLAY, 0, STATIC
        LOCFRAME DOVERLAY, 0, STATIC
        ARGFRAME ISTACK, 0, STACK
        ARGFRAME PSTACK, 0, STACK
        ARGFRAME XSTACK, 13, STACK
        ARGFRAME IOVERLAY, 0, STATIC
        ARGFRAME DOVERLAY, 0, STATIC
        MOV     A,#-0xd
        LCALL   ?BANKED_ENTER_XDATA
        CFI DPH0 load(1, XDATA, add(CFA_XSP16, literal(-1)))
        CFI DPL0 load(1, XDATA, add(CFA_XSP16, literal(-2)))
        CFI ?BRET_EXT load(1, XDATA, add(CFA_XSP16, literal(-3)))
        CFI ?RET_HIGH load(1, XDATA, add(CFA_XSP16, literal(-4)))
        CFI ?RET_LOW load(1, XDATA, add(CFA_XSP16, literal(-5)))
        CFI R7 load(1, XDATA, add(CFA_XSP16, literal(-6)))
        CFI V4 load(1, XDATA, add(CFA_XSP16, literal(-7)))
        CFI V3 load(1, XDATA, add(CFA_XSP16, literal(-8)))
        CFI V2 load(1, XDATA, add(CFA_XSP16, literal(-9)))
        CFI V1 load(1, XDATA, add(CFA_XSP16, literal(-10)))
        CFI V0 load(1, XDATA, add(CFA_XSP16, literal(-11)))
        CFI VB load(1, XDATA, add(CFA_XSP16, literal(-12)))
        CFI R6 load(1, XDATA, add(CFA_XSP16, literal(-13)))
        CFI CFA_SP SP+0
        CFI CFA_XSP16 add(XSP16, 13)
        ; Saved register size: 13
        ; Auto size: 0
//  956     uint8 i,pag,colh,coll;
//  957 
//  958     pag = ((line-1)*2)+0xB0;
        MOV     A,R1
        CLR     C
        RLC     A
        ADD     A,#-0x52
        MOV     ?V0 + 2,A
//  959     col*=8;
//  960     col+=4;
        MOV     A,R2
        RLC     A
        RLC     A
        RLC     A
        ANL     A,#0xf8
        ADD     A,#0x4
        MOV     R2,A
//  961     colh = col>>4;
//  962     colh = colh | 0xf0;
//  963     colh = colh & 0x1f;
        SWAP    A
        ANL     A,#0xf
        ORL     A,#0x10
        MOV     ?V0 + 3,A
//  964     coll = col & 0x0f;
        MOV     A,#0xf
        ANL     A,R2
        MOV     ?V0 + 4,A
//  965 
//  966     if(ch<32 || ch>127)
        MOV     A,R3
        CLR     C
        SUBB    A,#0x20
        JC      ??lcdUpdateChar_0
        MOV     A,R3
        CLR     C
        SUBB    A,#-0x80
        JC      ??lcdUpdateChar_1
//  967             ch=32;
??lcdUpdateChar_0:
        MOV     R3,#0x20
//  968     uint16 j=((uint16)(ch-32))*16;
??lcdUpdateChar_1:
        MOV     ?V0 + 0,R3
        MOV     A,#-0x20
        ADD     A,?V0 + 0
        MOV     ?V0 + 0,A
        MOV     A,#-0x1
        ADDC    A,#0x0
        MOV     ?V0 + 1,A
        MOV     A,#0x4
        MOV     R0,#?V0 + 0
        LCALL   ?S_SHL
        MOV     R6,?V0 + 0
        MOV     R7,?V0 + 1
//  969 
//  970     lcdCommand(colh);
        ; Setup parameters for call to function lcdCommand
        LCALL   ?Subroutine5 & 0xFFFF
//  971     lcdCommand(coll);
//  972     lcdCommand(pag);
??CrossCallReturnLabel_6:
        ; Setup parameters for call to function lcdCommand
        MOV     R1,?V0 + 2
        LCALL   ??lcdCommand?relay
//  973     for (i=0;i<16;i++)
        MOV     ?V0 + 0,#0x0
        SJMP    ??CrossCallReturnLabel_7
//  974     { 
//  975         if (i == 8)
??lcdUpdateChar_2:
        MOV     A,#0x8
        XRL     A,?V0 + 0
        JNZ     ??CrossCallReturnLabel_7
//  976         { 
//  977             lcdCommand(pag+1);
        ; Setup parameters for call to function lcdCommand
        MOV     A,#0x1
        ADD     A,?V0 + 2
        MOV     R1,A
        LCALL   ??lcdCommand?relay
//  978             lcdCommand(colh);
        ; Setup parameters for call to function lcdCommand
        LCALL   ?Subroutine5 & 0xFFFF
//  979             lcdCommand(coll);
//  980         }
//  981 		lcdData(Font16x8[j++]);
??CrossCallReturnLabel_7:
        ; Setup parameters for call to function lcdData
        MOV     A,R6
        ADD     A,#(Font16x8 & 0xff)
        MOV     DPL,A
        MOV     A,R7
        ADDC    A,#((Font16x8 >> 8) & 0xff)
        MOV     DPH,A
        CLR     A
        MOVC    A,@A+DPTR
        MOV     R1,A
        LCALL   ??lcdData?relay
        MOV     A,R6
        ADD     A,#0x1
        INC     R6
        MOV     A,R7
        ADDC    A,#0x0
        MOV     R7,A
//  982     }
        INC     ?V0 + 0
        MOV     A,?V0 + 0
        CLR     C
        SUBB    A,#0x10
        JC      ??lcdUpdateChar_2
//  983 }
        MOV     R7,#0x5
        LJMP    ?BANKED_LEAVE_XDATA
        CFI EndBlock cfiBlock59

        RSEG BANKED_CODE:CODE:NOROOT(0)
?Subroutine5:
        CFI Block cfiCond60 Using cfiCommon0
        CFI NoFunction
        CFI Conditional ??CrossCallReturnLabel_6
        CFI R6 load(1, XDATA, add(CFA_XSP16, literal(-13)))
        CFI VB load(1, XDATA, add(CFA_XSP16, literal(-12)))
        CFI V0 load(1, XDATA, add(CFA_XSP16, literal(-11)))
        CFI V1 load(1, XDATA, add(CFA_XSP16, literal(-10)))
        CFI V2 load(1, XDATA, add(CFA_XSP16, literal(-9)))
        CFI V3 load(1, XDATA, add(CFA_XSP16, literal(-8)))
        CFI V4 load(1, XDATA, add(CFA_XSP16, literal(-7)))
        CFI R7 load(1, XDATA, add(CFA_XSP16, literal(-6)))
        CFI ?RET_LOW load(1, XDATA, add(CFA_XSP16, literal(-5)))
        CFI ?RET_HIGH load(1, XDATA, add(CFA_XSP16, literal(-4)))
        CFI ?BRET_EXT load(1, XDATA, add(CFA_XSP16, literal(-3)))
        CFI DPL0 load(1, XDATA, add(CFA_XSP16, literal(-2)))
        CFI DPH0 load(1, XDATA, add(CFA_XSP16, literal(-1)))
        CFI CFA_SP SP+0
        CFI CFA_XSP16 add(XSP16, 13)
        CFI Block cfiCond61 Using cfiCommon0
        CFI (cfiCond61) NoFunction
        CFI (cfiCond61) Conditional ??CrossCallReturnLabel_7
        CFI (cfiCond61) R6 load(1, XDATA, add(CFA_XSP16, literal(-13)))
        CFI (cfiCond61) VB load(1, XDATA, add(CFA_XSP16, literal(-12)))
        CFI (cfiCond61) V0 load(1, XDATA, add(CFA_XSP16, literal(-11)))
        CFI (cfiCond61) V1 load(1, XDATA, add(CFA_XSP16, literal(-10)))
        CFI (cfiCond61) V2 load(1, XDATA, add(CFA_XSP16, literal(-9)))
        CFI (cfiCond61) V3 load(1, XDATA, add(CFA_XSP16, literal(-8)))
        CFI (cfiCond61) V4 load(1, XDATA, add(CFA_XSP16, literal(-7)))
        CFI (cfiCond61) R7 load(1, XDATA, add(CFA_XSP16, literal(-6)))
        CFI (cfiCond61) ?RET_LOW load(1, XDATA, add(CFA_XSP16, literal(-5)))
        CFI (cfiCond61) ?RET_HIGH load(1, XDATA, add(CFA_XSP16, literal(-4)))
        CFI (cfiCond61) ?BRET_EXT load(1, XDATA, add(CFA_XSP16, literal(-3)))
        CFI (cfiCond61) DPL0 load(1, XDATA, add(CFA_XSP16, literal(-2)))
        CFI (cfiCond61) DPH0 load(1, XDATA, add(CFA_XSP16, literal(-1)))
        CFI (cfiCond61) CFA_SP SP+0
        CFI (cfiCond61) CFA_XSP16 add(XSP16, 13)
        CFI Block cfiPicker62 Using cfiCommon1
        CFI (cfiPicker62) NoFunction
        CFI (cfiPicker62) Picker
        MOV     R1,?V0 + 3
        LCALL   ??lcdCommand?relay
        ; Setup parameters for call to function lcdCommand
        ; Setup parameters for call to function lcdCommand
        MOV     R1,?V0 + 4
        LCALL   ??lcdCommand?relay
        RET
        CFI EndBlock cfiCond60
        CFI EndBlock cfiCond61
        CFI EndBlock cfiPicker62
//  984 
//  985 /**************************************************************************************************
//  986  * @fn          halLcdWriteLine
//  987  *
//  988  * @brief       Write one line on display
//  989  *
//  990  * @param       uint8 line - display line
//  991  *              char *pText - text buffer to write
//  992  *
//  993  * @return      none
//  994  **************************************************************************************************/

        RSEG BANKED_CODE:CODE:NOROOT(0)
//  995 void HalLcd_HW_WriteLine(uint8 line, const char *pText)
HalLcd_HW_WriteLine:
        CFI Block cfiBlock63 Using cfiCommon0
        CFI Function HalLcd_HW_WriteLine
//  996 {
        FUNCALL HalLcd_HW_WriteLine, osal_strlen
        LOCFRAME ISTACK, 0, STACK
        LOCFRAME PSTACK, 0, STACK
        LOCFRAME XSTACK, 11, STACK
        LOCFRAME IOVERLAY, 0, STATIC
        LOCFRAME DOVERLAY, 0, STATIC
        ARGFRAME ISTACK, 0, STACK
        ARGFRAME PSTACK, 0, STACK
        ARGFRAME XSTACK, 11, STACK
        ARGFRAME IOVERLAY, 0, STATIC
        ARGFRAME DOVERLAY, 0, STATIC
        FUNCALL HalLcd_HW_WriteLine, lcdUpdateChar
        LOCFRAME ISTACK, 0, STACK
        LOCFRAME PSTACK, 0, STACK
        LOCFRAME XSTACK, 11, STACK
        LOCFRAME IOVERLAY, 0, STATIC
        LOCFRAME DOVERLAY, 0, STATIC
        ARGFRAME ISTACK, 0, STACK
        ARGFRAME PSTACK, 0, STACK
        ARGFRAME XSTACK, 11, STACK
        ARGFRAME IOVERLAY, 0, STATIC
        ARGFRAME DOVERLAY, 0, STATIC
        FUNCALL HalLcd_HW_WriteLine, lcdUpdateChar
        LOCFRAME ISTACK, 0, STACK
        LOCFRAME PSTACK, 0, STACK
        LOCFRAME XSTACK, 11, STACK
        LOCFRAME IOVERLAY, 0, STATIC
        LOCFRAME DOVERLAY, 0, STATIC
        ARGFRAME ISTACK, 0, STACK
        ARGFRAME PSTACK, 0, STACK
        ARGFRAME XSTACK, 11, STACK
        ARGFRAME IOVERLAY, 0, STATIC
        ARGFRAME DOVERLAY, 0, STATIC
        MOV     A,#-0xb
        LCALL   ?BANKED_ENTER_XDATA
        CFI DPH0 load(1, XDATA, add(CFA_XSP16, literal(-1)))
        CFI DPL0 load(1, XDATA, add(CFA_XSP16, literal(-2)))
        CFI ?BRET_EXT load(1, XDATA, add(CFA_XSP16, literal(-3)))
        CFI ?RET_HIGH load(1, XDATA, add(CFA_XSP16, literal(-4)))
        CFI ?RET_LOW load(1, XDATA, add(CFA_XSP16, literal(-5)))
        CFI R7 load(1, XDATA, add(CFA_XSP16, literal(-6)))
        CFI V2 load(1, XDATA, add(CFA_XSP16, literal(-7)))
        CFI V1 load(1, XDATA, add(CFA_XSP16, literal(-8)))
        CFI V0 load(1, XDATA, add(CFA_XSP16, literal(-9)))
        CFI VB load(1, XDATA, add(CFA_XSP16, literal(-10)))
        CFI R6 load(1, XDATA, add(CFA_XSP16, literal(-11)))
        CFI CFA_SP SP+0
        CFI CFA_XSP16 add(XSP16, 11)
        ; Saved register size: 11
        ; Auto size: 0
        MOV     ?V0 + 1,R1
        MOV     A,R2
        MOV     R6,A
        MOV     A,R3
        MOV     R7,A
//  997   uint8 count;
//  998   uint8 totalLength = (uint8)osal_strlen( (char *)pText );
        ; Setup parameters for call to function osal_strlen
        LCALL   ??osal_strlen?relay
        MOV     A,R2
        MOV     ?V0 + 2,A
//  999 
// 1000   /* Write the content first */
// 1001   for (count=0; count<totalLength; count++)
        MOV     ?V0 + 0,#0x0
        SJMP    ??HalLcd_HW_WriteLine_0
// 1002   {
// 1003     lcdUpdateChar(line, count, (*(pText++)));
??HalLcd_HW_WriteLine_1:
        ; Setup parameters for call to function lcdUpdateChar
        MOV     DPL,R6
        MOV     DPH,R7
        MOVX    A,@DPTR
        MOV     R3,A
        MOV     R2,?V0 + 0
        MOV     R1,?V0 + 1
        LCALL   ??lcdUpdateChar?relay
        MOV     DPL,R6
        MOV     DPH,R7
        INC     DPTR
        MOV     R6,DPL
        MOV     R7,DPH
// 1004   }
        INC     ?V0 + 0
??HalLcd_HW_WriteLine_0:
        MOV     A,?V0 + 0
        CLR     C
        SUBB    A,?V0 + 2
        JC      ??HalLcd_HW_WriteLine_1
// 1005 
// 1006   /* Write blank spaces to rest of the line */
// 1007   for(count=totalLength; count<LCD_LINE_LENGTH;count++)
        MOV     ?V0 + 0,?V0 + 2
        SJMP    ??HalLcd_HW_WriteLine_2
// 1008   {
// 1009     lcdUpdateChar(line, count, ' ');
??HalLcd_HW_WriteLine_3:
        ; Setup parameters for call to function lcdUpdateChar
        MOV     R3,#0x20
        MOV     R2,?V0 + 0
        MOV     R1,?V0 + 1
        LCALL   ??lcdUpdateChar?relay
// 1010   }
        INC     ?V0 + 0
??HalLcd_HW_WriteLine_2:
        MOV     A,?V0 + 0
        CLR     C
        SUBB    A,#0x10
        JC      ??HalLcd_HW_WriteLine_3
// 1011 }
        MOV     R7,#0x3
        LJMP    ?BANKED_LEAVE_XDATA
        CFI EndBlock cfiBlock63
// 1012 
// 1013 /**************************************************************************************************
// 1014  * @fn      HalLcd_HW_WaitUs
// 1015  *
// 1016  * @brief   wait for x us. @ 32MHz MCU clock it takes 32 "nop"s for 1 us delay.
// 1017  *
// 1018  * @param   x us. range[0-65536]
// 1019  *
// 1020  * @return  None
// 1021  **************************************************************************************************/

        RSEG BANKED_CODE:CODE:NOROOT(0)
// 1022 void HalLcd_HW_WaitUs(uint16 microSecs)
HalLcd_HW_WaitUs:
        CFI Block cfiBlock64 Using cfiCommon0
        CFI Function HalLcd_HW_WaitUs
// 1023 {
        ; Saved register size: 0
        ; Auto size: 0
        SJMP    ??HalLcd_HW_WaitUs_0
// 1024   while(microSecs--)
// 1025   {
// 1026     /* 32 NOPs == 1 usecs */
// 1027     asm("nop"); asm("nop"); asm("nop"); asm("nop"); asm("nop");
??HalLcd_HW_WaitUs_1:
        nop
        nop
        nop
        nop
        nop
// 1028     asm("nop"); asm("nop"); asm("nop"); asm("nop"); asm("nop");
        nop
        nop
        nop
        nop
        nop
// 1029     asm("nop"); asm("nop"); asm("nop"); asm("nop"); asm("nop");
        nop
        nop
        nop
        nop
        nop
// 1030     asm("nop"); asm("nop"); asm("nop"); asm("nop"); asm("nop");
        nop
        nop
        nop
        nop
        nop
// 1031     asm("nop"); asm("nop"); asm("nop"); asm("nop"); asm("nop");
        nop
        nop
        nop
        nop
        nop
// 1032     asm("nop"); asm("nop"); asm("nop"); asm("nop"); asm("nop");
        nop
        nop
        nop
        nop
        nop
// 1033     asm("nop"); asm("nop");
        nop
        nop
// 1034   }
??HalLcd_HW_WaitUs_0:
        MOV     A,R2
        MOV     R0,A
        MOV     A,R3
        MOV     R1,A
        MOV     A,#-0x1
        ADD     A,R0
        DEC     R2
        MOV     A,#-0x1
        ADDC    A,R1
        MOV     R3,A
        MOV     A,R0
        JNZ     ??HalLcd_HW_WaitUs_2
        MOV     A,R1
??HalLcd_HW_WaitUs_2:
        JNZ     ??HalLcd_HW_WaitUs_1
// 1035 }
        LJMP    ?BRET
        CFI EndBlock cfiBlock64
// 1036 //-------------------------------------------------------------------

        RSEG BANKED_CODE:CODE:NOROOT(0)
// 1037 static void lcbWait( uint16 timeout )
lcbWait:
        CFI Block cfiBlock65 Using cfiCommon0
        CFI Function lcbWait
// 1038 {
        ; Saved register size: 0
        ; Auto size: 0
        SJMP    ??lcbWait_0
// 1039   while (timeout--)
// 1040   {
// 1041     asm("NOP");
??lcbWait_1:
        NOP
// 1042     asm("NOP");
        NOP
// 1043     asm("NOP");
        NOP
// 1044   }
??lcbWait_0:
        MOV     A,R2
        MOV     R0,A
        MOV     A,R3
        MOV     R1,A
        MOV     A,#-0x1
        ADD     A,R0
        DEC     R2
        MOV     A,#-0x1
        ADDC    A,R1
        MOV     R3,A
        MOV     A,R0
        JNZ     ??lcbWait_2
        MOV     A,R1
??lcbWait_2:
        JNZ     ??lcbWait_1
// 1045 }
        LJMP    ?BRET
        CFI EndBlock cfiBlock65

        RSEG BANK_RELAYS:CODE:REORDER:NOROOT(0)
??HalLcdInit?relay:
        LCALL   ?BDISPATCH
        DATA
        DC24    HalLcdInit

        RSEG BANK_RELAYS:CODE:REORDER:NOROOT(0)
??HalLcdWriteString?relay:
        LCALL   ?BDISPATCH
        DATA
        DC24    HalLcdWriteString

        RSEG BANK_RELAYS:CODE:REORDER:NOROOT(0)
??HalLcdWriteValue?relay:
        LCALL   ?BDISPATCH
        DATA
        DC24    HalLcdWriteValue

        RSEG BANK_RELAYS:CODE:REORDER:NOROOT(0)
??HalLcdWriteScreen?relay:
        LCALL   ?BDISPATCH
        DATA
        DC24    HalLcdWriteScreen

        RSEG BANK_RELAYS:CODE:REORDER:NOROOT(0)
??HalLcdWriteStringValue?relay:
        LCALL   ?BDISPATCH
        DATA
        DC24    HalLcdWriteStringValue

        RSEG BANK_RELAYS:CODE:REORDER:NOROOT(0)
??HalLcdWriteStringValueValue?relay:
        LCALL   ?BDISPATCH
        DATA
        DC24    HalLcdWriteStringValueValue

        RSEG BANK_RELAYS:CODE:REORDER:NOROOT(0)
??HalLcdDisplayPercentBar?relay:
        LCALL   ?BDISPATCH
        DATA
        DC24    HalLcdDisplayPercentBar

        RSEG BANK_RELAYS:CODE:REORDER:NOROOT(0)
??initLcd?relay:
        LCALL   ?BDISPATCH
        DATA
        DC24    initLcd

        RSEG BANK_RELAYS:CODE:REORDER:NOROOT(0)
??lcdCommand?relay:
        LCALL   ?BDISPATCH
        DATA
        DC24    lcdCommand

        RSEG BANK_RELAYS:CODE:REORDER:NOROOT(0)
??lcdData?relay:
        LCALL   ?BDISPATCH
        DATA
        DC24    lcdData

        RSEG BANK_RELAYS:CODE:REORDER:NOROOT(0)
??HalLcd_HW_SetContrast?relay:
        LCALL   ?BDISPATCH
        DATA
        DC24    HalLcd_HW_SetContrast

        RSEG BANK_RELAYS:CODE:REORDER:NOROOT(0)
??HalLcd_HW_Clear?relay:
        LCALL   ?BDISPATCH
        DATA
        DC24    HalLcd_HW_Clear

        RSEG BANK_RELAYS:CODE:REORDER:NOROOT(0)
??HalLcd_HW_ClearAllSpecChars?relay:
        LCALL   ?BDISPATCH
        DATA
        DC24    HalLcd_HW_ClearAllSpecChars

        RSEG BANK_RELAYS:CODE:REORDER:NOROOT(0)
??lcdUpdateChar?relay:
        LCALL   ?BDISPATCH
        DATA
        DC24    lcdUpdateChar

        RSEG BANK_RELAYS:CODE:REORDER:NOROOT(0)
??HalLcd_HW_WriteLine?relay:
        LCALL   ?BDISPATCH
        DATA
        DC24    HalLcd_HW_WriteLine

        RSEG BANK_RELAYS:CODE:REORDER:NOROOT(0)
??HalLcd_HW_WaitUs?relay:
        LCALL   ?BDISPATCH
        DATA
        DC24    HalLcd_HW_WaitUs

        RSEG BANK_RELAYS:CODE:REORDER:NOROOT(0)
??lcbWait?relay:
        LCALL   ?BDISPATCH
        DATA
        DC24    lcbWait

        RSEG XDATA_ROM_C:CONST:REORDER:NOROOT(0)
        DATA
`?<Constant "[          ]  ">`:
        DB "[          ]  "

        END
// 1046 
// 1047 
// 1048 
// 1049 #endif
// 1050 
// 1051 
// 1052 /**************************************************************************************************
// 1053 **************************************************************************************************/
// 1054 
// 1055 
// 1056 
// 
// 1 525 bytes in segment BANKED_CODE
//   102 bytes in segment BANK_RELAYS
// 1 536 bytes in segment CODE_C
//     4 bytes in segment SFR_AN
//    15 bytes in segment XDATA_ROM_C
//     2 bytes in segment XDATA_Z
// 
// 3 163 bytes of CODE  memory
//    15 bytes of CONST memory
//     0 bytes of DATA  memory (+ 4 bytes shared)
//     2 bytes of XDATA memory
//
//Errors: none
//Warnings: none
