###############################################################################
#                                                                             #
# IAR C/C++ Compiler V7.51A/W32 for 8051                13/Apr/2010  15:14:31 #
# Copyright 2004-2009 IAR Systems AB.                                         #
#                                                                             #
#    Core               =  plain                                              #
#    Code model         =  banked                                             #
#    Data model         =  large                                              #
#    Calling convention =  xdata reentrant                                    #
#    Constant location  =  data_rom                                           #
#    Dptr setup         =  1,16                                               #
#    Source file        =  D:\µ{¦¡¶}µo\TI Zigbee Z-Stack\ZStack-CC2530-2.3.0- #
#                          1.4.0\Projects\zstack\Samples\SampleApp\Source\Sam #
#                          pleApp.c                                           #
#    Command line       =  -f "D:\µ{¦¡¶}µo\TI Zigbee                          #
#                          Z-Stack\ZStack-CC2530-2.3.0-1.4.0\Projects\zstack\ #
#                          Samples\SampleApp\CC2530DB\..\..\..\Tools\CC2530DB #
#                          \f8wRouter.cfg" (-DCPU32MHZ -DROOT=__near_func     #
#                          -DMAC_CFG_APP_PENDING_QUEUE=TRUE -DRTR_NWK         #
#                          -DBLINK_LEDS) -f "D:\µ{¦¡¶}µo\TI Zigbee            #
#                          Z-Stack\ZStack-CC2530-2.3.0-1.4.0\Projects\zstack\ #
#                          Samples\SampleApp\CC2530DB\..\..\..\Tools\CC2530DB #
#                          \f8wConfig.cfg" (-DSECURE=0 -DZG_SECURE_DYNAMIC=0  #
#                          -DREFLECTOR -DDEFAULT_CHANLIST=0x00000800          #
#                          -DZDAPP_CONFIG_PAN_ID=0xFFFF                       #
#                          -DNWK_START_DELAY=100 -DEXTENDED_JOINING_RANDOM_MA #
#                          SK=0x007F -DBEACON_REQUEST_DELAY=100               #
#                          -DBEACON_REQ_DELAY_MASK=0x00FF                     #
#                          -DROUTE_EXPIRY_TIME=30 -DAPSC_ACK_WAIT_DURATION_PO #
#                          LLED=3000 -DNWK_INDIRECT_MSG_TIMEOUT=7             #
#                          -DMAX_RREQ_ENTRIES=8 -DAPSC_MAX_FRAME_RETRIES=3    #
#                          -DNWK_MAX_DATA_RETRIES=2                           #
#                          -DMAX_POLL_FAILURE_RETRIES=2 -DMAX_BCAST=9         #
#                          -DAPS_MAX_GROUPS=16 -DMAX_RTG_ENTRIES=40           #
#                          -DNWK_MAX_BINDING_ENTRIES=4                        #
#                          -DMAX_BINDING_CLUSTER_IDS=4 "-DDEFAULT_KEY={0x01,  #
#                          0x03, 0x05, 0x07, 0x09, 0x0B, 0x0D, 0x0F, 0x00,    #
#                          0x02, 0x04, 0x06, 0x08, 0x0A, 0x0C, 0x0D}"         #
#                          -DMAC_MAX_FRAME_SIZE=116 "-DCONST=const __code"    #
#                          -DGENERIC=__generic -DRFD_RCVC_ALWAYS_ON=FALSE     #
#                          -DPOLL_RATE=1000 -DQUEUED_POLL_RATE=100            #
#                          -DRESPONSE_POLL_RATE=100) -DREJOIN_POLL_RATE=440   #
#                          "D:\µ{¦¡¶}µo\TI Zigbee Z-Stack\ZStack-CC2530-2.3.0 #
#                          -1.4.0\Projects\zstack\Samples\SampleApp\Source\Sa #
#                          mpleApp.c" -D ZTOOL_P1 -D MT_TASK -D MT_SYS_FUNC   #
#                          -D MT_ZDO_FUNC -D LCD_SUPPORTED=DEBUG -lC          #
#                          "D:\µ{¦¡¶}µo\TI Zigbee Z-Stack\ZStack-CC2530-2.3.0 #
#                          -1.4.0\Projects\zstack\Samples\SampleApp\CC2530DB\ #
#                          RouterEB\List\" -lA "D:\µ{¦¡¶}µo\TI Zigbee         #
#                          Z-Stack\ZStack-CC2530-2.3.0-1.4.0\Projects\zstack\ #
#                          Samples\SampleApp\CC2530DB\RouterEB\List\"         #
#                          --diag_suppress Pe001,Pa010 -o "D:\µ{¦¡¶}µo\TI     #
#                          Zigbee Z-Stack\ZStack-CC2530-2.3.0-1.4.0\Projects\ #
#                          zstack\Samples\SampleApp\CC2530DB\RouterEB\Obj\"   #
#                          -e --require_prototypes --debug --core=plain       #
#                          --dptr=16,1 --data_model=large                     #
#                          --code_model=banked --calling_convention=xdata_ree #
#                          ntrant --place_constants=data_rom                  #
#                          --nr_virtual_regs 16 -I "D:\µ{¦¡¶}µo\TI Zigbee     #
#                          Z-Stack\ZStack-CC2530-2.3.0-1.4.0\Projects\zstack\ #
#                          Samples\SampleApp\CC2530DB\" -I "D:\µ{¦¡¶}µo\TI    #
#                          Zigbee Z-Stack\ZStack-CC2530-2.3.0-1.4.0\Projects\ #
#                          zstack\Samples\SampleApp\CC2530DB\..\SOURCE\" -I   #
#                          "D:\µ{¦¡¶}µo\TI Zigbee Z-Stack\ZStack-CC2530-2.3.0 #
#                          -1.4.0\Projects\zstack\Samples\SampleApp\CC2530DB\ #
#                          ..\..\..\ZMAIN\TI2530DB\" -I "D:\µ{¦¡¶}µo\TI       #
#                          Zigbee Z-Stack\ZStack-CC2530-2.3.0-1.4.0\Projects\ #
#                          zstack\Samples\SampleApp\CC2530DB\..\..\..\..\..\C #
#                          OMPONENTS\MT\" -I "D:\µ{¦¡¶}µo\TI Zigbee           #
#                          Z-Stack\ZStack-CC2530-2.3.0-1.4.0\Projects\zstack\ #
#                          Samples\SampleApp\CC2530DB\..\..\..\..\..\COMPONEN #
#                          TS\HAL\INCLUDE\" -I "D:\µ{¦¡¶}µo\TI Zigbee         #
#                          Z-Stack\ZStack-CC2530-2.3.0-1.4.0\Projects\zstack\ #
#                          Samples\SampleApp\CC2530DB\..\..\..\..\..\COMPONEN #
#                          TS\HAL\TARGET\CC2530EB\" -I "D:\µ{¦¡¶}µo\TI        #
#                          Zigbee Z-Stack\ZStack-CC2530-2.3.0-1.4.0\Projects\ #
#                          zstack\Samples\SampleApp\CC2530DB\..\..\..\..\..\C #
#                          OMPONENTS\OSAL\MCU\CCSOC\" -I "D:\µ{¦¡¶}µo\TI      #
#                          Zigbee Z-Stack\ZStack-CC2530-2.3.0-1.4.0\Projects\ #
#                          zstack\Samples\SampleApp\CC2530DB\..\..\..\..\..\C #
#                          OMPONENTS\OSAL\INCLUDE\" -I "D:\µ{¦¡¶}µo\TI        #
#                          Zigbee Z-Stack\ZStack-CC2530-2.3.0-1.4.0\Projects\ #
#                          zstack\Samples\SampleApp\CC2530DB\..\..\..\..\..\C #
#                          OMPONENTS\STACK\AF\" -I "D:\µ{¦¡¶}µo\TI Zigbee     #
#                          Z-Stack\ZStack-CC2530-2.3.0-1.4.0\Projects\zstack\ #
#                          Samples\SampleApp\CC2530DB\..\..\..\..\..\COMPONEN #
#                          TS\STACK\NWK\" -I "D:\µ{¦¡¶}µo\TI Zigbee           #
#                          Z-Stack\ZStack-CC2530-2.3.0-1.4.0\Projects\zstack\ #
#                          Samples\SampleApp\CC2530DB\..\..\..\..\..\COMPONEN #
#                          TS\STACK\SEC\" -I "D:\µ{¦¡¶}µo\TI Zigbee           #
#                          Z-Stack\ZStack-CC2530-2.3.0-1.4.0\Projects\zstack\ #
#                          Samples\SampleApp\CC2530DB\..\..\..\..\..\COMPONEN #
#                          TS\STACK\SAPI\" -I "D:\µ{¦¡¶}µo\TI Zigbee          #
#                          Z-Stack\ZStack-CC2530-2.3.0-1.4.0\Projects\zstack\ #
#                          Samples\SampleApp\CC2530DB\..\..\..\..\..\COMPONEN #
#                          TS\STACK\SYS\" -I "D:\µ{¦¡¶}µo\TI Zigbee           #
#                          Z-Stack\ZStack-CC2530-2.3.0-1.4.0\Projects\zstack\ #
#                          Samples\SampleApp\CC2530DB\..\..\..\..\..\COMPONEN #
#                          TS\STACK\ZDO\" -I "D:\µ{¦¡¶}µo\TI Zigbee           #
#                          Z-Stack\ZStack-CC2530-2.3.0-1.4.0\Projects\zstack\ #
#                          Samples\SampleApp\CC2530DB\..\..\..\..\..\COMPONEN #
#                          TS\ZMAC\F8W\" -I "D:\µ{¦¡¶}µo\TI Zigbee            #
#                          Z-Stack\ZStack-CC2530-2.3.0-1.4.0\Projects\zstack\ #
#                          Samples\SampleApp\CC2530DB\..\..\..\..\..\COMPONEN #
#                          TS\ZMAC\" -I "D:\µ{¦¡¶}µo\TI Zigbee                #
#                          Z-Stack\ZStack-CC2530-2.3.0-1.4.0\Projects\zstack\ #
#                          Samples\SampleApp\CC2530DB\..\..\..\..\..\COMPONEN #
#                          TS\SERVICES\SADDR\" -I "D:\µ{¦¡¶}µo\TI Zigbee      #
#                          Z-Stack\ZStack-CC2530-2.3.0-1.4.0\Projects\zstack\ #
#                          Samples\SampleApp\CC2530DB\..\..\..\..\..\COMPONEN #
#                          TS\SERVICES\SDATA\" -I "D:\µ{¦¡¶}µo\TI Zigbee      #
#                          Z-Stack\ZStack-CC2530-2.3.0-1.4.0\Projects\zstack\ #
#                          Samples\SampleApp\CC2530DB\..\..\..\..\..\COMPONEN #
#                          TS\MAC\INCLUDE\" -I "D:\µ{¦¡¶}µo\TI Zigbee         #
#                          Z-Stack\ZStack-CC2530-2.3.0-1.4.0\Projects\zstack\ #
#                          Samples\SampleApp\CC2530DB\..\..\..\..\..\COMPONEN #
#                          TS\MAC\HIGH_LEVEL\" -I "D:\µ{¦¡¶}µo\TI Zigbee      #
#                          Z-Stack\ZStack-CC2530-2.3.0-1.4.0\Projects\zstack\ #
#                          Samples\SampleApp\CC2530DB\..\..\..\..\..\COMPONEN #
#                          TS\MAC\LOW_LEVEL\srf04\" -I "D:\µ{¦¡¶}µo\TI        #
#                          Zigbee Z-Stack\ZStack-CC2530-2.3.0-1.4.0\Projects\ #
#                          zstack\Samples\SampleApp\CC2530DB\..\..\..\..\..\C #
#                          OMPONENTS\MAC\LOW_LEVEL\srf04\SINGLE_CHIP\" -I     #
#                          "C:\IAR Systems\Embedded Workbench 5.3\8051\INC\"  #
#                          -I "C:\IAR Systems\Embedded Workbench              #
#                          5.3\8051\INC\CLIB\" -Ohz                           #
#    List file          =  D:\µ{¦¡¶}µo\TI Zigbee Z-Stack\ZStack-CC2530-2.3.0- #
#                          1.4.0\Projects\zstack\Samples\SampleApp\CC2530DB\R #
#                          outerEB\List\SampleApp.lst                         #
#    Object file        =  D:\µ{¦¡¶}µo\TI Zigbee Z-Stack\ZStack-CC2530-2.3.0- #
#                          1.4.0\Projects\zstack\Samples\SampleApp\CC2530DB\R #
#                          outerEB\Obj\SampleApp.r51                          #
#                                                                             #
#                                                                             #
###############################################################################

D:\µ{¦¡¶}µo\TI Zigbee Z-Stack\ZStack-CC2530-2.3.0-1.4.0\Projects\zstack\Samples\SampleApp\Source\SampleApp.c
      1          /**************************************************************************************************
      2            Filename:       SampleApp.c
      3            Revised:        $Date: 2009-03-18 15:56:27 -0700 (Wed, 18 Mar 2009) $
      4            Revision:       $Revision: 19453 $
      5          
      6            Description:    Sample Application (no Profile).
      7          
      8          
      9            Copyright 2007 Texas Instruments Incorporated. All rights reserved.
     10          
     11            IMPORTANT: Your use of this Software is limited to those specific rights
     12            granted under the terms of a software license agreement between the user
     13            who downloaded the software, his/her employer (which must be your employer)
     14            and Texas Instruments Incorporated (the "License").  You may not use this
     15            Software unless you agree to abide by the terms of the License. The License
     16            limits your use, and you acknowledge, that the Software may not be modified,
     17            copied or distributed unless embedded on a Texas Instruments microcontroller
     18            or used solely and exclusively in conjunction with a Texas Instruments radio
     19            frequency transceiver, which is integrated into your product.  Other than for
     20            the foregoing purpose, you may not use, reproduce, copy, prepare derivative
     21            works of, modify, distribute, perform, display or sell this Software and/or
     22            its documentation for any purpose.
     23          
     24            YOU FURTHER ACKNOWLEDGE AND AGREE THAT THE SOFTWARE AND DOCUMENTATION ARE
     25            PROVIDED “AS IS?WITHOUT WARRANTY OF ANY KIND, EITHER EXPRESS OR IMPLIED,
     26            INCLUDING WITHOUT LIMITATION, ANY WARRANTY OF MERCHANTABILITY, TITLE,
     27            NON-INFRINGEMENT AND FITNESS FOR A PARTICULAR PURPOSE. IN NO EVENT SHALL
     28            TEXAS INSTRUMENTS OR ITS LICENSORS BE LIABLE OR OBLIGATED UNDER CONTRACT,
     29            NEGLIGENCE, STRICT LIABILITY, CONTRIBUTION, BREACH OF WARRANTY, OR OTHER
     30            LEGAL EQUITABLE THEORY ANY DIRECT OR INDIRECT DAMAGES OR EXPENSES
     31            INCLUDING BUT NOT LIMITED TO ANY INCIDENTAL, SPECIAL, INDIRECT, PUNITIVE
     32            OR CONSEQUENTIAL DAMAGES, LOST PROFITS OR LOST DATA, COST OF PROCUREMENT
     33            OF SUBSTITUTE GOODS, TECHNOLOGY, SERVICES, OR ANY CLAIMS BY THIRD PARTIES
     34            (INCLUDING BUT NOT LIMITED TO ANY DEFENSE THEREOF), OR OTHER SIMILAR COSTS.
     35          
     36            Should you have any questions regarding your right to use this Software,
     37            contact Texas Instruments Incorporated at www.TI.com.
     38          **************************************************************************************************/
     39          
     40          /*********************************************************************
     41            This application isn't intended to do anything useful, it is
     42            intended to be a simple example of an application's structure.
     43          
     44            This application sends it's messages either as broadcast or
     45            broadcast filtered group messages.  The other (more normal)
     46            message addressing is unicast.  Most of the other sample
     47            applications are written to support the unicast message model.
     48          
     49            Key control:
     50              SW1:  Sends a flash command to all devices in Group 1.
     51              SW2:  Adds/Removes (toggles) this device in and out
     52                    of Group 1.  This will enable and disable the
     53                    reception of the flash command.
     54          *********************************************************************/
     55          
     56          /*********************************************************************
     57           * INCLUDES
     58           */
     59          #include "OSAL.h"
     60          #include "ZGlobals.h"
     61          #include "AF.h"
     62          #include "aps_groups.h"
     63          #include "ZDApp.h"
     64          
     65          #include "SampleApp.h"
     66          #include "SampleAppHw.h"
     67          
     68          #include "OnBoard.h"
     69          
     70          /* HAL */
     71          #include "hal_lcd.h"
     72          #include "hal_led.h"
     73          #include "hal_key.h"
     74          #include "hal_keypad.h"
     75          
     76          /* CALCULATE */
     77          #include "math.h"
     78          
     79          /*********************************************************************
     80           * MACROS
     81           */
     82          
     83          /*********************************************************************
     84           * CONSTANTS
     85           */
     86          
     87          /*********************************************************************
     88           * TYPEDEFS
     89           */
     90          
     91          /*********************************************************************
     92           * GLOBAL VARIABLES
     93           */
     94          
     95          // This list should be filled with Application specific Cluster IDs.

   \                                 In  segment XDATA_ROM_C, align 1
     96          const cId_t SampleApp_ClusterList[SAMPLEAPP_MAX_CLUSTERS] =
   \                     SampleApp_ClusterList:
   \   000000   01000200     DW 1, 2
     97          {
     98            SAMPLEAPP_PERIODIC_CLUSTERID,   // periodic clusterID = 1
     99            SAMPLEAPP_FLASH_CLUSTERID       // flash clusterID = 2
    100          };
    101          

   \                                 In  segment XDATA_ROM_C, align 1
    102          const SimpleDescriptionFormat_t SampleApp_SimpleDesc =
   \                     SampleApp_SimpleDesc:
   \   000000   14           DB 20
   \   000001   080F0100     DW 3848, 1
   \   000005   0002         DB 0, 2
   \   000007   ....         DW SampleApp_ClusterList
   \   000009   02           DB 2
   \   00000A   ....         DW SampleApp_ClusterList
    103          {
    104            SAMPLEAPP_ENDPOINT,              //  int Endpoint;
    105            SAMPLEAPP_PROFID,                //  uint16 AppProfId[2];
    106            SAMPLEAPP_DEVICEID,              //  uint16 AppDeviceId[2];
    107            SAMPLEAPP_DEVICE_VERSION,        //  int   AppDevVer:4;
    108            SAMPLEAPP_FLAGS,                 //  int   AppFlags:4;          //endpoint~flag:À³¥Îµ{¦¡ªº¿ìÃÑID(¹ï©ó¤U¼h¨Ó»¡)
    109            SAMPLEAPP_MAX_CLUSTERS,          //  uint8  AppNumInClusters;
    110            (cId_t *)SampleApp_ClusterList,  //  uint8 *pAppInClusterList;
    111            SAMPLEAPP_MAX_CLUSTERS,          //  uint8  AppNumInClusters;
    112            (cId_t *)SampleApp_ClusterList   //  uint8 *pAppInClusterList;  //MAX_CLUSTERS~SampleApp_ClusterList:
    113          };                                                                            //±µ¦¬&¶Ç°eªº«Ê¥]IDªí¡A¦¹À³¥Î¥u¶Ç°e¤W­zªº«Ê¥]ID
    114          
    115          // This is the Endpoint/Interface description.  It is defined here, but
    116          // filled-in in SampleApp_Init().  Another way to go would be to fill
    117          // in the structure here and make it a "const" (in code space).  The
    118          // way it's defined in this sample app it is define in RAM.

   \                                 In  segment XDATA_Z, align 1, keep-with-next
    119          endPointDesc_t SampleApp_epDesc;   //§¹¾ã´y­z¦¹À³¥Îªº¸ê®Æµ²ºc
   \                     SampleApp_epDesc:
   \   000000                DS 6
   \   000006                REQUIRE __INIT_XDATA_Z
    120          
    121          /*********************************************************************
    122           * EXTERNAL VARIABLES
    123           */
    124          
    125          /*********************************************************************
    126           * EXTERNAL FUNCTIONS
    127           */
    128          
    129          /*********************************************************************
    130           * LOCAL VARIABLES
    131           */

   \                                 In  segment XDATA_Z, align 1, keep-with-next
    132          uint8 SampleApp_TaskID;   // Task ID for internal task/event processing
   \                     SampleApp_TaskID:
   \   000000                DS 1
   \   000001                REQUIRE __INIT_XDATA_Z
    133                                    // This variable will be received when
    134                                    // SampleApp_Init() is called.

   \                                 In  segment XDATA_Z, align 1, keep-with-next
    135          devStates_t SampleApp_NwkState;
   \                     SampleApp_NwkState:
   \   000000                DS 1
   \   000001                REQUIRE __INIT_XDATA_Z
    136          

   \                                 In  segment XDATA_Z, align 1, keep-with-next
    137          uint8 SampleApp_TransID;  // This is the unique message ID (counter)
   \                     SampleApp_TransID:
   \   000000                DS 1
   \   000001                REQUIRE __INIT_XDATA_Z
    138          

   \                                 In  segment XDATA_Z, align 1, keep-with-next
    139          afAddrType_t SampleApp_Periodic_DstAddr;
   \                     SampleApp_Periodic_DstAddr:
   \   000000                DS 12
   \   00000C                REQUIRE __INIT_XDATA_Z

   \                                 In  segment XDATA_Z, align 1, keep-with-next
    140          afAddrType_t SampleApp_Flash_DstAddr;
   \                     SampleApp_Flash_DstAddr:
   \   000000                DS 12
   \   00000C                REQUIRE __INIT_XDATA_Z
    141          

   \                                 In  segment XDATA_Z, align 1, keep-with-next
    142          aps_Group_t SampleApp_Group;
   \                     SampleApp_Group:
   \   000000                DS 18
   \   000012                REQUIRE __INIT_XDATA_Z
    143          

   \                                 In  segment XDATA_Z, align 1, keep-with-next
    144          uint8 SampleAppPeriodicCounter = 0;
   \                     SampleAppPeriodicCounter:
   \   000000                DS 1
   \   000001                REQUIRE __INIT_XDATA_Z

   \                                 In  segment XDATA_Z, align 1, keep-with-next
    145          uint8 SampleAppFlashCounter = 0;
   \                     SampleAppFlashCounter:
   \   000000                DS 1
   \   000001                REQUIRE __INIT_XDATA_Z
    146          
    147          /*********************************************************************
    148           * LOCAL FUNCTIONS
    149           */
    150          void SampleApp_HandleKeys( uint8 shift, uint8 keys );
    151          void SampleApp_MessageMSGCB( afIncomingMSGPacket_t *pckt );
    152          void SampleApp_SendPeriodicMessage( void );
    153          void SampleApp_SendFlashMessage( uint16 flashTime );
    154          
    155          /*********************************************************************
    156           * NETWORK LAYER CALLBACKS
    157           */
    158          
    159          /*********************************************************************
    160           * PUBLIC FUNCTIONS
    161           */
    162          
    163          /*********************************************************************
    164           * @fn      SampleApp_Init
    165           *
    166           * @brief   Initialization function for the Generic App Task.
    167           *          This is called during initialization and should contain
    168           *          any application specific initialization (ie. hardware
    169           *          initialization/setup, table initialization, power up
    170           *          notificaiton ... ).
    171           *
    172           * @param   task_id - the ID assigned by OSAL.  This ID should be
    173           *                    used to send messages and set timers.
    174           *
    175           * @return  none
    176           */

   \                                 In  segment BANKED_CODE, align 1, keep-with-next
    177          void SampleApp_Init( uint8 task_id )
   \                     SampleApp_Init:
    178          {
   \   000000   74F5         MOV     A,#-0xb
   \   000002   12....       LCALL   ?BANKED_ENTER_XDATA
   \   000005                ; Saved register size: 11
   \   000005                ; Auto size: 0
    179            SampleApp_TaskID = task_id;
   \   000005   E9           MOV     A,R1
   \   000006   90....       MOV     DPTR,#SampleApp_TaskID
   \   000009   F0           MOVX    @DPTR,A
    180            SampleApp_NwkState = DEV_INIT;
   \   00000A   7401         MOV     A,#0x1
   \   00000C   90....       MOV     DPTR,#SampleApp_NwkState
   \   00000F   F0           MOVX    @DPTR,A
    181            SampleApp_TransID = 0;
   \   000010   E4           CLR     A
   \   000011   90....       MOV     DPTR,#SampleApp_TransID
   \   000014   F0           MOVX    @DPTR,A
    182          
    183            // Device hardware initialization can be added here or in main() (Zmain.c).
    184            // If the hardware is application specific - add it here.  --> application specific(¯S©wÀ³¥Î)
    185            // If the hardware is other parts of the device add it in main().  --> other parts of the device(¨ä¥L¸Ë¸mªº³¡¤À)
    186          
    187           #if defined ( BUILD_ALL_DEVICES )
    188            // The "Demo" target is setup to have BUILD_ALL_DEVICES and HOLD_AUTO_START 
    189            // We are looking at a jumper (defined in SampleAppHw.c) to be jumpered
    190            // together - if they are - we will start up a coordinator. Otherwise,
    191            // the device will start as a router.  ---> ·íjumper¦³±µ¤W®É,¸Ë¸m¥HCoordinator±Ò°Ê,§_«h¥Hrouter±Ò°Ê.
    192            if ( readCoordinatorJumper() )
    193              zgDeviceLogicalType = ZG_DEVICETYPE_COORDINATOR;
    194            else
    195              zgDeviceLogicalType = ZG_DEVICETYPE_ROUTER;
    196          #endif // BUILD_ALL_DEVICES
    197          
    198          #if defined ( HOLD_AUTO_START ) //--> HOLD_AUTO_START½sÄ¶¿ï¶µ·|¥õ¨îZDAppªº±Ò°Ê¸Ë¸m¤ÎÀ³¥Îµ{§Ç
    199            // HOLD_AUTO_START is a compile option that will surpress ZDApp
    200            //  from starting the device and wait for the application to
    201            //  start the device.
    202            ZDOInitDevice(0);
    203          #endif
    204          
    205            // Setup for the periodic message's destination address
    206            // Broadcast to everyone
    207            SampleApp_Periodic_DstAddr.addrMode = (afAddrMode_t)AddrBroadcast; //¶Ç°e¼Ò¦¡-¼s¼½
   \   000015   740F         MOV     A,#0xf
   \   000017   90....       MOV     DPTR,#(SampleApp_Periodic_DstAddr + 8)
   \   00001A   F0           MOVX    @DPTR,A
    208            SampleApp_Periodic_DstAddr.endPoint = SAMPLEAPP_ENDPOINT;          //¹ï¶HÀ³¥Îµ{¦¡ID
   \   00001B   7414         MOV     A,#0x14
   \   00001D   90....       MOV     DPTR,#(SampleApp_Periodic_DstAddr + 9)
   \   000020   F0           MOVX    @DPTR,A
    209            SampleApp_Periodic_DstAddr.addr.shortAddr = 0xFFFF;                //¼s¼½¤º©w¦a§}
   \   000021   90....       MOV     DPTR,#SampleApp_Periodic_DstAddr
   \   000024   74FF         MOV     A,#-0x1
   \   000026   F0           MOVX    @DPTR,A
   \   000027   A3           INC     DPTR
   \   000028   F0           MOVX    @DPTR,A
    210          
    211            // Setup for the flash command's destination address - Group 1
    212            SampleApp_Flash_DstAddr.addrMode = (afAddrMode_t)afAddrGroup;      
   \   000029   7401         MOV     A,#0x1
   \   00002B   90....       MOV     DPTR,#(SampleApp_Flash_DstAddr + 8)
   \   00002E   F0           MOVX    @DPTR,A
    213            SampleApp_Flash_DstAddr.endPoint = SAMPLEAPP_ENDPOINT;             //¶Ç°e¼Ò¦¡-²Õ¤º¶Ç°e
   \   00002F   7414         MOV     A,#0x14
   \   000031   90....       MOV     DPTR,#(SampleApp_Flash_DstAddr + 9)
   \   000034   F0           MOVX    @DPTR,A
    214            SampleApp_Flash_DstAddr.addr.shortAddr = SAMPLEAPP_FLASH_GROUP;    //²Õ¦WºÙ(¦¹À³¥Î¤º©w)_0x0001
   \   000035   90....       MOV     DPTR,#SampleApp_Flash_DstAddr
   \   000038   7401         MOV     A,#0x1
   \   00003A   F0           MOVX    @DPTR,A
   \   00003B   A3           INC     DPTR
   \   00003C   E4           CLR     A
   \   00003D   F0           MOVX    @DPTR,A
    215            
    216            // Fill out the endpoint description.
    217            SampleApp_epDesc.endPoint = SAMPLEAPP_ENDPOINT;
   \   00003E   7414         MOV     A,#0x14
   \   000040   90....       MOV     DPTR,#SampleApp_epDesc
   \   000043   F0           MOVX    @DPTR,A
    218            SampleApp_epDesc.task_id = &SampleApp_TaskID;
   \   000044   90....       MOV     DPTR,#(SampleApp_epDesc + 1)
   \   000047   74..         MOV     A,#(SampleApp_TaskID & 0xff)
   \   000049   F0           MOVX    @DPTR,A
   \   00004A   A3           INC     DPTR
   \   00004B   74..         MOV     A,#((SampleApp_TaskID >> 8) & 0xff)
   \   00004D   F0           MOVX    @DPTR,A
    219            SampleApp_epDesc.simpleDesc = (SimpleDescriptionFormat_t *)&SampleApp_SimpleDesc;
   \   00004E   90....       MOV     DPTR,#(SampleApp_epDesc + 3)
   \   000051   74..         MOV     A,#(SampleApp_SimpleDesc & 0xff)
   \   000053   F0           MOVX    @DPTR,A
   \   000054   A3           INC     DPTR
   \   000055   74..         MOV     A,#((SampleApp_SimpleDesc >> 8) & 0xff)
   \   000057   F0           MOVX    @DPTR,A
    220            SampleApp_epDesc.latencyReq = noLatencyReqs;
   \   000058   E4           CLR     A
   \   000059   90....       MOV     DPTR,#(SampleApp_epDesc + 5)
   \   00005C   F0           MOVX    @DPTR,A
    221          
    222            // Register the endpoint description with the AF
    223            afRegister( &SampleApp_epDesc );          //¦V¤U¼hµù¥U¦¹À³¥Îµ{¦¡
   \   00005D                ; Setup parameters for call to function afRegister
   \   00005D   7A..         MOV     R2,#(SampleApp_epDesc & 0xff)
   \   00005F   7B..         MOV     R3,#((SampleApp_epDesc >> 8) & 0xff)
   \   000061   12....       LCALL   ??afRegister?relay
    224          
    225            // Register for all key events - This app will handle all key events
    226            RegisterForKeys( SampleApp_TaskID );      //¦V¤U¼hµù¥U«ö¶s¨Æ¥ó
   \   000064                ; Setup parameters for call to function RegisterForKeys
   \   000064   90....       MOV     DPTR,#SampleApp_TaskID
   \   000067   E0           MOVX    A,@DPTR
   \   000068   F9           MOV     R1,A
   \   000069   12....       LCALL   ??RegisterForKeys?relay
    227          
    228            // By default, all devices start out in Group 1
    229            SampleApp_Group.ID = 0x0001;
   \   00006C   90....       MOV     DPTR,#SampleApp_Group
   \   00006F   7401         MOV     A,#0x1
   \   000071   F0           MOVX    @DPTR,A
   \   000072   A3           INC     DPTR
   \   000073   E4           CLR     A
   \   000074   F0           MOVX    @DPTR,A
    230            osal_memcpy( SampleApp_Group.name, "Group 1", 7  );
   \   000075                ; Setup parameters for call to function osal_memcpy
   \   000075   75....       MOV     ?V0 + 0,#(`?<Constant "Group 1">` & 0xff)
   \   000078   75....       MOV     ?V0 + 1,#((`?<Constant "Group 1">` >> 8) & 0xff)
   \   00007B   F5..         MOV     ?V0 + 2,A
   \   00007D   78..         MOV     R0,#?V0 + 0
   \   00007F   12....       LCALL   ?PUSH_XSTACK_I_THREE
   \   000082   7C07         MOV     R4,#0x7
   \   000084   7D00         MOV     R5,#0x0
   \   000086   7A..         MOV     R2,#((SampleApp_Group + 2) & 0xff)
   \   000088   7B..         MOV     R3,#(((SampleApp_Group + 2) >> 8) & 0xff)
   \   00008A   12....       LCALL   ??osal_memcpy?relay
   \   00008D   7403         MOV     A,#0x3
   \   00008F   12....       LCALL   ?DEALLOC_XSTACK8
    231            aps_AddGroup( SAMPLEAPP_ENDPOINT, &SampleApp_Group );  //µù¥U¸s²Õ
   \   000092                ; Setup parameters for call to function aps_AddGroup
   \   000092   7A..         MOV     R2,#(SampleApp_Group & 0xff)
   \   000094   7B..         MOV     R3,#((SampleApp_Group >> 8) & 0xff)
   \   000096   7914         MOV     R1,#0x14
   \   000098   12....       LCALL   ??aps_AddGroup?relay
    232          
    233          #if defined ( LCD_SUPPORTED )
    234            HalLcdWriteString( "SampleApp", HAL_LCD_LINE_1 );
   \   00009B                ; Setup parameters for call to function HalLcdWriteString
   \   00009B   7901         MOV     R1,#0x1
   \   00009D   7A..         MOV     R2,#(`?<Constant "SampleApp">` & 0xff)
   \   00009F   7B..         MOV     R3,#((`?<Constant "SampleApp">` >> 8) & 0xff)
   \   0000A1   12....       LCALL   ??HalLcdWriteString?relay
    235          #endif
    236          }
   \   0000A4   7F03         MOV     R7,#0x3
   \   0000A6   02....       LJMP    ?BANKED_LEAVE_XDATA
    237          
    238          /*********************************************************************
    239           * @fn      SampleApp_ProcessEvent
    240           *
    241           * @brief   Generic Application Task event processor.  This function
    242           *          is called to process all events for the task.  Events
    243           *          include timers, messages and any other user defined events.
    244           *
    245           * @param   task_id  - The OSAL assigned task ID.
    246           * @param   events - events to process.  This is a bit map and can
    247           *                   contain more than one event.
    248           *
    249           * @return  none
    250           */

   \                                 In  segment BANKED_CODE, align 1, keep-with-next
    251          uint16 SampleApp_ProcessEvent( uint8 task_id, uint16 events )
   \                     SampleApp_ProcessEvent:
    252          {
   \   000000   74F4         MOV     A,#-0xc
   \   000002   12....       LCALL   ?BANKED_ENTER_XDATA
   \   000005                ; Saved register size: 12
   \   000005                ; Auto size: 0
   \   000005   EA           MOV     A,R2
   \   000006   FE           MOV     R6,A
   \   000007   EB           MOV     A,R3
   \   000008   FF           MOV     R7,A
    253            afIncomingMSGPacket_t *MSGpkt;
    254            (void)task_id;  // Intentionally unreferenced parameter
    255          
    256            if ( events & SYS_EVENT_MSG ) 
   \   000009   7480         MOV     A,#-0x80
   \   00000B   5F           ANL     A,R7
   \   00000C   F9           MOV     R1,A
   \   00000D   E4           CLR     A
   \   00000E   7001         JNZ     ??SampleApp_ProcessEvent_0
   \   000010   E9           MOV     A,R1
   \                     ??SampleApp_ProcessEvent_0:
   \   000011   7003         JNZ     $+5
   \   000013   02....       LJMP    ??SampleApp_ProcessEvent_1 & 0xFFFF
    257            {
    258              MSGpkt = (afIncomingMSGPacket_t *)osal_msg_receive( SampleApp_TaskID );
   \   000016                ; Setup parameters for call to function osal_msg_receive
   \   000016   8031         SJMP    ??SampleApp_ProcessEvent_2
    259              while ( MSGpkt )
    260              {
    261                switch ( MSGpkt->hdr.event )
    262                {
    263                  case KEY_CHANGE: // Received when a key is pressed(·í«ö¤Ukey®É¶i¦æ±µ¦¬)
    264                    SampleApp_HandleKeys( ((keyChange_t *)MSGpkt)->state, ((keyChange_t *)MSGpkt)->keys );
    265                    break;
    266          
    267                  case AF_INCOMING_MSG_CMD: // Received when a messages is received (OTA) for this endpoint(·íendpoint±µ¦¬¨ìmessage¶i¦æ±µ¦¬)
    268                    SampleApp_MessageMSGCB( MSGpkt );
    269                    break;
    270          
    271                  case ZDO_STATE_CHANGE: // Received whenever the device changes state in the network(¥[¤Jºô¸ô«áª¬ºA§ïÅÜ®É¶i¦æ±µ¦¬)
    272                    SampleApp_NwkState = (devStates_t)(MSGpkt->hdr.status);
   \                     ??SampleApp_ProcessEvent_3:
   \   000018   85..82       MOV     DPL,?V0 + 0
   \   00001B   85..83       MOV     DPH,?V0 + 1
   \   00001E   A3           INC     DPTR
   \   00001F   E0           MOVX    A,@DPTR
   \   000020   90....       MOV     DPTR,#SampleApp_NwkState
   \   000023   F0           MOVX    @DPTR,A
    273                    if ((SampleApp_NwkState == DEV_ZB_COORD) || (SampleApp_NwkState == DEV_ROUTER) || (SampleApp_NwkState == DEV_END_DEVICE) )
   \   000024   6409         XRL     A,#0x9
   \   000026   600A         JZ      ??SampleApp_ProcessEvent_4
   \   000028   E0           MOVX    A,@DPTR
   \   000029   6407         XRL     A,#0x7
   \   00002B   6005         JZ      ??SampleApp_ProcessEvent_4
   \   00002D   E0           MOVX    A,@DPTR
   \   00002E   6406         XRL     A,#0x6
   \   000030   7010         JNZ     ??SampleApp_ProcessEvent_5
    274                    {
    275                      // Start sending the periodic message in a regular interval. ¶}©l¦b©w´Áªº®É¶¡¶¡¹j¶Ç°e©w´Á°T®§
    276                      osal_start_timerEx( SampleApp_TaskID,
    277                                          SAMPLEAPP_SEND_PERIODIC_MSG_EVT,
    278                                          SAMPLEAPP_SEND_PERIODIC_MSG_TIMEOUT );
   \                     ??SampleApp_ProcessEvent_4:
   \   000032                ; Setup parameters for call to function osal_start_timerEx
   \   000032   7C88         MOV     R4,#-0x78
   \   000034   7D13         MOV     R5,#0x13
   \   000036   7A01         MOV     R2,#0x1
   \   000038   7B00         MOV     R3,#0x0
   \   00003A   90....       MOV     DPTR,#SampleApp_TaskID
   \   00003D   E0           MOVX    A,@DPTR
   \   00003E   F9           MOV     R1,A
   \   00003F   12....       LCALL   ??osal_start_timerEx?relay
    279                    }
    280                    else
    281                    {
    282                      // Device is no longer in the network  --> device¤£¦b¦¹ºô¸ô¤¤
    283                    }
    284                    break;
    285          
    286                  default:
    287                    break;
    288                }
    289          
    290                // Release the memory
    291                osal_msg_deallocate( (uint8 *)MSGpkt );
   \                     ??SampleApp_ProcessEvent_5:
   \   000042                ; Setup parameters for call to function osal_msg_deallocate
   \   000042   AA..         MOV     R2,?V0 + 0
   \   000044   AB..         MOV     R3,?V0 + 1
   \   000046   12....       LCALL   ??osal_msg_deallocate?relay
    292          
    293                // Next - if one is available
    294                MSGpkt = (afIncomingMSGPacket_t *)osal_msg_receive( SampleApp_TaskID );
   \   000049                ; Setup parameters for call to function osal_msg_receive
   \                     ??SampleApp_ProcessEvent_2:
   \   000049   90....       MOV     DPTR,#SampleApp_TaskID
   \   00004C   E0           MOVX    A,@DPTR
   \   00004D   F9           MOV     R1,A
   \   00004E   12....       LCALL   ??osal_msg_receive?relay
   \   000051   8A..         MOV     ?V0 + 0,R2
   \   000053   8B..         MOV     ?V0 + 1,R3
   \   000055   E5..         MOV     A,?V0 + 0
   \   000057   7002         JNZ     ??SampleApp_ProcessEvent_6
   \   000059   E5..         MOV     A,?V0 + 1
   \                     ??SampleApp_ProcessEvent_6:
   \   00005B   603A         JZ      ??SampleApp_ProcessEvent_7
   \   00005D   85..82       MOV     DPL,?V0 + 0
   \   000060   85..83       MOV     DPH,?V0 + 1
   \   000063   E0           MOVX    A,@DPTR
   \   000064   12....       LCALL   ?UC_SWITCH_SPARSE
   \                     `?<Jumptable for SampleApp_ProcessEvent>_0`:
   \   000067   00           DB        0
   \   000068   03           DB        3
   \   000069   1A           DB        26
   \   00006A   ....         DW        ??SampleApp_ProcessEvent_8
   \   00006C   C0           DB        192
   \   00006D   ....         DW        ??SampleApp_ProcessEvent_9
   \   00006F   D1           DB        209
   \   000070   ....         DW        ??SampleApp_ProcessEvent_3
   \   000072   ....         DW        ??SampleApp_ProcessEvent_5
   \                     ??SampleApp_ProcessEvent_9:
   \   000074                ; Setup parameters for call to function SampleApp_HandleKeys
   \   000074   85..82       MOV     DPL,?V0 + 0
   \   000077   85..83       MOV     DPH,?V0 + 1
   \   00007A   A3           INC     DPTR
   \   00007B   A3           INC     DPTR
   \   00007C   A3           INC     DPTR
   \   00007D   E0           MOVX    A,@DPTR
   \   00007E   FA           MOV     R2,A
   \   00007F   85..82       MOV     DPL,?V0 + 0
   \   000082   85..83       MOV     DPH,?V0 + 1
   \   000085   A3           INC     DPTR
   \   000086   A3           INC     DPTR
   \   000087   E0           MOVX    A,@DPTR
   \   000088   F9           MOV     R1,A
   \   000089   12....       LCALL   ??SampleApp_HandleKeys?relay
   \   00008C   80B4         SJMP    ??SampleApp_ProcessEvent_5
   \                     ??SampleApp_ProcessEvent_8:
   \   00008E                ; Setup parameters for call to function SampleApp_MessageMSGCB
   \   00008E   AA..         MOV     R2,?V0 + 0
   \   000090   AB..         MOV     R3,?V0 + 1
   \   000092   12....       LCALL   ??SampleApp_MessageMSGCB?relay
   \   000095   80AB         SJMP    ??SampleApp_ProcessEvent_5
    295              }
    296          
    297              // return unprocessed events
    298              return (events ^ SYS_EVENT_MSG);
   \                     ??SampleApp_ProcessEvent_7:
   \   000097   EE           MOV     A,R6
   \   000098   FA           MOV     R2,A
   \   000099   7480         MOV     A,#-0x80
   \   00009B   6F           XRL     A,R7
   \                     ??SampleApp_ProcessEvent_10:
   \   00009C   FB           MOV     R3,A
   \   00009D   8023         SJMP    ??SampleApp_ProcessEvent_11
    299            }
    300          
    301            // Send a message out - This event is generated by a timer
    302            //  (setup in SampleApp_Init()).
    303            if ( events & SAMPLEAPP_SEND_PERIODIC_MSG_EVT )
   \                     ??SampleApp_ProcessEvent_1:
   \   00009F   EE           MOV     A,R6
   \   0000A0   A2E0         MOV     C,0xE0 /* A   */.0
   \   0000A2   501A         JNC     ??SampleApp_ProcessEvent_12
    304            {
    305              // Send the periodic message
    306              SampleApp_SendPeriodicMessage();
   \   0000A4                ; Setup parameters for call to function SampleApp_SendPeriodicMessage
   \   0000A4   12....       LCALL   ??SampleApp_SendPeriodicMessage?relay
    307          
    308              // Setup to send message again in normal period (+ a little jitter)
    309          //    osal_start_timerEx( SampleApp_TaskID, 
    310          //                        SAMPLEAPP_SEND_PERIODIC_MSG_EVT,
    311          //                       (SAMPLEAPP_SEND_PERIODIC_MSG_TIMEOUT + (osal_rand() & 0x00FF)) );
    312              
    313              // Setup to send message again
    314                osal_start_timerEx( SampleApp_TaskID,
    315                                    SAMPLEAPP_SEND_PERIODIC_MSG_EVT,
    316                                    SAMPLEAPP_SEND_PERIODIC_MSG_TIMEOUT );
   \   0000A7                ; Setup parameters for call to function osal_start_timerEx
   \   0000A7   7C88         MOV     R4,#-0x78
   \   0000A9   7D13         MOV     R5,#0x13
   \   0000AB   7A01         MOV     R2,#0x1
   \   0000AD   7B00         MOV     R3,#0x0
   \   0000AF   90....       MOV     DPTR,#SampleApp_TaskID
   \   0000B2   E0           MOVX    A,@DPTR
   \   0000B3   F9           MOV     R1,A
   \   0000B4   12....       LCALL   ??osal_start_timerEx?relay
    317          
    318              // return unprocessed events
    319              return (events ^ SAMPLEAPP_SEND_PERIODIC_MSG_EVT);
   \   0000B7   7401         MOV     A,#0x1
   \   0000B9   6E           XRL     A,R6
   \   0000BA   FA           MOV     R2,A
   \   0000BB   EF           MOV     A,R7
   \   0000BC   80DE         SJMP    ??SampleApp_ProcessEvent_10
    320            }
    321          
    322            // Discard unknown events
    323            return 0;
   \                     ??SampleApp_ProcessEvent_12:
   \   0000BE   7A00         MOV     R2,#0x0
   \   0000C0   7B00         MOV     R3,#0x0
   \                     ??SampleApp_ProcessEvent_11:
   \   0000C2   7F04         MOV     R7,#0x4
   \   0000C4   02....       LJMP    ?BANKED_LEAVE_XDATA
    324          }
    325          
    326          /*********************************************************************
    327           * Event Generation Functions
    328           */
    329          /*********************************************************************
    330           * @fn      SampleApp_HandleKeys
    331           *
    332           * @brief   Handles all key events for this device.
    333           *
    334           * @param   shift - true if in shift/alt.
    335           * @param   keys - bit field for key events. Valid entries:
    336           *                 HAL_KEY_SW_2
    337           *                 HAL_KEY_SW_1
    338           *
    339           * @return  none
    340           */

   \                                 In  segment BANKED_CODE, align 1, keep-with-next
    341          void SampleApp_HandleKeys( uint8 shift, uint8 keys )
   \                     SampleApp_HandleKeys:
    342          {
   \   000000   74F6         MOV     A,#-0xa
   \   000002   12....       LCALL   ?BANKED_ENTER_XDATA
   \   000005                ; Saved register size: 10
   \   000005                ; Auto size: 0
   \   000005   EA           MOV     A,R2
   \   000006   FE           MOV     R6,A
    343            (void)shift;  // Intentionally unreferenced parameter
    344            
    345            if ( keys & HAL_KEY_SW_1 )
   \   000007   A2E0         MOV     C,0xE0 /* A   */.0
   \   000009   5007         JNC     ??SampleApp_HandleKeys_0
    346            {
    347              /* This key sends the Flash Command is sent to Group 1.
    348               * This device will not receive the Flash Command from this
    349               * device (even if it belongs to group 1).
    350               */
    351              SampleApp_SendFlashMessage( SAMPLEAPP_FLASH_DURATION ); //SAMPLEAPP_FLASH_DURATION -> 1000 milliseconds
   \   00000B                ; Setup parameters for call to function SampleApp_SendFlashMessage
   \   00000B   7AE8         MOV     R2,#-0x18
   \   00000D   7B03         MOV     R3,#0x3
   \   00000F   12....       LCALL   ??SampleApp_SendFlashMessage?relay
    352            }
    353          
    354            if ( keys & HAL_KEY_SW_2 )
   \                     ??SampleApp_HandleKeys_0:
   \   000012   EE           MOV     A,R6
   \   000013   A2E1         MOV     C,0xE0 /* A   */.1
   \   000015   5023         JNC     ??SampleApp_HandleKeys_1
    355            {
    356              /* The Flashr Command is sent to Group 1.
    357               * This key toggles this device in and out of group 1.
    358               * If this device doesn't belong to group 1, this application
    359               * will not receive the Flash command sent to group 1.
    360               */
    361              aps_Group_t *grp;
    362              grp = aps_FindGroup( SAMPLEAPP_ENDPOINT, SAMPLEAPP_FLASH_GROUP );
    363              if ( grp )
   \   000017                ; Setup parameters for call to function aps_FindGroup
   \   000017   7A01         MOV     R2,#0x1
   \   000019   7B00         MOV     R3,#0x0
   \   00001B   7914         MOV     R1,#0x14
   \   00001D   12....       LCALL   ??aps_FindGroup?relay
   \   000020   EA           MOV     A,R2
   \   000021   7001         JNZ     ??SampleApp_HandleKeys_2
   \   000023   EB           MOV     A,R3
   \                     ??SampleApp_HandleKeys_2:
   \   000024   600B         JZ      ??SampleApp_HandleKeys_3
    364              {
    365                // Remove from the group
    366                aps_RemoveGroup( SAMPLEAPP_ENDPOINT, SAMPLEAPP_FLASH_GROUP );
   \   000026                ; Setup parameters for call to function aps_RemoveGroup
   \   000026   7A01         MOV     R2,#0x1
   \   000028   7B00         MOV     R3,#0x0
   \   00002A   7914         MOV     R1,#0x14
   \   00002C   12....       LCALL   ??aps_RemoveGroup?relay
   \   00002F   8009         SJMP    ??SampleApp_HandleKeys_1
    367              }
    368              else
    369              {
    370                // Add to the flash group
    371                aps_AddGroup( SAMPLEAPP_ENDPOINT, &SampleApp_Group );
   \                     ??SampleApp_HandleKeys_3:
   \   000031                ; Setup parameters for call to function aps_AddGroup
   \   000031   7A..         MOV     R2,#(SampleApp_Group & 0xff)
   \   000033   7B..         MOV     R3,#((SampleApp_Group >> 8) & 0xff)
   \   000035   7914         MOV     R1,#0x14
   \   000037   12....       LCALL   ??aps_AddGroup?relay
    372              }
    373            }
    374          }
   \                     ??SampleApp_HandleKeys_1:
   \   00003A   02....       LJMP    ??Subroutine1_0 & 0xFFFF

   \                                 In  segment BANKED_CODE, align 1, keep-with-next
   \                     ??Subroutine1_0:
   \   000000   7F02         MOV     R7,#0x2
   \   000002   02....       LJMP    ?BANKED_LEAVE_XDATA
    375          
    376          /*********************************************************************
    377           * LOCAL FUNCTIONS
    378           */
    379          
    380          /*********************************************************************
    381           * @fn      SampleApp_MessageMSGCB
    382           *
    383           * @brief   Data message processor callback.  This function processes
    384           *          any incoming data - probably from other devices.  So, based
    385           *          on cluster ID, perform the intended action.
    386           *
    387           * @param   none
    388           *
    389           * @return  none
    390           */

   \                                 In  segment BANKED_CODE, align 1, keep-with-next
    391          void SampleApp_MessageMSGCB( afIncomingMSGPacket_t *pkt )
   \                     SampleApp_MessageMSGCB:
    392          {
   \   000000   74EC         MOV     A,#-0x14
   \   000002   12....       LCALL   ?BANKED_ENTER_XDATA
   \   000005                ; Saved register size: 20
   \   000005                ; Auto size: 0
   \   000005   EA           MOV     A,R2
   \   000006   FE           MOV     R6,A
   \   000007   EB           MOV     A,R3
   \   000008   FF           MOV     R7,A
    393            uint16 flashTime;
    394            
    395            //Location variable
    396            uint8 recv_LQI;
    397            int8 recv_RSSI;
    398            double distance_recvA;
    399            uint16 shortaddr;
    400            
    401            //Distance Parameter setting
    402            float n = 3.75; // n is signal propagation constant, also named propagation exponent.
    403            int A = 47; // A is received signal strength at a distance of one meter.
    404            
    405            switch ( pkt->clusterId )
   \   000009   8E82         MOV     DPL,R6
   \   00000B   8F83         MOV     DPH,R7
   \   00000D   A3           INC     DPTR
   \   00000E   A3           INC     DPTR
   \   00000F   A3           INC     DPTR
   \   000010   A3           INC     DPTR
   \   000011   E0           MOVX    A,@DPTR
   \   000012   6402         XRL     A,#0x2
   \   000014   7002         JNZ     ??SampleApp_MessageMSGCB_0
   \   000016   A3           INC     DPTR
   \   000017   E0           MOVX    A,@DPTR
   \                     ??SampleApp_MessageMSGCB_0:
   \   000018   6003         JZ      $+5
   \   00001A   02....       LJMP    ??SampleApp_MessageMSGCB_1 & 0xFFFF
    406            {
    407              case SAMPLEAPP_PERIODIC_CLUSTERID:
    408                break;
    409          
    410              case SAMPLEAPP_FLASH_CLUSTERID:
    411                flashTime = BUILD_UINT16(pkt->cmd.Data[1], pkt->cmd.Data[2] );
    412                HalLedBlink( HAL_LED_4, 4, 50, (flashTime / 4) ); //Blink the LED4
   \   00001D   EE           MOV     A,R6
   \   00001E   2421         ADD     A,#0x21
   \   000020   F582         MOV     DPL,A
   \   000022   EF           MOV     A,R7
   \   000023   3400         ADDC    A,#0x0
   \   000025   F583         MOV     DPH,A
   \   000027   E0           MOVX    A,@DPTR
   \   000028   F8           MOV     R0,A
   \   000029   A3           INC     DPTR
   \   00002A   E0           MOVX    A,@DPTR
   \   00002B   F9           MOV     R1,A
   \   00002C                ; Setup parameters for call to function HalLedBlink
   \   00002C   8882         MOV     DPL,R0
   \   00002E   8983         MOV     DPH,R1
   \   000030   A3           INC     DPTR
   \   000031   E0           MOVX    A,@DPTR
   \   000032   FA           MOV     R2,A
   \   000033   8882         MOV     DPL,R0
   \   000035   8983         MOV     DPH,R1
   \   000037   A3           INC     DPTR
   \   000038   A3           INC     DPTR
   \   000039   E0           MOVX    A,@DPTR
   \   00003A   F9           MOV     R1,A
   \   00003B   EA           MOV     A,R2
   \   00003C   F5..         MOV     ?V0 + 0,A
   \   00003E   E9           MOV     A,R1
   \   00003F   F5..         MOV     ?V0 + 1,A
   \   000041   7402         MOV     A,#0x2
   \   000043   78..         MOV     R0,#?V0 + 0
   \   000045   12....       LCALL   ?US_SHR
   \   000048   AC..         MOV     R4,?V0 + 0
   \   00004A   AD..         MOV     R5,?V0 + 1
   \   00004C   7B32         MOV     R3,#0x32
   \   00004E   7A04         MOV     R2,#0x4
   \   000050   7908         MOV     R1,#0x8
   \   000052   12....       LCALL   ??HalLedBlink?relay
    413                
    414                /******************* Get the LQI, RSSI, and Distance calculate *****************/
    415                shortaddr = pkt->srcAddr.addr.shortAddr;
   \   000055   8E82         MOV     DPL,R6
   \   000057   8F83         MOV     DPH,R7
   \   000059   A3           INC     DPTR
   \   00005A   A3           INC     DPTR
   \   00005B   A3           INC     DPTR
   \   00005C   A3           INC     DPTR
   \   00005D   A3           INC     DPTR
   \   00005E   A3           INC     DPTR
   \   00005F   E0           MOVX    A,@DPTR
   \   000060   F5..         MOV     ?V0 + 0,A
   \   000062   A3           INC     DPTR
   \   000063   E0           MOVX    A,@DPTR
   \   000064   F5..         MOV     ?V0 + 1,A
    416                recv_LQI = pkt->LinkQuality;  //get the LQI value in the Packet frame
    417                recv_RSSI = -(81-(recv_LQI*91) / 255); //LQI value change to the RSSI value
   \   000066   EE           MOV     A,R6
   \   000067   2416         ADD     A,#0x16
   \   000069   F582         MOV     DPL,A
   \   00006B   EF           MOV     A,R7
   \   00006C   3400         ADDC    A,#0x0
   \   00006E   F583         MOV     DPH,A
   \   000070   E0           MOVX    A,@DPTR
   \   000071   75F05B       MOV     B,#0x5b
   \   000074   A4           MUL     AB
   \   000075   F8           MOV     R0,A
   \   000076   A9F0         MOV     R1,B
   \   000078   7AFF         MOV     R2,#-0x1
   \   00007A   7B00         MOV     R3,#0x0
   \   00007C   12....       LCALL   ?S_DIV_MOD
   \   00007F   E8           MOV     A,R0
   \   000080   24AF         ADD     A,#-0x51
   \   000082   FC           MOV     R4,A
    418                distance_recvA = pow(10,((ABS(recv_RSSI)- A)/(10*n))); 
   \   000083   FA           MOV     R2,A
   \   000084   33           RLC     A
   \   000085   95E0         SUBB    A,0xE0 /* A   */
   \   000087   FB           MOV     R3,A
   \   000088   EC           MOV     A,R4
   \   000089   C3           CLR     C
   \   00008A   9400         SUBB    A,#0x0
   \   00008C   65D0         XRL     A,PSW
   \   00008E   33           RLC     A
   \   00008F   5008         JNC     ??SampleApp_MessageMSGCB_2
   \   000091   C3           CLR     C
   \   000092   E4           CLR     A
   \   000093   9A           SUBB    A,R2
   \   000094   F8           MOV     R0,A
   \   000095   E4           CLR     A
   \   000096   9B           SUBB    A,R3
   \   000097   8003         SJMP    ??SampleApp_MessageMSGCB_3
   \                     ??SampleApp_MessageMSGCB_2:
   \   000099   EA           MOV     A,R2
   \   00009A   F8           MOV     R0,A
   \   00009B   EB           MOV     A,R3
   \                     ??SampleApp_MessageMSGCB_3:
   \   00009C   F9           MOV     R1,A
   \   00009D                ; Setup parameters for call to function pow
   \   00009D   74D1         MOV     A,#-0x2f
   \   00009F   28           ADD     A,R0
   \   0000A0   F5..         MOV     ?V0 + 4,A
   \   0000A2   74FF         MOV     A,#-0x1
   \   0000A4   39           ADDC    A,R1
   \   0000A5   F5..         MOV     ?V0 + 5,A
   \   0000A7   33           RLC     A
   \   0000A8   95E0         SUBB    A,0xE0 /* A   */
   \   0000AA   F5..         MOV     ?V0 + 6,A
   \   0000AC   F5..         MOV     ?V0 + 7,A
   \   0000AE   78..         MOV     R0,#?V0 + 4
   \   0000B0   12....       LCALL   ?L_TO_FLT
   \   0000B3   90....       MOV     DPTR,#__Constant_42160000
   \   0000B6   78..         MOV     R0,#?V0 + 8
   \   0000B8   12....       LCALL   ?L_MOV_X
   \   0000BB   78..         MOV     R0,#?V0 + 4
   \   0000BD   79..         MOV     R1,#?V0 + 8
   \   0000BF   12....       LCALL   ?FLT_DIV
   \   0000C2   78..         MOV     R0,#?V0 + 4
   \   0000C4   12....       LCALL   ?PUSH_XSTACK_I_FOUR
   \   0000C7   90....       MOV     DPTR,#__Constant_41200000
   \   0000CA   78..         MOV     R0,#?V0 + 4
   \   0000CC   12....       LCALL   ?L_MOV_X
   \   0000CF   AA..         MOV     R2,?V0 + 4
   \   0000D1   AB..         MOV     R3,?V0 + 5
   \   0000D3   AC..         MOV     R4,?V0 + 6
   \   0000D5   AD..         MOV     R5,?V0 + 7
   \   0000D7   12....       LCALL   ??pow?relay
   \   0000DA   7404         MOV     A,#0x4
   \   0000DC   12....       LCALL   ?DEALLOC_XSTACK8
   \   0000DF   8A..         MOV     ?V0 + 4,R2
   \   0000E1   8B..         MOV     ?V0 + 5,R3
   \   0000E3   8C..         MOV     ?V0 + 6,R4
   \   0000E5   8D..         MOV     ?V0 + 7,R5
    419                
    420                halLcdDisplayUint16(HAL_LCD_LINE_4, 3, HAL_LCD_RADIX_DEC, shortaddr);
   \   0000E7                ; Setup parameters for call to function halLcdDisplayUint16
   \   0000E7   AC..         MOV     R4,?V0 + 0
   \   0000E9   AD..         MOV     R5,?V0 + 1
   \   0000EB   7B00         MOV     R3,#0x0
   \   0000ED   7A03         MOV     R2,#0x3
   \   0000EF   7904         MOV     R1,#0x4
   \   0000F1   12....       LCALL   ??halLcdDisplayUint16?relay
    421                //halLcdDisplayUint8(HAL_LCD_LINE_4, 12, HAL_LCD_RADIX_DEC, recv_RSSI);
    422                halLcdDisplayUint8(HAL_LCD_LINE_4, 12, HAL_LCD_RADIX_DEC, (uint8)distance_recvA);
   \   0000F4                ; Setup parameters for call to function halLcdDisplayUint8
   \   0000F4   78..         MOV     R0,#?V0 + 4
   \   0000F6   12....       LCALL   ?FLT_TO_L
   \   0000F9   85....       MOV     ?V0 + 0,?V0 + 4
   \   0000FC   AC..         MOV     R4,?V0 + 0
   \   0000FE   7B00         MOV     R3,#0x0
   \   000100   7A0C         MOV     R2,#0xc
   \   000102   7904         MOV     R1,#0x4
   \   000104   12....       LCALL   ??halLcdDisplayUint8?relay
    423                break;
    424            }
    425          }
   \                     ??SampleApp_MessageMSGCB_1:
   \   000107   7F0C         MOV     R7,#0xc
   \   000109   02....       LJMP    ?BANKED_LEAVE_XDATA
    426          
    427          /*********************************************************************
    428           * @fn      SampleApp_SendPeriodicMessage
    429           *
    430           * @brief   Send the periodic message.
    431           *
    432           * @param   none
    433           *
    434           * @return  none
    435           */

   \                                 In  segment BANKED_CODE, align 1, keep-with-next
    436          void SampleApp_SendPeriodicMessage( void )
   \                     SampleApp_SendPeriodicMessage:
    437          {
   \   000000   74F6         MOV     A,#-0xa
   \   000002   12....       LCALL   ?BANKED_ENTER_XDATA
   \   000005                ; Saved register size: 10
   \   000005                ; Auto size: 3
   \   000005   74FD         MOV     A,#-0x3
   \   000007   12....       LCALL   ?ALLOC_XSTACK8
    438            char MessageData[] = "OK";
   \   00000A   85..82       MOV     DPL,?XSP + 0
   \   00000D   85..83       MOV     DPH,?XSP + 1
   \   000010   AC82         MOV     R4,DPL
   \   000012   AD83         MOV     R5,DPH
   \   000014   7583..       MOV     DPH,#((`?<Constant "OK">` >> 8) & 0xff)
   \   000017   7582..       MOV     DPL,#(`?<Constant "OK">` & 0xff)
   \   00001A   7403         MOV     A,#0x3
   \   00001C   12....       LCALL   ?MOVE_LONG8_XDATA_XDATA
    439            
    440          //  if ( AF_DataRequest ( &SampleApp_Periodic_DstAddr, &SampleApp_epDesc,
    441          //                       SAMPLEAPP_PERIODIC_CLUSTERID,
    442          //                       1,
    443          //                       (uint8*)&SampleAppPeriodicCounter,
    444          //                       &SampleApp_TransID,
    445          //                       AF_DISCV_ROUTE, AF_DEFAULT_RADIUS ) == afStatus_SUCCESS )
    446            
    447            if ( AF_DataRequest( &SampleApp_Periodic_DstAddr,          // ¥Øªº¦a¦ì§}
    448                                 &SampleApp_epDesc,                    // end-point´y­z²Å¸¹
    449                                 SAMPLEAPP_PERIODIC_CLUSTERID,         // Cluster ID
    450                                 (byte)osal_strlen( MessageData ) + 1, // MessageData¼Æ¾Úªø«×
    451                                 (byte *)&MessageData,                 // MessageData¼Æ¾Ú¥[¸ü
    452                                 &SampleApp_TransID,                   // °T®§ID
    453                                 AF_DISCV_ROUTE,                       
    454                                 AF_DEFAULT_RADIUS                     // µo°e¥b®|
    455                                ) == afStatus_SUCCESS                  
    456               )
   \   00001F                ; Setup parameters for call to function AF_DataRequest
   \   00001F   75..1E       MOV     ?V0 + 0,#0x1e
   \   000022   78..         MOV     R0,#?V0 + 0
   \   000024   12....       LCALL   ?PUSH_XSTACK_I_ONE
   \   000027   75....       MOV     ?V0 + 0,#(SampleApp_TransID & 0xff)
   \   00002A   75....       MOV     ?V0 + 1,#((SampleApp_TransID >> 8) & 0xff)
   \   00002D   78..         MOV     R0,#?V0 + 0
   \   00002F   12....       LCALL   ?PUSH_XSTACK_I_TWO
   \   000032   7403         MOV     A,#0x3
   \   000034   12....       LCALL   ?XSTACK_DISP0_8
   \   000037   8582..       MOV     ?V0 + 0,DPL
   \   00003A   8583..       MOV     ?V0 + 1,DPH
   \   00003D   78..         MOV     R0,#?V0 + 0
   \   00003F   12....       LCALL   ?PUSH_XSTACK_I_TWO
   \   000042                ; Setup parameters for call to function osal_strlen
   \   000042   7405         MOV     A,#0x5
   \   000044   12....       LCALL   ?XSTACK_DISP0_8
   \   000047   AA82         MOV     R2,DPL
   \   000049   AB83         MOV     R3,DPH
   \   00004B   12....       LCALL   ??osal_strlen?relay
   \   00004E   EA           MOV     A,R2
   \   00004F   F8           MOV     R0,A
   \   000050   7401         MOV     A,#0x1
   \   000052   28           ADD     A,R0
   \   000053   F5..         MOV     ?V0 + 0,A
   \   000055   E4           CLR     A
   \   000056   3400         ADDC    A,#0x0
   \   000058   F5..         MOV     ?V0 + 1,A
   \   00005A   78..         MOV     R0,#?V0 + 0
   \   00005C   12....       LCALL   ?PUSH_XSTACK_I_TWO
   \   00005F   75..01       MOV     ?V0 + 0,#0x1
   \   000062   75..00       MOV     ?V0 + 1,#0x0
   \   000065   78..         MOV     R0,#?V0 + 0
   \   000067   12....       LCALL   ?PUSH_XSTACK_I_TWO
   \   00006A   7920         MOV     R1,#0x20
   \   00006C   7C..         MOV     R4,#(SampleApp_epDesc & 0xff)
   \   00006E   7D..         MOV     R5,#((SampleApp_epDesc >> 8) & 0xff)
   \   000070   7A..         MOV     R2,#(SampleApp_Periodic_DstAddr & 0xff)
   \   000072   7B..         MOV     R3,#((SampleApp_Periodic_DstAddr >> 8) & 0xff)
   \   000074                REQUIRE ?Subroutine0
   \   000074                ; // Fall through to label ?Subroutine0
    457            { /* Success occurred in request to send*/ }
    458            else
    459            { /* Error occurred in request to send. */ }
    460          }

   \                                 In  segment BANKED_CODE, align 1, keep-with-next
   \                     ?Subroutine0:
   \   000000   12....       LCALL   ??AF_DataRequest?relay
   \   000003   7409         MOV     A,#0x9
   \   000005   12....       LCALL   ?DEALLOC_XSTACK8
   \   000008   7403         MOV     A,#0x3
   \   00000A   12....       LCALL   ?DEALLOC_XSTACK8
   \   00000D                REQUIRE ??Subroutine1_0
   \   00000D                ; // Fall through to label ??Subroutine1_0
    461          
    462          /*********************************************************************
    463           * @fn      SampleApp_SendFlashMessage
    464           *
    465           * @brief   Send the flash message to group 1.
    466           *
    467           * @param   flashTime - in milliseconds
    468           *
    469           * @return  none
    470           */

   \                                 In  segment BANKED_CODE, align 1, keep-with-next
    471          void SampleApp_SendFlashMessage( uint16 flashTime )
   \                     SampleApp_SendFlashMessage:
    472          {
   \   000000   74F6         MOV     A,#-0xa
   \   000002   12....       LCALL   ?BANKED_ENTER_XDATA
   \   000005                ; Saved register size: 10
   \   000005                ; Auto size: 3
   \   000005   74FD         MOV     A,#-0x3
   \   000007   12....       LCALL   ?ALLOC_XSTACK8
    473            uint8 buffer[3];
    474            buffer[0] = (uint8)(SampleAppFlashCounter++);
   \   00000A   90....       MOV     DPTR,#SampleAppFlashCounter
   \   00000D   E0           MOVX    A,@DPTR
   \   00000E   85..82       MOV     DPL,?XSP + 0
   \   000011   85..83       MOV     DPH,?XSP + 1
   \   000014   F0           MOVX    @DPTR,A
   \   000015   90....       MOV     DPTR,#SampleAppFlashCounter
   \   000018   E0           MOVX    A,@DPTR
   \   000019   04           INC     A
   \   00001A   F0           MOVX    @DPTR,A
    475            buffer[1] = LO_UINT16( flashTime );
   \   00001B   7401         MOV     A,#0x1
   \   00001D   12....       LCALL   ?XSTACK_DISP0_8
   \   000020   EA           MOV     A,R2
   \   000021   F0           MOVX    @DPTR,A
    476            buffer[2] = HI_UINT16( flashTime );
   \   000022   7402         MOV     A,#0x2
   \   000024   12....       LCALL   ?XSTACK_DISP0_8
   \   000027   EB           MOV     A,R3
   \   000028   F0           MOVX    @DPTR,A
    477          
    478            if ( AF_DataRequest( &SampleApp_Flash_DstAddr, &SampleApp_epDesc,
    479                                 SAMPLEAPP_FLASH_CLUSTERID,
    480                                 3,
    481                                 buffer,
    482                                 &SampleApp_TransID,
    483                                 AF_DISCV_ROUTE,
    484                                 AF_DEFAULT_RADIUS ) == afStatus_SUCCESS )
   \   000029                ; Setup parameters for call to function AF_DataRequest
   \   000029   75..1E       MOV     ?V0 + 0,#0x1e
   \   00002C   78..         MOV     R0,#?V0 + 0
   \   00002E   12....       LCALL   ?PUSH_XSTACK_I_ONE
   \   000031   75....       MOV     ?V0 + 0,#(SampleApp_TransID & 0xff)
   \   000034   75....       MOV     ?V0 + 1,#((SampleApp_TransID >> 8) & 0xff)
   \   000037   78..         MOV     R0,#?V0 + 0
   \   000039   12....       LCALL   ?PUSH_XSTACK_I_TWO
   \   00003C   7403         MOV     A,#0x3
   \   00003E   12....       LCALL   ?XSTACK_DISP0_8
   \   000041   8582..       MOV     ?V0 + 0,DPL
   \   000044   8583..       MOV     ?V0 + 1,DPH
   \   000047   78..         MOV     R0,#?V0 + 0
   \   000049   12....       LCALL   ?PUSH_XSTACK_I_TWO
   \   00004C   75..03       MOV     ?V0 + 0,#0x3
   \   00004F   75..00       MOV     ?V0 + 1,#0x0
   \   000052   78..         MOV     R0,#?V0 + 0
   \   000054   12....       LCALL   ?PUSH_XSTACK_I_TWO
   \   000057   75..02       MOV     ?V0 + 0,#0x2
   \   00005A   78..         MOV     R0,#?V0 + 0
   \   00005C   12....       LCALL   ?PUSH_XSTACK_I_TWO
   \   00005F   7920         MOV     R1,#0x20
   \   000061   7C..         MOV     R4,#(SampleApp_epDesc & 0xff)
   \   000063   7D..         MOV     R5,#((SampleApp_epDesc >> 8) & 0xff)
   \   000065   7A..         MOV     R2,#(SampleApp_Flash_DstAddr & 0xff)
   \   000067   7B..         MOV     R3,#((SampleApp_Flash_DstAddr >> 8) & 0xff)
   \   000069   80..         SJMP    ?Subroutine0
    485            {
    486            }
    487            else
    488            {
    489              // Error occurred in request to send.
    490            }
    491          }

   \                                 In  segment BANK_RELAYS, align 1
   \                     ??SampleApp_Init?relay:
   \   000000   12....       LCALL   ?BDISPATCH
   \   000003   ......       DC24    SampleApp_Init

   \                                 In  segment BANK_RELAYS, align 1
   \                     ??SampleApp_ProcessEvent?relay:
   \   000000   12....       LCALL   ?BDISPATCH
   \   000003   ......       DC24    SampleApp_ProcessEvent

   \                                 In  segment BANK_RELAYS, align 1
   \                     ??SampleApp_HandleKeys?relay:
   \   000000   12....       LCALL   ?BDISPATCH
   \   000003   ......       DC24    SampleApp_HandleKeys

   \                                 In  segment BANK_RELAYS, align 1
   \                     ??SampleApp_MessageMSGCB?relay:
   \   000000   12....       LCALL   ?BDISPATCH
   \   000003   ......       DC24    SampleApp_MessageMSGCB

   \                                 In  segment BANK_RELAYS, align 1
   \                     ??SampleApp_SendPeriodicMessage?relay:
   \   000000   12....       LCALL   ?BDISPATCH
   \   000003   ......       DC24    SampleApp_SendPeriodicMessage

   \                                 In  segment BANK_RELAYS, align 1
   \                     ??SampleApp_SendFlashMessage?relay:
   \   000000   12....       LCALL   ?BDISPATCH
   \   000003   ......       DC24    SampleApp_SendFlashMessage

   \                                 In  segment XDATA_ROM_C, align 1
   \                     `?<Constant "Group 1">`:
   \   000000   47726F75     DB "Group 1"
   \            70203100

   \                                 In  segment XDATA_ROM_C, align 1
   \                     `?<Constant "SampleApp">`:
   \   000000   53616D70     DB "SampleApp"
   \            6C654170
   \            7000    

   \                                 In  segment XDATA_ROM_C, align 1
   \                     `?<Constant "OK">`:
   \   000000   4F4B00       DB "OK"

   \                                 In  segment XDATA_ROM_C, align 1
   \                     __Constant_42160000:
   \   000000   00001642     DD 42160000H

   \                                 In  segment XDATA_ROM_C, align 1
   \                     __Constant_41200000:
   \   000000   00002041     DD 41200000H
    492          
    493          /*********************************************************************
    494          *********************************************************************/

   Maximum stack usage in bytes:

     Function                       ISTACK PSTACK XSTACK
     --------                       ------ ------ ------
     SampleApp_HandleKeys               0      0     22
       -> SampleApp_SendFlashMessage
                                        0      0     20
       -> aps_FindGroup                 0      0     20
       -> aps_RemoveGroup               0      0     20
       -> aps_AddGroup                  0      0     20
     SampleApp_Init                     0      0     14
       -> afRegister                    0      0     22
       -> RegisterForKeys               0      0     22
       -> osal_memcpy                   0      0     28
       -> aps_AddGroup                  0      0     22
       -> HalLcdWriteString             0      0     22
     SampleApp_MessageMSGCB             0      0     36
       -> HalLedBlink                   0      0     40
       -> pow                           0      0     48
       -> halLcdDisplayUint16           0      0     40
       -> halLcdDisplayUint8            0      0     40
     SampleApp_ProcessEvent             0      0     12
       -> osal_msg_receive              0      0     24
       -> osal_start_timerEx            0      0     24
       -> osal_msg_deallocate           0      0     24
       -> osal_msg_receive              0      0     24
       -> SampleApp_HandleKeys          0      0     24
       -> SampleApp_MessageMSGCB        0      0     24
       -> SampleApp_SendPeriodicMessage
                                        0      0     24
       -> osal_start_timerEx            0      0     24
     SampleApp_SendFlashMessage         1      0     32
       -> AF_DataRequest                0      0     44
     SampleApp_SendPeriodicMessage      2      0     34
       -> osal_strlen                   0      0     36
       -> AF_DataRequest                0      0     44


   Segment part sizes:

     Function/Label                        Bytes
     --------------                        -----
     SampleApp_ClusterList                    4
     SampleApp_SimpleDesc                    12
     SampleApp_epDesc                         6
     SampleApp_TaskID                         1
     SampleApp_NwkState                       1
     SampleApp_TransID                        1
     SampleApp_Periodic_DstAddr              12
     SampleApp_Flash_DstAddr                 12
     SampleApp_Group                         18
     SampleAppPeriodicCounter                 1
     SampleAppFlashCounter                    1
     SampleApp_Init                         169
     SampleApp_ProcessEvent                 199
     SampleApp_HandleKeys                    61
     ??Subroutine1_0                          5
     SampleApp_MessageMSGCB                 268
     SampleApp_SendPeriodicMessage          116
     ?Subroutine0                            13
     SampleApp_SendFlashMessage             107
     ??SampleApp_Init?relay                   6
     ??SampleApp_ProcessEvent?relay           6
     ??SampleApp_HandleKeys?relay             6
     ??SampleApp_MessageMSGCB?relay           6
     ??SampleApp_SendPeriodicMessage?relay    6
     ??SampleApp_SendFlashMessage?relay       6
     ?<Constant "Group 1">                    8
     ?<Constant "SampleApp">                 10
     ?<Constant "OK">                         3
     __Constant_42160000                      4
     __Constant_41200000                      4

 
 938 bytes in segment BANKED_CODE
  36 bytes in segment BANK_RELAYS
  45 bytes in segment XDATA_ROM_C
  53 bytes in segment XDATA_Z
 
 974 bytes of CODE  memory
  37 bytes of CONST memory (+ 8 bytes shared)
  53 bytes of XDATA memory

Errors: none
Warnings: none
