///////////////////////////////////////////////////////////////////////////////
//                                                                            /
// IAR C/C++ Compiler V7.51A/W32 for 8051               22/Jul/2010  17:47:27 /
// Copyright 2004-2009 IAR Systems AB.                                        /
//                                                                            /
//    Core               =  plain                                             /
//    Code model         =  banked                                            /
//    Data model         =  large                                             /
//    Calling convention =  xdata reentrant                                   /
//    Constant location  =  data_rom                                          /
//    Dptr setup         =  1,16                                              /
//    Source file        =  D:\¤½¥q²£«~\XT-200\ZIGBEE CC2530\ZIGBEE           /
//                          Z-STACK\ZStack-CC2530-2.3.0-1.4.0\Components\hal\ /
//                          target\CC2530KB\hal_key.c                         /
//    Command line       =  -f "D:\¤½¥q²£«~\XT-200\ZIGBEE CC2530\ZIGBEE       /
//                          Z-STACK\ZStack-CC2530-2.3.0-1.4.0\Projects\zstack /
//                          \Sensor Network Application\ZIGBEE Endpoint &     /
//                          Device\CC2530DB\..\..\..\Tools\CC2530DB\f8wEndev. /
//                          cfg" (-DCPU32MHZ -DROOT=__near_func               /
//                          -DBLINK_LEDS) -f "D:\¤½¥q²£«~\XT-200\ZIGBEE       /
//                          CC2530\ZIGBEE Z-STACK\ZStack-CC2530-2.3.0-1.4.0\P /
//                          rojects\zstack\Sensor Network Application\ZIGBEE  /
//                          Endpoint & Device\CC2530DB\..\..\..\Tools\CC2530D /
//                          B\f8wConfig.cfg" (-DSECURE=0                      /
//                          -DZG_SECURE_DYNAMIC=0 -DREFLECTOR                 /
//                          -DDEFAULT_CHANLIST=0x00000800                     /
//                          -DZDAPP_CONFIG_PAN_ID=0xFFFF                      /
//                          -DNWK_START_DELAY=100 -DEXTENDED_JOINING_RANDOM_M /
//                          ASK=0x007F -DBEACON_REQUEST_DELAY=100             /
//                          -DBEACON_REQ_DELAY_MASK=0x00FF                    /
//                          -DROUTE_EXPIRY_TIME=30 -DAPSC_ACK_WAIT_DURATION_P /
//                          OLLED=3000 -DNWK_INDIRECT_MSG_TIMEOUT=7           /
//                          -DMAX_RREQ_ENTRIES=8 -DAPSC_MAX_FRAME_RETRIES=3   /
//                          -DNWK_MAX_DATA_RETRIES=2                          /
//                          -DMAX_POLL_FAILURE_RETRIES=2 -DMAX_BCAST=9        /
//                          -DAPS_MAX_GROUPS=16 -DMAX_RTG_ENTRIES=40          /
//                          -DNWK_MAX_BINDING_ENTRIES=4                       /
//                          -DMAX_BINDING_CLUSTER_IDS=4                       /
//                          "-DDEFAULT_KEY={0x01, 0x03, 0x05, 0x07, 0x09,     /
//                          0x0B, 0x0D, 0x0F, 0x00, 0x02, 0x04, 0x06, 0x08,   /
//                          0x0A, 0x0C, 0x0D}" -DMAC_MAX_FRAME_SIZE=116       /
//                          "-DCONST=const __code" -DGENERIC=__generic        /
//                          -DRFD_RCVC_ALWAYS_ON=TRUE -DPOLL_RATE=1000        /
//                          -DQUEUED_POLL_RATE=100 -DRESPONSE_POLL_RATE=100   /
//                          -DREJOIN_POLL_RATE=440) -f                        /
//                          "D:\¤½¥q²£«~\XT-200\ZIGBEE CC2530\ZIGBEE          /
//                          Z-STACK\ZStack-CC2530-2.3.0-1.4.0\Projects\zstack /
//                          \Sensor Network Application\ZIGBEE Endpoint &     /
//                          Device\CC2530DB\..\..\..\Tools\CC2530DB\f8wZCL.cf /
//                          g" (-DZCL_READ -DZCL_WRITE -DZCL_BASIC            /
//                          -DZCL_IDENTIFY -DZCL_ON_OFF -DZCL_KEY_ESTABLISH   /
//                          -DZCL_LOAD_CONTROL -DZCL_SIMPLE_METERING          /
//                          -DZCL_PRICING) -DZCL_MESSAGE                      /
//                          "D:\¤½¥q²£«~\XT-200\ZIGBEE CC2530\ZIGBEE          /
//                          Z-STACK\ZStack-CC2530-2.3.0-1.4.0\Components\hal\ /
//                          target\CC2530KB\hal_key.c" -D NWK_AUTO_POLL -D    /
//                          ZTOOL_P1 -D MT_TASK -D MT_APP_FUNC -D             /
//                          MT_SYS_FUNC -D MT_ZDO_FUNC -D                     /
//                          LCD_SUPPORTED=DEBUG -D xPOWER_SAVING -D M170 -lC  /
//                          "D:\¤½¥q²£«~\XT-200\ZIGBEE CC2530\ZIGBEE          /
//                          Z-STACK\ZStack-CC2530-2.3.0-1.4.0\Projects\zstack /
//                          \Sensor Network Application\ZIGBEE Endpoint &     /
//                          Device\CC2530DB\EndDeviceKB_M170\List\" -lA       /
//                          "D:\¤½¥q²£«~\XT-200\ZIGBEE CC2530\ZIGBEE          /
//                          Z-STACK\ZStack-CC2530-2.3.0-1.4.0\Projects\zstack /
//                          \Sensor Network Application\ZIGBEE Endpoint &     /
//                          Device\CC2530DB\EndDeviceKB_M170\List\"           /
//                          --diag_suppress Pe001,Pa010 -o                    /
//                          "D:\¤½¥q²£«~\XT-200\ZIGBEE CC2530\ZIGBEE          /
//                          Z-STACK\ZStack-CC2530-2.3.0-1.4.0\Projects\zstack /
//                          \Sensor Network Application\ZIGBEE Endpoint &     /
//                          Device\CC2530DB\EndDeviceKB_M170\Obj\" -e         /
//                          --require_prototypes --debug --core=plain         /
//                          --dptr=16,1 --data_model=large                    /
//                          --code_model=banked --calling_convention=xdata_re /
//                          entrant --place_constants=data_rom                /
//                          --nr_virtual_regs 16 -I                           /
//                          "D:\¤½¥q²£«~\XT-200\ZIGBEE CC2530\ZIGBEE          /
//                          Z-STACK\ZStack-CC2530-2.3.0-1.4.0\Projects\zstack /
//                          \Sensor Network Application\ZIGBEE Endpoint &     /
//                          Device\CC2530DB\" -I "D:\¤½¥q²£«~\XT-200\ZIGBEE   /
//                          CC2530\ZIGBEE Z-STACK\ZStack-CC2530-2.3.0-1.4.0\P /
//                          rojects\zstack\Sensor Network Application\ZIGBEE  /
//                          Endpoint & Device\CC2530DB\..\SOURCE\" -I         /
//                          "D:\¤½¥q²£«~\XT-200\ZIGBEE CC2530\ZIGBEE          /
//                          Z-STACK\ZStack-CC2530-2.3.0-1.4.0\Projects\zstack /
//                          \Sensor Network Application\ZIGBEE Endpoint &     /
//                          Device\CC2530DB\..\..\SOURCE\" -I                 /
//                          "D:\¤½¥q²£«~\XT-200\ZIGBEE CC2530\ZIGBEE          /
//                          Z-STACK\ZStack-CC2530-2.3.0-1.4.0\Projects\zstack /
//                          \Sensor Network Application\ZIGBEE Endpoint &     /
//                          Device\CC2530DB\..\..\..\ZMAIN\TI2530DB\" -I      /
//                          "D:\¤½¥q²£«~\XT-200\ZIGBEE CC2530\ZIGBEE          /
//                          Z-STACK\ZStack-CC2530-2.3.0-1.4.0\Projects\zstack /
//                          \Sensor Network Application\ZIGBEE Endpoint &     /
//                          Device\CC2530DB\..\..\..\..\..\COMPONENTS\MT\"    /
//                          -I "D:\¤½¥q²£«~\XT-200\ZIGBEE CC2530\ZIGBEE       /
//                          Z-STACK\ZStack-CC2530-2.3.0-1.4.0\Projects\zstack /
//                          \Sensor Network Application\ZIGBEE Endpoint &     /
//                          Device\CC2530DB\..\..\..\..\..\COMPONENTS\HAL\INC /
//                          LUDE\" -I "D:\¤½¥q²£«~\XT-200\ZIGBEE              /
//                          CC2530\ZIGBEE Z-STACK\ZStack-CC2530-2.3.0-1.4.0\P /
//                          rojects\zstack\Sensor Network Application\ZIGBEE  /
//                          Endpoint & Device\CC2530DB\..\..\..\..\..\COMPONE /
//                          NTS\HAL\MODULE\" -I "D:\¤½¥q²£«~\XT-200\ZIGBEE    /
//                          CC2530\ZIGBEE Z-STACK\ZStack-CC2530-2.3.0-1.4.0\P /
//                          rojects\zstack\Sensor Network Application\ZIGBEE  /
//                          Endpoint & Device\CC2530DB\..\..\..\..\..\COMPONE /
//                          NTS\HAL\TARGET\CC2530EB\" -I                      /
//                          "D:\¤½¥q²£«~\XT-200\ZIGBEE CC2530\ZIGBEE          /
//                          Z-STACK\ZStack-CC2530-2.3.0-1.4.0\Projects\zstack /
//                          \Sensor Network Application\ZIGBEE Endpoint &     /
//                          Device\CC2530DB\..\..\..\..\..\COMPONENTS\OSAL\MC /
//                          U\CCSOC\" -I "D:\¤½¥q²£«~\XT-200\ZIGBEE           /
//                          CC2530\ZIGBEE Z-STACK\ZStack-CC2530-2.3.0-1.4.0\P /
//                          rojects\zstack\Sensor Network Application\ZIGBEE  /
//                          Endpoint & Device\CC2530DB\..\..\..\..\..\COMPONE /
//                          NTS\OSAL\INCLUDE\" -I "D:\¤½¥q²£«~\XT-200\ZIGBEE  /
//                          CC2530\ZIGBEE Z-STACK\ZStack-CC2530-2.3.0-1.4.0\P /
//                          rojects\zstack\Sensor Network Application\ZIGBEE  /
//                          Endpoint & Device\CC2530DB\..\..\..\..\..\COMPONE /
//                          NTS\STACK\AF\" -I "D:\¤½¥q²£«~\XT-200\ZIGBEE      /
//                          CC2530\ZIGBEE Z-STACK\ZStack-CC2530-2.3.0-1.4.0\P /
//                          rojects\zstack\Sensor Network Application\ZIGBEE  /
//                          Endpoint & Device\CC2530DB\..\..\..\..\..\COMPONE /
//                          NTS\STACK\NWK\" -I "D:\¤½¥q²£«~\XT-200\ZIGBEE     /
//                          CC2530\ZIGBEE Z-STACK\ZStack-CC2530-2.3.0-1.4.0\P /
//                          rojects\zstack\Sensor Network Application\ZIGBEE  /
//                          Endpoint & Device\CC2530DB\..\..\..\..\..\COMPONE /
//                          NTS\STACK\SEC\" -I "D:\¤½¥q²£«~\XT-200\ZIGBEE     /
//                          CC2530\ZIGBEE Z-STACK\ZStack-CC2530-2.3.0-1.4.0\P /
//                          rojects\zstack\Sensor Network Application\ZIGBEE  /
//                          Endpoint & Device\CC2530DB\..\..\..\..\..\COMPONE /
//                          NTS\STACK\SAPI\" -I "D:\¤½¥q²£«~\XT-200\ZIGBEE    /
//                          CC2530\ZIGBEE Z-STACK\ZStack-CC2530-2.3.0-1.4.0\P /
//                          rojects\zstack\Sensor Network Application\ZIGBEE  /
//                          Endpoint & Device\CC2530DB\..\..\..\..\..\COMPONE /
//                          NTS\STACK\SYS\" -I "D:\¤½¥q²£«~\XT-200\ZIGBEE     /
//                          CC2530\ZIGBEE Z-STACK\ZStack-CC2530-2.3.0-1.4.0\P /
//                          rojects\zstack\Sensor Network Application\ZIGBEE  /
//                          Endpoint & Device\CC2530DB\..\..\..\..\..\COMPONE /
//                          NTS\STACK\ZCL\" -I "D:\¤½¥q²£«~\XT-200\ZIGBEE     /
//                          CC2530\ZIGBEE Z-STACK\ZStack-CC2530-2.3.0-1.4.0\P /
//                          rojects\zstack\Sensor Network Application\ZIGBEE  /
//                          Endpoint & Device\CC2530DB\..\..\..\..\..\COMPONE /
//                          NTS\STACK\ZDO\" -I "D:\¤½¥q²£«~\XT-200\ZIGBEE     /
//                          CC2530\ZIGBEE Z-STACK\ZStack-CC2530-2.3.0-1.4.0\P /
//                          rojects\zstack\Sensor Network Application\ZIGBEE  /
//                          Endpoint & Device\CC2530DB\..\..\..\..\..\COMPONE /
//                          NTS\ZMAC\F8W\" -I "D:\¤½¥q²£«~\XT-200\ZIGBEE      /
//                          CC2530\ZIGBEE Z-STACK\ZStack-CC2530-2.3.0-1.4.0\P /
//                          rojects\zstack\Sensor Network Application\ZIGBEE  /
//                          Endpoint & Device\CC2530DB\..\..\..\..\..\COMPONE /
//                          NTS\ZMAC\" -I "D:\¤½¥q²£«~\XT-200\ZIGBEE          /
//                          CC2530\ZIGBEE Z-STACK\ZStack-CC2530-2.3.0-1.4.0\P /
//                          rojects\zstack\Sensor Network Application\ZIGBEE  /
//                          Endpoint & Device\CC2530DB\..\..\..\..\..\COMPONE /
//                          NTS\SERVICES\SADDR\" -I                           /
//                          "D:\¤½¥q²£«~\XT-200\ZIGBEE CC2530\ZIGBEE          /
//                          Z-STACK\ZStack-CC2530-2.3.0-1.4.0\Projects\zstack /
//                          \Sensor Network Application\ZIGBEE Endpoint &     /
//                          Device\CC2530DB\..\..\..\..\..\COMPONENTS\SERVICE /
//                          S\SDATA\" -I "D:\¤½¥q²£«~\XT-200\ZIGBEE           /
//                          CC2530\ZIGBEE Z-STACK\ZStack-CC2530-2.3.0-1.4.0\P /
//                          rojects\zstack\Sensor Network Application\ZIGBEE  /
//                          Endpoint & Device\CC2530DB\..\..\..\..\..\COMPONE /
//                          NTS\MAC\INCLUDE\" -I "D:\¤½¥q²£«~\XT-200\ZIGBEE   /
//                          CC2530\ZIGBEE Z-STACK\ZStack-CC2530-2.3.0-1.4.0\P /
//                          rojects\zstack\Sensor Network Application\ZIGBEE  /
//                          Endpoint & Device\CC2530DB\..\..\..\..\..\COMPONE /
//                          NTS\MAC\HIGH_LEVEL\" -I                           /
//                          "D:\¤½¥q²£«~\XT-200\ZIGBEE CC2530\ZIGBEE          /
//                          Z-STACK\ZStack-CC2530-2.3.0-1.4.0\Projects\zstack /
//                          \Sensor Network Application\ZIGBEE Endpoint &     /
//                          Device\CC2530DB\..\..\..\..\..\COMPONENTS\MAC\LOW /
//                          _LEVEL\srf04\" -I "D:\¤½¥q²£«~\XT-200\ZIGBEE      /
//                          CC2530\ZIGBEE Z-STACK\ZStack-CC2530-2.3.0-1.4.0\P /
//                          rojects\zstack\Sensor Network Application\ZIGBEE  /
//                          Endpoint & Device\CC2530DB\..\..\..\..\..\COMPONE /
//                          NTS\MAC\LOW_LEVEL\srf04\SINGLE_CHIP\" -I "C:\IAR  /
//                          Systems\Embedded Workbench 5.3\8051\INC\" -I      /
//                          "C:\IAR Systems\Embedded Workbench                /
//                          5.3\8051\INC\CLIB\" -Ohz                          /
//    List file          =  D:\¤½¥q²£«~\XT-200\ZIGBEE CC2530\ZIGBEE           /
//                          Z-STACK\ZStack-CC2530-2.3.0-1.4.0\Projects\zstack /
//                          \Sensor Network Application\ZIGBEE Endpoint &     /
//                          Device\CC2530DB\EndDeviceKB_M170\List\hal_key.s51 /
//                                                                            /
//                                                                            /
///////////////////////////////////////////////////////////////////////////////

        NAME hal_key

        RTMODEL "__calling_convention", "xdata_reentrant"
        RTMODEL "__code_model", "banked"
        RTMODEL "__core", "plain"
        RTMODEL "__data_model", "large"
        RTMODEL "__dptr_size", "16"
        RTMODEL "__extended_stack", "disabled"
        RTMODEL "__location_for_constants", "data"
        RTMODEL "__number_of_dptrs", "1"
        RTMODEL "__rt_version", "1"

        RSEG DOVERLAY:DATA:NOROOT(0)
        RSEG IOVERLAY:IDATA:NOROOT(0)
        RSEG ISTACK:IDATA:NOROOT(0)
        RSEG PSTACK:XDATA:NOROOT(0)
        RSEG XSTACK:XDATA:NOROOT(0)

        EXTERN ??HalKeyRead?relay
        EXTERN ??halProcessKeyInterrupt?relay
        EXTERN ?BDISPATCH
        EXTERN ?BRET
        EXTERN ?CALL_IND
        EXTERN ?INTERRUPT_ENTER_XSP
        EXTERN ?INTERRUPT_LEAVE_XSP
        EXTERN __INIT_XDATA_Z

        PUBLIC ??HalKeyConfig?relay
        FUNCTION ??HalKeyConfig?relay,0203H
        PUBLIC ??HalKeyEnterSleep?relay
        FUNCTION ??HalKeyEnterSleep?relay,0203H
        PUBLIC ??HalKeyExitSleep?relay
        FUNCTION ??HalKeyExitSleep?relay,0203H
        PUBLIC ??HalKeyInit?relay
        FUNCTION ??HalKeyInit?relay,0203H
        PUBLIC ??HalKeyPoll?relay
        FUNCTION ??HalKeyPoll?relay,0203H
        PUBLIC ??HalKeyRead?relay
        FUNCTION ??HalKeyRead?relay,0203H
        PUBWEAK `??halKeyPort0Isr??INTVEC 107`
        PUBWEAK `??halKeyPort2Isr??INTVEC 51`
        PUBLIC ??halProcessKeyInterrupt?relay
        FUNCTION ??halProcessKeyInterrupt?relay,0203H
        PUBLIC HalKeyConfig
        FUNCTION HalKeyConfig,021203H
        ARGFRAME XSTACK, 0, STACK
        LOCFRAME ISTACK, 2, STACK
        PUBLIC HalKeyEnterSleep
        FUNCTION HalKeyEnterSleep,0203H
        ARGFRAME XSTACK, 0, STACK
        PUBLIC HalKeyExitSleep
        FUNCTION HalKeyExitSleep,021203H
        ARGFRAME XSTACK, 0, STACK
        LOCFRAME ISTACK, 2, STACK
        PUBLIC HalKeyInit
        FUNCTION HalKeyInit,0203H
        ARGFRAME XSTACK, 0, STACK
        LOCFRAME ISTACK, 2, STACK
        PUBLIC HalKeyPoll
        FUNCTION HalKeyPoll,0203H
        ARGFRAME XSTACK, 0, STACK
        LOCFRAME ISTACK, 2, STACK
        PUBLIC HalKeyRead
        FUNCTION HalKeyRead,0203H
        ARGFRAME XSTACK, 0, STACK
        ARGFRAME IOVERLAY, 0, STATIC
        ARGFRAME DOVERLAY, 0, STATIC
        PUBLIC Hal_KeyIntEnable
        PUBWEAK P0DIR
        PUBWEAK P0IEN
        PUBWEAK P0IFG
        PUBWEAK P0SEL
        PUBWEAK P2DIR
        PUBWEAK P2SEL
        PUBWEAK PICTL
        PUBWEAK _A_IEN1
        PUBWEAK _A_IRCON
        PUBWEAK _A_IRCON2
        PUBWEAK _A_P2
        PUBLIC halKeyPort0Isr
        FUNCTION halKeyPort0Isr,021233H
        ARGFRAME XSTACK, 0, STACK
        LOCFRAME ISTACK, 15, STACK
        PUBLIC halKeyPort2Isr
        FUNCTION halKeyPort2Isr,0233H
        ARGFRAME XSTACK, 0, STACK
        LOCFRAME ISTACK, 1, STACK
        PUBLIC halProcessKeyInterrupt
        FUNCTION halProcessKeyInterrupt,021203H
        ARGFRAME XSTACK, 0, STACK
        ARGFRAME IOVERLAY, 0, STATIC
        ARGFRAME DOVERLAY, 0, STATIC
        LOCFRAME ISTACK, 2, STACK
        
        CFI Names cfiNames0
        CFI StackFrame CFA_SP SP IDATA
        CFI StackFrame CFA_PSP16 PSP16 XDATA
        CFI StackFrame CFA_XSP16 XSP16 XDATA
        CFI StaticOverlayFrame CFA_IOVERLAY IOVERLAY
        CFI StaticOverlayFrame CFA_DOVERLAY DOVERLAY
        CFI Resource `PSW.CY`:1, `B.BR0`:1, `B.BR1`:1, `B.BR2`:1, `B.BR3`:1
        CFI Resource `B.BR4`:1, `B.BR5`:1, `B.BR6`:1, `B.BR7`:1, `VB.BR8`:1
        CFI Resource `VB.BR9`:1, `VB.BR10`:1, `VB.BR11`:1, `VB.BR12`:1
        CFI Resource `VB.BR13`:1, `VB.BR14`:1, `VB.BR15`:1, VB:8, B:8, A:8
        CFI Resource PSW:8, DPL0:8, DPH0:8, R0:8, R1:8, R2:8, R3:8, R4:8, R5:8
        CFI Resource R6:8, R7:8, V0:8, V1:8, V2:8, V3:8, V4:8, V5:8, V6:8, V7:8
        CFI Resource V8:8, V9:8, V10:8, V11:8, V12:8, V13:8, V14:8, V15:8, SP:8
        CFI Resource PSPH:8, PSPL:8, PSP16:16, XSPH:8, XSPL:8, XSP16:16
        CFI VirtualResource ?RET:24
        CFI Resource ?BRET_EXT:8
        CFI VirtualResource ?RET_HIGH:8, ?RET_LOW:8
        CFI ResourceParts PSP16 PSPH, PSPL
        CFI ResourceParts XSP16 XSPH, XSPL
        CFI ResourceParts ?RET ?BRET_EXT, ?RET_HIGH, ?RET_LOW
        CFI EndNames cfiNames0
        
        CFI Common cfiCommon0 Using cfiNames0
        CFI CodeAlign 1
        CFI DataAlign -1
        CFI ReturnAddress ?RET CODE
        CFI CFA_DOVERLAY Used
        CFI CFA_IOVERLAY Used
        CFI CFA_SP SP+-3
        CFI CFA_PSP16 PSP16+0
        CFI CFA_XSP16 XSP16+0
        CFI `PSW.CY` SameValue
        CFI `B.BR0` SameValue
        CFI `B.BR1` SameValue
        CFI `B.BR2` SameValue
        CFI `B.BR3` SameValue
        CFI `B.BR4` SameValue
        CFI `B.BR5` SameValue
        CFI `B.BR6` SameValue
        CFI `B.BR7` SameValue
        CFI `VB.BR8` SameValue
        CFI `VB.BR9` SameValue
        CFI `VB.BR10` SameValue
        CFI `VB.BR11` SameValue
        CFI `VB.BR12` SameValue
        CFI `VB.BR13` SameValue
        CFI `VB.BR14` SameValue
        CFI `VB.BR15` SameValue
        CFI VB SameValue
        CFI B Undefined
        CFI A Undefined
        CFI PSW SameValue
        CFI DPL0 SameValue
        CFI DPH0 SameValue
        CFI R0 Undefined
        CFI R1 Undefined
        CFI R2 Undefined
        CFI R3 Undefined
        CFI R4 Undefined
        CFI R5 Undefined
        CFI R6 SameValue
        CFI R7 SameValue
        CFI V0 SameValue
        CFI V1 SameValue
        CFI V2 SameValue
        CFI V3 SameValue
        CFI V4 SameValue
        CFI V5 SameValue
        CFI V6 SameValue
        CFI V7 SameValue
        CFI V8 SameValue
        CFI V9 SameValue
        CFI V10 SameValue
        CFI V11 SameValue
        CFI V12 SameValue
        CFI V13 SameValue
        CFI V14 SameValue
        CFI V15 SameValue
        CFI PSPH Undefined
        CFI PSPL Undefined
        CFI XSPH Undefined
        CFI XSPL Undefined
        CFI ?RET Concat
        CFI ?BRET_EXT Frame(CFA_SP, 3)
        CFI ?RET_HIGH Frame(CFA_SP, 2)
        CFI ?RET_LOW Frame(CFA_SP, 1)
        CFI EndCommon cfiCommon0
        
        
        CFI Common cfiCommon1 Using cfiNames0
        CFI CodeAlign 1
        CFI DataAlign -1
        CFI ReturnAddress ?RET CODE
        CFI CFA_DOVERLAY Used
        CFI CFA_IOVERLAY Used
        CFI CFA_SP SP+-2
        CFI CFA_PSP16 PSP16+0
        CFI CFA_XSP16 XSP16+0
        CFI `PSW.CY` SameValue
        CFI `B.BR0` SameValue
        CFI `B.BR1` SameValue
        CFI `B.BR2` SameValue
        CFI `B.BR3` SameValue
        CFI `B.BR4` SameValue
        CFI `B.BR5` SameValue
        CFI `B.BR6` SameValue
        CFI `B.BR7` SameValue
        CFI `VB.BR8` SameValue
        CFI `VB.BR9` SameValue
        CFI `VB.BR10` SameValue
        CFI `VB.BR11` SameValue
        CFI `VB.BR12` SameValue
        CFI `VB.BR13` SameValue
        CFI `VB.BR14` SameValue
        CFI `VB.BR15` SameValue
        CFI VB SameValue
        CFI B SameValue
        CFI A SameValue
        CFI PSW SameValue
        CFI DPL0 SameValue
        CFI DPH0 SameValue
        CFI R0 SameValue
        CFI R1 SameValue
        CFI R2 SameValue
        CFI R3 SameValue
        CFI R4 SameValue
        CFI R5 SameValue
        CFI R6 SameValue
        CFI R7 SameValue
        CFI V0 SameValue
        CFI V1 SameValue
        CFI V2 SameValue
        CFI V3 SameValue
        CFI V4 SameValue
        CFI V5 SameValue
        CFI V6 SameValue
        CFI V7 SameValue
        CFI V8 SameValue
        CFI V9 SameValue
        CFI V10 SameValue
        CFI V11 SameValue
        CFI V12 SameValue
        CFI V13 SameValue
        CFI V14 SameValue
        CFI V15 SameValue
        CFI PSPH Undefined
        CFI PSPL Undefined
        CFI XSPH Undefined
        CFI XSPL Undefined
        CFI ?RET Concat
        CFI ?BRET_EXT SameValue
        CFI ?RET_HIGH Frame(CFA_SP, 2)
        CFI ?RET_LOW Frame(CFA_SP, 1)
        CFI EndCommon cfiCommon1
        
osal_stop_timerEx   SYMBOL "osal_stop_timerEx"
osal_start_timerEx  SYMBOL "osal_start_timerEx"
??osal_start_timerEx?relay SYMBOL "?relay", osal_start_timerEx
??osal_stop_timerEx?relay SYMBOL "?relay", osal_stop_timerEx
HalKeyConfig        SYMBOL "HalKeyConfig"
??HalKeyConfig?relay SYMBOL "?relay", HalKeyConfig
HalKeyEnterSleep    SYMBOL "HalKeyEnterSleep"
??HalKeyEnterSleep?relay SYMBOL "?relay", HalKeyEnterSleep
HalKeyExitSleep     SYMBOL "HalKeyExitSleep"
??HalKeyExitSleep?relay SYMBOL "?relay", HalKeyExitSleep
HalKeyInit          SYMBOL "HalKeyInit"
??HalKeyInit?relay  SYMBOL "?relay", HalKeyInit
HalKeyPoll          SYMBOL "HalKeyPoll"
??HalKeyPoll?relay  SYMBOL "?relay", HalKeyPoll
HalKeyRead          SYMBOL "HalKeyRead"
??HalKeyRead?relay  SYMBOL "?relay", HalKeyRead
halKeyPort0Isr      SYMBOL "halKeyPort0Isr"
`??halKeyPort0Isr??INTVEC 107` SYMBOL "??INTVEC 107", halKeyPort0Isr
halKeyPort2Isr      SYMBOL "halKeyPort2Isr"
`??halKeyPort2Isr??INTVEC 51` SYMBOL "??INTVEC 51", halKeyPort2Isr
halProcessKeyInterrupt SYMBOL "halProcessKeyInterrupt"
??halProcessKeyInterrupt?relay SYMBOL "?relay", halProcessKeyInterrupt

        EXTERN osal_stop_timerEx
        FUNCTION osal_stop_timerEx,0202H
        ARGFRAME ISTACK, 2, STACK
        ARGFRAME PSTACK, 0, STACK
        ARGFRAME XSTACK, 0, STACK
        ARGFRAME IOVERLAY, 0, STATIC
        ARGFRAME DOVERLAY, 0, STATIC
        EXTERN osal_start_timerEx
        FUNCTION osal_start_timerEx,0202H
        ARGFRAME ISTACK, 2, STACK
        ARGFRAME PSTACK, 0, STACK
        ARGFRAME XSTACK, 0, STACK
        ARGFRAME IOVERLAY, 0, STATIC
        ARGFRAME DOVERLAY, 0, STATIC
        EXTERN ??osal_start_timerEx?relay
        FUNCTION ??osal_start_timerEx?relay,00H
        EXTERN ??osal_stop_timerEx?relay
        FUNCTION ??osal_stop_timerEx?relay,00H
        EXTERN Hal_TaskID

// D:\¤½¥q²£«~\XT-200\ZIGBEE CC2530\ZIGBEE Z-STACK\ZStack-CC2530-2.3.0-1.4.0\Components\hal\target\CC2530KB\hal_key.c
//    1 /**************************************************************************************************
//    2   Filename:       hal_key.c
//    3   Revised:        $Date: 2009-12-16 17:44:49 -0800 (Wed, 16 Dec 2009) $
//    4   Revision:       $Revision: 21351 $
//    5 
//    6   Description:    This file contains the interface to the HAL KEY Service.
//    7 
//    8 
//    9   Copyright 2006-2009 Texas Instruments Incorporated. All rights reserved.
//   10 
//   11   IMPORTANT: Your use of this Software is limited to those specific rights
//   12   granted under the terms of a software license agreement between the user
//   13   who downloaded the software, his/her employer (which must be your employer)
//   14   and Texas Instruments Incorporated (the "License").  You may not use this
//   15   Software unless you agree to abide by the terms of the License. The License
//   16   limits your use, and you acknowledge, that the Software may not be modified,
//   17   copied or distributed unless embedded on a Texas Instruments microcontroller
//   18   or used solely and exclusively in conjunction with a Texas Instruments radio
//   19   frequency transceiver, which is integrated into your product.  Other than for
//   20   the foregoing purpose, you may not use, reproduce, copy, prepare derivative
//   21   works of, modify, distribute, perform, display or sell this Software and/or
//   22   its documentation for any purpose.
//   23 
//   24   YOU FURTHER ACKNOWLEDGE AND AGREE THAT THE SOFTWARE AND DOCUMENTATION ARE
//   25   PROVIDED “AS IS?WITHOUT WARRANTY OF ANY KIND, EITHER EXPRESS OR IMPLIED,
//   26   INCLUDING WITHOUT LIMITATION, ANY WARRANTY OF MERCHANTABILITY, TITLE,
//   27   NON-INFRINGEMENT AND FITNESS FOR A PARTICULAR PURPOSE. IN NO EVENT SHALL
//   28   TEXAS INSTRUMENTS OR ITS LICENSORS BE LIABLE OR OBLIGATED UNDER CONTRACT,
//   29   NEGLIGENCE, STRICT LIABILITY, CONTRIBUTION, BREACH OF WARRANTY, OR OTHER
//   30   LEGAL EQUITABLE THEORY ANY DIRECT OR INDIRECT DAMAGES OR EXPENSES
//   31   INCLUDING BUT NOT LIMITED TO ANY INCIDENTAL, SPECIAL, INDIRECT, PUNITIVE
//   32   OR CONSEQUENTIAL DAMAGES, LOST PROFITS OR LOST DATA, COST OF PROCUREMENT
//   33   OF SUBSTITUTE GOODS, TECHNOLOGY, SERVICES, OR ANY CLAIMS BY THIRD PARTIES
//   34   (INCLUDING BUT NOT LIMITED TO ANY DEFENSE THEREOF), OR OTHER SIMILAR COSTS.
//   35 
//   36   Should you have any questions regarding your right to use this Software,
//   37   contact Texas Instruments Incorporated at www.TI.com.
//   38 **************************************************************************************************/
//   39 /*********************************************************************
//   40  NOTE: If polling is used, the hal_driver task schedules the KeyRead()
//   41        to occur every 100ms.  This should be long enough to naturally
//   42        debounce the keys.  The KeyRead() function remembers the key
//   43        state of the previous poll and will only return a non-zero
//   44        value if the key state changes.
//   45 
//   46  NOTE: If interrupts are used, the KeyRead() function is scheduled
//   47        25ms after the interrupt occurs by the ISR.  This delay is used
//   48        for key debouncing.  The ISR disables any further Key interrupt
//   49        until KeyRead() is executed.  KeyRead() will re-enable Key
//   50        interrupts after executing.  Unlike polling, when interrupts
//   51        are enabled, the previous key state is not remembered.  This
//   52        means that KeyRead() will return the current state of the keys
//   53        (not a change in state of the keys).
//   54 
//   55  NOTE: If interrupts are used, the KeyRead() fucntion is scheduled by
//   56        the ISR.  Therefore, the joystick movements will only be detected
//   57        during a pushbutton interrupt caused by S1 or the center joystick
//   58        pushbutton.
//   59 
//   60  NOTE: When a switch like S1 is pushed, the S1 signal goes from a normally
//   61        high state to a low state.  This transition is typically clean.  The
//   62        duration of the low state is around 200ms.  When the signal returns
//   63        to the high state, there is a high likelihood of signal bounce, which
//   64        causes a unwanted interrupts.  Normally, we would set the interrupt
//   65        edge to falling edge to generate an interrupt when S1 is pushed, but
//   66        because of the signal bounce, it is better to set the edge to rising
//   67        edge to generate an interrupt when S1 is released.  The debounce logic
//   68        can then filter out the signal bounce.  The result is that we typically
//   69        get only 1 interrupt per button push.  This mechanism is not totally
//   70        foolproof because occasionally, signal bound occurs during the falling
//   71        edge as well.  A similar mechanism is used to handle the joystick
//   72        pushbutton on the DB.  For the EB, we do not have independent control
//   73        of the interrupt edge for the S1 and center joystick pushbutton.  As
//   74        a result, only one or the other pushbuttons work reasonably well with
//   75        interrupts.  The default is the make the S1 switch on the EB work more
//   76        reliably.
//   77 
//   78 *********************************************************************/
//   79 
//   80 /**************************************************************************************************
//   81  *                                            INCLUDES
//   82  **************************************************************************************************/
//   83 #include "hal_mcu.h"

        ASEGN SFR_AN:DATA:NOROOT,089H
// unsigned char volatile __sfr P0IFG
P0IFG:
        DS 1

        ASEGN SFR_AN:DATA:NOROOT,08cH
// unsigned char volatile __sfr PICTL
PICTL:
        DS 1

        ASEGN SFR_AN:DATA:NOROOT,0a0H
// union <unnamed> volatile __sfr _A_P2
_A_P2:
        DS 1

        ASEGN SFR_AN:DATA:NOROOT,0abH
// unsigned char volatile __sfr P0IEN
P0IEN:
        DS 1

        ASEGN SFR_AN:DATA:NOROOT,0b8H
// union <unnamed> volatile __sfr _A_IEN1
_A_IEN1:
        DS 1

        ASEGN SFR_AN:DATA:NOROOT,0c0H
// union <unnamed> volatile __sfr _A_IRCON
_A_IRCON:
        DS 1

        ASEGN SFR_AN:DATA:NOROOT,0e8H
// union <unnamed> volatile __sfr _A_IRCON2
_A_IRCON2:
        DS 1

        ASEGN SFR_AN:DATA:NOROOT,0f3H
// unsigned char volatile __sfr P0SEL
P0SEL:
        DS 1

        ASEGN SFR_AN:DATA:NOROOT,0f5H
// unsigned char volatile __sfr P2SEL
P2SEL:
        DS 1

        ASEGN SFR_AN:DATA:NOROOT,0fdH
// unsigned char volatile __sfr P0DIR
P0DIR:
        DS 1

        ASEGN SFR_AN:DATA:NOROOT,0ffH
// unsigned char volatile __sfr P2DIR
P2DIR:
        DS 1
//   84 #include "hal_defs.h"
//   85 #include "hal_types.h"
//   86 #include "hal_board.h"
//   87 #include "hal_drivers.h"
//   88 #include "hal_adc.h"
//   89 #include "hal_key.h"
//   90 #include "osal.h"
//   91 #include "hal_lcd.h"
//   92 
//   93 #include "mac_radio_defs.h"
//   94 
//   95 #include "hal_buzzer.h"
//   96 #include "hal_keypad.h"
//   97 
//   98 #if defined (M140) || (M170) || (M200) // SensorApp example include header file
//   99 //  #include "SensorApp.h"
//  100   #include "M140.h"
//  101   #include "M170.h"
//  102   #include "M200.h"
//  103 #endif
//  104 
//  105 #if (defined HAL_KEY) && (HAL_KEY == TRUE)
//  106 /**************************************************************************************************
//  107  *                                              MACROS
//  108  **************************************************************************************************/
//  109 
//  110 /**************************************************************************************************
//  111  *                                            CONSTANTS
//  112  **************************************************************************************************/
//  113 #define HAL_KEY_RISING_EDGE   0
//  114 #define HAL_KEY_FALLING_EDGE  1
//  115 
//  116 #define HAL_KEY_DEBOUNCE_VALUE  25
//  117 #define HAL_KEY_POLLING_VALUE   100
//  118 
//  119 /* CPU port interrupt */
//  120 #define HAL_KEY_CPU_PORT_0_IF P0IF
//  121 #define HAL_KEY_CPU_PORT_2_IF P2IF
//  122 
//  123 /* SW_6 is at P0.1 */
//  124 #define HAL_KEY_SW_6_PORT   P0
//  125 #define HAL_KEY_SW_6_BIT    BV(1)
//  126 #define HAL_KEY_SW_6_SEL    P0SEL
//  127 #define HAL_KEY_SW_6_DIR    P0DIR
//  128 
//  129 /* edge interrupt */
//  130 #define HAL_KEY_SW_6_EDGEBIT  BV(0)
//  131 #define HAL_KEY_SW_6_EDGE     HAL_KEY_FALLING_EDGE
//  132 
//  133 /* SW_6 interrupts */
//  134 #define HAL_KEY_SW_6_IEN      IEN1  /* CPU interrupt mask register */
//  135 #define HAL_KEY_SW_6_IENBIT   BV(5) /* Mask bit for all of Port_0 */
//  136 #define HAL_KEY_SW_6_ICTL     P0IEN /* Port Interrupt Control register */
//  137 #define HAL_KEY_SW_6_ICTLBIT  BV(1) /* P0IEN - P0.1 enable/disable bit */
//  138 #define HAL_KEY_SW_6_PXIFG    P0IFG /* Interrupt flag at source */
//  139 
//  140 /**************************************************************************************************
//  141  *                                            TYPEDEFS
//  142  **************************************************************************************************/
//  143 /**************************************************************************************************
//  144  *                                        GLOBAL VARIABLES
//  145  **************************************************************************************************/

        RSEG XDATA_Z:XDATA:NOROOT(0)
//  146 static uint8 halKeySavedKeys;     /* used to store previous key state in polling mode */
halKeySavedKeys:
        DS 1
        REQUIRE __INIT_XDATA_Z

        RSEG XDATA_Z:XDATA:NOROOT(0)
//  147 static halKeyCBack_t pHalKeyProcessFunction;
pHalKeyProcessFunction:
        DS 2
        REQUIRE __INIT_XDATA_Z

        RSEG XDATA_Z:XDATA:NOROOT(0)
//  148 static uint8 HalKeyConfigured;
HalKeyConfigured:
        DS 1
        REQUIRE __INIT_XDATA_Z

        RSEG XDATA_Z:XDATA:NOROOT(0)
//  149 bool Hal_KeyIntEnable;            /* interrupt enable/disable flag */
Hal_KeyIntEnable:
        DS 1
        REQUIRE __INIT_XDATA_Z
//  150 
//  151 /**************************************************************************************************
//  152  *                                        FUNCTIONS - Local
//  153  **************************************************************************************************/
//  154 void halProcessKeyInterrupt(void);
//  155 
//  156 /**************************************************************************************************
//  157  *                                        FUNCTIONS - API
//  158  **************************************************************************************************/
//  159 
//  160 /**************************************************************************************************
//  161  * @fn      HalKeyInit
//  162  *
//  163  * @brief   Initilize Key Service
//  164  *
//  165  * @param   none
//  166  *
//  167  * @return  None
//  168  **************************************************************************************************/

        RSEG BANKED_CODE:CODE:NOROOT(0)
//  169 void HalKeyInit( void )
HalKeyInit:
        CFI Block cfiBlock0 Using cfiCommon0
        CFI Function HalKeyInit
//  170 {
        PUSH    DPL
        CFI DPL0 Frame(CFA_SP, 4)
        CFI CFA_SP SP+-4
        PUSH    DPH
        CFI DPH0 Frame(CFA_SP, 5)
        CFI CFA_SP SP+-5
        ; Saved register size: 2
        ; Auto size: 0
//  171   /* Initialize previous key to 0 */
//  172   halKeySavedKeys = 0;
        CLR     A
        MOV     DPTR,#halKeySavedKeys
        MOVX    @DPTR,A
//  173 
//  174   HAL_KEY_SW_6_SEL &= ~(HAL_KEY_SW_6_BIT);    /* Set pin function to GPIO */
        ANL     0xf3,#0xfd
//  175   HAL_KEY_SW_6_DIR &= ~(HAL_KEY_SW_6_BIT);    /* Set pin direction to Input */
        ANL     0xfd,#0xfd
//  176   
//  177   /* Initialize callback function */
//  178   pHalKeyProcessFunction  = NULL;
        MOV     DPTR,#pHalKeyProcessFunction
        MOVX    @DPTR,A
        INC     DPTR
        MOVX    @DPTR,A
//  179 
//  180   /* Start with key is not configured */
//  181   HalKeyConfigured = FALSE;
        MOV     DPTR,#HalKeyConfigured
        MOVX    @DPTR,A
//  182 }
        LJMP    ?Subroutine0 & 0xFFFF
        CFI EndBlock cfiBlock0
        REQUIRE P0SEL
        REQUIRE P0DIR
//  183 
//  184 
//  185 /*******************************************************************************
//  186  * @fn      HalKeyConfig
//  187  *
//  188  * @brief   Configure the Key serivce
//  189  *
//  190  * @param   interruptEnable - TRUE/FALSE, enable/disable interrupt
//  191  *          cback - pointer to the CallBack function
//  192  *
//  193  * @return  None
//  194  ******************************************************************************/

        RSEG BANKED_CODE:CODE:NOROOT(0)
//  195 void HalKeyConfig (bool interruptEnable, halKeyCBack_t cback)
HalKeyConfig:
        CFI Block cfiBlock1 Using cfiCommon0
        CFI Function HalKeyConfig
//  196 {
        FUNCALL HalKeyConfig, osal_stop_timerEx
        LOCFRAME ISTACK, 2, STACK
        LOCFRAME PSTACK, 0, STACK
        LOCFRAME XSTACK, 0, STACK
        LOCFRAME IOVERLAY, 0, STATIC
        LOCFRAME DOVERLAY, 0, STATIC
        ARGFRAME ISTACK, 2, STACK
        ARGFRAME PSTACK, 0, STACK
        ARGFRAME XSTACK, 0, STACK
        ARGFRAME IOVERLAY, 0, STATIC
        ARGFRAME DOVERLAY, 0, STATIC
        FUNCALL HalKeyConfig, osal_start_timerEx
        LOCFRAME ISTACK, 2, STACK
        LOCFRAME PSTACK, 0, STACK
        LOCFRAME XSTACK, 0, STACK
        LOCFRAME IOVERLAY, 0, STATIC
        LOCFRAME DOVERLAY, 0, STATIC
        ARGFRAME ISTACK, 2, STACK
        ARGFRAME PSTACK, 0, STACK
        ARGFRAME XSTACK, 0, STACK
        ARGFRAME IOVERLAY, 0, STATIC
        ARGFRAME DOVERLAY, 0, STATIC
        PUSH    DPL
        CFI DPL0 Frame(CFA_SP, 4)
        CFI CFA_SP SP+-4
        PUSH    DPH
        CFI DPH0 Frame(CFA_SP, 5)
        CFI CFA_SP SP+-5
        ; Saved register size: 2
        ; Auto size: 0
//  197   /* Enable/Disable Interrupt or */
//  198   Hal_KeyIntEnable = interruptEnable;
        MOV     A,R1
        MOV     DPTR,#Hal_KeyIntEnable
        MOVX    @DPTR,A
//  199 
//  200   /* Register the callback fucntion */
//  201   pHalKeyProcessFunction = cback;
        MOV     DPTR,#pHalKeyProcessFunction
        MOV     A,R2
        MOVX    @DPTR,A
        INC     DPTR
        MOV     A,R3
        MOVX    @DPTR,A
//  202 
//  203   /* Determine if interrupt is enable or not */
//  204   if (Hal_KeyIntEnable)
        MOV     DPTR,#Hal_KeyIntEnable
        MOVX    A,@DPTR
        JZ      ??HalKeyConfig_0
//  205   {
//  206     /* Rising/Falling edge configuratinn */
//  207 
//  208     PICTL &= ~(HAL_KEY_SW_6_EDGEBIT);    /* Clear the edge bit */
        ANL     0x8c,#0xfe
//  209     /* For falling edge, the bit must be set. */
//  210   #if (HAL_KEY_SW_6_EDGE == HAL_KEY_FALLING_EDGE)
//  211     PICTL |= HAL_KEY_SW_6_EDGEBIT;
        ORL     0x8c,#0x1
//  212   #endif
//  213 
//  214     /* Interrupt configuration:
//  215      * - Enable interrupt generation at the port
//  216      * - Enable CPU interrupt
//  217      * - Clear any pending interrupt */
//  218     HAL_KEY_SW_6_ICTL |= HAL_KEY_SW_6_ICTLBIT;
        ORL     0xab,#0x2
//  219     HAL_KEY_SW_6_IEN |= HAL_KEY_SW_6_IENBIT;
        SETB    0xb8.5
//  220     HAL_KEY_SW_6_PXIFG = ~(HAL_KEY_SW_6_BIT);
        MOV     0x89,#-0x3
//  221 
//  222     /* Rising/Falling edge configuratinn */
//  223 
//  224     /* For falling edge, the bit must be set. */
//  225   #if (HAL_KEY_JOY_MOVE_EDGE == HAL_KEY_FALLING_EDGE)
//  226     HAL_KEY_JOY_MOVE_ICTL |= HAL_KEY_JOY_MOVE_EDGEBIT;
//  227   #endif
//  228 
//  229     /* Interrupt configuration:
//  230      * - Enable interrupt generation at the port
//  231      * - Enable CPU interrupt
//  232      * - Clear any pending interrupt */
//  233 
//  234     /* Do this only after the hal_key is configured - to work with sleep stuff */
//  235     if (HalKeyConfigured == TRUE)
        MOV     DPTR,#HalKeyConfigured
        MOVX    A,@DPTR
        XRL     A,#0x1
        JNZ     ??HalKeyConfig_1
//  236     {
//  237       osal_stop_timerEx( Hal_TaskID, HAL_KEY_EVENT);  /* Cancel polling if active */
        ; Setup parameters for call to function osal_stop_timerEx
        MOV     R2,#0x1
        MOV     R3,#0x0
        MOV     DPTR,#Hal_TaskID
        MOVX    A,@DPTR
        MOV     R1,A
        LCALL   ??osal_stop_timerEx?relay
        SJMP    ??HalKeyConfig_1
//  238     }
//  239   }
//  240   else    /* Interrupts NOT enabled */
//  241   {
//  242     HAL_KEY_SW_6_ICTL &= ~(HAL_KEY_SW_6_ICTLBIT); /* don't generate interrupt */
??HalKeyConfig_0:
        ANL     0xab,#0xfd
//  243     HAL_KEY_SW_6_IEN &= ~(HAL_KEY_SW_6_IENBIT);   /* Clear interrupt enable bit */
        CLR     0xb8.5
//  244 
//  245     osal_start_timerEx (Hal_TaskID, HAL_KEY_EVENT, HAL_KEY_POLLING_VALUE);    /* Kick off polling */
        ; Setup parameters for call to function osal_start_timerEx
        MOV     R4,#0x64
        MOV     R5,#0x0
        MOV     R2,#0x1
        MOV     R3,#0x0
        MOV     DPTR,#Hal_TaskID
        MOVX    A,@DPTR
        MOV     R1,A
        LCALL   ??osal_start_timerEx?relay
//  246   }
//  247   /* Key now is configured */
//  248   HalKeyConfigured = TRUE;
??HalKeyConfig_1:
        MOV     A,#0x1
        MOV     DPTR,#HalKeyConfigured
        MOVX    @DPTR,A
//  249   
//  250   //Switch Buttons
//  251     SWITCH1_INPUT();
        ANL     0xf5,#0xf7
        ANL     0xff,#0xf7
//  252     SWITCH2_INPUT();
        ANL     0xf5,#0xef
        ANL     0xff,#0xef
//  253 }
        LJMP    ?Subroutine0 & 0xFFFF
        CFI EndBlock cfiBlock1
        REQUIRE PICTL
        REQUIRE P0IFG
        REQUIRE P0IEN
        REQUIRE _A_IEN1
        REQUIRE P2SEL
        REQUIRE P2DIR
//  254 
//  255 
//  256 /*******************************************************************************
//  257  * @fn      HalKeyRead
//  258  *
//  259  * @brief   Read the current value of a key
//  260  *
//  261  * @param   None
//  262  *
//  263  * @return  keys - current keys status
//  264  ******************************************************************************/

        RSEG BANKED_CODE:CODE:NOROOT(0)
//  265 uint8 HalKeyRead ( void )
HalKeyRead:
        CFI Block cfiBlock2 Using cfiCommon0
        CFI Function HalKeyRead
//  266 {
        ; Saved register size: 0
        ; Auto size: 0
//  267   uint8 keys = 0;
        MOV     R1,#0x0
//  268   
//  269   if (HAL_SW_1_PUSH())
        MOV     C,0xa0.3
        JC      ??HalKeyRead_0
//  270   {
//  271     HAL_debounce(!HAL_SW_1_PUSH());
        MOV     R2,#0x0
??HalKeyRead_1:
        MOV     C,0xa0.3
        JC      ??HalKeyRead_2
        MOV     R2,#0x0
??HalKeyRead_2:
        INC     R2
        MOV     A,R2
        CLR     C
        SUBB    A,#0x32
        JC      ??HalKeyRead_1
//  272     keys |= HAL_KEY_SW1; 
        INC     R1
//  273   }
//  274   if (HAL_SW_2_PUSH())
??HalKeyRead_0:
        MOV     C,0xa0.4
        JC      ??HalKeyRead_3
//  275   {
//  276     HAL_debounce(!HAL_SW_2_PUSH());
        MOV     R2,#0x0
??HalKeyRead_4:
        MOV     C,0xa0.4
        JC      ??HalKeyRead_5
        MOV     R2,#0x0
??HalKeyRead_5:
        INC     R2
        MOV     A,R2
        CLR     C
        SUBB    A,#0x32
        JC      ??HalKeyRead_4
//  277     keys |= HAL_KEY_SW2;
        MOV     A,R1
        SETB    0xE0 /* A   */.3
        MOV     R1,A
//  278   }
//  279   return keys;
??HalKeyRead_3:
        LJMP    ?BRET
        CFI EndBlock cfiBlock2
        REQUIRE _A_P2
//  280 }
//  281 
//  282 
//  283 /*******************************************************************************
//  284  * @fn      HalKeyPoll
//  285  *
//  286  * @brief   Called by hal_driver to poll the keys
//  287  *
//  288  * @param   None
//  289  *
//  290  * @return  None
//  291  ******************************************************************************/

        RSEG BANKED_CODE:CODE:NOROOT(0)
//  292 void HalKeyPoll (void)
HalKeyPoll:
        CFI Block cfiBlock3 Using cfiCommon0
        CFI Function HalKeyPoll
//  293 {
        PUSH    DPL
        CFI DPL0 Frame(CFA_SP, 4)
        CFI CFA_SP SP+-4
        PUSH    DPH
        CFI DPH0 Frame(CFA_SP, 5)
        CFI CFA_SP SP+-5
        ; Saved register size: 2
        ; Auto size: 0
//  294   uint8 keys = 0;
        MOV     R1,#0x0
//  295   
//  296   if (HAL_SW_1_PUSH())
        MOV     C,0xa0.3
        JC      ??HalKeyPoll_0
//  297   {
//  298     HAL_debounce(!HAL_SW_1_PUSH());
        MOV     R2,#0x0
??HalKeyPoll_1:
        MOV     C,0xa0.3
        JC      ??HalKeyPoll_2
        MOV     R2,#0x0
??HalKeyPoll_2:
        INC     R2
        MOV     A,R2
        CLR     C
        SUBB    A,#0x32
        JC      ??HalKeyPoll_1
//  299     keys |= HAL_KEY_SW1; 
        INC     R1
//  300   }
//  301   if (HAL_SW_2_PUSH())
??HalKeyPoll_0:
        MOV     C,0xa0.4
        JC      ??HalKeyPoll_3
//  302   {
//  303     HAL_debounce(!HAL_SW_2_PUSH());
        MOV     R2,#0x0
??HalKeyPoll_4:
        MOV     C,0xa0.4
        JC      ??HalKeyPoll_5
        MOV     R2,#0x0
??HalKeyPoll_5:
        INC     R2
        MOV     A,R2
        CLR     C
        SUBB    A,#0x32
        JC      ??HalKeyPoll_4
//  304     keys |= HAL_KEY_SW2;  
        MOV     A,R1
        SETB    0xE0 /* A   */.3
        MOV     R1,A
//  305   }
//  306   
//  307   /* If interrupts are not enabled, previous key status and current key status
//  308    * are compared to find out if a key has changed status.
//  309    */
//  310   if (!Hal_KeyIntEnable)
??HalKeyPoll_3:
        MOV     DPTR,#Hal_KeyIntEnable
        MOVX    A,@DPTR
        JNZ     ??HalKeyPoll_6
//  311   {
//  312     if (keys == halKeySavedKeys)
        MOV     DPTR,#halKeySavedKeys
        MOVX    A,@DPTR
        XRL     A,R1
        JZ      ??HalKeyPoll_7
//  313     {
//  314       /* Exit - since no keys have changed */
//  315       return;
//  316     }
//  317     /* Store the current keys for comparation next time */
//  318     halKeySavedKeys = keys;
        MOV     A,R1
        MOVX    @DPTR,A
//  319   }
//  320   else
//  321   {
//  322     /* Key interrupt handled here */
//  323   }
//  324 
//  325   /* Invoke Callback if new keys were depressed */
//  326   if (keys && (pHalKeyProcessFunction))
??HalKeyPoll_6:
        MOV     A,R1
        JZ      ??HalKeyPoll_7
        MOV     DPTR,#pHalKeyProcessFunction
        MOVX    A,@DPTR
        JNZ     ??HalKeyPoll_8
        INC     DPTR
        MOVX    A,@DPTR
??HalKeyPoll_8:
        JZ      ??HalKeyPoll_7
//  327   {
//  328     (pHalKeyProcessFunction) (keys, HAL_KEY_STATE_NORMAL);
        ; Setup parameters for indirect call
        MOV     R2,#0x0
        MOV     DPTR,#pHalKeyProcessFunction
        MOVX    A,@DPTR
        MOV     R0,A
        INC     DPTR
        MOVX    A,@DPTR
        MOV     DPH,A
        MOV     DPL,R0
        LCALL   ?CALL_IND
        CFI EndBlock cfiBlock3
//  329   }
??HalKeyPoll_7:
        REQUIRE ?Subroutine0
        REQUIRE _A_P2
        ; // Fall through to label ?Subroutine0
//  330 }

        RSEG BANKED_CODE:CODE:NOROOT(0)
?Subroutine0:
        CFI Block cfiBlock4 Using cfiCommon0
        CFI NoFunction
        CFI CFA_SP SP+-5
        CFI DPL0 Frame(CFA_SP, 4)
        CFI DPH0 Frame(CFA_SP, 5)
        POP     DPH
        CFI CFA_SP SP+-4
        CFI DPH0 SameValue
        POP     DPL
        CFI CFA_SP SP+-3
        CFI DPL0 SameValue
        LJMP    ?BRET
        CFI EndBlock cfiBlock4
//  331 
//  332 /**************************************************************************************************
//  333  * @fn      halProcessKeyInterrupt
//  334  *
//  335  * @brief   Checks to see if it's a valid key interrupt, saves interrupt driven key states for
//  336  *          processing by HalKeyRead(), and debounces keys by scheduling HalKeyRead() 25ms later.
//  337  *
//  338  * @param
//  339  *
//  340  * @return
//  341  **************************************************************************************************/

        RSEG BANKED_CODE:CODE:NOROOT(0)
//  342 void halProcessKeyInterrupt (void)
halProcessKeyInterrupt:
        CFI Block cfiBlock5 Using cfiCommon0
        CFI Function halProcessKeyInterrupt
//  343 {
        FUNCALL halProcessKeyInterrupt, osal_start_timerEx
        LOCFRAME ISTACK, 2, STACK
        LOCFRAME PSTACK, 0, STACK
        LOCFRAME XSTACK, 0, STACK
        LOCFRAME IOVERLAY, 0, STATIC
        LOCFRAME DOVERLAY, 0, STATIC
        ARGFRAME ISTACK, 2, STACK
        ARGFRAME PSTACK, 0, STACK
        ARGFRAME XSTACK, 0, STACK
        ARGFRAME IOVERLAY, 0, STATIC
        ARGFRAME DOVERLAY, 0, STATIC
        PUSH    DPL
        CFI DPL0 Frame(CFA_SP, 4)
        CFI CFA_SP SP+-4
        PUSH    DPH
        CFI DPH0 Frame(CFA_SP, 5)
        CFI CFA_SP SP+-5
        ; Saved register size: 2
        ; Auto size: 0
//  344   bool valid=FALSE;
//  345 
//  346   if (HAL_KEY_SW_6_PXIFG & HAL_KEY_SW_6_BIT)  /* Interrupt Flag has been set */
        MOV     A,0x89
        MOV     C,0xE0 /* A   */.1
        JNC     ??halProcessKeyInterrupt_0
//  347   {
//  348     HAL_KEY_SW_6_PXIFG = ~(HAL_KEY_SW_6_BIT); /* Clear Interrupt Flag */
        MOV     0x89,#-0x3
//  349     valid = TRUE;
//  350   }
//  351 
//  352   if (valid)
//  353   {
//  354     osal_start_timerEx (Hal_TaskID, HAL_KEY_EVENT, HAL_KEY_DEBOUNCE_VALUE);
        ; Setup parameters for call to function osal_start_timerEx
        MOV     R4,#0x19
        MOV     R5,#0x0
        MOV     R2,#0x1
        MOV     R3,#0x0
        MOV     DPTR,#Hal_TaskID
        MOVX    A,@DPTR
        MOV     R1,A
        LCALL   ??osal_start_timerEx?relay
//  355   }
//  356 }
??halProcessKeyInterrupt_0:
        SJMP    ?Subroutine0
        CFI EndBlock cfiBlock5
        REQUIRE P0IFG
//  357 
//  358 /**************************************************************************************************
//  359  * @fn      HalKeyEnterSleep
//  360  *
//  361  * @brief  - Get called to enter sleep mode
//  362  *
//  363  * @param
//  364  *
//  365  * @return
//  366  **************************************************************************************************/

        RSEG BANKED_CODE:CODE:NOROOT(0)
//  367 void HalKeyEnterSleep ( void )
HalKeyEnterSleep:
        CFI Block cfiBlock6 Using cfiCommon0
        CFI Function HalKeyEnterSleep
//  368 {
        ; Saved register size: 0
        ; Auto size: 0
//  369 }
        LJMP    ?BRET
        CFI EndBlock cfiBlock6
//  370 
//  371 /**************************************************************************************************
//  372  * @fn      HalKeyExitSleep
//  373  *
//  374  * @brief   - Get called when sleep is over
//  375  *
//  376  * @param
//  377  *
//  378  * @return  - return saved keys
//  379  **************************************************************************************************/

        RSEG BANKED_CODE:CODE:NOROOT(0)
//  380 uint8 HalKeyExitSleep ( void )
HalKeyExitSleep:
        CFI Block cfiBlock7 Using cfiCommon0
        CFI Function HalKeyExitSleep
//  381 {
        FUNCALL HalKeyExitSleep, HalKeyRead
        LOCFRAME ISTACK, 2, STACK
        LOCFRAME PSTACK, 0, STACK
        LOCFRAME XSTACK, 0, STACK
        LOCFRAME IOVERLAY, 0, STATIC
        LOCFRAME DOVERLAY, 0, STATIC
        ARGFRAME ISTACK, 2, STACK
        ARGFRAME PSTACK, 0, STACK
        ARGFRAME XSTACK, 0, STACK
        ARGFRAME IOVERLAY, 0, STATIC
        ARGFRAME DOVERLAY, 0, STATIC
        PUSH    DPL
        CFI DPL0 Frame(CFA_SP, 4)
        CFI CFA_SP SP+-4
        PUSH    DPH
        CFI DPH0 Frame(CFA_SP, 5)
        CFI CFA_SP SP+-5
        ; Saved register size: 2
        ; Auto size: 0
//  382   /* Wake up and read keys */
//  383   return ( HalKeyRead () );
        ; Setup parameters for call to function HalKeyRead
        LCALL   ??HalKeyRead?relay
        SJMP    ?Subroutine0
        CFI EndBlock cfiBlock7
//  384 }
//  385 
//  386 /***************************************************************************************************
//  387  *                                    INTERRUPT SERVICE ROUTINE (¤¤Â_ªA°Èµ{§Ç)
//  388  ***************************************************************************************************/
//  389 
//  390 /**************************************************************************************************
//  391  * @fn      halKeyPort0Isr
//  392  *
//  393  * @brief   Port0 ISR
//  394  *
//  395  * @param
//  396  *
//  397  * @return
//  398  **************************************************************************************************/

        RSEG NEAR_CODE:CODE:NOROOT(0)
//  399 HAL_ISR_FUNCTION( halKeyPort0Isr, P0INT_VECTOR )
halKeyPort0Isr:
        CFI Block cfiBlock8 Using cfiCommon1
        CFI Function halKeyPort0Isr
//  400 {
        FUNCALL halKeyPort0Isr, halProcessKeyInterrupt
        LOCFRAME ISTACK, 15, STACK
        LOCFRAME PSTACK, 0, STACK
        LOCFRAME XSTACK, 0, STACK
        LOCFRAME IOVERLAY, 0, STATIC
        LOCFRAME DOVERLAY, 0, STATIC
        ARGFRAME ISTACK, 15, STACK
        ARGFRAME PSTACK, 0, STACK
        ARGFRAME XSTACK, 0, STACK
        ARGFRAME IOVERLAY, 0, STATIC
        ARGFRAME DOVERLAY, 0, STATIC
        PUSH    A
        CFI A Frame(CFA_SP, 3)
        CFI CFA_SP SP+-3
        MOV     A,#-0xe
        LCALL   ?INTERRUPT_ENTER_XSP
        CFI B load(1, XDATA, add(CFA_XSP16, literal(-1)))
        CFI VB load(1, XDATA, add(CFA_XSP16, literal(-2)))
        CFI PSW load(1, XDATA, add(CFA_XSP16, literal(-3)))
        CFI DPL0 load(1, XDATA, add(CFA_XSP16, literal(-4)))
        CFI DPH0 load(1, XDATA, add(CFA_XSP16, literal(-5)))
        CFI R7 load(1, XDATA, add(CFA_XSP16, literal(-6)))
        CFI R6 load(1, XDATA, add(CFA_XSP16, literal(-7)))
        CFI R5 load(1, XDATA, add(CFA_XSP16, literal(-8)))
        CFI R4 load(1, XDATA, add(CFA_XSP16, literal(-9)))
        CFI V0 load(1, XDATA, add(CFA_XSP16, literal(-10)))
        CFI R3 load(1, XDATA, add(CFA_XSP16, literal(-11)))
        CFI R2 load(1, XDATA, add(CFA_XSP16, literal(-12)))
        CFI R1 load(1, XDATA, add(CFA_XSP16, literal(-13)))
        CFI R0 load(1, XDATA, add(CFA_XSP16, literal(-14)))
        CFI CFA_XSP16 add(XSP16, 14)
        ; Saved register size: 15
        ; Auto size: 0
//  401   if (HAL_KEY_SW_6_PXIFG & HAL_KEY_SW_6_BIT)
        MOV     A,0x89
        MOV     C,0xE0 /* A   */.1
        JNC     ??halKeyPort0Isr_0
//  402   {
//  403     halProcessKeyInterrupt();
        ; Setup parameters for call to function halProcessKeyInterrupt
        LCALL   ??halProcessKeyInterrupt?relay
//  404   }
//  405 
//  406   /*
//  407     Clear the CPU interrupt flag for Port_0 PxIFG has to be cleared before PxIF
//  408   */
//  409   HAL_KEY_SW_6_PXIFG = 0;
??halKeyPort0Isr_0:
        MOV     0x89,#0x0
//  410   HAL_KEY_CPU_PORT_0_IF = 0;
        CLR     0xc0.5
//  411 }
        MOV     R7,#0x1
        LJMP    ?INTERRUPT_LEAVE_XSP
        CFI EndBlock cfiBlock8
        REQUIRE P0IFG
        REQUIRE _A_IRCON
//  412 
//  413 
//  414 /**************************************************************************************************
//  415  * @fn      halKeyPort2Isr
//  416  *
//  417  * @brief   Port2 ISR
//  418  *
//  419  * @param
//  420  *
//  421  * @return
//  422  **************************************************************************************************/

        RSEG NEAR_CODE:CODE:NOROOT(0)
//  423 HAL_ISR_FUNCTION( halKeyPort2Isr, P2INT_VECTOR )
halKeyPort2Isr:
        CFI Block cfiBlock9 Using cfiCommon1
        CFI Function halKeyPort2Isr
//  424 {
        ; Saved register size: 1
        ; Auto size: 0
//  425   /*
//  426     Clear the CPU interrupt flag for Port_2 PxIFG has to be cleared before PxIF
//  427     Notes: P2_1 and P2_2 are debug lines.
//  428   */
//  429   HAL_KEY_CPU_PORT_2_IF = 0;
        CLR     0xe8.0
//  430 }
        RETI
        CFI EndBlock cfiBlock9
        REQUIRE _A_IRCON2

        COMMON INTVEC:CODE:ROOT(0)
        ORG 51
`??halKeyPort2Isr??INTVEC 51`:
        LJMP       (halKeyPort2Isr)

        COMMON INTVEC:CODE:ROOT(0)
        ORG 107
`??halKeyPort0Isr??INTVEC 107`:
        LJMP       (halKeyPort0Isr)

        RSEG BANK_RELAYS:CODE:REORDER:NOROOT(0)
??HalKeyInit?relay:
        LCALL   ?BDISPATCH
        DATA
        DC24    HalKeyInit

        RSEG BANK_RELAYS:CODE:REORDER:NOROOT(0)
??HalKeyConfig?relay:
        LCALL   ?BDISPATCH
        DATA
        DC24    HalKeyConfig

        RSEG BANK_RELAYS:CODE:REORDER:NOROOT(0)
??HalKeyRead?relay:
        LCALL   ?BDISPATCH
        DATA
        DC24    HalKeyRead

        RSEG BANK_RELAYS:CODE:REORDER:NOROOT(0)
??HalKeyPoll?relay:
        LCALL   ?BDISPATCH
        DATA
        DC24    HalKeyPoll

        RSEG BANK_RELAYS:CODE:REORDER:NOROOT(0)
??halProcessKeyInterrupt?relay:
        LCALL   ?BDISPATCH
        DATA
        DC24    halProcessKeyInterrupt

        RSEG BANK_RELAYS:CODE:REORDER:NOROOT(0)
??HalKeyEnterSleep?relay:
        LCALL   ?BDISPATCH
        DATA
        DC24    HalKeyEnterSleep

        RSEG BANK_RELAYS:CODE:REORDER:NOROOT(0)
??HalKeyExitSleep?relay:
        LCALL   ?BDISPATCH
        DATA
        DC24    HalKeyExitSleep

        END
//  431 
//  432 #else
//  433 
//  434 
//  435 void HalKeyInit(void){}
//  436 void HalKeyConfig(bool interruptEnable, halKeyCBack_t cback){}
//  437 uint8 HalKeyRead(void){ return 0;}
//  438 void HalKeyPoll(void){}
//  439 
//  440 #endif /* HAL_KEY */
//  441 
//  442 
//  443 
//  444 
//  445 
//  446 /**************************************************************************************************
//  447 **************************************************************************************************/
//  448 
//  449 
//  450 
// 
// 320 bytes in segment BANKED_CODE
//  42 bytes in segment BANK_RELAYS
//   6 bytes in segment INTVEC
//  29 bytes in segment NEAR_CODE
//  11 bytes in segment SFR_AN
//   5 bytes in segment XDATA_Z
// 
// 391 bytes of CODE  memory (+  6 bytes shared)
//   0 bytes of DATA  memory (+ 11 bytes shared)
//   5 bytes of XDATA memory
//
//Errors: none
//Warnings: none
