###############################################################################
#                                                                             #
# IAR C/C++ Compiler V7.51A/W32 for 8051                02/Sep/2013  22:54:19 #
# Copyright 2004-2009 IAR Systems AB.                                         #
#                                                                             #
#    Core               =  plain                                              #
#    Code model         =  banked                                             #
#    Data model         =  large                                              #
#    Calling convention =  xdata reentrant                                    #
#    Constant location  =  data_rom                                           #
#    Dptr setup         =  1,16                                               #
#    Source file        =  D:\GitHub\z-stack\Sensor Network                   #
#                          Example\Components\hal\common\hal_drivers.c        #
#    Command line       =  -f "D:\GitHub\z-stack\Sensor Network               #
#                          Example\Projects\zstack\Sensor Network             #
#                          Application\ZIGBEE Endpoint &                      #
#                          Device\CC2530DB\..\..\..\Tools\CC2530DB\f8wEndev.c #
#                          fg" (-DCPU32MHZ -DROOT=__near_func -DBLINK_LEDS)   #
#                          -f "D:\GitHub\z-stack\Sensor Network               #
#                          Example\Projects\zstack\Sensor Network             #
#                          Application\ZIGBEE Endpoint &                      #
#                          Device\CC2530DB\..\..\..\Tools\CC2530DB\f8wConfig. #
#                          cfg" (-DSECURE=0 -DZG_SECURE_DYNAMIC=0             #
#                          -DREFLECTOR -DDEFAULT_CHANLIST=0x00000800          #
#                          -DZDAPP_CONFIG_PAN_ID=0xFFFF                       #
#                          -DNWK_START_DELAY=100 -DEXTENDED_JOINING_RANDOM_MA #
#                          SK=0x007F -DBEACON_REQUEST_DELAY=100               #
#                          -DBEACON_REQ_DELAY_MASK=0x00FF                     #
#                          -DROUTE_EXPIRY_TIME=30 -DAPSC_ACK_WAIT_DURATION_PO #
#                          LLED=3000 -DNWK_INDIRECT_MSG_TIMEOUT=7             #
#                          -DMAX_RREQ_ENTRIES=8 -DAPSC_MAX_FRAME_RETRIES=3    #
#                          -DNWK_MAX_DATA_RETRIES=2                           #
#                          -DMAX_POLL_FAILURE_RETRIES=2 -DMAX_BCAST=9         #
#                          -DAPS_MAX_GROUPS=16 -DMAX_RTG_ENTRIES=40           #
#                          -DNWK_MAX_BINDING_ENTRIES=4                        #
#                          -DMAX_BINDING_CLUSTER_IDS=4 "-DDEFAULT_KEY={0x01,  #
#                          0x03, 0x05, 0x07, 0x09, 0x0B, 0x0D, 0x0F, 0x00,    #
#                          0x02, 0x04, 0x06, 0x08, 0x0A, 0x0C, 0x0D}"         #
#                          -DMAC_MAX_FRAME_SIZE=116 "-DCONST=const __code"    #
#                          -DGENERIC=__generic -DRFD_RCVC_ALWAYS_ON=TRUE      #
#                          -DPOLL_RATE=1000 -DQUEUED_POLL_RATE=100            #
#                          -DRESPONSE_POLL_RATE=100 -DREJOIN_POLL_RATE=440)   #
#                          -f "D:\GitHub\z-stack\Sensor Network               #
#                          Example\Projects\zstack\Sensor Network             #
#                          Application\ZIGBEE Endpoint &                      #
#                          Device\CC2530DB\..\..\..\Tools\CC2530DB\f8wZCL.cfg #
#                          " (-DZCL_READ -DZCL_WRITE -DZCL_BASIC              #
#                          -DZCL_IDENTIFY -DZCL_ON_OFF -DZCL_KEY_ESTABLISH    #
#                          -DZCL_LOAD_CONTROL -DZCL_SIMPLE_METERING           #
#                          -DZCL_PRICING) -DZCL_MESSAGE                       #
#                          "D:\GitHub\z-stack\Sensor Network                  #
#                          Example\Components\hal\common\hal_drivers.c" -D    #
#                          NWK_AUTO_POLL -D ZTOOL_P1 -D MT_TASK -D            #
#                          MT_APP_FUNC -D MT_SYS_FUNC -D MT_ZDO_FUNC -D       #
#                          LCD_SUPPORTED=DEBUG -D xPOWER_SAVING -D            #
#                          End_Device -D HAL_KEYPAD -D xPA2591 -D HAL_TIMER   #
#                          -D M160 -lC "D:\GitHub\z-stack\Sensor Network      #
#                          Example\Projects\zstack\Sensor Network             #
#                          Application\ZIGBEE Endpoint &                      #
#                          Device\CC2530DB\EndDeviceEB_M160\List\" -lA        #
#                          "D:\GitHub\z-stack\Sensor Network                  #
#                          Example\Projects\zstack\Sensor Network             #
#                          Application\ZIGBEE Endpoint &                      #
#                          Device\CC2530DB\EndDeviceEB_M160\List\"            #
#                          --diag_suppress Pe001,Pa010 -o                     #
#                          "D:\GitHub\z-stack\Sensor Network                  #
#                          Example\Projects\zstack\Sensor Network             #
#                          Application\ZIGBEE Endpoint &                      #
#                          Device\CC2530DB\EndDeviceEB_M160\Obj\" -e          #
#                          --require_prototypes --debug --core=plain          #
#                          --dptr=16,1 --data_model=large                     #
#                          --code_model=banked --calling_convention=xdata_ree #
#                          ntrant --place_constants=data_rom                  #
#                          --nr_virtual_regs 16 -I "D:\GitHub\z-stack\Sensor  #
#                          Network Example\Projects\zstack\Sensor Network     #
#                          Application\ZIGBEE Endpoint & Device\CC2530DB\"    #
#                          -I "D:\GitHub\z-stack\Sensor Network               #
#                          Example\Projects\zstack\Sensor Network             #
#                          Application\ZIGBEE Endpoint &                      #
#                          Device\CC2530DB\..\SOURCE\" -I                     #
#                          "D:\GitHub\z-stack\Sensor Network                  #
#                          Example\Projects\zstack\Sensor Network             #
#                          Application\ZIGBEE Endpoint &                      #
#                          Device\CC2530DB\..\..\SOURCE\" -I                  #
#                          "D:\GitHub\z-stack\Sensor Network                  #
#                          Example\Projects\zstack\Sensor Network             #
#                          Application\ZIGBEE Endpoint &                      #
#                          Device\CC2530DB\..\..\..\ZMAIN\TI2530DB\" -I       #
#                          "D:\GitHub\z-stack\Sensor Network                  #
#                          Example\Projects\zstack\Sensor Network             #
#                          Application\ZIGBEE Endpoint &                      #
#                          Device\CC2530DB\..\..\..\..\..\COMPONENTS\MT\" -I  #
#                          "D:\GitHub\z-stack\Sensor Network                  #
#                          Example\Projects\zstack\Sensor Network             #
#                          Application\ZIGBEE Endpoint &                      #
#                          Device\CC2530DB\..\..\..\..\..\COMPONENTS\HAL\INCL #
#                          UDE\" -I "D:\GitHub\z-stack\Sensor Network         #
#                          Example\Projects\zstack\Sensor Network             #
#                          Application\ZIGBEE Endpoint &                      #
#                          Device\CC2530DB\..\..\..\..\..\COMPONENTS\HAL\MODU #
#                          LE\" -I "D:\GitHub\z-stack\Sensor Network          #
#                          Example\Projects\zstack\Sensor Network             #
#                          Application\ZIGBEE Endpoint &                      #
#                          Device\CC2530DB\..\..\..\..\..\COMPONENTS\HAL\TARG #
#                          ET\CC2530EB\" -I "D:\GitHub\z-stack\Sensor         #
#                          Network Example\Projects\zstack\Sensor Network     #
#                          Application\ZIGBEE Endpoint &                      #
#                          Device\CC2530DB\..\..\..\..\..\COMPONENTS\OSAL\MCU #
#                          \CCSOC\" -I "D:\GitHub\z-stack\Sensor Network      #
#                          Example\Projects\zstack\Sensor Network             #
#                          Application\ZIGBEE Endpoint &                      #
#                          Device\CC2530DB\..\..\..\..\..\COMPONENTS\OSAL\INC #
#                          LUDE\" -I "D:\GitHub\z-stack\Sensor Network        #
#                          Example\Projects\zstack\Sensor Network             #
#                          Application\ZIGBEE Endpoint &                      #
#                          Device\CC2530DB\..\..\..\..\..\COMPONENTS\STACK\AF #
#                          \" -I "D:\GitHub\z-stack\Sensor Network            #
#                          Example\Projects\zstack\Sensor Network             #
#                          Application\ZIGBEE Endpoint &                      #
#                          Device\CC2530DB\..\..\..\..\..\COMPONENTS\STACK\NW #
#                          K\" -I "D:\GitHub\z-stack\Sensor Network           #
#                          Example\Projects\zstack\Sensor Network             #
#                          Application\ZIGBEE Endpoint &                      #
#                          Device\CC2530DB\..\..\..\..\..\COMPONENTS\STACK\SE #
#                          C\" -I "D:\GitHub\z-stack\Sensor Network           #
#                          Example\Projects\zstack\Sensor Network             #
#                          Application\ZIGBEE Endpoint &                      #
#                          Device\CC2530DB\..\..\..\..\..\COMPONENTS\STACK\SA #
#                          PI\" -I "D:\GitHub\z-stack\Sensor Network          #
#                          Example\Projects\zstack\Sensor Network             #
#                          Application\ZIGBEE Endpoint &                      #
#                          Device\CC2530DB\..\..\..\..\..\COMPONENTS\STACK\SY #
#                          S\" -I "D:\GitHub\z-stack\Sensor Network           #
#                          Example\Projects\zstack\Sensor Network             #
#                          Application\ZIGBEE Endpoint &                      #
#                          Device\CC2530DB\..\..\..\..\..\COMPONENTS\STACK\ZC #
#                          L\" -I "D:\GitHub\z-stack\Sensor Network           #
#                          Example\Projects\zstack\Sensor Network             #
#                          Application\ZIGBEE Endpoint &                      #
#                          Device\CC2530DB\..\..\..\..\..\COMPONENTS\STACK\ZD #
#                          O\" -I "D:\GitHub\z-stack\Sensor Network           #
#                          Example\Projects\zstack\Sensor Network             #
#                          Application\ZIGBEE Endpoint &                      #
#                          Device\CC2530DB\..\..\..\..\..\COMPONENTS\ZMAC\F8W #
#                          \" -I "D:\GitHub\z-stack\Sensor Network            #
#                          Example\Projects\zstack\Sensor Network             #
#                          Application\ZIGBEE Endpoint &                      #
#                          Device\CC2530DB\..\..\..\..\..\COMPONENTS\ZMAC\"   #
#                          -I "D:\GitHub\z-stack\Sensor Network               #
#                          Example\Projects\zstack\Sensor Network             #
#                          Application\ZIGBEE Endpoint &                      #
#                          Device\CC2530DB\..\..\..\..\..\COMPONENTS\SERVICES #
#                          \SADDR\" -I "D:\GitHub\z-stack\Sensor Network      #
#                          Example\Projects\zstack\Sensor Network             #
#                          Application\ZIGBEE Endpoint &                      #
#                          Device\CC2530DB\..\..\..\..\..\COMPONENTS\SERVICES #
#                          \SDATA\" -I "D:\GitHub\z-stack\Sensor Network      #
#                          Example\Projects\zstack\Sensor Network             #
#                          Application\ZIGBEE Endpoint &                      #
#                          Device\CC2530DB\..\..\..\..\..\COMPONENTS\MAC\INCL #
#                          UDE\" -I "D:\GitHub\z-stack\Sensor Network         #
#                          Example\Projects\zstack\Sensor Network             #
#                          Application\ZIGBEE Endpoint &                      #
#                          Device\CC2530DB\..\..\..\..\..\COMPONENTS\MAC\HIGH #
#                          _LEVEL\" -I "D:\GitHub\z-stack\Sensor Network      #
#                          Example\Projects\zstack\Sensor Network             #
#                          Application\ZIGBEE Endpoint &                      #
#                          Device\CC2530DB\..\..\..\..\..\COMPONENTS\MAC\LOW_ #
#                          LEVEL\srf04\" -I "D:\GitHub\z-stack\Sensor         #
#                          Network Example\Projects\zstack\Sensor Network     #
#                          Application\ZIGBEE Endpoint &                      #
#                          Device\CC2530DB\..\..\..\..\..\COMPONENTS\MAC\LOW_ #
#                          LEVEL\srf04\SINGLE_CHIP\" -I "C:\Program Files     #
#                          (x86)\IAR Systems\Embedded Workbench               #
#                          5.3\8051\INC\" -I "C:\Program Files (x86)\IAR      #
#                          Systems\Embedded Workbench 5.3\8051\INC\CLIB\"     #
#                          -Ohz                                               #
#    List file          =  D:\GitHub\z-stack\Sensor Network                   #
#                          Example\Projects\zstack\Sensor Network             #
#                          Application\ZIGBEE Endpoint &                      #
#                          Device\CC2530DB\EndDeviceEB_M160\List\hal_drivers. #
#                          lst                                                #
#    Object file        =  D:\GitHub\z-stack\Sensor Network                   #
#                          Example\Projects\zstack\Sensor Network             #
#                          Application\ZIGBEE Endpoint &                      #
#                          Device\CC2530DB\EndDeviceEB_M160\Obj\hal_drivers.r #
#                          51                                                 #
#                                                                             #
#                                                                             #
###############################################################################

D:\GitHub\z-stack\Sensor Network Example\Components\hal\common\hal_drivers.c
      1          #include "hal_types.h"
      2          #include "OSAL.h"
      3          #include "hal_drivers.h"
      4          #include "hal_adc.h"
      5          #if (defined HAL_DMA) && (HAL_DMA == TRUE)
      6            #include "hal_dma.h"
      7          #endif
      8          
      9          /* HAL */ 
     10          #include "hal_lcd.h"
     11          #include "hal_led.h"
     12          #include "hal_key.h"
     13          #include "hal_sleep.h"
     14          #include "hal_uart.h"
     15          #include "hal_timer.h"
     16          #include "hal_flash.h"
     17          #include "hal_buzzer.h"
     18          #include "hal_keypad.h" 
     19          #if (defined HAL_AES) && (HAL_AES == TRUE)
     20            #include "hal_aes.h"
     21          #endif
     22          #if (defined HAL_SPI) && (HAL_SPI == TRUE)
     23            #include "hal_spi.h"
     24          #endif
     25          #if (defined HAL_HID) && (HAL_HID == TRUE)
     26            #include "usb_hid.h"
     27          #endif
     28          #if defined(M160)
     29            #include "M160.h"
     30          #endif
     31          #if defined(M170)
     32            #include "M170.h"
     33          #endif
     34          #if defined(M190)
     35            #include "M190.h"
     36          #endif
     37          #if defined(M140) || (M200) // SensorApp example include header file
     38            #include "M140.h"
     39            #include "M200.h"
     40          #endif
     41          

   \                                 In  segment XDATA_Z, align 1, keep-with-next
     42          uint8 Hal_TaskID;
   \                     Hal_TaskID:
   \   000000                DS 1
   \   000001                REQUIRE __INIT_XDATA_Z
     43          
     44          extern void HalLedUpdate( void ); /* Notes: This for internal only so it shouldn't be in hal_led.h */
     45          

   \                                 In  segment BANKED_CODE, align 1, keep-with-next
     46          void Hal_Init( uint8 task_id )
   \                     Hal_Init:
     47          {
   \   000000   C082         PUSH    DPL
   \   000002   C083         PUSH    DPH
   \   000004                ; Saved register size: 2
   \   000004                ; Auto size: 0
     48            /* Register task ID */
     49            Hal_TaskID = task_id;
   \   000004   E9           MOV     A,R1
   \   000005   90....       MOV     DPTR,#Hal_TaskID
   \   000008   F0           MOVX    @DPTR,A
     50          }
   \   000009                REQUIRE ?Subroutine0
   \   000009                ; // Fall through to label ?Subroutine0

   \                                 In  segment BANKED_CODE, align 1, keep-with-next
   \                     ?Subroutine0:
   \   000000   D083         POP     DPH
   \   000002   D082         POP     DPL
   \   000004   02....       LJMP    ?BRET
     51          

   \                                 In  segment BANKED_CODE, align 1, keep-with-next
     52          void HalDriverInit (void)
   \                     HalDriverInit:
     53          {
   \   000000   C082         PUSH    DPL
   \   000002   C083         PUSH    DPH
   \   000004                ; Saved register size: 2
   \   000004                ; Auto size: 0
     54            /* TIMER */
     55          #if (defined HAL_TIMER) && (HAL_TIMER == TRUE)
     56            HalTimerInit(); 
   \   000004                ; Setup parameters for call to function HalTimerInit
   \   000004   12....       LCALL   ??HalTimerInit?relay
     57            M160_Init();
   \   000007                ; Setup parameters for call to function M160_Init
   \   000007   12....       LCALL   ??M160_Init?relay
     58          #endif
     59          
     60            /* ADC */
     61          #if (defined HAL_ADC) && (HAL_ADC == TRUE)
     62            HalAdcInit();
   \   00000A                ; Setup parameters for call to function HalAdcInit
   \   00000A   12....       LCALL   ??HalAdcInit?relay
     63            #if defined(M170)
     64              M170_Init();
     65            #endif
     66            #if defined(M190)
     67              M190_Init();
     68            #endif
     69          #endif
     70          
     71            /* DMA */
     72          #if (defined HAL_DMA) && (HAL_DMA == TRUE)
     73            // Must be called before the init call to any module that uses DMA.
     74            HalDmaInit();
   \   00000D                ; Setup parameters for call to function HalDmaInit
   \   00000D   12....       LCALL   ??HalDmaInit?relay
     75          #endif
     76          
     77            /* Flash */
     78          #if (defined HAL_FLASH) && (HAL_FLASH == TRUE)
     79            // Must be called before the init call to any module that uses Flash access or NV.
     80            HalFlashInit();
   \   000010                ; Setup parameters for call to function HalFlashInit
   \   000010   12....       LCALL   ??HalFlashInit?relay
     81          #endif
     82          
     83            /* AES */
     84          #if (defined HAL_AES) && (HAL_AES == TRUE)
     85            HalAesInit();
   \   000013                ; Setup parameters for call to function HalAesInit
   \   000013   12....       LCALL   ??HalAesInit?relay
     86          #endif
     87          
     88            /* LCD */
     89          #if (defined HAL_LCD) && (HAL_LCD == TRUE)
     90            HalLcdInit();
   \   000016                ; Setup parameters for call to function HalLcdInit
   \   000016   12....       LCALL   ??HalLcdInit?relay
     91          #endif
     92          
     93            /* UART */
     94          #if (defined HAL_UART) && (HAL_UART == TRUE)
     95            HalUARTInit();
   \   000019                ; Setup parameters for call to function HalUARTInit
   \   000019   12....       LCALL   ??HalUARTInit?relay
     96          #endif
     97          
     98            /* KEY */
     99          #if (defined HAL_KEY) && (HAL_KEY == TRUE)
    100            HalKeyInit();
   \   00001C                ; Setup parameters for call to function HalKeyInit
   \   00001C   12....       LCALL   ??HalKeyInit?relay
    101          #endif
    102            
    103            /* SPI */
    104          #if (defined HAL_SPI) && (HAL_SPI == TRUE)
    105            HalSpiInit();
    106          #endif
    107          
    108            /* HID */
    109          #if (defined HAL_HID) && (HAL_HID == TRUE)
    110            usbHidInit();
    111          #endif
    112              
    113            /* KEYPAD */
    114          #if (defined HAL_KEYPAD) && (HAL_KEYPAD == TRUE)
    115            halKeypadInit();
   \   00001F                ; Setup parameters for call to function halKeypadInit
   \   00001F   12....       LCALL   ??halKeypadInit?relay
    116          #endif
    117            
    118            /* BUZZER */
    119          #if (defined HAL_BUZZER) && (HAL_BUZZER == TRUE)
    120            halBuzzerInit();
    121          #endif
    122            
    123            /* I2C (M200 module) */
    124          #if (defined HAL_I2C) && (HAL_I2C == TRUE)
    125            #if defined(M200)
    126              M200_Init();
    127            #endif
    128          #endif
    129              
    130            /* LED */
    131          #if (defined HAL_LED) && (HAL_LED == TRUE)
    132            HalLedInit();
   \   000022                ; Setup parameters for call to function HalLedInit
   \   000022   12....       LCALL   ??HalLedInit?relay
    133          #endif
    134            
    135          }
   \   000025   80..         SJMP    ?Subroutine0
    136          

   \                                 In  segment BANKED_CODE, align 1, keep-with-next
    137          uint16 Hal_ProcessEvent( uint8 task_id, uint16 events )
   \                     Hal_ProcessEvent:
    138          {
   \   000000   74F6         MOV     A,#-0xa
   \   000002   12....       LCALL   ?BANKED_ENTER_XDATA
   \   000005                ; Saved register size: 10
   \   000005                ; Auto size: 0
   \   000005   EA           MOV     A,R2
   \   000006   FE           MOV     R6,A
   \   000007   EB           MOV     A,R3
   \   000008   FF           MOV     R7,A
    139            uint8 *msgPtr;
    140            
    141            (void)task_id; // Intentionally unreferenced parameter
    142          
    143            if ( events & SYS_EVENT_MSG )
   \   000009   7480         MOV     A,#-0x80
   \   00000B   5F           ANL     A,R7
   \   00000C   F9           MOV     R1,A
   \   00000D   E4           CLR     A
   \   00000E   7001         JNZ     ??Hal_ProcessEvent_0
   \   000010   E9           MOV     A,R1
   \                     ??Hal_ProcessEvent_0:
   \   000011   601B         JZ      ??Hal_ProcessEvent_1
    144            {
    145              msgPtr = osal_msg_receive(Hal_TaskID);
   \   000013                ; Setup parameters for call to function osal_msg_receive
   \   000013   8003         SJMP    ??Hal_ProcessEvent_2
    146              
    147              while (msgPtr)
    148              {
    149                /* Do something here - for now, just deallocate the msg and move on */
    150                
    151                /* De-allocate(分配) */ 
    152                osal_msg_deallocate( msgPtr );
   \                     ??Hal_ProcessEvent_3:
   \   000015                ; Setup parameters for call to function osal_msg_deallocate
   \   000015   12....       LCALL   ??osal_msg_deallocate?relay
    153                /* Next */
    154                msgPtr = osal_msg_receive( Hal_TaskID );
   \   000018                ; Setup parameters for call to function osal_msg_receive
   \                     ??Hal_ProcessEvent_2:
   \   000018   90....       MOV     DPTR,#Hal_TaskID
   \   00001B   E0           MOVX    A,@DPTR
   \   00001C   F9           MOV     R1,A
   \   00001D   12....       LCALL   ??osal_msg_receive?relay
    155              }
   \   000020   EA           MOV     A,R2
   \   000021   7001         JNZ     ??Hal_ProcessEvent_4
   \   000023   EB           MOV     A,R3
   \                     ??Hal_ProcessEvent_4:
   \   000024   70EF         JNZ     ??Hal_ProcessEvent_3
    156              return events ^ SYS_EVENT_MSG;
   \   000026   EE           MOV     A,R6
   \   000027   FA           MOV     R2,A
   \   000028   7480         MOV     A,#-0x80
   \   00002A   6F           XRL     A,R7
   \                     ??Hal_ProcessEvent_5:
   \   00002B   FB           MOV     R3,A
   \   00002C   8035         SJMP    ??Hal_ProcessEvent_6
    157            }
    158          
    159            if ( events & HAL_LED_BLINK_EVENT )
   \                     ??Hal_ProcessEvent_1:
   \   00002E   EE           MOV     A,R6
   \   00002F   5402         ANL     A,#0x2
   \   000031   600A         JZ      ??Hal_ProcessEvent_7
    160            {
    161              #if (defined (BLINK_LEDS)) && (HAL_LED == TRUE)
    162                HalLedUpdate();
   \   000033                ; Setup parameters for call to function HalLedUpdate
   \   000033   12....       LCALL   ??HalLedUpdate?relay
    163              #endif /* BLINK_LEDS && HAL_LED */
    164              return events ^ HAL_LED_BLINK_EVENT;
   \   000036   7402         MOV     A,#0x2
   \                     ??Hal_ProcessEvent_8:
   \   000038   6E           XRL     A,R6
   \   000039   FA           MOV     R2,A
   \   00003A   EF           MOV     A,R7
   \   00003B   80EE         SJMP    ??Hal_ProcessEvent_5
    165            }
    166          
    167            if (events & HAL_KEY_EVENT)
   \                     ??Hal_ProcessEvent_7:
   \   00003D   EE           MOV     A,R6
   \   00003E   A2E0         MOV     C,0xE0 /* A   */.0
   \   000040   501D         JNC     ??Hal_ProcessEvent_9
    168            {
    169              #if (defined HAL_KEY) && (HAL_KEY == TRUE)
    170              
    171              HalKeyPoll();/* Check for keys */
   \   000042                ; Setup parameters for call to function HalKeyPoll
   \   000042   12....       LCALL   ??HalKeyPoll?relay
    172              
    173              if (!Hal_KeyIntEnable)/* if interrupt disabled, do next polling */
   \   000045   90....       MOV     DPTR,#Hal_KeyIntEnable
   \   000048   E0           MOVX    A,@DPTR
   \   000049   7010         JNZ     ??Hal_ProcessEvent_10
    174              {
    175                osal_start_timerEx( Hal_TaskID, HAL_KEY_EVENT, 100);
   \   00004B                ; Setup parameters for call to function osal_start_timerEx
   \   00004B   7C64         MOV     R4,#0x64
   \   00004D   7D00         MOV     R5,#0x0
   \   00004F   7A01         MOV     R2,#0x1
   \   000051   7B00         MOV     R3,#0x0
   \   000053   90....       MOV     DPTR,#Hal_TaskID
   \   000056   E0           MOVX    A,@DPTR
   \   000057   F9           MOV     R1,A
   \   000058   12....       LCALL   ??osal_start_timerEx?relay
    176              }
    177              #endif // HAL_KEY
    178              return events ^ HAL_KEY_EVENT;
   \                     ??Hal_ProcessEvent_10:
   \   00005B   7401         MOV     A,#0x1
   \   00005D   80D9         SJMP    ??Hal_ProcessEvent_8
    179            }
    180          
    181          #ifdef POWER_SAVING
    182            if ( events & HAL_SLEEP_TIMER_EVENT )
    183            {
    184              halRestoreSleepLevel();
    185              return events ^ HAL_SLEEP_TIMER_EVENT;
    186            }
    187          #endif
    188            
    189            /* Nothing interested, discard the message */
    190            return 0;
   \                     ??Hal_ProcessEvent_9:
   \   00005F   7A00         MOV     R2,#0x0
   \   000061   7B00         MOV     R3,#0x0
   \                     ??Hal_ProcessEvent_6:
   \   000063   7F02         MOV     R7,#0x2
   \   000065   02....       LJMP    ?BANKED_LEAVE_XDATA
    191          
    192          }
    193          

   \                                 In  segment BANKED_CODE, align 1, keep-with-next
    194          void Hal_ProcessPoll ()
   \                     Hal_ProcessPoll:
    195          {
   \   000000   C082         PUSH    DPL
   \   000002   C083         PUSH    DPH
   \   000004                ; Saved register size: 2
   \   000004                ; Auto size: 0
    196            /* Timer Poll */
    197          #if (defined HAL_TIMER) && (HAL_TIMER == TRUE)
    198            HalTimerTick();  // 檢查終止的counter
   \   000004                ; Setup parameters for call to function HalTimerTick
   \   000004   12....       LCALL   ??HalTimerTick?relay
    199          #endif
    200          
    201            /* UART Poll */
    202          #if (defined HAL_UART) && (HAL_UART == TRUE)
    203            HalUARTPoll();  // Poll the UART
   \   000007                ; Setup parameters for call to function HalUARTPoll
   \   000007   12....       LCALL   ??HalUARTPoll?relay
    204          #endif  
    205          
    206            /* SPI Poll */
    207          #if (defined HAL_SPI) && (HAL_SPI == TRUE)
    208            HalSpiPoll();  
    209          #endif
    210          
    211            /* HID poll */
    212          #if (defined HAL_HID) && (HAL_HID == TRUE)
    213            usbHidProcessEvents();
    214          #endif
    215          }
   \   00000A   02....       LJMP    ?Subroutine0 & 0xFFFF

   \                                 In  segment BANK_RELAYS, align 1
   \                     ??Hal_Init?relay:
   \   000000   12....       LCALL   ?BDISPATCH
   \   000003   ......       DC24    Hal_Init

   \                                 In  segment BANK_RELAYS, align 1
   \                     ??HalDriverInit?relay:
   \   000000   12....       LCALL   ?BDISPATCH
   \   000003   ......       DC24    HalDriverInit

   \                                 In  segment BANK_RELAYS, align 1
   \                     ??Hal_ProcessEvent?relay:
   \   000000   12....       LCALL   ?BDISPATCH
   \   000003   ......       DC24    Hal_ProcessEvent

   \                                 In  segment BANK_RELAYS, align 1
   \                     ??Hal_ProcessPoll?relay:
   \   000000   12....       LCALL   ?BDISPATCH
   \   000003   ......       DC24    Hal_ProcessPoll

   Maximum stack usage in bytes:

     Function                 ISTACK PSTACK XSTACK
     --------                 ------ ------ ------
     HalDriverInit                2      0      0
       -> HalTimerInit            4      0      0
       -> M160_Init               4      0      0
       -> HalAdcInit              4      0      0
       -> HalDmaInit              4      0      0
       -> HalFlashInit            4      0      0
       -> HalAesInit              4      0      0
       -> HalLcdInit              4      0      0
       -> HalUARTInit             4      0      0
       -> HalKeyInit              4      0      0
       -> halKeypadInit           4      0      0
       -> HalLedInit              4      0      0
     Hal_Init                     2      0      0
     Hal_ProcessEvent             0      0     10
       -> osal_msg_receive        0      0     20
       -> osal_msg_deallocate     0      0     20
       -> osal_msg_receive        0      0     20
       -> HalLedUpdate            0      0     20
       -> HalKeyPoll              0      0     20
       -> osal_start_timerEx      0      0     20
     Hal_ProcessPoll              2      0      0
       -> HalTimerTick            4      0      0
       -> HalUARTPoll             4      0      0


   Segment part sizes:

     Function/Label           Bytes
     --------------           -----
     Hal_TaskID                  1
     Hal_Init                    9
     ?Subroutine0                7
     HalDriverInit              39
     Hal_ProcessEvent          104
     Hal_ProcessPoll            13
     ??Hal_Init?relay            6
     ??HalDriverInit?relay       6
     ??Hal_ProcessEvent?relay    6
     ??Hal_ProcessPoll?relay     6

 
 172 bytes in segment BANKED_CODE
  24 bytes in segment BANK_RELAYS
   1 byte  in segment XDATA_Z
 
 196 bytes of CODE  memory
   1 byte  of XDATA memory

Errors: none
Warnings: none
