###############################################################################
#                                                                             #
# IAR C/C++ Compiler V7.51A/W32 for 8051                27/Aug/2010  11:44:44 #
# Copyright 2004-2009 IAR Systems AB.                                         #
#                                                                             #
#    Core               =  plain                                              #
#    Code model         =  banked                                             #
#    Data model         =  large                                              #
#    Calling convention =  xdata reentrant                                    #
#    Constant location  =  data_rom                                           #
#    Dptr setup         =  1,16                                               #
#    Source file        =  D:\Z-Stack¾ã²zCode\«n¶}¬ì¤j_Z-Stack_ZigbeeRouter\X #
#                          T200_PA_Z-Stack\ZStack-CC2530-2.3.0-1.4.0\Componen #
#                          ts\mac\low_level\srf04\single_chip\mac_radio_defs. #
#                          c                                                  #
#    Command line       =  -f "D:\Z-Stack¾ã²zCode\«n¶}¬ì¤j_Z-Stack_ZigbeeRout #
#                          er\XT200_PA_Z-Stack\ZStack-CC2530-2.3.0-1.4.0\Proj #
#                          ects\zstack\Sensor Network Application\ZIGBEE      #
#                          Endpoint & Device\CC2530DB\..\..\..\Tools\CC2530DB #
#                          \f8wEndev.cfg" (-DCPU32MHZ -DROOT=__near_func      #
#                          -DBLINK_LEDS) -f "D:\Z-Stack¾ã²zCode\«n¶}¬ì¤j_Z-St #
#                          ack_ZigbeeRouter\XT200_PA_Z-Stack\ZStack-CC2530-2. #
#                          3.0-1.4.0\Projects\zstack\Sensor Network           #
#                          Application\ZIGBEE Endpoint &                      #
#                          Device\CC2530DB\..\..\..\Tools\CC2530DB\f8wConfig. #
#                          cfg" (-DSECURE=0 -DZG_SECURE_DYNAMIC=0             #
#                          -DREFLECTOR -DDEFAULT_CHANLIST=0x00000800          #
#                          -DZDAPP_CONFIG_PAN_ID=0xFFFF                       #
#                          -DNWK_START_DELAY=100 -DEXTENDED_JOINING_RANDOM_MA #
#                          SK=0x007F -DBEACON_REQUEST_DELAY=100               #
#                          -DBEACON_REQ_DELAY_MASK=0x00FF                     #
#                          -DROUTE_EXPIRY_TIME=30 -DAPSC_ACK_WAIT_DURATION_PO #
#                          LLED=3000 -DNWK_INDIRECT_MSG_TIMEOUT=7             #
#                          -DMAX_RREQ_ENTRIES=8 -DAPSC_MAX_FRAME_RETRIES=3    #
#                          -DNWK_MAX_DATA_RETRIES=2                           #
#                          -DMAX_POLL_FAILURE_RETRIES=2 -DMAX_BCAST=9         #
#                          -DAPS_MAX_GROUPS=16 -DMAX_RTG_ENTRIES=40           #
#                          -DNWK_MAX_BINDING_ENTRIES=4                        #
#                          -DMAX_BINDING_CLUSTER_IDS=4 "-DDEFAULT_KEY={0x01,  #
#                          0x03, 0x05, 0x07, 0x09, 0x0B, 0x0D, 0x0F, 0x00,    #
#                          0x02, 0x04, 0x06, 0x08, 0x0A, 0x0C, 0x0D}"         #
#                          -DMAC_MAX_FRAME_SIZE=116 "-DCONST=const __code"    #
#                          -DGENERIC=__generic -DRFD_RCVC_ALWAYS_ON=TRUE      #
#                          -DPOLL_RATE=1000 -DQUEUED_POLL_RATE=100            #
#                          -DRESPONSE_POLL_RATE=100 -DREJOIN_POLL_RATE=440)   #
#                          -f "D:\Z-Stack¾ã²zCode\«n¶}¬ì¤j_Z-Stack_ZigbeeRout #
#                          er\XT200_PA_Z-Stack\ZStack-CC2530-2.3.0-1.4.0\Proj #
#                          ects\zstack\Sensor Network Application\ZIGBEE      #
#                          Endpoint & Device\CC2530DB\..\..\..\Tools\CC2530DB #
#                          \f8wZCL.cfg" (-DZCL_READ -DZCL_WRITE -DZCL_BASIC   #
#                          -DZCL_IDENTIFY -DZCL_ON_OFF -DZCL_KEY_ESTABLISH    #
#                          -DZCL_LOAD_CONTROL -DZCL_SIMPLE_METERING           #
#                          -DZCL_PRICING) -DZCL_MESSAGE                       #
#                          D:\Z-Stack¾ã²zCode\«n¶}¬ì¤j_Z-Stack_ZigbeeRouter\X #
#                          T200_PA_Z-Stack\ZStack-CC2530-2.3.0-1.4.0\Componen #
#                          ts\mac\low_level\srf04\single_chip\mac_radio_defs. #
#                          c -D NWK_AUTO_POLL -D ZTOOL_P1 -D MT_APP_FUNC -D   #
#                          MT_SYS_FUNC -D MT_ZDO_FUNC -D MT_TASK -D           #
#                          xPOWER_SAVING -D xNV_RESTORE -D End_Device -D      #
#                          PA2591 -lC "D:\Z-Stack¾ã²zCode\«n¶}¬ì¤j_Z-Stack_Zi #
#                          gbeeRouter\XT200_PA_Z-Stack\ZStack-CC2530-2.3.0-1. #
#                          4.0\Projects\zstack\Sensor Network                 #
#                          Application\ZIGBEE Endpoint &                      #
#                          Device\CC2530DB\EndDeviceNB_RS232\List\" -lA       #
#                          "D:\Z-Stack¾ã²zCode\«n¶}¬ì¤j_Z-Stack_ZigbeeRouter\ #
#                          XT200_PA_Z-Stack\ZStack-CC2530-2.3.0-1.4.0\Project #
#                          s\zstack\Sensor Network Application\ZIGBEE         #
#                          Endpoint & Device\CC2530DB\EndDeviceNB_RS232\List\ #
#                          " --diag_suppress Pe001,Pa010 -o                   #
#                          "D:\Z-Stack¾ã²zCode\«n¶}¬ì¤j_Z-Stack_ZigbeeRouter\ #
#                          XT200_PA_Z-Stack\ZStack-CC2530-2.3.0-1.4.0\Project #
#                          s\zstack\Sensor Network Application\ZIGBEE         #
#                          Endpoint & Device\CC2530DB\EndDeviceNB_RS232\Obj\" #
#                           -e --require_prototypes --debug --core=plain      #
#                          --dptr=16,1 --data_model=large                     #
#                          --code_model=banked --calling_convention=xdata_ree #
#                          ntrant --place_constants=data_rom                  #
#                          --nr_virtual_regs 16 -I "D:\Z-Stack¾ã²zCode\«n¶}¬ì #
#                          ¤j_Z-Stack_ZigbeeRouter\XT200_PA_Z-Stack\ZStack-CC #
#                          2530-2.3.0-1.4.0\Projects\zstack\Sensor Network    #
#                          Application\ZIGBEE Endpoint & Device\CC2530DB\"    #
#                          -I "D:\Z-Stack¾ã²zCode\«n¶}¬ì¤j_Z-Stack_ZigbeeRout #
#                          er\XT200_PA_Z-Stack\ZStack-CC2530-2.3.0-1.4.0\Proj #
#                          ects\zstack\Sensor Network Application\ZIGBEE      #
#                          Endpoint & Device\CC2530DB\..\SOURCE\" -I          #
#                          "D:\Z-Stack¾ã²zCode\«n¶}¬ì¤j_Z-Stack_ZigbeeRouter\ #
#                          XT200_PA_Z-Stack\ZStack-CC2530-2.3.0-1.4.0\Project #
#                          s\zstack\Sensor Network Application\ZIGBEE         #
#                          Endpoint & Device\CC2530DB\..\..\SOURCE\" -I       #
#                          "D:\Z-Stack¾ã²zCode\«n¶}¬ì¤j_Z-Stack_ZigbeeRouter\ #
#                          XT200_PA_Z-Stack\ZStack-CC2530-2.3.0-1.4.0\Project #
#                          s\zstack\Sensor Network Application\ZIGBEE         #
#                          Endpoint & Device\CC2530DB\..\..\..\ZMAIN\TI2530DB #
#                          \" -I "D:\Z-Stack¾ã²zCode\«n¶}¬ì¤j_Z-Stack_ZigbeeR #
#                          outer\XT200_PA_Z-Stack\ZStack-CC2530-2.3.0-1.4.0\P #
#                          rojects\zstack\Sensor Network Application\ZIGBEE   #
#                          Endpoint & Device\CC2530DB\..\..\..\..\..\COMPONEN #
#                          TS\MT\" -I "D:\Z-Stack¾ã²zCode\«n¶}¬ì¤j_Z-Stack_Zi #
#                          gbeeRouter\XT200_PA_Z-Stack\ZStack-CC2530-2.3.0-1. #
#                          4.0\Projects\zstack\Sensor Network                 #
#                          Application\ZIGBEE Endpoint &                      #
#                          Device\CC2530DB\..\..\..\..\..\COMPONENTS\HAL\INCL #
#                          UDE\" -I "D:\Z-Stack¾ã²zCode\«n¶}¬ì¤j_Z-Stack_Zigb #
#                          eeRouter\XT200_PA_Z-Stack\ZStack-CC2530-2.3.0-1.4. #
#                          0\Projects\zstack\Sensor Network                   #
#                          Application\ZIGBEE Endpoint &                      #
#                          Device\CC2530DB\..\..\..\..\..\COMPONENTS\HAL\MODU #
#                          LE\" -I "D:\Z-Stack¾ã²zCode\«n¶}¬ì¤j_Z-Stack_Zigbe #
#                          eRouter\XT200_PA_Z-Stack\ZStack-CC2530-2.3.0-1.4.0 #
#                          \Projects\zstack\Sensor Network                    #
#                          Application\ZIGBEE Endpoint &                      #
#                          Device\CC2530DB\..\..\..\..\..\COMPONENTS\HAL\TARG #
#                          ET\CC2530NB\" -I "D:\Z-Stack¾ã²zCode\«n¶}¬ì¤j_Z-St #
#                          ack_ZigbeeRouter\XT200_PA_Z-Stack\ZStack-CC2530-2. #
#                          3.0-1.4.0\Projects\zstack\Sensor Network           #
#                          Application\ZIGBEE Endpoint &                      #
#                          Device\CC2530DB\..\..\..\..\..\COMPONENTS\OSAL\MCU #
#                          \CCSOC\" -I "D:\Z-Stack¾ã²zCode\«n¶}¬ì¤j_Z-Stack_Z #
#                          igbeeRouter\XT200_PA_Z-Stack\ZStack-CC2530-2.3.0-1 #
#                          .4.0\Projects\zstack\Sensor Network                #
#                          Application\ZIGBEE Endpoint &                      #
#                          Device\CC2530DB\..\..\..\..\..\COMPONENTS\OSAL\INC #
#                          LUDE\" -I "D:\Z-Stack¾ã²zCode\«n¶}¬ì¤j_Z-Stack_Zig #
#                          beeRouter\XT200_PA_Z-Stack\ZStack-CC2530-2.3.0-1.4 #
#                          .0\Projects\zstack\Sensor Network                  #
#                          Application\ZIGBEE Endpoint &                      #
#                          Device\CC2530DB\..\..\..\..\..\COMPONENTS\STACK\AF #
#                          \" -I "D:\Z-Stack¾ã²zCode\«n¶}¬ì¤j_Z-Stack_ZigbeeR #
#                          outer\XT200_PA_Z-Stack\ZStack-CC2530-2.3.0-1.4.0\P #
#                          rojects\zstack\Sensor Network Application\ZIGBEE   #
#                          Endpoint & Device\CC2530DB\..\..\..\..\..\COMPONEN #
#                          TS\STACK\NWK\" -I "D:\Z-Stack¾ã²zCode\«n¶}¬ì¤j_Z-S #
#                          tack_ZigbeeRouter\XT200_PA_Z-Stack\ZStack-CC2530-2 #
#                          .3.0-1.4.0\Projects\zstack\Sensor Network          #
#                          Application\ZIGBEE Endpoint &                      #
#                          Device\CC2530DB\..\..\..\..\..\COMPONENTS\STACK\SE #
#                          C\" -I "D:\Z-Stack¾ã²zCode\«n¶}¬ì¤j_Z-Stack_Zigbee #
#                          Router\XT200_PA_Z-Stack\ZStack-CC2530-2.3.0-1.4.0\ #
#                          Projects\zstack\Sensor Network Application\ZIGBEE  #
#                          Endpoint & Device\CC2530DB\..\..\..\..\..\COMPONEN #
#                          TS\STACK\SAPI\" -I "D:\Z-Stack¾ã²zCode\«n¶}¬ì¤j_Z- #
#                          Stack_ZigbeeRouter\XT200_PA_Z-Stack\ZStack-CC2530- #
#                          2.3.0-1.4.0\Projects\zstack\Sensor Network         #
#                          Application\ZIGBEE Endpoint &                      #
#                          Device\CC2530DB\..\..\..\..\..\COMPONENTS\STACK\SY #
#                          S\" -I "D:\Z-Stack¾ã²zCode\«n¶}¬ì¤j_Z-Stack_Zigbee #
#                          Router\XT200_PA_Z-Stack\ZStack-CC2530-2.3.0-1.4.0\ #
#                          Projects\zstack\Sensor Network Application\ZIGBEE  #
#                          Endpoint & Device\CC2530DB\..\..\..\..\..\COMPONEN #
#                          TS\STACK\ZCL\" -I "D:\Z-Stack¾ã²zCode\«n¶}¬ì¤j_Z-S #
#                          tack_ZigbeeRouter\XT200_PA_Z-Stack\ZStack-CC2530-2 #
#                          .3.0-1.4.0\Projects\zstack\Sensor Network          #
#                          Application\ZIGBEE Endpoint &                      #
#                          Device\CC2530DB\..\..\..\..\..\COMPONENTS\STACK\ZD #
#                          O\" -I "D:\Z-Stack¾ã²zCode\«n¶}¬ì¤j_Z-Stack_Zigbee #
#                          Router\XT200_PA_Z-Stack\ZStack-CC2530-2.3.0-1.4.0\ #
#                          Projects\zstack\Sensor Network Application\ZIGBEE  #
#                          Endpoint & Device\CC2530DB\..\..\..\..\..\COMPONEN #
#                          TS\ZMAC\F8W\" -I "D:\Z-Stack¾ã²zCode\«n¶}¬ì¤j_Z-St #
#                          ack_ZigbeeRouter\XT200_PA_Z-Stack\ZStack-CC2530-2. #
#                          3.0-1.4.0\Projects\zstack\Sensor Network           #
#                          Application\ZIGBEE Endpoint &                      #
#                          Device\CC2530DB\..\..\..\..\..\COMPONENTS\ZMAC\"   #
#                          -I "D:\Z-Stack¾ã²zCode\«n¶}¬ì¤j_Z-Stack_ZigbeeRout #
#                          er\XT200_PA_Z-Stack\ZStack-CC2530-2.3.0-1.4.0\Proj #
#                          ects\zstack\Sensor Network Application\ZIGBEE      #
#                          Endpoint & Device\CC2530DB\..\..\..\..\..\COMPONEN #
#                          TS\SERVICES\SADDR\" -I "D:\Z-Stack¾ã²zCode\«n¶}¬ì¤ #
#                          j_Z-Stack_ZigbeeRouter\XT200_PA_Z-Stack\ZStack-CC2 #
#                          530-2.3.0-1.4.0\Projects\zstack\Sensor Network     #
#                          Application\ZIGBEE Endpoint &                      #
#                          Device\CC2530DB\..\..\..\..\..\COMPONENTS\SERVICES #
#                          \SDATA\" -I "D:\Z-Stack¾ã²zCode\«n¶}¬ì¤j_Z-Stack_Z #
#                          igbeeRouter\XT200_PA_Z-Stack\ZStack-CC2530-2.3.0-1 #
#                          .4.0\Projects\zstack\Sensor Network                #
#                          Application\ZIGBEE Endpoint &                      #
#                          Device\CC2530DB\..\..\..\..\..\COMPONENTS\MAC\INCL #
#                          UDE\" -I "D:\Z-Stack¾ã²zCode\«n¶}¬ì¤j_Z-Stack_Zigb #
#                          eeRouter\XT200_PA_Z-Stack\ZStack-CC2530-2.3.0-1.4. #
#                          0\Projects\zstack\Sensor Network                   #
#                          Application\ZIGBEE Endpoint &                      #
#                          Device\CC2530DB\..\..\..\..\..\COMPONENTS\MAC\HIGH #
#                          _LEVEL\" -I "D:\Z-Stack¾ã²zCode\«n¶}¬ì¤j_Z-Stack_Z #
#                          igbeeRouter\XT200_PA_Z-Stack\ZStack-CC2530-2.3.0-1 #
#                          .4.0\Projects\zstack\Sensor Network                #
#                          Application\ZIGBEE Endpoint &                      #
#                          Device\CC2530DB\..\..\..\..\..\COMPONENTS\MAC\LOW_ #
#                          LEVEL\srf04\" -I "D:\Z-Stack¾ã²zCode\«n¶}¬ì¤j_Z-St #
#                          ack_ZigbeeRouter\XT200_PA_Z-Stack\ZStack-CC2530-2. #
#                          3.0-1.4.0\Projects\zstack\Sensor Network           #
#                          Application\ZIGBEE Endpoint &                      #
#                          Device\CC2530DB\..\..\..\..\..\COMPONENTS\MAC\LOW_ #
#                          LEVEL\srf04\SINGLE_CHIP\" -I "C:\IAR               #
#                          Systems\Embedded Workbench MCS 51\8051\INC\" -I    #
#                          "C:\IAR Systems\Embedded Workbench MCS             #
#                          51\8051\INC\CLIB\" -Ohz                            #
#    List file          =  D:\Z-Stack¾ã²zCode\«n¶}¬ì¤j_Z-Stack_ZigbeeRouter\X #
#                          T200_PA_Z-Stack\ZStack-CC2530-2.3.0-1.4.0\Projects #
#                          \zstack\Sensor Network Application\ZIGBEE          #
#                          Endpoint & Device\CC2530DB\EndDeviceNB_RS232\List\ #
#                          mac_radio_defs.lst                                 #
#    Object file        =  D:\Z-Stack¾ã²zCode\«n¶}¬ì¤j_Z-Stack_ZigbeeRouter\X #
#                          T200_PA_Z-Stack\ZStack-CC2530-2.3.0-1.4.0\Projects #
#                          \zstack\Sensor Network Application\ZIGBEE          #
#                          Endpoint & Device\CC2530DB\EndDeviceNB_RS232\Obj\m #
#                          ac_radio_defs.r51                                  #
#                                                                             #
#                                                                             #
###############################################################################

D:\Z-Stack¾ã²zCode\«n¶}¬ì¤j_Z-Stack_ZigbeeRouter\XT200_PA_Z-Stack\ZStack-CC2530-2.3.0-1.4.0\Components\mac\low_level\srf04\single_chip\mac_radio_defs.c
      1          /**************************************************************************************************
      2            Filename:       mac_radio_defs.c
      3            Revised:        $Date: 2010-01-06 14:40:42 -0800 (Wed, 06 Jan 2010) $
      4            Revision:       $Revision: 21441 $
      5          
      6            Description:    Describe the purpose and contents of the file.
      7          
      8            Copyright 2006-2010 Texas Instruments Incorporated. All rights reserved.
      9          
     10            Should you have any questions regarding your right to use this Software,
     11            contact Texas Instruments Incorporated at www.TI.com.
     12          **************************************************************************************************/
     13          
     14          /* ------------------------------------------------------------------------------------------------
     15           *                                             Includes
     16           * ------------------------------------------------------------------------------------------------
     17           */
     18          #include "mac_radio_defs.h"
     19          #include "hal_types.h"
     20          #include "hal_assert.h"
     21          #include "mac_pib.h"
     22          
     23          
     24          /* ------------------------------------------------------------------------------------------------
     25           *                                        Global Constants
     26           * ------------------------------------------------------------------------------------------------
     27           */
     28          #if defined MAC_RUNTIME_CC2591 || defined MAC_RUNTIME_CC2590 || (!defined HAL_PA_LNA && !defined HAL_PA_LNA_CC2590)
     29          
     30          const uint8 CODE macRadioDefsTxPwrBare[] =
     31          {
     32            3,  /* tramsmit power level of the first entry */
     33            (uint8)(int8)-22, /* transmit power level of the last entry */
     34            /*   3 dBm */   0xF5,   /* characterized as  4.5 dBm in datasheet */
     35            /*   2 dBm */   0xE5,   /* characterized as  2.5 dBm in datasheet */
     36            /*   1 dBm */   0xD5,   /* characterized as  1   dBm in datasheet */
     37            /*   0 dBm */   0xD5,   /* characterized as  1   dBm in datasheet */
     38            /*  -1 dBm */   0xC5,   /* characterized as -0.5 dBm in datasheet */
     39            /*  -2 dBm */   0xB5,   /* characterized as -1.5 dBm in datasheet */
     40            /*  -3 dBm */   0xA5,   /* characterized as -3   dBm in datasheet */
     41            /*  -4 dBm */   0x95,   /* characterized as -4   dBm in datasheet */
     42            /*  -5 dBm */   0x95,
     43            /*  -6 dBm */   0x85,   /* characterized as -6   dBm in datasheet */
     44            /*  -7 dBm */   0x85,
     45            /*  -8 dBm */   0x75,   /* characterized as -8   dBm in datasheet */
     46            /*  -9 dBm */   0x75,
     47            /* -10 dBm */   0x65,   /* characterized as -10  dBm in datasheet */
     48            /* -11 dBm */   0x65,
     49            /* -12 dBm */   0x55,   /* characterized as -12  dBm in datasheet */
     50            /* -13 dBm */   0x55,
     51            /* -14 dBm */   0x45,   /* characterized as -14  dBm in datasheet */
     52            /* -15 dBm */   0x45,
     53            /* -16 dBm */   0x35,   /* characterized as -16  dBm in datasheet */
     54            /* -17 dBm */   0x35,
     55            /* -18 dBm */   0x25,   /* characterized as -18  dBm in datasheet */
     56            /* -19 dBm */   0x25,
     57            /* -20 dBm */   0x15,   /* characterized as -20  dBm in datasheet */
     58            /* -21 dBm */   0x15,
     59            /* -22 dBm */   0x05    /* characterized as -22  dBm in datasheet */
     60          };
     61          #endif
     62          
     63          #if defined HAL_PA_LNA || defined MAC_RUNTIME_CC2591

   \                                 In  segment CODE_C, align 1
     64          const uint8 CODE macRadioDefsTxPwrCC2591[] =
   \                     macRadioDefsTxPwrCC2591:
   \   000000   13000515     DB 19, 0, 5, 21, 37, 37, 53, 53, 69, 69, 85, 85, 85, 101, 117, 117, 133
   \            25253535
   \            45455555
   \            55657575
   \            85      
   \   000011   95A5B5D5     DB 149, 165, 181, 213, 245
   \            F5      
     65          {
     66            19,  /* tramsmit power level of the first entry */
     67            (uint8)(int8)0, /* transmit power level of the last entry */
     68            /*   0 dBm */   0x05,   /* characterized as -0.8 dBm in datasheet */
     69            /*   1 dBm */   0x15,   /* characterized as 0.70 dBm in datasheet*/
     70            /*   2 dBm */   0x25,   /* characterized as 2.71 dBm in datasheet */
     71            /*   3 dBm */   0x25,
     72            /*   4 dBm */   0x35,   /* characterized as 4.30 dBm in datasheet */ 
     73            /*   5 dBm */   0x35, 
     74            /*   6 dBm */   0x45,   /* characterized as 6.64 dBm in datasheet */ 
     75            /*   7 dBm */   0x45, 
     76            /*   8 dBm */   0x55,   /* characterized as 8.94 dBm in datasheet */ 
     77            /*   9 dBm */   0x55, 
     78            /*  10 dBm */   0x55, 
     79            /*  11 dBm */   0x65,   /* characterized as 10.97 dBm in datasheet */  
     80            /*  12 dBm */   0x75,   /* characterized as 12.63 dBm in datasheet */ 
     81            /*  13 dBm */   0x75, 
     82            /*  14 dBm */   0x85,   /* characterized as 14.08 dBm in datasheet */ 
     83            /*  15 dBm */   0x95,   /* characterized as 15.06 dBm in datasheet */
     84            /*  16 dBm */   0xA5,   /* characterized as 16.42 dBm in datasheet */
     85            /*  17 dBm */   0xB5,   /* characterized as 17.37 dBm in datasheet */
     86            /*  18 dBm */   0xD5,   /* characterized as 18.45 dBm in datasheet */
     87            /*  19 dBm */   0xF5,   /* characterized as 19.36 dBm in datasheet */
     88          };
     89          #endif
     90          
     91          
     92          /* Placeholder for CC2590 */
     93          #if defined HAL_PA_LNA_CC2590 || defined MAC_RUNTIME_CC2590
     94          const uint8 CODE macRadioDefsTxPwrCC2590[] =
     95          {
     96            11,  /* tramsmit power level of the first entry */
     97            (uint8)(int8)-12, /* transmit power level of the last entry */
     98            /* Note that the characterization is preliminary */
     99            /* 11 dBm */   0xF5,   /* characterized as 11.8 dBm */
    100            /* 10 dBm */   0xE5,   /* characterized as 10.6 dBm */
    101            /*  9 dBm */   0xD5,   /* characterized as 9.5 dBm */
    102            /*  8 dBm */   0xC5,   /* characterized as 8.5 dBm */
    103            /*  7 dBm */   0xB5,   /* characterized as 7.6 dBm */
    104            /*  6 dBm */   0xA5,   /* characterized as 6.4 dBm */
    105            /*  5 dBm */   0xA5,   /* characterized as 6.4 dBm */
    106            /*  4 dBm */   0x95,   /* characterized as 4.7 dBm */
    107            /*  3 dBm */   0x85,   /* characterized as 3.5 dBm */
    108            /*  2 dBm */   0x75,   /* characterized as 2.0 dBm */
    109            /*  1 dBm */   0x75,   /* characterized as 2.0 dBm */
    110            /*  0 dBm */   0x65,   /* characterized as 0.3 dBm */
    111            /* -1 dBm */   0x65,   /* characterized as 0.3 dBm */
    112            /* -2 dBm */   0x55,   /* characterized as -1.7 dBm */
    113            /* -3 dBm */   0x55,   /* characterized as -1.7 dBm */
    114            /* -4 dBm */   0x45,   /* characterized as -3.9 dBm */
    115            /* -5 dBm */   0x45,   /* characterized as -3.9 dBm */
    116            /* -6 dBm */   0x45,   /* characterized as -3.9 dBm */
    117            /* -7 dBm */   0x35,   /* characterized as -6.3 dBm*/
    118            /* -8 dBm */   0x25,   /* characterized as -7.8 dBm */
    119            /* -9 dBm */   0x25,   /* characterized as -7.8 dBm */
    120            /* -10 dBm */  0x15,   /* characterized as -9.8 dBm */
    121            /* -11 dBm */  0x15,   /* characterized as -9.8 dBm */
    122            /* -12 dBm */  0x05,   /* characterized as -11.8 dBm */
    123          };
    124          #endif
    125          
    126          #if defined MAC_RUNTIME_CC2591 || defined MAC_RUNTIME_CC2590 || defined HAL_PA_LNA || defined HAL_PA_LNA_CC2590
    127          
    128          /* TX power table array */

   \                                 In  segment CODE_C, align 1
    129          const uint8 CODE *const CODE macRadioDefsTxPwrTables[] =
   \                     macRadioDefsTxPwrTables:
   \   000000   ....         DW macRadioDefsTxPwrCC2591
    130          {
    131          #if defined MAC_RUNTIME_CC2591 || defined MAC_RUNTIME_CC2590 || (!defined HAL_PA_LNA && !defined HAL_PA_LNA_CC2590)
    132            macRadioDefsTxPwrBare,
    133          #endif
    134          
    135          #if defined HAL_PA_LNA || defined MAC_RUNTIME_CC2591
    136            macRadioDefsTxPwrCC2591,
    137          #endif
    138          
    139          #if defined HAL_PA_LNA_CC2590 || defined MAC_RUNTIME_CC2590
    140            macRadioDefsTxPwrCC2590,
    141          #endif
    142          };
    143          
    144          /* RSSI offset adjustment value array */

   \                                 In  segment CODE_C, align 1
    145          const int8 CODE macRadioDefsRssiAdj[] =
   \                     macRadioDefsRssiAdj:
   \   000000   F704         DB -9, 4
    146          {
    147          #if defined MAC_RUNTIME_CC2591 || defined MAC_RUNTIME_CC2590 || (!defined HAL_PA_LNA && !defined HAL_PA_LNA_CC2590)
    148            0,
    149          #endif
    150          
    151          #if defined HAL_PA_LNA || defined MAC_RUNTIME_CC2591
    152            -9, /* high gain mode */
    153            4,  /* low gain mode */
    154          #endif
    155          
    156          #if defined HAL_PA_LNA_CC2590 || defined MAC_RUNTIME_CC2590
    157            -10, /* high gain mode */
    158            0,   /* low gain mode */
    159          #endif
    160          };
    161          
    162          #endif /* defined MAC_RUNTIME_CC2591 || defined MAC_RUNTIME_CC2590 || ... */
    163          
    164          #if defined MAC_RUNTIME_CC2591 || defined MAC_RUNTIME_CC2590 || defined HAL_PA_LNA || defined HAL_PA_LNA_CC2590

   \                                 In  segment XDATA_Z, align 1, keep-with-next
    165          uint8 macRadioDefsRefTableId = 0;
   \                     macRadioDefsRefTableId:
   \   000000                DS 1
   \   000001                REQUIRE __INIT_XDATA_Z
    166          #endif
    167          
    168          /* RF observable control register value to output PA signal */
    169          #define RFC_OBS_CTRL_PA_PD_INV        0x68
    170          
    171          /* RF observable control register value to output LNA signal */
    172          #define RFC_OBS_CTRL_LNAMIX_PD_INV    0x6A
    173          
    174          /* OBSSELn register value to select RF observable 0 */
    175          #define OBSSEL_OBS_CTRL0             0xFB
    176          
    177          /* OBSSELn register value to select RF observable 1 */
    178          #define OBSSEL_OBS_CTRL1             0xFC
    179          
    180          
    181          /**************************************************************************************************
    182           * @fn          MAC_SelectRadioRegTable
    183           * @brief       Select radio register table in case multiple register tables are included
    184           *              in the build
    185           * @param       txPwrTblIdx - TX power register value table index
    186           * @param       rssiAdjIdx - RSSI adjustment value index
    187           **************************************************************************************************
    188           */

   \                                 In  segment BANKED_CODE, align 1, keep-with-next
    189          extern void MAC_SetRadioRegTable ( uint8 txPwrTblIdx, uint8 rssiAdjIdx )
   \                     MAC_SetRadioRegTable:
    190          {
   \   000000   C082         PUSH    DPL
   \   000002   C083         PUSH    DPH
   \   000004                ; Saved register size: 2
   \   000004                ; Auto size: 0
    191            /* Depending on compile flags, the parameters may not be used */
    192            (void) txPwrTblIdx;
    193            (void) rssiAdjIdx;
    194          
    195          #if defined MAC_RUNTIME_CC2591 || defined MAC_RUNTIME_CC2590
    196            if (txPwrTblIdx >= sizeof(macRadioDefsTxPwrTables)/sizeof(macRadioDefsTxPwrTables[0]))
    197            {
    198              txPwrTblIdx = 0;
    199            }
    200          #endif /* defined MAC_RUNTIME_CC2591 || defined MAC_RUNTIME_CC2590 */
    201          
    202          #if defined MAC_RUNTIME_CC2591 || defined MAC_RUNTIME_CC2590 || \
    203            defined HAL_PA_LNA || defined HAL_PA_LNA_CC2590
    204          
    205            if (rssiAdjIdx >= sizeof(macRadioDefsRssiAdj)/sizeof(macRadioDefsRssiAdj[0]))
   \   000004   EA           MOV     A,R2
   \   000005   C3           CLR     C
   \   000006   9402         SUBB    A,#0x2
   \   000008   4002         JC      ??MAC_SetRadioRegTable_0
    206            {
    207              rssiAdjIdx = 0;
   \   00000A   7A00         MOV     R2,#0x0
    208            }
    209          
    210            macRadioDefsRefTableId = (txPwrTblIdx << 4) | rssiAdjIdx;
   \                     ??MAC_SetRadioRegTable_0:
   \   00000C   E9           MOV     A,R1
   \   00000D   C4           SWAP    A
   \   00000E   54F0         ANL     A,#0xf0
   \   000010   4A           ORL     A,R2
   \   000011   90....       MOV     DPTR,#macRadioDefsRefTableId
   \   000014                REQUIRE ?Subroutine0
   \   000014                ; // Fall through to label ?Subroutine0
    211          
    212          #endif /* defined MAC_RUNTIME_CC2591 || defined MAC_RUNTIME_CC2590 || .. */
    213          }

   \                                 In  segment BANKED_CODE, align 1, keep-with-next
   \                     ?Subroutine0:
   \   000000   F0           MOVX    @DPTR,A
   \   000001                REQUIRE ??Subroutine1_0
   \   000001                ; // Fall through to label ??Subroutine1_0

   \                                 In  segment BANKED_CODE, align 1, keep-with-next
   \                     ??Subroutine1_0:
   \   000000   D083         POP     DPH
   \   000002   D082         POP     DPL
   \   000004   02....       LJMP    ?BRET
    214          
    215          
    216          /**************************************************************************************************
    217           * @fn          macRadioTurnOnPower
    218           * @brief       Logic and sequence for powering up the radio.
    219           **************************************************************************************************
    220           */

   \                                 In  segment BANKED_CODE, align 1, keep-with-next
    221          MAC_INTERNAL_API void macRadioTurnOnPower(void)
   \                     macRadioTurnOnPower:
    222          {
   \   000000   C082         PUSH    DPL
   \   000002   C083         PUSH    DPH
   \   000004                ; Saved register size: 2
   \   000004                ; Auto size: 0
    223            /* Enable RF error trap */
    224            MAC_MCU_RFERR_ENABLE_INTERRUPT();
   \   000004   9061A5       MOV     DPTR,#0x61a5
   \   000007   E0           MOVX    A,@DPTR
   \   000008   D2E2         SETB    0xE0 /* A   */.2
   \   00000A   F0           MOVX    @DPTR,A
    225          
    226          #if defined MAC_RUNTIME_CC2591 || defined MAC_RUNTIME_CC2590
    227            /* table ID is referenced only when runtime configuratino is enabled */
    228            if (macRadioDefsRefTableId & 0xf0)
    229          #endif /* defined MAC_RUNTIME_CC2591 || defined MAC_RUNTIME_CC2590 */
    230          
    231          #if defined MAC_RUNTIME_CC2591 || defined MAC_RUNTIME_CC2590 || defined HAL_PA_LNA || defined HAL_PA_LNA_CC2590
    232            { /* either if compound statement or non-conditional compound statement */
    233          
    234              /* (Re-)Configure PA and LNA control signals to RF frontend chips. Note that The register values
    235                 are not retained during sleep. */
    236          
    237          #ifdef XT200_PA  
    238               /* P1_1 -> PAEN */
    239              RFC_OBS_CTRL0 = RFC_OBS_CTRL_PA_PD_INV;
    240              OBSSEL1       = OBSSEL_OBS_CTRL0;
    241              /* P1_0 -> EN (LNA control) */
    242              RFC_OBS_CTRL1 = RFC_OBS_CTRL_LNAMIX_PD_INV;
    243              OBSSEL0       = OBSSEL_OBS_CTRL1;
    244          #else
    245              /* P1_1 -> PAEN */
    246              RFC_OBS_CTRL0 = RFC_OBS_CTRL_PA_PD_INV;
   \   00000B   7468         MOV     A,#0x68
   \   00000D   9061EB       MOV     DPTR,#0x61eb
   \   000010   F0           MOVX    @DPTR,A
    247              OBSSEL1       = OBSSEL_OBS_CTRL0;
   \   000011   74FB         MOV     A,#-0x5
   \   000013   906244       MOV     DPTR,#0x6244
   \   000016   F0           MOVX    @DPTR,A
    248              /* P1_4 -> EN (LNA control) */
    249              RFC_OBS_CTRL1 = RFC_OBS_CTRL_LNAMIX_PD_INV;
   \   000017   746A         MOV     A,#0x6a
   \   000019   9061EC       MOV     DPTR,#0x61ec
   \   00001C   F0           MOVX    @DPTR,A
    250              OBSSEL4       = OBSSEL_OBS_CTRL1;
   \   00001D   74FC         MOV     A,#-0x4
   \   00001F   906247       MOV     DPTR,#0x6247
   \   000022   F0           MOVX    @DPTR,A
    251          #endif
    252              
    253            }
    254          #endif /* defined MAC_RUNTIME_CC2591 || ... || defined HAL_PA_LNA_CC2590 */
    255          
    256            if (macChipVersion <= REV_B)
   \   000023   90....       MOV     DPTR,#macChipVersion
   \   000026   E0           MOVX    A,@DPTR
   \   000027   C3           CLR     C
   \   000028   9412         SUBB    A,#0x12
   \   00002A   502D         JNC     ??macRadioTurnOnPower_0
    257            {
    258              /* radio initializations for disappearing RAM; PG1.0 and before only */
    259              MAC_RADIO_SET_PAN_ID(macPib.panId);
   \   00002C   90....       MOV     DPTR,#(macPib + 29)
   \   00002F   E0           MOVX    A,@DPTR
   \   000030   906172       MOV     DPTR,#0x6172
   \   000033   F0           MOVX    @DPTR,A
   \   000034   90....       MOV     DPTR,#(macPib + 30)
   \   000037   E0           MOVX    A,@DPTR
   \   000038   906173       MOV     DPTR,#0x6173
   \   00003B   F0           MOVX    @DPTR,A
    260              MAC_RADIO_SET_SHORT_ADDR(macPib.shortAddress);
   \   00003C   90....       MOV     DPTR,#(macPib + 33)
   \   00003F   E0           MOVX    A,@DPTR
   \   000040   906174       MOV     DPTR,#0x6174
   \   000043   F0           MOVX    @DPTR,A
   \   000044   90....       MOV     DPTR,#(macPib + 34)
   \   000047   E0           MOVX    A,@DPTR
   \   000048   906175       MOV     DPTR,#0x6175
   \   00004B   F0           MOVX    @DPTR,A
    261              MAC_RADIO_SET_IEEE_ADDR(macPib.extendedAddress.addr.extAddr);
   \   00004C                ; Setup parameters for call to function macMemWriteRam
   \   00004C   7908         MOV     R1,#0x8
   \   00004E   7C..         MOV     R4,#((macPib + 49) & 0xff)
   \   000050   7D..         MOV     R5,#(((macPib + 49) >> 8) & 0xff)
   \   000052   7A6A         MOV     R2,#0x6a
   \   000054   7B61         MOV     R3,#0x61
   \   000056   12....       LCALL   ??macMemWriteRam?relay
    262            }
    263          }
   \                     ??macRadioTurnOnPower_0:
   \   000059   80..         SJMP    ??Subroutine1_0
    264          
    265          
    266          /**************************************************************************************************
    267           * @fn          macRadioTurnOffPower
    268           *
    269           * @brief       Logic and sequence for powering down the radio.
    270           *
    271           * @param       none
    272           *
    273           * @return      none
    274           **************************************************************************************************
    275           */

   \                                 In  segment BANKED_CODE, align 1, keep-with-next
    276          MAC_INTERNAL_API void macRadioTurnOffPower(void)
   \                     macRadioTurnOffPower:
    277          {
   \   000000   C082         PUSH    DPL
   \   000002   C083         PUSH    DPH
   \   000004                ; Saved register size: 2
   \   000004                ; Auto size: 0
    278            /* Disable RF error trap */
    279            MAC_MCU_RFERR_DISABLE_INTERRUPT();
   \   000004   9061A5       MOV     DPTR,#0x61a5
   \   000007   E0           MOVX    A,@DPTR
   \   000008   C2E2         CLR     0xE0 /* A   */.2
   \   00000A   80..         SJMP    ?Subroutine0
    280          }

   \                                 In  segment BANK_RELAYS, align 1
   \                     ??MAC_SetRadioRegTable?relay:
   \   000000   12....       LCALL   ?BDISPATCH
   \   000003   ......       DC24    MAC_SetRadioRegTable

   \                                 In  segment BANK_RELAYS, align 1
   \                     ??macRadioTurnOnPower?relay:
   \   000000   12....       LCALL   ?BDISPATCH
   \   000003   ......       DC24    macRadioTurnOnPower

   \                                 In  segment BANK_RELAYS, align 1
   \                     ??macRadioTurnOffPower?relay:
   \   000000   12....       LCALL   ?BDISPATCH
   \   000003   ......       DC24    macRadioTurnOffPower
    281          
    282          
    283          /**************************************************************************************************
    284           *                                  Compile Time Integrity Checks
    285           **************************************************************************************************
    286           */
    287          #if (HAL_CPU_CLOCK_MHZ != 32)
    288          #error "ERROR: The only tested/supported clock speed is 32 MHz."
    289          #endif
    290          
    291          #if (MAC_RADIO_RECEIVER_SENSITIVITY_DBM > MAC_SPEC_MIN_RECEIVER_SENSITIVITY)
    292          #error "ERROR: Radio sensitivity does not meet specification."
    293          #endif
    294          
    295          #if defined (HAL_PA_LNA) && defined (HAL_PA_LNA_CC2590)
    296          #error "ERROR: HAL_PA_LNA and HAL_PA_LNA_CC2590 cannot be both defined."
    297          #endif
    298          
    299          #if defined (HAL_PA_LNA) && defined (MAC_RUNTIME_CC2591)
    300          #error "ERROR: HAL_PA_LNA and MAC_RUNTIME_CC2591 cannot be both defined."
    301          #endif
    302          
    303          #if defined (HAL_PA_LNA_CC2590) && defined (MAC_RUNTIME_CC2590)
    304          #error "ERROR: HAL_PA_LNA_CC2590 and MAC_RUNTIME_CC2590 cannot be both defined."
    305          #endif
    306          
    307          
    308          /**************************************************************************************************
    309           */

   Maximum stack usage in bytes:

     Function             ISTACK PSTACK XSTACK
     --------             ------ ------ ------
     MAC_SetRadioRegTable     2      0      0
     macRadioTurnOffPower     2      0      0
     macRadioTurnOnPower      2      0      0
       -> macMemWriteRam      4      0      0


   Segment part sizes:

     Function/Label               Bytes
     --------------               -----
     macRadioDefsTxPwrCC2591        22
     macRadioDefsTxPwrTables         2
     macRadioDefsRssiAdj             2
     macRadioDefsRefTableId          1
     MAC_SetRadioRegTable           20
     ?Subroutine0                    1
     ??Subroutine1_0                 7
     macRadioTurnOnPower            91
     macRadioTurnOffPower           12
     ??MAC_SetRadioRegTable?relay    6
     ??macRadioTurnOnPower?relay     6
     ??macRadioTurnOffPower?relay    6

 
 131 bytes in segment BANKED_CODE
  18 bytes in segment BANK_RELAYS
  26 bytes in segment CODE_C
   1 byte  in segment XDATA_Z
 
 175 bytes of CODE  memory
   1 byte  of XDATA memory

Errors: none
Warnings: none
