###############################################################################
#                                                                             #
# IAR C/C++ Compiler V7.51A/W32 for 8051                27/Aug/2010  11:02:24 #
# Copyright 2004-2009 IAR Systems AB.                                         #
#                                                                             #
#    Core               =  plain                                              #
#    Code model         =  banked                                             #
#    Data model         =  large                                              #
#    Calling convention =  xdata reentrant                                    #
#    Constant location  =  data_rom                                           #
#    Dptr setup         =  1,16                                               #
#    Source file        =  D:\Z-Stack¾ã²zCode\«n¶}¬ì¤j_Z-Stack_ZigbeeRouter\X #
#                          T200_PA_Z-Stack\ZStack-CC2530-2.3.0-1.4.0\Projects #
#                          \zstack\Sensor Network Application\ZIGBEE          #
#                          Coordinator & Router\Source\OSAL_ZIGBEE Receiver.c #
#    Command line       =  -f "D:\Z-Stack¾ã²zCode\«n¶}¬ì¤j_Z-Stack_ZigbeeRout #
#                          er\XT200_PA_Z-Stack\ZStack-CC2530-2.3.0-1.4.0\Proj #
#                          ects\zstack\Sensor Network Application\ZIGBEE      #
#                          Coordinator & Router\CC2530DB\..\..\..\Tools\CC253 #
#                          0DB\f8wRouter.cfg" (-DCPU32MHZ -DROOT=__near_func  #
#                          -DMAC_CFG_APP_PENDING_QUEUE=TRUE -DRTR_NWK         #
#                          -DBLINK_LEDS) -f "D:\Z-Stack¾ã²zCode\«n¶}¬ì¤j_Z-St #
#                          ack_ZigbeeRouter\XT200_PA_Z-Stack\ZStack-CC2530-2. #
#                          3.0-1.4.0\Projects\zstack\Sensor Network           #
#                          Application\ZIGBEE Coordinator &                   #
#                          Router\CC2530DB\..\..\..\Tools\CC2530DB\f8wConfig. #
#                          cfg" (-DSECURE=0 -DZG_SECURE_DYNAMIC=0             #
#                          -DREFLECTOR -DDEFAULT_CHANLIST=0x00000800          #
#                          -DZDAPP_CONFIG_PAN_ID=0xFFFF                       #
#                          -DNWK_START_DELAY=100 -DEXTENDED_JOINING_RANDOM_MA #
#                          SK=0x007F -DBEACON_REQUEST_DELAY=100               #
#                          -DBEACON_REQ_DELAY_MASK=0x00FF                     #
#                          -DROUTE_EXPIRY_TIME=30 -DAPSC_ACK_WAIT_DURATION_PO #
#                          LLED=3000 -DNWK_INDIRECT_MSG_TIMEOUT=7             #
#                          -DMAX_RREQ_ENTRIES=8 -DAPSC_MAX_FRAME_RETRIES=3    #
#                          -DNWK_MAX_DATA_RETRIES=2                           #
#                          -DMAX_POLL_FAILURE_RETRIES=2 -DMAX_BCAST=9         #
#                          -DAPS_MAX_GROUPS=16 -DMAX_RTG_ENTRIES=40           #
#                          -DNWK_MAX_BINDING_ENTRIES=4                        #
#                          -DMAX_BINDING_CLUSTER_IDS=4 "-DDEFAULT_KEY={0x01,  #
#                          0x03, 0x05, 0x07, 0x09, 0x0B, 0x0D, 0x0F, 0x00,    #
#                          0x02, 0x04, 0x06, 0x08, 0x0A, 0x0C, 0x0D}"         #
#                          -DMAC_MAX_FRAME_SIZE=116 "-DCONST=const __code"    #
#                          -DGENERIC=__generic -DRFD_RCVC_ALWAYS_ON=TRUE      #
#                          -DPOLL_RATE=1000 -DQUEUED_POLL_RATE=100            #
#                          -DRESPONSE_POLL_RATE=100 -DREJOIN_POLL_RATE=440)   #
#                          -f "D:\Z-Stack¾ã²zCode\«n¶}¬ì¤j_Z-Stack_ZigbeeRout #
#                          er\XT200_PA_Z-Stack\ZStack-CC2530-2.3.0-1.4.0\Proj #
#                          ects\zstack\Sensor Network Application\ZIGBEE      #
#                          Coordinator & Router\CC2530DB\..\..\..\Tools\CC253 #
#                          0DB\f8wZCL.cfg" (-DZCL_READ -DZCL_WRITE            #
#                          -DZCL_BASIC -DZCL_IDENTIFY -DZCL_ON_OFF            #
#                          -DZCL_KEY_ESTABLISH -DZCL_LOAD_CONTROL             #
#                          -DZCL_SIMPLE_METERING -DZCL_PRICING)               #
#                          -DZCL_MESSAGE "D:\Z-Stack¾ã²zCode\«n¶}¬ì¤j_Z-Stack #
#                          _ZigbeeRouter\XT200_PA_Z-Stack\ZStack-CC2530-2.3.0 #
#                          -1.4.0\Projects\zstack\Sensor Network              #
#                          Application\ZIGBEE Coordinator &                   #
#                          Router\Source\OSAL_ZIGBEE Receiver.c" -D ZTOOL_P1  #
#                          -D MT_TASK -D MT_APP_FUNC -D MT_SYS_FUNC -D        #
#                          MT_ZDO_FUNC -D LCD_SUPPORTED=DEBUG -D              #
#                          Router_receiver -D HAL_KEYPAD -D PA2591 -lC        #
#                          "D:\Z-Stack¾ã²zCode\«n¶}¬ì¤j_Z-Stack_ZigbeeRouter\ #
#                          XT200_PA_Z-Stack\ZStack-CC2530-2.3.0-1.4.0\Project #
#                          s\zstack\Sensor Network Application\ZIGBEE         #
#                          Coordinator & Router\CC2530DB\Router_NB_PA\List\"  #
#                          -lA "D:\Z-Stack¾ã²zCode\«n¶}¬ì¤j_Z-Stack_ZigbeeRou #
#                          ter\XT200_PA_Z-Stack\ZStack-CC2530-2.3.0-1.4.0\Pro #
#                          jects\zstack\Sensor Network Application\ZIGBEE     #
#                          Coordinator & Router\CC2530DB\Router_NB_PA\List\"  #
#                          --diag_suppress Pe001,Pa010 -o                     #
#                          "D:\Z-Stack¾ã²zCode\«n¶}¬ì¤j_Z-Stack_ZigbeeRouter\ #
#                          XT200_PA_Z-Stack\ZStack-CC2530-2.3.0-1.4.0\Project #
#                          s\zstack\Sensor Network Application\ZIGBEE         #
#                          Coordinator & Router\CC2530DB\Router_NB_PA\Obj\"   #
#                          -e --require_prototypes --debug --core=plain       #
#                          --dptr=16,1 --data_model=large                     #
#                          --code_model=banked --calling_convention=xdata_ree #
#                          ntrant --place_constants=data_rom                  #
#                          --nr_virtual_regs 16 -I "D:\Z-Stack¾ã²zCode\«n¶}¬ì #
#                          ¤j_Z-Stack_ZigbeeRouter\XT200_PA_Z-Stack\ZStack-CC #
#                          2530-2.3.0-1.4.0\Projects\zstack\Sensor Network    #
#                          Application\ZIGBEE Coordinator &                   #
#                          Router\CC2530DB\" -I "D:\Z-Stack¾ã²zCode\«n¶}¬ì¤j_ #
#                          Z-Stack_ZigbeeRouter\XT200_PA_Z-Stack\ZStack-CC253 #
#                          0-2.3.0-1.4.0\Projects\zstack\Sensor Network       #
#                          Application\ZIGBEE Coordinator &                   #
#                          Router\CC2530DB\..\SOURCE\" -I                     #
#                          "D:\Z-Stack¾ã²zCode\«n¶}¬ì¤j_Z-Stack_ZigbeeRouter\ #
#                          XT200_PA_Z-Stack\ZStack-CC2530-2.3.0-1.4.0\Project #
#                          s\zstack\Sensor Network Application\ZIGBEE         #
#                          Coordinator & Router\CC2530DB\..\..\SOURCE\" -I    #
#                          "D:\Z-Stack¾ã²zCode\«n¶}¬ì¤j_Z-Stack_ZigbeeRouter\ #
#                          XT200_PA_Z-Stack\ZStack-CC2530-2.3.0-1.4.0\Project #
#                          s\zstack\Sensor Network Application\ZIGBEE         #
#                          Coordinator & Router\CC2530DB\..\..\..\ZMAIN\TI253 #
#                          0DB\" -I "D:\Z-Stack¾ã²zCode\«n¶}¬ì¤j_Z-Stack_Zigb #
#                          eeRouter\XT200_PA_Z-Stack\ZStack-CC2530-2.3.0-1.4. #
#                          0\Projects\zstack\Sensor Network                   #
#                          Application\ZIGBEE Coordinator &                   #
#                          Router\CC2530DB\..\..\..\..\..\COMPONENTS\MT\" -I  #
#                          "D:\Z-Stack¾ã²zCode\«n¶}¬ì¤j_Z-Stack_ZigbeeRouter\ #
#                          XT200_PA_Z-Stack\ZStack-CC2530-2.3.0-1.4.0\Project #
#                          s\zstack\Sensor Network Application\ZIGBEE         #
#                          Coordinator & Router\CC2530DB\..\..\..\..\..\COMPO #
#                          NENTS\HAL\INCLUDE\" -I "D:\Z-Stack¾ã²zCode\«n¶}¬ì¤ #
#                          j_Z-Stack_ZigbeeRouter\XT200_PA_Z-Stack\ZStack-CC2 #
#                          530-2.3.0-1.4.0\Projects\zstack\Sensor Network     #
#                          Application\ZIGBEE Coordinator &                   #
#                          Router\CC2530DB\..\..\..\..\..\COMPONENTS\HAL\TARG #
#                          ET\CC2530NB\" -I "D:\Z-Stack¾ã²zCode\«n¶}¬ì¤j_Z-St #
#                          ack_ZigbeeRouter\XT200_PA_Z-Stack\ZStack-CC2530-2. #
#                          3.0-1.4.0\Projects\zstack\Sensor Network           #
#                          Application\ZIGBEE Coordinator &                   #
#                          Router\CC2530DB\..\..\..\..\..\COMPONENTS\OSAL\MCU #
#                          \CCSOC\" -I "D:\Z-Stack¾ã²zCode\«n¶}¬ì¤j_Z-Stack_Z #
#                          igbeeRouter\XT200_PA_Z-Stack\ZStack-CC2530-2.3.0-1 #
#                          .4.0\Projects\zstack\Sensor Network                #
#                          Application\ZIGBEE Coordinator &                   #
#                          Router\CC2530DB\..\..\..\..\..\COMPONENTS\OSAL\INC #
#                          LUDE\" -I "D:\Z-Stack¾ã²zCode\«n¶}¬ì¤j_Z-Stack_Zig #
#                          beeRouter\XT200_PA_Z-Stack\ZStack-CC2530-2.3.0-1.4 #
#                          .0\Projects\zstack\Sensor Network                  #
#                          Application\ZIGBEE Coordinator &                   #
#                          Router\CC2530DB\..\..\..\..\..\COMPONENTS\STACK\AF #
#                          \" -I "D:\Z-Stack¾ã²zCode\«n¶}¬ì¤j_Z-Stack_ZigbeeR #
#                          outer\XT200_PA_Z-Stack\ZStack-CC2530-2.3.0-1.4.0\P #
#                          rojects\zstack\Sensor Network Application\ZIGBEE   #
#                          Coordinator & Router\CC2530DB\..\..\..\..\..\COMPO #
#                          NENTS\STACK\NWK\" -I "D:\Z-Stack¾ã²zCode\«n¶}¬ì¤j_ #
#                          Z-Stack_ZigbeeRouter\XT200_PA_Z-Stack\ZStack-CC253 #
#                          0-2.3.0-1.4.0\Projects\zstack\Sensor Network       #
#                          Application\ZIGBEE Coordinator &                   #
#                          Router\CC2530DB\..\..\..\..\..\COMPONENTS\STACK\SE #
#                          C\" -I "D:\Z-Stack¾ã²zCode\«n¶}¬ì¤j_Z-Stack_Zigbee #
#                          Router\XT200_PA_Z-Stack\ZStack-CC2530-2.3.0-1.4.0\ #
#                          Projects\zstack\Sensor Network Application\ZIGBEE  #
#                          Coordinator & Router\CC2530DB\..\..\..\..\..\COMPO #
#                          NENTS\STACK\SAPI\" -I "D:\Z-Stack¾ã²zCode\«n¶}¬ì¤j #
#                          _Z-Stack_ZigbeeRouter\XT200_PA_Z-Stack\ZStack-CC25 #
#                          30-2.3.0-1.4.0\Projects\zstack\Sensor Network      #
#                          Application\ZIGBEE Coordinator &                   #
#                          Router\CC2530DB\..\..\..\..\..\COMPONENTS\STACK\SY #
#                          S\" -I "D:\Z-Stack¾ã²zCode\«n¶}¬ì¤j_Z-Stack_Zigbee #
#                          Router\XT200_PA_Z-Stack\ZStack-CC2530-2.3.0-1.4.0\ #
#                          Projects\zstack\Sensor Network Application\ZIGBEE  #
#                          Coordinator & Router\CC2530DB\..\..\..\..\..\COMPO #
#                          NENTS\STACK\ZCL\" -I "D:\Z-Stack¾ã²zCode\«n¶}¬ì¤j_ #
#                          Z-Stack_ZigbeeRouter\XT200_PA_Z-Stack\ZStack-CC253 #
#                          0-2.3.0-1.4.0\Projects\zstack\Sensor Network       #
#                          Application\ZIGBEE Coordinator &                   #
#                          Router\CC2530DB\..\..\..\..\..\COMPONENTS\STACK\ZD #
#                          O\" -I "D:\Z-Stack¾ã²zCode\«n¶}¬ì¤j_Z-Stack_Zigbee #
#                          Router\XT200_PA_Z-Stack\ZStack-CC2530-2.3.0-1.4.0\ #
#                          Projects\zstack\Sensor Network Application\ZIGBEE  #
#                          Coordinator & Router\CC2530DB\..\..\..\..\..\COMPO #
#                          NENTS\ZMAC\F8W\" -I "D:\Z-Stack¾ã²zCode\«n¶}¬ì¤j_Z #
#                          -Stack_ZigbeeRouter\XT200_PA_Z-Stack\ZStack-CC2530 #
#                          -2.3.0-1.4.0\Projects\zstack\Sensor Network        #
#                          Application\ZIGBEE Coordinator &                   #
#                          Router\CC2530DB\..\..\..\..\..\COMPONENTS\ZMAC\"   #
#                          -I "D:\Z-Stack¾ã²zCode\«n¶}¬ì¤j_Z-Stack_ZigbeeRout #
#                          er\XT200_PA_Z-Stack\ZStack-CC2530-2.3.0-1.4.0\Proj #
#                          ects\zstack\Sensor Network Application\ZIGBEE      #
#                          Coordinator & Router\CC2530DB\..\..\..\..\..\COMPO #
#                          NENTS\SERVICES\SADDR\" -I                          #
#                          "D:\Z-Stack¾ã²zCode\«n¶}¬ì¤j_Z-Stack_ZigbeeRouter\ #
#                          XT200_PA_Z-Stack\ZStack-CC2530-2.3.0-1.4.0\Project #
#                          s\zstack\Sensor Network Application\ZIGBEE         #
#                          Coordinator & Router\CC2530DB\..\..\..\..\..\COMPO #
#                          NENTS\SERVICES\SDATA\" -I                          #
#                          "D:\Z-Stack¾ã²zCode\«n¶}¬ì¤j_Z-Stack_ZigbeeRouter\ #
#                          XT200_PA_Z-Stack\ZStack-CC2530-2.3.0-1.4.0\Project #
#                          s\zstack\Sensor Network Application\ZIGBEE         #
#                          Coordinator & Router\CC2530DB\..\..\..\..\..\COMPO #
#                          NENTS\MAC\INCLUDE\" -I "D:\Z-Stack¾ã²zCode\«n¶}¬ì¤ #
#                          j_Z-Stack_ZigbeeRouter\XT200_PA_Z-Stack\ZStack-CC2 #
#                          530-2.3.0-1.4.0\Projects\zstack\Sensor Network     #
#                          Application\ZIGBEE Coordinator &                   #
#                          Router\CC2530DB\..\..\..\..\..\COMPONENTS\MAC\HIGH #
#                          _LEVEL\" -I "D:\Z-Stack¾ã²zCode\«n¶}¬ì¤j_Z-Stack_Z #
#                          igbeeRouter\XT200_PA_Z-Stack\ZStack-CC2530-2.3.0-1 #
#                          .4.0\Projects\zstack\Sensor Network                #
#                          Application\ZIGBEE Coordinator &                   #
#                          Router\CC2530DB\..\..\..\..\..\COMPONENTS\MAC\LOW_ #
#                          LEVEL\srf04\" -I "D:\Z-Stack¾ã²zCode\«n¶}¬ì¤j_Z-St #
#                          ack_ZigbeeRouter\XT200_PA_Z-Stack\ZStack-CC2530-2. #
#                          3.0-1.4.0\Projects\zstack\Sensor Network           #
#                          Application\ZIGBEE Coordinator &                   #
#                          Router\CC2530DB\..\..\..\..\..\COMPONENTS\MAC\LOW_ #
#                          LEVEL\srf04\SINGLE_CHIP\" -I "C:\IAR               #
#                          Systems\Embedded Workbench MCS 51\8051\INC\" -I    #
#                          "C:\IAR Systems\Embedded Workbench MCS             #
#                          51\8051\INC\CLIB\" -Ohz                            #
#    List file          =  D:\Z-Stack¾ã²zCode\«n¶}¬ì¤j_Z-Stack_ZigbeeRouter\X #
#                          T200_PA_Z-Stack\ZStack-CC2530-2.3.0-1.4.0\Projects #
#                          \zstack\Sensor Network Application\ZIGBEE          #
#                          Coordinator & Router\CC2530DB\Router_NB_PA\List\OS #
#                          AL_ZIGBEE Receiver.lst                             #
#    Object file        =  D:\Z-Stack¾ã²zCode\«n¶}¬ì¤j_Z-Stack_ZigbeeRouter\X #
#                          T200_PA_Z-Stack\ZStack-CC2530-2.3.0-1.4.0\Projects #
#                          \zstack\Sensor Network Application\ZIGBEE          #
#                          Coordinator & Router\CC2530DB\Router_NB_PA\Obj\OSA #
#                          L_ZIGBEE Receiver.r51                              #
#                                                                             #
#                                                                             #
###############################################################################

D:\Z-Stack¾ã²zCode\«n¶}¬ì¤j_Z-Stack_ZigbeeRouter\XT200_PA_Z-Stack\ZStack-CC2530-2.3.0-1.4.0\Projects\zstack\Sensor Network Application\ZIGBEE Coordinator & Router\Source\OSAL_ZIGBEE Receiver.c
      1          /**************************************************************************************************
      2            Filename:       OSAL_ZIGBEE Receiver.c
      3            Revised:        $Date: 2008-02-07 12:10:00 -0800 (Thu, 07 Feb 2008) $
      4            Revision:       $Revision: 16360 $
      5          
      6            Description:    This file contains all the settings and other functions
      7                            that the user should set and change.
      8          
      9            Copyright 2006-2007 Texas Instruments Incorporated. All rights reserved.
     10          
     11            Should you have any questions regarding your right to use this Software,
     12            contact Texas Instruments Incorporated at www.TI.com.
     13          **************************************************************************************************/
     14          
     15          /*********************************************************************
     16           * INCLUDES
     17           */
     18          #include "ZComDef.h"
     19          
     20          /* HAL */
     21          #include "hal_drivers.h"
     22          #include "hal_uart.h"
     23          
     24          /* OSAL */
     25          #include "OSAL.h"
     26          #include "OSAL_Tasks.h"
     27          
     28          /* MT */
     29          #if defined ( MT_TASK )
     30            #include "MT.h"
     31            #include "MT_TASK.h"
     32          #endif
     33          
     34          /* NWK */
     35          #include "nwk.h"
     36          #include "APS.h"
     37          
     38          /* ZDO */
     39          #include "ZDApp.h"
     40          #if defined ( ZIGBEE_FREQ_AGILITY ) || defined ( ZIGBEE_PANID_CONFLICT )
     41            #include "ZDNwkMgr.h"
     42          #endif
     43          #if defined ( ZIGBEE_FRAGMENTATION )
     44            #include "aps_frag.h"
     45          #endif
     46          
     47          /* APP */
     48          #include "zcl_zigbee receiver.h"
     49          
     50          /*********************************************************************
     51           * GLOBAL VARIABLES
     52           */
     53          
     54          // The order in this table must be identical to the task initialization calls below in osalInitTask.

   \                                 In  segment XDATA_ROM_C, align 1
     55          const pTaskEventHandlerFn tasksArr[] = {
   \                     tasksArr:
   \   000000   ........     DW ??macEventLoop?relay, ??nwk_event_loop?relay
   \   000004   ........     DW ??Hal_ProcessEvent?relay, ??MT_ProcessEvent?relay
   \   000008   ........     DW ??APS_event_loop?relay, ??ZDApp_event_loop?relay
   \   00000C   ........     DW ??ZDNwkMgr_event_loop?relay, ??zcl_event_loop?relay
   \   000010   ....         DW ??zclZigbeeRecv_event_loop?relay
     56            macEventLoop,
     57            nwk_event_loop,
     58            Hal_ProcessEvent,
     59          #if defined( MT_TASK )
     60            MT_ProcessEvent,
     61          #endif
     62            APS_event_loop,
     63          #if defined ( ZIGBEE_FRAGMENTATION )
     64            APSF_ProcessEvent,
     65          #endif
     66            ZDApp_event_loop,
     67          #if defined ( ZIGBEE_FREQ_AGILITY ) || defined ( ZIGBEE_PANID_CONFLICT )
     68            ZDNwkMgr_event_loop,
     69          #endif
     70            zcl_event_loop,
     71            zclZigbeeRecv_event_loop,
     72          };
     73          

   \                                 In  segment XDATA_ROM_C, align 1
     74          const uint8 tasksCnt = sizeof( tasksArr ) / sizeof( tasksArr[0] );
   \                     tasksCnt:
   \   000000   09           DB 9

   \                                 In  segment XDATA_Z, align 1, keep-with-next
     75          uint16 *tasksEvents;
   \                     tasksEvents:
   \   000000                DS 2
   \   000002                REQUIRE __INIT_XDATA_Z
     76          
     77          /*********************************************************************
     78           * FUNCTIONS
     79           *********************************************************************/
     80          
     81          /*********************************************************************
     82           * @fn      osalInitTasks
     83           * @brief   This function invokes the initialization function for each task.
     84           * @param   void
     85           */

   \                                 In  segment BANKED_CODE, align 1, keep-with-next
     86          void osalInitTasks( void )
   \                     osalInitTasks:
     87          {
   \   000000   C082         PUSH    DPL
   \   000002   C083         PUSH    DPH
   \   000004                ; Saved register size: 2
   \   000004                ; Auto size: 0
     88            uint8 taskID = 0;
     89          
     90            tasksEvents = (uint16 *)osal_mem_alloc( sizeof( uint16 ) * tasksCnt);
   \   000004                ; Setup parameters for call to function osal_mem_alloc
   \   000004   7A12         MOV     R2,#0x12
   \   000006   7B00         MOV     R3,#0x0
   \   000008   12....       LCALL   ??osal_mem_alloc?relay
   \   00000B   90....       MOV     DPTR,#tasksEvents
   \   00000E   EA           MOV     A,R2
   \   00000F   F0           MOVX    @DPTR,A
   \   000010   A3           INC     DPTR
   \   000011   EB           MOV     A,R3
   \   000012   F0           MOVX    @DPTR,A
     91            osal_memset( tasksEvents, 0, (sizeof( uint16 ) * tasksCnt));
   \   000013                ; Setup parameters for call to function osal_memset
   \   000013   7C12         MOV     R4,#0x12
   \   000015   7D00         MOV     R5,#0x0
   \   000017   7900         MOV     R1,#0x0
   \   000019   12....       LCALL   ??osal_memset?relay
     92          
     93            macTaskInit( taskID++ );
   \   00001C                ; Setup parameters for call to function macTaskInit
   \   00001C   7900         MOV     R1,#0x0
   \   00001E   12....       LCALL   ??macTaskInit?relay
     94            nwk_init( taskID++ );
   \   000021                ; Setup parameters for call to function nwk_init
   \   000021   7901         MOV     R1,#0x1
   \   000023   12....       LCALL   ??nwk_init?relay
     95            Hal_Init( taskID++ );
   \   000026                ; Setup parameters for call to function Hal_Init
   \   000026   7902         MOV     R1,#0x2
   \   000028   12....       LCALL   ??Hal_Init?relay
     96          #if defined( MT_TASK )
     97            MT_TaskInit( taskID++ );
   \   00002B                ; Setup parameters for call to function MT_TaskInit
   \   00002B   7903         MOV     R1,#0x3
   \   00002D   12....       LCALL   ??MT_TaskInit?relay
     98          #endif
     99            APS_Init( taskID++ );
   \   000030                ; Setup parameters for call to function APS_Init
   \   000030   7904         MOV     R1,#0x4
   \   000032   12....       LCALL   ??APS_Init?relay
    100          #if defined ( ZIGBEE_FRAGMENTATION )
    101            APSF_Init( taskID++ );
    102          #endif
    103            ZDApp_Init( taskID++ );
   \   000035                ; Setup parameters for call to function ZDApp_Init
   \   000035   7905         MOV     R1,#0x5
   \   000037   12....       LCALL   ??ZDApp_Init?relay
    104          #if defined ( ZIGBEE_FREQ_AGILITY ) || defined ( ZIGBEE_PANID_CONFLICT )
    105            ZDNwkMgr_Init( taskID++ );
   \   00003A                ; Setup parameters for call to function ZDNwkMgr_Init
   \   00003A   7906         MOV     R1,#0x6
   \   00003C   12....       LCALL   ??ZDNwkMgr_Init?relay
    106          #endif
    107            zcl_Init( taskID++ );
   \   00003F                ; Setup parameters for call to function zcl_Init
   \   00003F   7907         MOV     R1,#0x7
   \   000041   12....       LCALL   ??zcl_Init?relay
    108            zclZigbeeRecv_Init( taskID );
   \   000044                ; Setup parameters for call to function zclZigbeeRecv_Init
   \   000044   7908         MOV     R1,#0x8
   \   000046   12....       LCALL   ??zclZigbeeRecv_Init?relay
    109          }
   \   000049   D083         POP     DPH
   \   00004B   D082         POP     DPL
   \   00004D   02....       LJMP    ?BRET

   \                                 In  segment BANK_RELAYS, align 1
   \                     ??osalInitTasks?relay:
   \   000000   12....       LCALL   ?BDISPATCH
   \   000003   ......       DC24    osalInitTasks
    110          
    111          /*********************************************************************
    112          *********************************************************************/

   Maximum stack usage in bytes:

     Function                ISTACK PSTACK XSTACK
     --------                ------ ------ ------
     osalInitTasks               2      0      0
       -> osal_mem_alloc         4      0      0
       -> osal_memset            4      0      0
       -> macTaskInit            4      0      0
       -> nwk_init               4      0      0
       -> Hal_Init               4      0      0
       -> MT_TaskInit            4      0      0
       -> APS_Init               4      0      0
       -> ZDApp_Init             4      0      0
       -> ZDNwkMgr_Init          4      0      0
       -> zcl_Init               4      0      0
       -> zclZigbeeRecv_Init     4      0      0


   Segment part sizes:

     Function/Label        Bytes
     --------------        -----
     tasksArr                18
     tasksCnt                 1
     tasksEvents              2
     osalInitTasks           80
     ??osalInitTasks?relay    6

 
 80 bytes in segment BANKED_CODE
  6 bytes in segment BANK_RELAYS
 19 bytes in segment XDATA_ROM_C
  2 bytes in segment XDATA_Z
 
 86 bytes of CODE  memory
 19 bytes of CONST memory
  2 bytes of XDATA memory

Errors: none
Warnings: none
